 MFC42u_original

 Timestamp is 38176ce0 (Wed Oct 27 14:21:36 1999)

 Preferred load address is 5f800000

 Start         Length     Name                   Class
 0001:00000000 00097523H .text                   CODE
 0002:00000000 000358e8H .rdata                  DATA
 0003:00000000 0000866cH .data                   DATA
 0004:00000000 0000a340H .rsrc                   DATA
 0005:00000000 0000ede4H .reloc                  DATA

  Address         Publics by Value              Rva+Base   Lib:Object

 0001:00000000       ?GetData@CThreadLocalObject@@QAEPAVCNoTrackObject@@P6GPAV2@XZ@Z 5f801000 f
 0001:0000007d       __EH_prolog                5f80107d f
 0001:00000083       ?AfxGetModuleState@@YGPAVAFX_MODULE_STATE@@XZ 5f801083 f
 0001:000000ab       ?GetData@CProcessLocalObject@@QAEPAVCNoTrackObject@@P6GPAV2@XZ@Z 5f8010ab f
 0001:000000f8       ?AfxGetThread@@YGPAVCWinThread@@XZ 5f8010f8 f
 0001:00000109       ?AfxGetModuleThreadState@@YGPAVAFX_MODULE_THREAD_STATE@@XZ 5f801109 f
 0001:00000120       ?AfxGetMainWnd@@YGPAVCWnd@@XZ 5f801120 f
 0001:00000135       ?GetMainWnd@CWinThread@@UAEPAVCWnd@@XZ 5f801135 f
 0001:00000152       ?FromHandle@CWnd@@SGPAV1@PAUHWND__@@@Z 5f801152 f
 0001:00000179       ?afxMapHWND@@YGPAVCHandleMap@@H@Z 5f801179 f
 0001:000001ed       ?FromHandle@CHandleMap@@QAEPAVCObject@@PAX@Z 5f8011ed f
 0001:0000029d       ?AttachControlSite@CWnd@@IAEXPAVCHandleMap@@@Z 5f80129d f
 0001:000002d2       ?GetValueAt@CMapPtrToPtr@@QBEPAXPAX@Z 5f8012d2 f
 0001:00000305       ?FromHandlePermanent@CWnd@@SGPAV1@PAUHWND__@@@Z 5f801305 f
 0001:00000320       ?GetTopLevelParent@CWnd@@QBEPAV1@XZ 5f801320 f
 0001:00000348       ?AfxGetParentOwner@@YGPAUHWND__@@PAU1@@Z 5f801348 f
 0001:0000038f       ?GetOwner@CWnd@@QBEPAV1@XZ 5f80138f f
 0001:000003a6       ?PumpMessage@CWinThread@@UAEHXZ 5f8013a6 f
 0001:000003e6       ?PreTranslateMessage@CWinThread@@UAEHPAUtagMSG@@@Z 5f8013e6 f
 0001:0000043d       ?WalkPreTranslateTree@CWnd@@SGHPAUHWND__@@PAUtagMSG@@@Z 5f80143d f
 0001:0000047f       ?IsIdleMessage@CWinThread@@UAEHPAUtagMSG@@@Z 5f80147f f
 0001:000004ef       ?PreTranslateMessage@CWnd@@UAEHPAUtagMSG@@@Z 5f8014ef f
 0001:00000508       ?PreTranslateMessage@CFrameWnd@@UAEHPAUtagMSG@@@Z 5f801508 f
 0001:0000057a       ?_FilterToolTipMessage@CWnd@@SGXPAUtagMSG@@PAV1@@Z 5f80157a f
 0001:0000058a       ?FilterToolTipMessage@CWnd@@QAEXPAUtagMSG@@@Z 5f80158a f
 0001:00000667       ?AfxLockGlobals@@YGXH@Z    5f801667 f
 0001:000006d8       ?AfxUnlockGlobals@@YGXH@Z  5f8016d8 f
 0001:000006f9       ?_AfxCbtFilterHook@@YGJHIJ@Z 5f8016f9 f
 0001:00000841       ??0AFX_MAINTAIN_STATE2@@QAE@PAVAFX_MODULE_STATE@@@Z 5f801841 f
 0001:00000868       ?AfxWndProcBase@@YGJPAUHWND__@@IIJ@Z 5f801868 f
 0001:000008b8       ?AfxWndProc@@YGJPAUHWND__@@IIJ@Z 5f8018b8 f
 0001:000008e6       ?AfxCallWndProc@@YGJPAVCWnd@@PAUHWND__@@IIJ@Z 5f8018e6 f
 0001:000009af       ?WindowProc@CWnd@@MAEJIIJ@Z 5f8019af f
 0001:000009f3       ?OnWndMsg@CWnd@@MAEHIIJPAJ@Z 5f8019f3 f
 0001:00000d6f       ?DefWindowProcW@CWnd@@MAEJIIJ@Z 5f801d6f f
 0001:00000d98       ?Default@CWnd@@IAEJXZ      5f801d98 f
 0001:00000d98       ?OnPaint@CCtrlView@@IAEXXZ 5f801d98 f
 0001:00000dbf       ?GetTopLevelFrame@CWnd@@QBEPAVCFrameWnd@@XZ 5f801dbf f
 0001:00000e06       ?GetParentFrame@CWnd@@QBEPAVCFrameWnd@@XZ 5f801e06 f
 0001:00000f08       ?OnCreateAggregates@CCmdTarget@@UAEHXZ 5f801f08 f
 0001:00000f0c       ?_AfxHandleSetCursor@@YGHPAVCWnd@@II@Z 5f801f0c f
 0001:00000f21       ?OnSetCursor@CFrameWnd@@IAEHPAVCWnd@@II@Z 5f801f21 f
 0001:00000f3e       ?AfxGetThreadState@@YGPAV_AFX_THREAD_STATE@@XZ 5f801f3e f
 0001:00000f4e       _memset                    5f801f4e f
 0001:00000f54       ??0CCmdTarget@@QAE@XZ      5f801f54 f
 0001:00000f9e       ??0CWnd@@QAE@XZ            5f801f9e f
 0001:00000fc0       ?InitInstance@CWinThread@@UAEHXZ 5f801fc0 f
 0001:00000fc3       ?Alloc@CFixedAlloc@@QAEPAXXZ 5f801fc3 f
 0001:0000103c       ?Free@CFixedAlloc@@QAEXPAX@Z 5f80203c f
 0001:00001068       ?AfxFindMessageEntry@@YGPBUAFX_MSGMAP_ENTRY@@PBU1@III@Z 5f802068 f
 0001:000010a8       ?GetMessageMap@CCmdTarget@@MBEPBUAFX_MSGMAP@@XZ 5f8020a8 f
 0001:000010ae       ?OnCmdMsg@CCmdTarget@@UAEHIHPAXPAUAFX_CMDHANDLERINFO@@@Z 5f8020ae f
 0001:0000112b       ?_AfxDispatchCmdMsg@@YGHPAVCCmdTarget@@IHP81@AEXXZPAXIPAUAFX_CMDHANDLERINFO@@@Z 5f80212b f
 0001:000011c3       ??0CCmdUI@@QAE@XZ          5f8021c3 f
 0001:000011e9       ??0CString@@QAE@XZ         5f8021e9 f
 0001:000011f9       ?AfxGetEmptyString@@YGABVCString@@XZ 5f8021f9 f
 0001:000011ff       ?AllocBuffer@CString@@IAEXH@Z 5f8021ff f
 0001:0000127e       _memcpy                    5f80227e f
 0001:00001284       ??1CString@@QAE@XZ         5f802284 f
 0001:000012ae       ?FreeData@CString@@KIXPAUCStringData@@@Z 5f8022ae f
 0001:000012f6       ?AfxDynamicDownCast@@YAPAVCObject@@PAUCRuntimeClass@@PAV1@@Z 5f8022f6 f
 0001:0000131b       ?IsKindOf@CObject@@QBEHPBUCRuntimeClass@@@Z 5f80231b f
 0001:0000132d       ?IsDerivedFrom@CRuntimeClass@@QBEHPBU1@@Z 5f80232d f
 0001:00001348       ?GetBuffer@CString@@QAEPAGH@Z 5f802348 f
 0001:0000139a       ?Release@CString@@KGXPAUCStringData@@@Z 5f80239a f
 0001:000013bf       ?ReleaseBuffer@CString@@QAEXH@Z 5f8023bf f
 0001:000013e8       ?CopyBeforeWrite@CString@@IAEXXZ 5f8023e8 f
 0001:000013fb       ?GetBufferSetLength@CString@@QAEPAGH@Z 5f8023fb f
 0001:0000141c       ?_GetBaseMessageMap@CCheckListBox@@KGPBUAFX_MSGMAP@@XZ 5f80241c f
 0001:00001422       ?WindowProc@CControlBar@@UAEJIIJ@Z 5f802422 f
 0001:00001481       ?GetMessageMap@CStatusBar@@MBEPBUAFX_MSGMAP@@XZ 5f802481 f
 0001:00001487       ?OnCmdMsg@CFrameWnd@@UAEHIHPAXPAUAFX_CMDHANDLERINFO@@@Z 5f802487 f
 0001:0000152f       ?GetActiveView@CFrameWnd@@QBEPAVCView@@XZ 5f80252f f
 0001:00001536       ?_GetBaseMessageMap@CCtrlView@@KGPBUAFX_MSGMAP@@XZ 5f802536 f
 0001:0000153c       ?_GetBaseMessageMap@CView@@KGPBUAFX_MSGMAP@@XZ 5f80253c f
 0001:00001542       ?GetRuntimeClass@CCmdTarget@@UBEPAUCRuntimeClass@@XZ 5f802542 f
 0001:00001548       ?OnCmdMsg@CView@@UAEHIHPAXPAUAFX_CMDHANDLERINFO@@@Z 5f802548 f
 0001:000015c5       ?OnCmdMsg@COleDocument@@UAEHIHPAXPAUAFX_CMDHANDLERINFO@@@Z 5f8025c5 f
 0001:0000160c       ?OnCmdMsg@CDocument@@UAEHIHPAXPAUAFX_CMDHANDLERINFO@@@Z 5f80260c f
 0001:0000164f       ?_GetBaseMessageMap@CDocument@@KGPBUAFX_MSGMAP@@XZ 5f80264f f
 0001:00001655       ?OnCmdMsg@CDocTemplate@@UAEHIHPAXPAUAFX_CMDHANDLERINFO@@@Z 5f802655 f
 0001:0000168c       ?GetRuntimeClass@COleObjectFactory@@UBEPAUCRuntimeClass@@XZ 5f80268c f
 0001:00001692       ?_GetBaseMessageMap@COleServerDoc@@KGPBUAFX_MSGMAP@@XZ 5f802692 f
 0001:00001698       ?DoUpdate@CCmdUI@@QAEHPAVCCmdTarget@@H@Z 5f802698 f
 0001:000016fb       ?_GetBaseMessageMap@CEditView@@KGPBUAFX_MSGMAP@@XZ 5f8026fb f
 0001:00001701       ?GetActiveDocument@CFrameWnd@@UAEPAVCDocument@@XZ 5f802701 f
 0001:00001711       ?GetDefaultAccelerator@CFrameWnd@@UAEPAUHACCEL__@@XZ 5f802711 f
 0001:00001737       ?GetDefaultAccelerator@COleServerDoc@@MAEPAUHACCEL__@@XZ 5f802737 f
 0001:0000175b       ?OnCommand@CWnd@@MAEHIJ@Z  5f80275b f
 0001:000017f4       ?OnCommand@CFrameWnd@@MAEHIJ@Z 5f8027f4 f
 0001:00001823       ?FreeDataChain@CPlex@@QAEXXZ 5f802823 f
 0001:0000183b       ?GetStyle@CWnd@@QBEKXZ     5f80283b f
 0001:0000186b       ??1CWnd@@UAE@XZ            5f80286b f
 0001:000018df       ??1CCmdTarget@@UAE@XZ      5f8028df f
 0001:00001920       ?RemoveAll@CMapPtrToPtr@@QAEXXZ 5f802920 f
 0001:0000194d       ?SendChildNotifyLastMsg@CWnd@@QAEHPAJ@Z 5f80294d f
 0001:0000197a       ?OnChildNotify@CWnd@@MAEHIIJPAJ@Z 5f80297a f
 0001:0000199e       ?ReflectChildNotify@CWnd@@IAEHIIJPAJ@Z 5f80299e f
 0001:00001a82       ?ReflectLastMsg@CWnd@@KGHPAUHWND__@@PAJ@Z 5f802a82 f
 0001:00001aea       ?GetMessageMap@CToolBar@@MBEPBUAFX_MSGMAP@@XZ 5f802aea f
 0001:00001af0       ?_GetBaseMessageMap@CReBar@@KGPBUAFX_MSGMAP@@XZ 5f802af0 f
 0001:00001af6       ?_GetBaseMessageMap@CControlBar@@KGPBUAFX_MSGMAP@@XZ 5f802af6 f
 0001:00001afc       ?GetMessageMap@CDockBar@@MBEPBUAFX_MSGMAP@@XZ 5f802afc f
 0001:00001b02       ?GetFirstViewPosition@CDocument@@UBEPAU__POSITION@@XZ 5f802b02 f
 0001:00001b06       ?GetNextView@CDocument@@UBEPAVCView@@AAPAU__POSITION@@@Z 5f802b06 f
 0001:00001b1a       ?AfxOleTermOrFreeLib@@YGXHH@Z 5f802b1a f
 0001:00001b62       ?DeleteTemp@CHandleMap@@QAEXXZ 5f802b62 f
 0001:00001bcb       ?SendMessageToDescendants@CWnd@@SGXPAUHWND__@@IIJHH@Z 5f802bcb f
 0001:00001c4a       ?GetFirstDocPosition@CSingleDocTemplate@@UBEPAU__POSITION@@XZ 5f802c4a f
 0001:00001c52       ?GetNextDoc@CSingleDocTemplate@@UBEPAVCDocument@@AAPAU__POSITION@@@Z 5f802c52 f
 0001:00001c66       ?GetWindowTextW@CWnd@@QBEXAAVCString@@@Z 5f802c66 f
 0001:00001ca4       ?OnIdleUpdateCmdUI@CControlBar@@QAEJIJ@Z 5f802ca4 f
 0001:00001d37       ?OnUpdateCmdUI@CStatusBar@@UAEXPAVCFrameWnd@@H@Z 5f802d37 f
 0001:00001dab       ?OnUpdateKeyIndicator@CFrameWnd@@IAEXPAVCCmdUI@@@Z 5f802dab f
 0001:00001df3       ?Enable@CStatusCmdUI@@UAEXH@Z 5f802df3 f
 0001:00001e2c       ?GetPaneStyle@CStatusBar@@QBEIH@Z 5f802e2c f
 0001:00001e3d       ?SetPaneStyle@CStatusBar@@QAEXHI@Z 5f802e3d f
 0001:00001e89       ?UpdateDialogControls@CWnd@@QAEXPAVCCmdTarget@@H@Z 5f802e89 f
 0001:00001f74       ?OnUpdateCmdUI@CDockBar@@MAEXPAVCFrameWnd@@H@Z 5f802f74 f
 0001:00001f77       ?OnUpdateCmdUI@CToolBar@@UAEXPAVCFrameWnd@@H@Z 5f802f77 f
 0001:00002023       ?_GetButton@CToolBar@@IBEXHPAU_TBBUTTON@@@Z 5f803023 f
 0001:00002042       ?Enable@CToolCmdUI@@UAEXH@Z 5f803042 f
 0001:00002082       ?GetButtonStyle@CToolBar@@QBEIH@Z 5f803082 f
 0001:000020a5       ?SetButtonStyle@CToolBar@@QAEXHI@Z 5f8030a5 f
 0001:000020f4       ?GetFirstDocTemplatePosition@CDocManager@@UBEPAU__POSITION@@XZ 5f8030f4 f
 0001:000020f8       ?GetNextDocTemplate@CDocManager@@UBEPAVCDocTemplate@@AAPAU__POSITION@@@Z 5f8030f8 f
 0001:00002108       ?SetCheck@CToolCmdUI@@UAEXH@Z 5f803108 f
 0001:00002149       ?OnIdleUpdateCmdUI@CFrameWnd@@IAEXXZ 5f803149 f
 0001:0000218f       ?OnNotify@CWnd@@MAEHIJPAJ@Z 5f80318f f
 0001:00002209       ?GetScrollBarCtrl@CView@@UBEPAVCScrollBar@@H@Z 5f803209 f
 0001:0000227e       ?GetParentSplitter@CView@@SGPAVCSplitterWnd@@PBVCWnd@@H@Z 5f80327e f
 0001:000022c2       ?GetScrollPos@CWnd@@QBEHH@Z 5f8032c2 f
 0001:000022ea       ?_GetBaseClass@CSplitterWnd@@KGPAUCRuntimeClass@@XZ 5f8032ea f
 0001:000022f0       ?_GetBaseClass@CByteArray@@KGPAUCRuntimeClass@@XZ 5f8032f0 f
 0001:000022f6       ?OnIdle@CWinApp@@UAEHJ@Z   5f8032f6 f
 0001:00002360       ?OnIdle@CWinThread@@UAEHJ@Z 5f803360 f
 0001:0000245e       ?OnIdle@CDocTemplate@@UAEXXZ 5f80345e f
 0001:0000248f       ?OnIdle@COleDocument@@UAEXXZ 5f80348f f
 0001:000024e5       ?AfxLockTempMaps@@YGXXZ    5f8034e5 f
 0001:000024ee       ?AfxUnlockTempMaps@@YGHH@Z 5f8034ee f
 0001:000025d5       ?OnUpdateCharBold@CRichEditView@@IAEXPAVCCmdUI@@@Z 5f8035d5 f
 0001:000025e5       ?OnUpdateCharEffect@CRichEditView@@QAEXPAVCCmdUI@@KK@Z 5f8035e5 f
 0001:0000261b       ?GetCharFormatSelection@CRichEditView@@QAEAAU_charformat@@XZ 5f80361b f
 0001:00002648       ?OnUpdateCharItalic@CRichEditView@@IAEXPAVCCmdUI@@@Z 5f803648 f
 0001:00002658       ?OnUpdateCharUnderline@CRichEditView@@IAEXPAVCCmdUI@@@Z 5f803658 f
 0001:00002668       ?OnUpdateParaLeft@CRichEditView@@IAEXPAVCCmdUI@@@Z 5f803668 f
 0001:00002676       ?OnUpdateParaAlign@CRichEditView@@QAEXPAVCCmdUI@@G@Z 5f803676 f
 0001:000026bd       ?GetParaFormatSelection@CRichEditView@@QAEAAU_paraformat@@XZ 5f8036bd f
 0001:000026ea       ?OnUpdateParaCenter@CRichEditView@@IAEXPAVCCmdUI@@@Z 5f8036ea f
 0001:000026f8       ?OnUpdateParaRight@CRichEditView@@IAEXPAVCCmdUI@@@Z 5f8036f8 f
 0001:00002706       ?OnUpdateBullet@CRichEditView@@IAEXPAVCCmdUI@@@Z 5f803706 f
 0001:00002732       ?GetDlgCtrlID@CWnd@@QBEHXZ 5f803732 f
 0001:00002747       ?AfxA2WHelper@@YGPAGPAGPBDH@Z 5f803747 f
 0001:00002770       ?OnUpdateNeedText@CRichEditView@@IAEXPAVCCmdUI@@@Z 5f803770 f
 0001:00002794       ?OnUpdateNeedSel@CRichEditView@@IAEXPAVCCmdUI@@@Z 5f803794 f
 0001:000027bf       ?GetSel@CRichEditCtrl@@QBEXAAJ0@Z 5f8037bf f
 0001:000027ec       ?OnUpdateEditPasteSpecial@CRichEditView@@IAEXPAVCCmdUI@@@Z 5f8037ec f
 0001:00002803       ?CanPaste@CRichEditView@@QBEHXZ 5f803803 f
 0001:0000282d       ?OnUpdateEditUndo@CEditView@@IAEXPAVCCmdUI@@@Z 5f80382d f
 0001:0000284b       ?OnKeyDown@CRichEditView@@IAEXIII@Z 5f80384b f
 0001:0000286a       ?GetParaFormat@CRichEditCtrl@@QBEKAAU_paraformat@@@Z 5f80386a f
 0001:00002888       ?OnSelChange@CRichEditView@@IAEXPAUtagNMHDR@@PAJ@Z 5f803888 f
 0001:000028a1       ?GetSelectionCharFormat@CRichEditCtrl@@QBEKAAU_charformat@@@Z 5f8038a1 f
 0001:000028bf       ??2@YAPAXI@Z               5f8038bf f
 0001:000028e8       ?AfxSetNewHandler@@YGP6AHI@ZP6AHI@Z@Z 5f8038e8 f
 0001:000028fc       ??ACMapPtrToPtr@@QAEAAPAXPAX@Z 5f8038fc f
 0001:0000294e       ?GetAssocAt@CMapPtrToPtr@@IBEPAUCAssoc@1@PAXAAI@Z 5f80394e f
 0001:00002980       ?NewAssoc@CMapPtrToPtr@@IAEPAUCAssoc@1@XZ 5f803980 f
 0001:000029cd       ?Create@CPlex@@SGPAU1@AAPAU1@II@Z 5f8039cd f
 0001:000029ed       ?CreateObject@CRuntimeClass@@QAEPAVCObject@@XZ 5f8039ed f
 0001:00002a25       ?GetSuperWndProcAddr@CWnd@@MAEPAP6GJPAUHWND__@@IIJ@ZXZ 5f803a25 f
 0001:00002a29       ?InitHashTable@CMapStringToString@@QAEXIH@Z 5f803a29 f
 0001:00002a67       ?CreateObject@CTempWnd@@SGPAVCObject@@XZ 5f803a67 f
 0001:00002aa7       ?AfxLoadString@@YGHIPAGI@Z 5f803aa7 f
 0001:00002be7       ??4CString@@QAEABV0@PBG@Z  5f803be7 f
 0001:00002c0e       ?AssignCopy@CString@@IAEXHPBG@Z 5f803c0e f
 0001:00002c41       ?AllocBeforeWrite@CString@@IAEXH@Z 5f803c41 f
 0001:00002c6a       ?SetWindowTextW@CWnd@@QAEXPBG@Z 5f803c6a f
 0001:00002cb2       ?Release@CString@@IAEXXZ   5f803cb2 f
 0001:00002cc4       ?Empty@CString@@QAEXXZ     5f803cc4 f
 0001:00002ccd       ??0CString@@QAE@PBG@Z      5f803ccd f
 0001:00002d1d       ?_AfxMsgFilterHook@@YGJHIJ@Z 5f803d1d f
 0001:00002d56       ?ProcessMessageFilter@CWinThread@@UAEHHPAUtagMSG@@@Z 5f803d56 f
 0001:00002dd9       ?FromHandle@CMenu@@SGPAV1@PAUHMENU__@@@Z 5f803dd9 f
 0001:00002dee       ?afxMapHMENU@@YGPAVCHandleMap@@H@Z 5f803dee f
 0001:00002e62       ?CreateObject@CTempMenu@@SGPAVCObject@@XZ 5f803e62 f
 0001:00002e7f       ?OnEnterIdle@CWnd@@IAEXIPAV1@@Z 5f803e7f f
 0001:00002eb7       ??0CString@@QAE@ABV0@@Z    5f803eb7 f
 0001:00002ede       ?ConcatCopy@CString@@IAEXHPBGH0@Z 5f803ede f
 0001:00002f1f       ?AfxGetFileName@@YGIPBGPAGI@Z 5f803f1f f
 0001:00002f72       ?UpdateAllPanes@CStatusBar@@IAEXHH@Z 5f803f72 f
 0001:000030ba       ?SetPaneText@CStatusBar@@QAEHHPBGH@Z 5f8040ba f
 0001:00003170       ?OnSetMessageString@CFrameWnd@@IAEJIJ@Z 5f804170 f
 0001:00003233       ?GetMessageBar@CFrameWnd@@UAEPAVCWnd@@XZ 5f804233 f
 0001:00003243       ?GetDescendantWindow@CWnd@@SGPAV1@PAUHWND__@@HH@Z 5f804243 f
 0001:000032bd       ?OnPaint@CStatusBar@@IAEXXZ 5f8042bd f
 0001:000032d2       ?SetMessageText@CFrameWnd@@QAEXI@Z 5f8042d2 f
 0001:000032e9       ?GetMessageString@CFrameWnd@@UBEXIAAVCString@@@Z 5f8042e9 f
 0001:00003331       ?OnSetText@CStatusBar@@IAEJIJ@Z 5f804331 f
 0001:0000335c       ?CommandToIndex@CStatusBar@@QBEHI@Z 5f80435c f
 0001:00003385       ?IsTracking@CFrameWnd@@QBEHXZ 5f804385 f
 0001:000033a4       ?OnMenuSelect@CFrameWnd@@IAEXIIPAUHMENU__@@@Z 5f8043a4 f
 0001:0000349f       ?OnSysCommand@CFrameWnd@@IAEXIJ@Z 5f80449f f
 0001:000034c8       ?OnInitMenu@CFrameWnd@@IAEXPAVCMenu@@@Z 5f8044c8 f
 0001:000034e1       ?OnInitMenuPopup@CFrameWnd@@IAEXPAVCMenu@@IH@Z 5f8044e1 f
 0001:00003605       ?AfxCancelModes@@YGXPAUHWND__@@@Z 5f804605 f
 0001:00003653       ?_AfxIsComboBoxControl@@YGHPAUHWND__@@I@Z 5f804653 f
 0001:0000367c       ?OnEnterIdle@CFrameWnd@@IAEXIPAVCWnd@@@Z 5f80467c f
 0001:000036ad       ?AfxGetFileTitle@@YGIPBGPAGI@Z 5f8046ad f
 0001:000036ea       _GetFileTitleW@12          5f8046ea f
 0001:000036f0       ?GetStartPosition@COleDocument@@UBEPAU__POSITION@@XZ 5f8046f0 f
 0001:000036f4       ?GetNextItemOfKind@COleDocument@@IBEPAVCDocItem@@AAPAU__POSITION@@PAUCRuntimeClass@@@Z 5f8046f4 f
 0001:0000370e       ?GetNextServerItem@COleDocument@@QBEPAVCOleServerItem@@AAPAU__POSITION@@@Z 5f80470e f
 0001:0000371f       ?GetStartPosition@CRichEditDoc@@UBEPAU__POSITION@@XZ 5f80471f f
 0001:00003738       ?UpdateAllItems@COleServerDoc@@QAEXPAVCOleServerItem@@JPAVCObject@@W4tagDVASPECT@@@Z 5f804738 f
 0001:00003762       ??1CDC@@UAE@XZ             5f804762 f
 0001:000037a4       ?PreInitDialog@CDialog@@MAEXXZ 5f8047a4 f
 0001:000037a5       ??0CDC@@QAE@XZ             5f8047a5 f
 0001:000037b9       ?afxMapHGDIOBJ@@YGPAVCHandleMap@@H@Z 5f8047b9 f
 0001:0000382d       ?_AfxHandleActivate@@YGXPAVCWnd@@I0@Z 5f80482d f
 0001:0000388e       ?SetWindowPos@CWnd@@QAEHPBV1@HHHHI@Z 5f80488e f
 0001:000038c5       ??3@YAXPAX@Z               5f8048c5 f
 0001:000038d1       ?DeleteObject@CGdiObject@@QAEHXZ 5f8048d1 f
 0001:000038e7       ?ShowWindow@CWnd@@QAEHH@Z  5f8048e7 f
 0001:00003902       ?ExternalAddRef@CCmdTarget@@QAEKXZ 5f804902 f
 0001:00003918       ?RemoveKey@CMapPtrToPtr@@QAEHPAX@Z 5f804918 f
 0001:0000395a       ?FreeAssoc@CMapWordToOb@@IAEXPAUCAssoc@1@@Z 5f80495a f
 0001:00003975       ?OnActivateView@CView@@MAEXHPAV1@0@Z 5f804975 f
 0001:00003995       ?GetNextAssoc@CMapPtrToPtr@@QBEXAAPAU__POSITION@@AAPAX1@Z 5f804995 f
 0001:00003a09       ??_GCTempWnd@@UAEPAXI@Z    5f804a09 f
 0001:00003a09       ??_ECTempWnd@@UAEPAXI@Z    5f804a09 f
 0001:00003a29       ??_GCTempMenu@@UAEPAXI@Z   5f804a29 f
 0001:00003a29       ??_ECTempMenu@@UAEPAXI@Z   5f804a29 f
 0001:00003a49       ??1CTempMenu@@UAE@XZ       5f804a49 f
 0001:00003a7c       ?DestroyMenu@CMenu@@QAEHXZ 5f804a7c f
 0001:00003a89       ?afxMapHDC@@YGPAVCHandleMap@@H@Z 5f804a89 f
 0001:00003afd       ?Detach@CDC@@QAEPAUHDC__@@XZ 5f804afd f
 0001:00003b2d       ?ReleaseAttribDC@CDC@@UAEXXZ 5f804b2d f
 0001:00003b32       ?DestroyWindow@CWnd@@UAEHXZ 5f804b32 f
 0001:00003b78       ?OnDestroy@CWnd@@IAEXXZ    5f804b78 f
 0001:00003b93       ?OnNcDestroy@CWnd@@IAEXXZ  5f804b93 f
 0001:00003c88       ?Detach@CWnd@@QAEPAUHWND__@@XZ 5f804c88 f
 0001:00003cb5       ?OnEndPrinting@CView@@MAEXPAVCDC@@PAUCPrintInfo@@@Z 5f804cb5 f
 0001:00003cb8       ?OnNcActivate@CFrameWnd@@IAEHH@Z 5f804cb8 f
 0001:00003cf1       ?IsWindowEnabled@CWnd@@QBEHXZ 5f804cf1 f
 0001:00003d06       ?OnActivate@CFrameWnd@@IAEXIPAVCWnd@@H@Z 5f804d06 f
 0001:00003de0       ?NotifyFloatingWindows@CFrameWnd@@QAEXK@Z 5f804de0 f
 0001:00003e78       ?AfxIsDescendant@@YGHPAUHWND__@@0@Z 5f804e78 f
 0001:00003e96       ?OnParentNotify@CWnd@@IAEXIJ@Z 5f804e96 f
 0001:00003ec5       ?AfxGlobalFree@@YGXPAX@Z   5f804ec5 f
 0001:00003efd       ?OnDeleteItem@CWnd@@IAEXHPAUtagDELETEITEMSTRUCT@@@Z 5f804efd f
 0001:00003f1d       ?MeasureItem@CComboBox@@UAEXPAUtagMEASUREITEMSTRUCT@@@Z 5f804f1d f
 0001:00003f20       ?SetSize@CObArray@@QAEXHH@Z 5f804f20 f
 0001:0000403a       ?SetAtGrow@CPtrArray@@QAEXHPAX@Z 5f80503a f
 0001:00004061       ?OnChildNotify@CComboBox@@MAEHIIJPAJ@Z 5f805061 f
 0001:000040b1       ?Attach@CWnd@@QAEHPAUHWND__@@@Z 5f8050b1 f
 0001:000040e9       ?FromHandle@CGdiObject@@SGPAV1@PAX@Z 5f8050e9 f
 0001:000040fe       ?AfxHookWindowCreate@@YGXPAVCWnd@@@Z 5f8050fe f
 0001:0000414b       ?AfxGetAfxWndProc@@YGP6GJPAUHWND__@@IIJ@ZXZ 5f80514b f
 0001:00004157       ?CreateObject@CTempGdiObject@@SGPAVCObject@@XZ 5f805157 f
 0001:00004174       ?CreateObject@CTempDC@@SGPAVCObject@@XZ 5f805174 f
 0001:0000419a       ?OnEraseBkgnd@CFrameWnd@@IAEHPAVCDC@@@Z 5f80519a f
 0001:000041b0       ?SetViewportOrg@CDC@@UAE?AVCPoint@@HH@Z 5f8051b0 f
 0001:000041f3       ??_GCTempGdiObject@@UAEPAXI@Z 5f8051f3 f
 0001:000041f3       ??_ECTempGdiObject@@UAEPAXI@Z 5f8051f3 f
 0001:00004213       ??1CTempGdiObject@@UAE@XZ  5f805213 f
 0001:00004246       ?Attach@CDC@@QAEHPAUHDC__@@@Z 5f805246 f
 0001:0000427c       ?SetAttribDC@CDC@@UAEXPAUHDC__@@@Z 5f80527c f
 0001:00004286       ?SetFocus@CWnd@@QAEPAV1@XZ 5f805286 f
 0001:000042a1       ?IsTopParentActive@CWnd@@QBEHXZ 5f8052a1 f
 0001:000042d5       ?AfxUnhookWindowCreate@@YGHXZ 5f8052d5 f
 0001:000042f5       ?LoadStringW@CString@@QAEHI@Z 5f8052f5 f
 0001:00004343       _memcmp                    5f805343 f
 0001:00004349       ?FromHandle@CDC@@SGPAV1@PAUHDC__@@@Z 5f805349 f
 0001:0000435e       ??_GCTempDC@@UAEPAXI@Z     5f80535e f
 0001:0000435e       ??_ECTempDC@@UAEPAXI@Z     5f80535e f
 0001:0000437e       ??YCString@@QAEABV0@ABV0@@Z 5f80537e f
 0001:00004396       ?ConcatInPlace@CString@@IAEXHPBG@Z 5f805396 f
 0001:000043fa       ?OnSetFocus@CFrameWnd@@IAEXPAVCWnd@@@Z 5f8053fa f
 0001:00004415       ?_mbstowcsz@@YAHPAGPBDI@Z  5f805415 f
 0001:00004446       ??1COleLinksDialog@@UAE@XZ 5f805446 f
 0001:0000444c       ??1CDialog@@UAE@XZ         5f80544c f
 0001:00004489       ??0CDialog@@QAE@IPAVCWnd@@@Z 5f805489 f
 0001:000044c2       ?GetMessageMap@CWnd@@MBEPBUAFX_MSGMAP@@XZ 5f8054c2 f
 0001:000044c8       ?OnNTCtlColor@CWnd@@IAEJIJ@Z 5f8054c8 f
 0001:0000450e       ?GrayCtlColor@CWnd@@SGHPAUHDC__@@PAUHWND__@@IPAUHBRUSH__@@K@Z 5f80550e f
 0001:00004534       ?OnCtlColor@CWnd@@IAEPAUHBRUSH__@@PAVCDC@@PAV1@I@Z 5f805534 f
 0001:0000455a       ?GetDlgItem@CWnd@@QBEPAV1@H@Z 5f80555a f
 0001:0000457b       ?AfxDlgProc@@YGHPAUHWND__@@IIJ@Z 5f80557b f
 0001:000045b4       ?OnCtlColor@CDialog@@IAEPAUHBRUSH__@@PAVCDC@@PAVCWnd@@I@Z 5f8055b4 f
 0001:000045c8       ?OnGrayCtlColor@CWnd@@QAEPAUHBRUSH__@@PAVCDC@@PAV1@I@Z 5f8055c8 f
 0001:00004629       ?OnCtlColor@CControlBar@@QAEPAUHBRUSH__@@PAVCDC@@PAVCWnd@@I@Z 5f805629 f
 0001:0000467d       ?GetMessageMap@CDialog@@MBEPBUAFX_MSGMAP@@XZ 5f80567d f
 0001:00004683       ?SaveDC@CDC@@UAEHXZ        5f805683 f
 0001:000046ae       ?RestoreDC@CDC@@UAEHH@Z    5f8056ae f
 0001:000046ed       ?InternalQueryInterface@CCmdTarget@@QAEKPBXPAPAX@Z 5f8056ed f
 0001:0000472f       ?GetInterface@CCmdTarget@@QAEPAUIUnknown@@PBX@Z 5f80572f f
 0001:000047e3       ?SetOccDialogInfo@CWnd@@MAEHPAU_AFX_OCC_DIALOG_INFO@@@Z 5f8057e3 f
 0001:00004808       ?ExternalRelease@CCmdTarget@@QAEKXZ 5f805808 f
 0001:00004813       ?InternalRelease@CCmdTarget@@QAEKXZ 5f805813 f
 0001:0000484d       ?QueryAggregates@CCmdTarget@@QAEPAUIUnknown@@PBX@Z 5f80584d f
 0001:00004887       ?_GetBaseInterfaceMap@COleLinkingDoc@@KGPBUAFX_INTERFACEMAP@@XZ 5f805887 f
 0001:0000488d       ?ExternalQueryInterface@CCmdTarget@@QAEKPBXPAPAX@Z 5f80588d f
 0001:000048a8       ?AddHead@CSimpleList@@QAEXPAX@Z 5f8058a8 f
 0001:000048bb       ??0CMapPtrToPtr@@QAE@H@Z   5f8058bb f
 0001:000048e2       ??0CPtrList@@QAE@H@Z       5f8058e2 f
 0001:00004905       __imp_load__OleInitialize@4 5f805905 f
 0001:0000490c       __tailMerge_ole32          5f80590c f
 0001:0000491a       ___delayLoadHelper@8       5f80591a f
 0001:00004a2b       ?OnActivateTopLevel@CWnd@@IAEJIJ@Z 5f805a2b f
 0001:00004a4f       ?RemoveAll@CObList@@QAEXXZ 5f805a4f f
 0001:00004a6f       ??1CPtrList@@UAE@XZ        5f805a6f f
 0001:00004aa2       ?Detach@CGdiObject@@QAEPAXXZ 5f805aa2 f
 0001:00004acb       ?GetNextClientItem@COleDocument@@QBEPAVCOleClientItem@@AAPAU__POSITION@@@Z 5f805acb f
 0001:00004adc       ?_AfxRelease@@YGKPAPAUIUnknown@@@Z 5f805adc f
 0001:00004af8       ?UpdateVisibleLock@COleLinkingDoc@@IAEXHH@Z 5f805af8 f
 0001:00004b34       ?LockExternal@COleLinkingDoc@@IAEXHH@Z 5f805b34 f
 0001:00004b7a       ?UpdateFrameCounts@CDocument@@UAEXXZ 5f805b7a f
 0001:00004c6d       ?Revoke@COleLinkingDoc@@QAEXXZ 5f805c6d f
 0001:00004cd1       ?DeleteContents@COleDocument@@UAEXXZ 5f805cd1 f
 0001:00004cfd       ?IsVisible@CControlBar@@UBEHXZ 5f805cfd f
 0001:00004d20       ?DeleteContents@COleServerDoc@@UAEXXZ 5f805d20 f
 0001:00004d8f       ?GetInterfaceHook@COleServerDoc@@MAEPAUIUnknown@@PBX@Z 5f805d8f f
 0001:00004db2       ?GetInterfaceMap@COleServerDoc@@MBEPBUAFX_INTERFACEMAP@@XZ 5f805db2 f
 0001:00004db8       ?QueryInterface@XPersistStorage@COleServerDoc@@UAGJABU_GUID@@PAPAX@Z 5f805db8 f
 0001:00004dd2       ?_GetBaseInterfaceMap@COleServerDoc@@KGPBUAFX_INTERFACEMAP@@XZ 5f805dd2 f
 0001:00004dd8       ?Release@XPersistStorage@COleServerDoc@@UAGKXZ 5f805dd8 f
 0001:00004dea       ?GetInterfaceMap@COleLinkingDoc@@MBEPBUAFX_INTERFACEMAP@@XZ 5f805dea f
 0001:00004df0       ?QueryInterface@XPersistFile@COleLinkingDoc@@UAGJABU_GUID@@PAPAX@Z 5f805df0 f
 0001:00004e0a       ?Release@XPersistFile@COleLinkingDoc@@UAGKXZ 5f805e0a f
 0001:00004e1c       ?AfxOleGetUserCtrl@@YGHXZ  5f805e1c f
 0001:00004e25       __imp_load__CoTaskMemFree@4 5f805e25 f
 0001:00004e31       __imp_load__RegSetValueExW@24 5f805e31 f
 0001:00004e3d       ??1CCommandLineInfo@@UAE@XZ 5f805e3d f
 0001:00004e9a       __DllMainCRTStartup@12     5f805e9a f
 0001:00004f3c       _RawDllMain@12             5f805f3c f
 0001:00004ffb       ?CreateObject@?$CThreadLocal@V_AFX_THREAD_STATE@@@@SGPAVCNoTrackObject@@XZ 5f805ffb f
 0001:0000502f       ??2CNoTrackObject@@SGPAXI@Z 5f80602f f
 0001:0000504c       ??0_AFX_THREAD_STATE@@QAE@XZ 5f80604c f
 0001:00005063       ?SetValue@CThreadSlotData@@QAEXHPAX@Z 5f806063 f
 0001:0000514b       __CRT_INIT@12              5f80614b f
 0001:00005201       ?CreateObject@?$CThreadLocal@VAFX_MODULE_THREAD_STATE@@@@SGPAVCNoTrackObject@@XZ 5f806201 f
 0001:00005235       ??0AFX_MODULE_THREAD_STATE@@QAE@XZ 5f806235 f
 0001:0000529a       _DllMain@12                5f80629a f
 0001:00005421       ?_AfxGetOleModuleState@@YGPAVAFX_MODULE_STATE@@XZ 5f806421 f
 0001:00005427       ?AfxSetModuleState@@YGPAVAFX_MODULE_STATE@@PAV1@@Z 5f806427 f
 0001:00005445       ?AfxDeleteObject@@YGXPAPAX@Z 5f806445 f
 0001:00005460       ?CancelToolTips@CWnd@@SGXH@Z 5f806460 f
 0001:0000548f       ?AddTail@CObList@@QAEPAU__POSITION@@PAVCObject@@@Z 5f80648f f
 0001:000054b8       ?NewNode@CObList@@IAEPAUCNode@1@PAU21@0@Z 5f8064b8 f
 0001:00005510       ?GetExStyle@CWnd@@QBEKXZ   5f806510 f
 0001:00005527       ?OnChangedViewList@CDocument@@UAEXXZ 5f806527 f
 0001:0000553f       ?GetDockedControlBar@CDockBar@@IBEPAVCControlBar@@H@Z 5f80653f f
 0001:0000555b       ?SetActiveView@CFrameWnd@@QAEXPAVCView@@H@Z 5f80655b f
 0001:000055ab       ?OnActivateTopLevel@CFrameWnd@@IAEJIJ@Z 5f8065ab f
 0001:00005625       ?ExitHelpMode@CFrameWnd@@UAEXXZ 5f806625 f
 0001:0000563d       ?OnShowWindow@CWnd@@IAEXHI@Z 5f80663d f
 0001:00005645       ?AllocElements@CStatusBar@@QAEHHH@Z 5f806645 f
 0001:000056aa       ?AllocElements@CControlBar@@QAEHHH@Z 5f8066aa f
 0001:000056e5       ?IsDockBar@CControlBar@@UBEHXZ 5f8066e5 f
 0001:000056e8       ?IsDockBar@CDockBar@@UBEHXZ 5f8066e8 f
 0001:000056ec       ??0CPtrArray@@QAE@XZ       5f8066ec f
 0001:00005703       __imp_load__RegCloseKey@4  5f806703 f
 0001:0000570a       __tailMerge_ADVAPI32       5f80670a f
 0001:00005718       ?ScreenToClient@CWnd@@QBEXPAUtagRECT@@@Z 5f806718 f
 0001:00005750       ??1CWinThread@@UAE@XZ      5f806750 f
 0001:000057a1       ?Remove@CSimpleList@@QAEHPAX@Z 5f8067a1 f
 0001:000057c9       ?DeleteValues@CThreadSlotData@@QAEXPAUHINSTANCE__@@H@Z 5f8067c9 f
 0001:00005822       ?DeleteValues@CThreadSlotData@@QAEXPAUCThreadData@@PAUHINSTANCE__@@@Z 5f806822 f
 0001:000058bf       ??_E_AFX_THREAD_STATE@@UAEPAXI@Z 5f8068bf f
 0001:000058bf       ??_G_AFX_THREAD_STATE@@UAEPAXI@Z 5f8068bf f
 0001:000058da       ??1_AFX_THREAD_STATE@@UAE@XZ 5f8068da f
 0001:00005944       ??3CNoTrackObject@@SGXPAX@Z 5f806944 f
 0001:00005958       ??_GAFX_MODULE_THREAD_STATE@@UAEPAXI@Z 5f806958 f
 0001:00005958       ??_EAFX_MODULE_THREAD_STATE@@UAEPAXI@Z 5f806958 f
 0001:00005973       ??1AFX_MODULE_THREAD_STATE@@UAE@XZ 5f806973 f
 0001:00005a45       ??1CMapPtrToPtr@@UAE@XZ    5f806a45 f
 0001:00005a78       ??1CHandleMap@@QAE@XZ      5f806a78 f
 0001:00005ab9       ??_G_AFX_CTL3D_THREAD@@UAEPAXI@Z 5f806ab9 f
 0001:00005ab9       ??_E_AFX_CTL3D_THREAD@@UAEPAXI@Z 5f806ab9 f
 0001:00005ad4       ??1_AFX_CTL3D_THREAD@@UAE@XZ 5f806ad4 f
 0001:00005b0c       ??_GCThreadData@@UAEPAXI@Z 5f806b0c f
 0001:00005b0c       ??_ECThreadData@@UAEPAXI@Z 5f806b0c f
 0001:00005b27       ??1_AFX_DB_STATE@@UAE@XZ   5f806b27 f
 0001:00005b28       ?GetDataNA@CThreadLocalObject@@QAEPAVCNoTrackObject@@XZ 5f806b28 f
 0001:00005b55       ?SaveModified@COleDocument@@UAEHXZ 5f806b55 f
 0001:00005b91       ?SaveModified@CDocument@@UAEHXZ 5f806b91 f
 0001:00005bbd       ?SaveModified@COleServerDoc@@MAEHXZ 5f806bbd f
 0001:00005bd6       ??0CFile@@QAE@XZ           5f806bd6 f
 0001:00005c16       ??0CArchive@@QAE@PAVCFile@@IHPAX@Z 5f806c16 f
 0001:00005cee       ?GetFilePath@CFile@@UBE?AVCString@@XZ 5f806cee f
 0001:00005d2e       ??0CFileStatus@@QAE@XZ     5f806d2e f
 0001:00005d4a       ??0CTimeSpan@@QAE@XZ       5f806d4a f
 0001:00005d4d       ?GetStatus@CFile@@QBEHAAUCFileStatus@@@Z 5f806d4d f
 0001:00005e2e       ?Close@CArchive@@QAEXXZ    5f806e2e f
 0001:00005e3c       ?Flush@CArchive@@QAEXXZ    5f806e3c f
 0001:00005ea1       ??1CArchive@@QAE@XZ        5f806ea1 f
 0001:00005ee0       ?Abort@CArchive@@QAEXXZ    5f806ee0 f
 0001:00005f1e       ??1CFile@@UAE@XZ           5f806f1e f
 0001:00005f6e       ?BeginWaitCursor@CCmdTarget@@QAEXXZ 5f806f6e f
 0001:00005f83       ?DoWaitCursor@CWinApp@@UAEXH@Z 5f806f83 f
 0001:00005fe2       ?EndWaitCursor@CCmdTarget@@QAEXXZ 5f806fe2 f
 0001:00005ff7       ?GetView@CRichEditDoc@@UBEPAVCRichEditView@@XZ 5f806ff7 f
 0001:00006036       ?IsModified@CRichEditDoc@@UAEHXZ 5f807036 f
 0001:00006051       ?DeleteContents@CRichEditDoc@@UAEXXZ 5f807051 f
 0001:000060be       ?UpdateModifiedFlag@CRichEditDoc@@UAEXXZ 5f8070be f
 0001:000060bf       ?GetLength@CFile@@UBEKXZ   5f8070bf f
 0001:000060ec       ?GetSectionKey@CWinApp@@QAEPAUHKEY__@@PBG@Z 5f8070ec f
 0001:00006132       ?GetAppRegistryKey@CWinApp@@QAEPAUHKEY__@@XZ 5f807132 f
 0001:000061c9       ??0CMemFile@@QAE@I@Z       5f8071c9 f
 0001:000061f9       ?GrowFile@CMemFile@@MAEXK@Z 5f8071f9 f
 0001:00006250       ?Alloc@CMemFile@@MAEPAEK@Z 5f807250 f
 0001:0000625e       ?Memcpy@CMemFile@@MAEPAEPAEPBEI@Z 5f80725e f
 0001:00006283       ?Seek@CMemFile@@UAEJJI@Z   5f807283 f
 0001:000062c1       ?GetBufferPtr@CMemFile@@UAEIIIPAPAX0@Z 5f8072c1 f
 0001:00006365       ?Serialize@CDockState@@UAEXAAVCArchive@@@Z 5f807365 f
 0001:00006487       ?Clear@CDockState@@QAEXXZ  5f807487 f
 0001:000064c3       ??1CMemFile@@UAE@XZ        5f8074c3 f
 0001:0000650f       ?Close@CMemFile@@UAEXXZ    5f80750f f
 0001:00006539       ?Free@CMemFile@@MAEXPAE@Z  5f807539 f
 0001:00006547       ??0CControlBarInfo@@QAE@XZ 5f807547 f
 0001:00006595       ?Serialize@CControlBarInfo@@QAEXAAVCArchive@@PAVCDockState@@@Z 5f807595 f
 0001:0000678c       ?GetVersion@CDockState@@QAEKXZ 5f80778c f
 0001:00006790       ?Enable@CCmdUI@@UAEXH@Z    5f807790 f
 0001:000067cd       ?OnUpdateRecentFileMenu@CWinApp@@IAEXPAVCCmdUI@@@Z 5f8077cd f
 0001:000067e7       ?UpdateMenu@CRecentFileList@@UAEXPAVCCmdUI@@@Z 5f8077e7 f
 0001:00006a07       ?GetMenuStringW@CMenu@@QBEHIAAVCString@@I@Z 5f807a07 f
 0001:00006a5d       ??0CTestCmdUI@@QAE@XZ      5f807a5d f
 0001:00006a76       ?OnUpdateFileExit@COleServerDoc@@IAEXPAVCCmdUI@@@Z 5f807a76 f
 0001:00006a87       ?UpdateUsingHostObj@COleServerDoc@@IAEXIPAVCCmdUI@@@Z 5f807a87 f
 0001:00006ab1       ?GetDisplayName@CRecentFileList@@QBEHAAVCString@@HPBGHH@Z 5f807ab1 f
 0001:00006bbe       ??H@YG?AVCString@@ABV0@0@Z 5f807bbe f
 0001:00006c24       ?_AfxAbbreviateName@@YGXPAGHH@Z 5f807c24 f
 0001:00006c58       ?OnUpdateFileSendMail@CDocument@@IAEXPAVCCmdUI@@@Z 5f807c58 f
 0001:00006ccc       ?OnCancelEditCntr@CRichEditView@@IAEXXZ 5f807ccc f
 0001:00006cd6       ?AfxOleCanExitApp@@YGHXZ   5f807cd6 f
 0001:00006ce6       ?AfxPostQuitMessage@@YGXH@Z 5f807ce6 f
 0001:00006d09       ?AfxOleTerm@@YGXH@Z        5f807d09 f
 0001:00006d64       ?FlushClipboard@COleDataSource@@SGXXZ 5f807d64 f
 0001:00006d72       ?GetClipboardOwner@COleDataSource@@SGPAV1@XZ 5f807d72 f
 0001:00006d93       ?CreateObject@?$CProcessLocal@V_AFX_OLE_STATE@@@@SGPAVCNoTrackObject@@XZ 5f807d93 f
 0001:00006dc4       ??0_AFX_OLE_STATE@@QAE@XZ  5f807dc4 f
 0001:00006dcd       ?RevokeAll@COleObjectFactory@@SGXXZ 5f807dcd f
 0001:00006e22       ?Revoke@COleObjectFactory@@QAEXXZ 5f807e22 f
 0001:00006e45       ?AfxOleUnlockAllControls@@YGXXZ 5f807e45 f
 0001:00006e6f       ?Disconnect@COleDispatchImpl@@UAEXXZ 5f807e6f f
 0001:00006e72       ?ExternalDisconnect@CCmdTarget@@QAEXXZ 5f807e72 f
 0001:00006e9f       ?ExitInstance@CWinApp@@UAEHXZ 5f807e9f f
 0001:00006ed5       ?SaveStdProfileSettings@CWinApp@@IAEXXZ 5f807ed5 f
 0001:00006ef7       ?AfxWinTerm@@YGXXZ         5f807ef7 f
 0001:00006f86       ??_ECOleMessageFilter@@UAEPAXI@Z 5f807f86 f
 0001:00006f86       ??_GCOleMessageFilter@@UAEPAXI@Z 5f807f86 f
 0001:00006fa2       ??1COleMessageFilter@@UAE@XZ 5f807fa2 f
 0001:00006fda       ?Revoke@COleMessageFilter@@QAEXXZ 5f807fda f
 0001:00006ff3       ?Release@XMessageFilter@COleMessageFilter@@UAGKXZ 5f807ff3 f
 0001:00007002       __imp_load__CoFreeUnusedLibraries@0 5f808002 f
 0001:0000700e       __imp_load__OleUninitialize@0 5f80800e f
 0001:00007057       ??1CWinApp@@UAE@XZ         5f808057 f
 0001:00007179       ??1COleObjectFactory@@UAE@XZ 5f808179 f
 0001:000071e0       ??_ECDynLinkLibrary@@UAEPAXI@Z 5f8081e0 f
 0001:000071e0       ??_GCDynLinkLibrary@@UAEPAXI@Z 5f8081e0 f
 0001:000071fc       ??1CDynLinkLibrary@@UAE@XZ 5f8081fc f
 0001:0000724c       ?AfxTermExtensionModule@@YGXAAUAFX_EXTENSION_MODULE@@H@Z 5f80824c f
 0001:0000728e       ?AfxTermLocalData@@YGXPAUHINSTANCE__@@H@Z 5f80828e f
 0001:000072a8       ?AfxResetMsgCache@@YGXXZ   5f8082a8 f
 0001:000072fe       ??1CThreadLocalObject@@QAE@XZ 5f8082fe f
 0001:00007321       ??1CProcessLocalObject@@QAE@XZ 5f808321 f
 0001:00007348       ?AfxEditviewTerm@@YAXXZ    5f808348 f
 0001:00007358       ??1AUX_DATA@@QAE@XZ        5f808358 f
 0001:00007362       ?AfxWingdixTerm@@YAXXZ     5f808362 f
 0001:00007372       ??1CUserException@@UAE@XZ  5f808372 f
 0001:0000737f       ??1CMemoryException@@UAE@XZ 5f80837f f
 0001:00007385       ??1CSimpleException@@UAE@XZ 5f808385 f
 0001:00007391       ??1CResourceException@@UAE@XZ 5f808391 f
 0001:000073a0       ?AfxTrackerTerm@@YAXXZ     5f8083a0 f
 0001:000073b5       ?_AfxWinminiTerm@@YAXXZ    5f8083b5 f
 0001:00007429       ??1CNotSupportedException@@UAE@XZ 5f808429 f
 0001:00007439       ??1AFX_MODULE_STATE@@UAE@XZ 5f808439 f
 0001:00007497       ?FreeSlot@CThreadSlotData@@QAEXH@Z 5f808497 f
 0001:00007508       ??_E_AFX_OLE_STATE@@UAEPAXI@Z 5f808508 f
 0001:00007508       ??_G_AFX_OLE_STATE@@UAEPAXI@Z 5f808508 f
 0001:00007523       ??1_AFX_OLE_STATE@@UAE@XZ  5f808523 f
 0001:0000753e       ??_E_AFX_CTL3D_STATE@@UAEPAXI@Z 5f80853e f
 0001:0000753e       ??_G_AFX_CTL3D_STATE@@UAEPAXI@Z 5f80853e f
 0001:00007559       ??1_AFX_CTL3D_STATE@@UAE@XZ 5f808559 f
 0001:000075e2       ??1CSessionMapPtrToPtr@@UAE@XZ 5f8085e2 f
 0001:00007631       ??1CSyncObject@@UAE@XZ     5f808631 f
 0001:0000766d       ??1CFixedAlloc@@QAE@XZ     5f80866d f
 0001:00007681       ?FreeAll@CFixedAlloc@@QAEXXZ 5f808681 f
 0001:00007725       ??_E_AFX_BASE_MODULE_STATE@@UAEPAXI@Z 5f808725 f
 0001:00007725       ??_G_AFX_BASE_MODULE_STATE@@UAEPAXI@Z 5f808725 f
 0001:00007768       ?AfxCriticalTerm@@YGXXZ    5f808768 f
 0001:000077b8       ?AfxTlsRelease@@YGXXZ      5f8087b8 f
 0001:000077e0       ??1CThreadSlotData@@QAE@XZ 5f8087e0 f
 0001:00007837       __imp_load__CoDisconnectObject@8 5f808837 f
 0001:00007843       ??_G_AFX_WIN_STATE@@UAEPAXI@Z 5f808843 f
 0001:00007843       ??_E_AFX_WIN_STATE@@UAEPAXI@Z 5f808843 f
 0001:0000785e       ??1_AFX_WIN_STATE@@UAE@XZ  5f80885e f
 0001:0000788b       ?OnAppExit@CWinApp@@IAEXXZ 5f80888b f
 0001:0000789e       ?OnClose@CFrameWnd@@IAEXXZ 5f80889e f
 0001:00007944       ?HideApplication@CWinApp@@QAEXXZ 5f808944 f
 0001:00007976       ?CloseAllDocuments@CWinApp@@QAEXH@Z 5f808976 f
 0001:0000798c       ?CloseAllDocuments@CDocManager@@UAEXH@Z 5f80898c f
 0001:000079ad       ?CloseAllDocuments@CDocTemplate@@UAEXH@Z 5f8089ad f
 0001:000079e0       ?OnCloseDocument@COleLinkingDoc@@UAEXXZ 5f8089e0 f
 0001:00007a40       ?OnCloseDocument@COleDocument@@UAEXXZ 5f808a40 f
 0001:00007a64       ?OnCloseDocument@CDocument@@UAEXXZ 5f808a64 f
 0001:00007ab3       ?OnDestroy@CFrameWnd@@IAEXXZ 5f808ab3 f
 0001:00007b00       ?DestroyDockBars@CFrameWnd@@QAEXXZ 5f808b00 f
 0001:00007b85       ?OnDestroy@CView@@IAEXXZ   5f808b85 f
 0001:00007bb4       ?PostNcDestroy@CView@@MAEXXZ 5f808bb4 f
 0001:00007bc0       ??1CScrollView@@UAE@XZ     5f808bc0 f
 0001:00007bc6       ??1CView@@UAE@XZ           5f808bc6 f
 0001:00007c17       ?RemoveView@CDocument@@QAEXPAVCView@@@Z 5f808c17 f
 0001:00007c46       ?Find@CObList@@QBEPAU__POSITION@@PAVCObject@@PAU2@@Z 5f808c46 f
 0001:00007c69       ?RemoveAt@CObList@@QAEXPAU__POSITION@@@Z 5f808c69 f
 0001:00007ca0       ?FreeNode@CObList@@IAEXPAUCNode@1@@Z 5f808ca0 f
 0001:00007cbb       ?PostNcDestroy@CFrameWnd@@MAEXXZ 5f808cbb f
 0001:00007cc7       ??1CFrameWnd@@UAE@XZ       5f808cc7 f
 0001:00007d44       ?RemoveFrameWnd@CFrameWnd@@IAEXXZ 5f808d44 f
 0001:00007d65       ??1COleLinkingDoc@@UAE@XZ  5f808d65 f
 0001:00007dbd       ?DisconnectViews@CDocument@@QAEXXZ 5f808dbd f
 0001:00007dcc       ??1COleDocument@@UAE@XZ    5f808dcc f
 0001:00007e39       ?AfxOleUnlockApp@@YGXXZ    5f808e39 f
 0001:00007e50       ?AfxOleOnReleaseAllObjects@@YGXXZ 5f808e50 f
 0001:00007e60       ??1CObList@@UAE@XZ         5f808e60 f
 0001:00007e93       ??1CDocument@@UAE@XZ       5f808e93 f
 0001:00007eff       ?RemoveDocument@CDocTemplate@@UAEXPAVCDocument@@@Z 5f808eff f
 0001:00007f0a       ?DestroyWindow@CControlBar@@UAEHXZ 5f808f0a f
 0001:00007f2a       ?IsFloating@CControlBar@@QBEHXZ 5f808f2a f
 0001:00007f42       ?OnDestroy@CControlBar@@QAEXXZ 5f808f42 f
 0001:00007f70       ?RemoveControlBar@CFrameWnd@@QAEXPAVCControlBar@@@Z 5f808f70 f
 0001:00007f91       ?PostNcDestroy@CControlBar@@UAEXXZ 5f808f91 f
 0001:00007fa3       ??_GCDockBar@@UAEPAXI@Z    5f808fa3 f
 0001:00007fa3       ??_ECDockBar@@UAEPAXI@Z    5f808fa3 f
 0001:00007fbf       ??1CDockBar@@UAE@XZ        5f808fbf f
 0001:00008030       ??1CControlBarInfo@@QAE@XZ 5f809030 f
 0001:00008033       ??1CPtrArray@@UAE@XZ       5f809033 f
 0001:0000806a       ??1CControlBar@@UAE@XZ     5f80906a f
 0001:000080ec       ??1CToolBar@@UAE@XZ        5f8090ec f
 0001:0000813d       ??1CDockContext@@QAE@XZ    5f80913d f
 0001:00008152       ??1CStatusBar@@UAE@XZ      5f809152 f
 0001:0000818d       ?WriteList@CRecentFileList@@UAEXXZ 5f80918d f
 0001:0000820e       ?WriteProfileStringW@CWinApp@@QAEHPBG00@Z 5f80920e f
 0001:000082a5       ??_ECDocManager@@UAEPAXI@Z 5f8092a5 f
 0001:000082d0       ??1CDocManager@@UAE@XZ     5f8092d0 f
 0001:00008343       ??1CSingleDocTemplate@@UAE@XZ 5f809343 f
 0001:00008349       ??1CDocTemplate@@UAE@XZ    5f809349 f
 0001:000083aa       ??_GCRecentFileList@@UAEPAXI@Z 5f8093aa f
 0001:000083aa       ??_ECRecentFileList@@UAEPAXI@Z 5f8093aa f
 0001:000083c6       ??1CRecentFileList@@UAE@XZ 5f8093c6 f
 0001:00008423       ??_ECString@@QAEPAXI@Z     5f809423 f
 0001:0000845b       ??_M@YGXPAXIHP6EX0@Z@Z     5f80945b f
 0001:000084ce       ?OnCloseDocument@COleServerDoc@@UAEXXZ 5f8094ce f
 0001:00008560       ?NotifyAllItems@COleServerDoc@@IAEXW4OLE_NOTIFICATION@@K@Z 5f809560 f
 0001:0000858a       ??1COleServerDoc@@UAE@XZ   5f80958a f
 0001:00008631       ?CanCloseFrame@COleServerDoc@@UAEHPAVCFrameWnd@@@Z 5f809631 f
 0001:00008656       ?CanCloseFrame@CDocument@@UAEHPAVCFrameWnd@@@Z 5f809656 f
 0001:0000869e       ?GetDockState@CFrameWnd@@QBEXAAVCDockState@@@Z 5f80969e f
 0001:00008719       ?GetBarInfo@CControlBar@@QAEXPAVCControlBarInfo@@@Z 5f809719 f
 0001:000087e1       ?GetBarInfo@CDockBar@@QAEXPAVCControlBarInfo@@@Z 5f8097e1 f
 0001:00008868       ?PreCloseFrame@CRichEditDoc@@UAEXPAVCFrameWnd@@@Z 5f809868 f
 0001:000088c9       ?OnDestroy@CRichEditView@@IAEXXZ 5f8098c9 f
 0001:000088e2       ?Release@XRichEditOleCallback@CRichEditView@@UAGKXZ 5f8098e2 f
 0001:000088f4       ??1CDWordArray@@UAE@XZ     5f8098f4 f
 0001:0000892b       ??1CComboBox@@UAE@XZ       5f80992b f
 0001:00008963       ?RemoveDocument@CSingleDocTemplate@@UAEXPAVCDocument@@@Z 5f809963 f
 0001:00008977       ?WriteProfileInt@CWinApp@@QAEHPBG0H@Z 5f809977 f
 0001:000089c6       ?WriteProfileBinary@CWinApp@@QAEHPBG0PAEI@Z 5f8099c6 f
 0001:00008a14       ??6CArchive@@QAEAAV0@M@Z   5f809a14 f
 0001:00008a3c       ?GetScreenSize@CDockState@@QAE?AVCSize@@XZ 5f809a3c f
 0001:00008a56       ?Write@CArchive@@QAEXPBXI@Z 5f809a56 f
 0001:00008a95       ??6CArchive@@QAEAAV0@G@Z   5f809a95 f
 0001:00008abb       ?Realloc@CMemFile@@MAEPAEPAEK@Z 5f809abb f
 0001:00008ace       ?Read@CMemFile@@UAEIPAXI@Z 5f809ace f
 0001:00008b13       __imp_load__RegDeleteKeyW@8 5f809b13 f
 0001:00008b1f       ??1CDockState@@UAE@XZ      5f809b1f f
 0001:00008b88       ??_E_AFX_RICHEDIT_STATE@@UAEPAXI@Z 5f809b88 f
 0001:00008b88       ??_G_AFX_RICHEDIT_STATE@@UAEPAXI@Z 5f809b88 f
 0001:00008ba3       ??1_AFX_RICHEDIT_STATE@@UAE@XZ 5f809ba3 f
 0001:00008bc3       ??1_AFX_EDIT_STATE@@UAE@XZ 5f809bc3 f
 0001:00008c02       ?_GetBaseMessageMap@CMiniFrameWnd@@KGPBUAFX_MSGMAP@@XZ 5f809c02 f
 0001:00008c08       ?DefWindowProcW@CMDIFrameWnd@@MAEJIIJ@Z 5f809c08 f
 0001:00008c26       ?OnCmdMsg@CMDIFrameWnd@@UAEHIHPAXPAUAFX_CMDHANDLERINFO@@@Z 5f809c26 f
 0001:00008cb7       ?MDIGetActive@CMDIFrameWnd@@QBEPAVCMDIChildWnd@@PAH@Z 5f809cb7 f
 0001:00008cfa       ?OnUpdateContextHelp@CFrameWnd@@IAEXPAVCCmdUI@@@Z 5f809cfa f
 0001:00008d29       ?DefWindowProcW@CMDIChildWnd@@MAEJIIJ@Z 5f809d29 f
 0001:00008d41       ?GetMDIFrame@CMDIChildWnd@@QAEPAVCMDIFrameWnd@@XZ 5f809d41 f
 0001:00008d58       ?PreTranslateMessage@CMDIFrameWnd@@UAEHPAUtagMSG@@@Z 5f809d58 f
 0001:00008e11       ?PreTranslateMessage@CMDIChildWnd@@UAEHPAUtagMSG@@@Z 5f809e11 f
 0001:00008e84       ?GetMessageMap@CSplitterWnd@@MBEPBUAFX_MSGMAP@@XZ 5f809e84 f
 0001:00008e8a       ?GetDefaultMenu@CDocument@@UAEPAUHMENU__@@XZ 5f809e8a f
 0001:00008e8d       ?OnIdleUpdateCmdUI@CMDIFrameWnd@@IAEXXZ 5f809e8d f
 0001:00008eae       ??0COleDataObject@@QAE@XZ  5f809eae f
 0001:00008ec2       ?AttachClipboard@COleDataObject@@QAEHXZ 5f809ec2 f
 0001:00008ec9       ?IsDataAvailable@COleDataObject@@QAEHGPAUtagFORMATETC@@@Z 5f809ec9 f
 0001:00008eec       ?Release@COleDataObject@@QAEXXZ 5f809eec f
 0001:00008f08       ?GetFirstDocPosition@CMultiDocTemplate@@UBEPAU__POSITION@@XZ 5f809f08 f
 0001:00008f0c       ?GetNextDoc@CMultiDocTemplate@@UBEPAVCDocument@@AAPAU__POSITION@@@Z 5f809f0c f
 0001:00008f1c       ?CanCreateFromData@COleClientItem@@SGHPBVCOleDataObject@@@Z 5f809f1c f
 0001:00008f34       ?CanPaste@COleClientItem@@SGHXZ 5f809f34 f
 0001:00008fb3       ?OnUpdateFrameTitle@CMDIFrameWnd@@UAEXH@Z 5f809fb3 f
 0001:0000906d       ?GetInterfaceMap@COleDropTarget@@MBEPBUAFX_INTERFACEMAP@@XZ 5f80a06d f
 0001:00009073       ?QueryInterface@XDropTarget@COleDropTarget@@UAGJABU_GUID@@PAPAX@Z 5f80a073 f
 0001:0000908a       ?_GetBaseInterfaceMap@COleDropTarget@@KGPBUAFX_INTERFACEMAP@@XZ 5f80a08a f
 0001:00009090       ?Release@XDropTarget@COleDropTarget@@UAGKXZ 5f80a090 f
 0001:0000909f       ?OnMDIActivate@CMDIChildWnd@@IAEXHPAVCWnd@@0@Z 5f80a09f f
 0001:00009155       ?UpdateClientEdge@CMDIChildWnd@@IAEHPAUtagRECT@@@Z 5f80a155 f
 0001:000091d3       ?OnUpdateFrameTitle@CMDIChildWnd@@MAEXH@Z 5f80a1d3 f
 0001:00009244       ?OnUpdateFrameMenu@CMDIChildWnd@@UAEXHPAVCWnd@@PAUHMENU__@@@Z 5f80a244 f
 0001:000092d0       ?OnNcActivate@CMDIChildWnd@@IAEHH@Z 5f80a2d0 f
 0001:000092d8       ?GetActiveFrame@CMDIFrameWnd@@UAEPAVCFrameWnd@@XZ 5f80a2d8 f
 0001:000092ec       ?GetInPlaceActiveItem@COleDocument@@UAEPAVCOleClientItem@@PAVCWnd@@@Z 5f80a2ec f
 0001:0000933d       ??4CString@@QAEABV0@PBD@Z  5f80a33d f
 0001:0000937d       ?GetMessageMap@CMDIChildWnd@@MBEPBUAFX_MSGMAP@@XZ 5f80a37d f
 0001:00009383       ??_GCMDIFrameWnd@@UAEPAXI@Z 5f80a383 f
 0001:00009383       ??_ECMDIFrameWnd@@UAEPAXI@Z 5f80a383 f
 0001:0000939f       ?SetText@CCmdUI@@UAEXPBG@Z 5f80a39f f
 0001:000093e9       ?OnCommand@CMDIFrameWnd@@MAEHIJ@Z 5f80a3e9 f
 0001:00009426       ?SaveAllModified@CWinApp@@UAEHXZ 5f80a426 f
 0001:00009439       ?SaveAllModified@CDocManager@@UAEHXZ 5f80a439 f
 0001:0000945e       ?SaveAllModified@CDocTemplate@@UAEHXZ 5f80a45e f
 0001:0000949a       ?UpdateModifiedFlag@COleDocument@@UAEXXZ 5f80a49a f
 0001:000094c2       ?PreCloseFrame@COleDocument@@UAEXPAVCFrameWnd@@@Z 5f80a4c2 f
 0001:00009519       ?DestroyWindow@CMDIChildWnd@@UAEHXZ 5f80a519 f
 0001:00009582       ?MDIDestroy@CMDIChildWnd@@QAEXXZ 5f80a582 f
 0001:000095a9       ?OnDestroy@CMDIChildWnd@@IAEXXZ 5f80a5a9 f
 0001:000095bc       ?Revoke@COleDropTarget@@UAEXXZ 5f80a5bc f
 0001:000095f6       __imp_load__RevokeDragDrop@4 5f80a5f6 f
 0001:00009602       ??1COleDropTarget@@UAE@XZ  5f80a602 f
 0001:0000963f       ?RemoveDocument@CMultiDocTemplate@@UAEXPAVCDocument@@@Z 5f80a63f f
 0001:00009667       ?OnDestroy@CMDIFrameWnd@@IAEXXZ 5f80a667 f
 0001:0000968d       ??1CMultiDocTemplate@@UAE@XZ 5f80a68d f
 0001:000096d6       ??1CSplitterWnd@@UAE@XZ    5f80a6d6 f
 0001:0000971e       ?OnPaletteChanged@CFrameWnd@@IAEXPAVCWnd@@@Z 5f80a71e f
 0001:00009735       ??_ECMultiDocTemplate@@UAEPAXI@Z 5f80a735 f
 0001:00009735       ??_GCMultiDocTemplate@@UAEPAXI@Z 5f80a735 f
 0001:00009751       ?PreTranslateInput@CWnd@@QAEHPAUtagMSG@@@Z 5f80a751 f
 0001:00009783       ??0CPoint@@QAE@UtagPOINT@@@Z 5f80a783 f
 0001:00009795       ?PreTranslateMessage@CControlBar@@UAEHPAUtagMSG@@@Z 5f80a795 f
 0001:00009833       ?SetAt@CAfxOleSymbolTable@@QAEXHPBG@Z 5f80a833 f
 0001:00009869       ?AfxGetModuleShortFileName@@YGXPAUHINSTANCE__@@AAVCString@@@Z 5f80a869 f
 0001:000098b8       ?QueryInterface@XClassFactory@COleObjectFactory@@UAGJABU_GUID@@PAPAX@Z 5f80a8b8 f
 0001:000098cf       ?GetInterfaceMap@COleObjectFactory@@MBEPBUAFX_INTERFACEMAP@@XZ 5f80a8cf f
 0001:000098d5       ?Release@XClassFactory@COleObjectFactory@@UAGKXZ 5f80a8d5 f
 0001:000098e4       __imp_load__CoRevokeClassObject@4 5f80a8e4 f
 0001:000098f0       __imp_load__CoRegisterClassObject@20 5f80a8f0 f
 0001:000098fc       ?AddRef@XClassFactory@COleObjectFactory@@UAGKXZ 5f80a8fc f
 0001:0000990d       ?AddRef@XPersistFile@COleLinkingDoc@@UAGKXZ 5f80a90d f
 0001:0000991f       ??0COleUpdateDialog@@QAE@PAVCOleDocument@@HHPAVCWnd@@@Z 5f80a91f f
 0001:0000998a       ??0COleLinksDialog@@QAE@PAVCOleDocument@@PAVCView@@KPAVCWnd@@@Z 5f80a98a f
 0001:00009a21       ??0COleDialog@@QAE@PAVCWnd@@@Z 5f80aa21 f
 0001:00009a3f       ??0COleUILinkInfo@@QAE@PAVCOleDocument@@@Z 5f80aa3f f
 0001:00009a5f       ?DoModal@COleUpdateDialog@@UAEHXZ 5f80aa5f f
 0001:00009a80       ?GetNextLink@COleUILinkInfo@@UAGKK@Z 5f80aa80 f
 0001:00009ab6       ??1COleUpdateDialog@@UAE@XZ 5f80aab6 f
 0001:00009af4       ?RunEmbedded@CWinApp@@QAEHXZ 5f80aaf4 f
 0001:00009b13       ?_AfxParseOption@@YGHPAGPBG@Z 5f80ab13 f
 0001:00009b82       ?Release@COleDispatchImpl@@UAGKXZ 5f80ab82 f
 0001:00009b91       ?PreTranslateMessage@CDialog@@UAEHPAUtagMSG@@@Z 5f80ab91 f
 0001:00009be2       ?IsDialogMessageW@CWnd@@QAEHPAUtagMSG@@@Z 5f80abe2 f
 0001:00009c00       ?GetInterfaceMap@CCmdTarget@@MBEPBUAFX_INTERFACEMAP@@XZ 5f80ac00 f
 0001:00009c06       ?QueryInterface@COleDispatchImpl@@UAGJABU_GUID@@PAPAX@Z 5f80ac06 f
 0001:00009c1d       ?EnableAutomation@CCmdTarget@@QAEXXZ 5f80ac1d f
 0001:00009c25       ?AddRef@COleDispatchImpl@@UAGKXZ 5f80ac25 f
 0001:00009c34       ?RunAutomated@CWinApp@@QAEHXZ 5f80ac34 f
 0001:00009c4c       ?AfxOleRegisterServerClass@@YGHABU_GUID@@PBG11W4OLE_APPTYPE@@PAPBG3H1@Z 5f80ac4c f
 0001:00009c75       ?Find@CString@@QBEHG@Z     5f80ac75 f
 0001:00009c83       ?Find@CString@@QBEHGH@Z    5f80ac83 f
 0001:00009c9c       ?Format@CString@@QAAXPBGZZ 5f80ac9c f
 0001:00009caf       ?FormatV@CString@@QAEXPBGPAD@Z 5f80acaf f
 0001:00009efe       ?AfxOleRegisterHelper@@YGHPBQBG0HHPAUHKEY__@@@Z 5f80aefe f
 0001:0000a03e       __imp_load__RegOpenKeyW@12 5f80b03e f
 0001:0000a04a       __imp_load__RegQueryValueW@16 5f80b04a f
 0001:0000a056       __imp_load__RegSetValueW@20 5f80b056 f
 0001:0000a062       ??1CAfxOleSymbolTable@@QAE@XZ 5f80b062 f
 0001:0000a08a       ?UpdateRegistryAll@COleObjectFactory@@SGHH@Z 5f80b08a f
 0001:0000a0f2       ?UpdateRegistry@COleObjectFactory@@MAEHH@Z 5f80b0f2 f
 0001:0000a106       ?UpdateRegistry@COleObjectFactory@@QAEXPBG@Z 5f80b106 f
 0001:0000a12e       ?CreateObject@CMDIChildWnd@@SGPAVCObject@@XZ 5f80b12e f
 0001:0000a163       ?GetRuntimeClass@CMDIChildWnd@@UBEPAUCRuntimeClass@@XZ 5f80b163 f
 0001:0000a169       ?_GetBaseClass@COleIPFrameWnd@@KGPAUCRuntimeClass@@XZ 5f80b169 f
 0001:0000a16f       ?LPtoDP@CDC@@QBEXPAUtagSIZE@@@Z 5f80b16f f
 0001:0000a1d8       _abs                       5f80b1d8 f
 0001:0000a1de       ?CalcWindowRect@CScrollView@@UAEXPAUtagRECT@@I@Z 5f80b1de f
 0001:0000a216       ?GetDefaultMenu@COleServerDoc@@MAEPAUHMENU__@@XZ 5f80b216 f
 0001:0000a23a       ?RectVisible@CDC@@UBEHPBUtagRECT@@@Z 5f80b23a f
 0001:0000a24a       ?RegisterShellFileTypes@CWinApp@@IAEXH@Z 5f80b24a f
 0001:0000a25c       ?RegisterShellFileTypes@CDocManager@@UAEXH@Z 5f80b25c f
 0001:0000a669       ?_AfxSetRegKey@@YGHPBG00@Z 5f80b669 f
 0001:0000a6f7       ??YCString@@QAEABV0@PBG@Z  5f80b6f7 f
 0001:0000a71e       __imp_load__RegCreateKeyW@12 5f80b71e f
 0001:0000a72a       ?OnFileNew@CWinApp@@IAEXXZ 5f80b72a f
 0001:0000a73d       ?OnFileNew@CDocManager@@UAEXXZ 5f80b73d f
 0001:0000a786       ?OpenDocumentFile@CMultiDocTemplate@@UAEPAVCDocument@@PBGH@Z 5f80b786 f
 0001:0000a819       ?AddDocument@CMultiDocTemplate@@UAEXPAVCDocument@@@Z 5f80b819 f
 0001:0000a835       ??0CMDIChildWnd@@QAE@XZ    5f80b835 f
 0001:0000a855       ?LoadFrame@CMDIChildWnd@@UAEHIKPAVCWnd@@PAUCCreateContext@@@Z 5f80b855 f
 0001:0000a924       ?PreCreateWindow@CMDIChildWnd@@UAEHAAUtagCREATESTRUCTW@@@Z 5f80b924 f
 0001:0000a930       ?Create@CMDIChildWnd@@UAEHPBG0KABUtagRECT@@PAVCMDIFrameWnd@@PAUCCreateContext@@@Z 5f80b930 f
 0001:0000aa40       ?OnNcCreate@CMDIChildWnd@@IAEHPAUtagCREATESTRUCTW@@@Z 5f80ba40 f
 0001:0000aa6f       ?OnCreate@CMDIChildWnd@@IAEHPAUtagCREATESTRUCTW@@@Z 5f80ba6f f
 0001:0000aa81       ?OnWindowPosChanging@CMDIChildWnd@@IAEXPAUtagWINDOWPOS@@@Z 5f80ba81 f
 0001:0000aaae       ?OnSize@CMDIChildWnd@@IAEXIHH@Z 5f80baae f
 0001:0000aad9       ??0CScrollView@@IAE@XZ     5f80bad9 f
 0001:0000ab00       ??0COleDropTarget@@QAE@XZ  5f80bb00 f
 0001:0000aba0       ?Register@COleDropTarget@@QAEHPAVCWnd@@@Z 5f80bba0 f
 0001:0000abfc       ?AddRef@XDropTarget@COleDropTarget@@UAGKXZ 5f80bbfc f
 0001:0000ac0b       __imp_load__RegisterDragDrop@8 5f80bc0b f
 0001:0000ac17       ?OnSize@CScrollView@@QAEXIHH@Z 5f80bc17 f
 0001:0000ac34       ?UpdateBars@CScrollView@@IAEXXZ 5f80bc34 f
 0001:0000ad6a       ?GetTrueClientSize@CScrollView@@IAEHAAVCSize@@0@Z 5f80bd6a f
 0001:0000ade2       ?GetScrollBarSizes@CScrollView@@IAEXAAVCSize@@@Z 5f80bde2 f
 0001:0000ae3f       ?GetScrollBarState@CScrollView@@IAEXVCSize@@AAV2@1AAVCPoint@@H@Z 5f80be3f f
 0001:0000aefd       ?GetDeviceScrollPosition@CScrollView@@QBE?AVCPoint@@XZ 5f80befd f
 0001:0000af35       ?ScrollToDevicePosition@CScrollView@@IAEXUtagPOINT@@@Z 5f80bf35 f
 0001:0000af87       ?SetScrollPos@CWnd@@QAEHHHH@Z 5f80bf87 f
 0001:0000afb7       ?ScrollWindow@CWnd@@QAEXHHPBUtagRECT@@0@Z 5f80bfb7 f
 0001:0000b00e       ?EnableScrollBarCtrl@CWnd@@QAEXHH@Z 5f80c00e f
 0001:0000b047       ?SetDefaultTitle@CMultiDocTemplate@@UAEXPAVCDocument@@@Z 5f80c047 f
 0001:0000b0d1       ?SetScrollSizes@CScrollView@@QAEXHUtagSIZE@@ABU2@1@Z 5f80c0d1 f
 0001:0000b206       ?ActivateFrame@CMDIChildWnd@@UAEXH@Z 5f80c206 f
 0001:0000b2b3       ?GetWindowMenuPopup@CMDIFrameWnd@@UAEPAUHMENU__@@PAU2@@Z 5f80c2b3 f
 0001:0000b321       ?OnQueryNewPalette@CFrameWnd@@IAEHXZ 5f80c321 f
 0001:0000b338       ?OnSize@CMDIFrameWnd@@IAEXIHH@Z 5f80c338 f
 0001:0000b34c       ?OnPaint@CView@@IAEXXZ     5f80c34c f
 0001:0000b3a0       ?OnPrepareDC@CScrollView@@UAEXPAVCDC@@PAUCPrintInfo@@@Z 5f80c3a0 f
 0001:0000b410       ?OnPrepareDC@CView@@UAEXPAVCDC@@PAUCPrintInfo@@@Z 5f80c410 f
 0001:0000b41f       ?SetViewportExt@CDC@@UAE?AVCSize@@HH@Z 5f80c41f f
 0001:0000b462       ?SetWindowExt@CDC@@UAE?AVCSize@@HH@Z 5f80c462 f
 0001:0000b4a5       ?GetMessageBar@CMDIChildWnd@@MAEPAVCWnd@@XZ 5f80c4a5 f
 0001:0000b4b4       ?AfxOleRegisterServerClass@@YGHABU_GUID@@PBG11W4OLE_APPTYPE@@PAPBG3H11@Z 5f80c4b4 f
 0001:0000b56c       ??0CAfxOleSymbolTable@@QAE@H@Z 5f80c56c f
 0001:0000b599       ?_AfxOleMakeSymbolTable@@YGHAAVCAfxOleSymbolTable@@ABU_GUID@@PBG22H22@Z 5f80c599 f
 0001:0000b720       __imp_load__StringFromCLSID@8 5f80c720 f
 0001:0000b72c       ??0CMultiDocTemplate@@QAE@IPAUCRuntimeClass@@00@Z 5f80c72c f
 0001:0000b795       ?LoadTemplate@CMultiDocTemplate@@UAEXXZ 5f80c795 f
 0001:0000b7db       ?AddDocTemplate@CWinApp@@QAEXPAVCDocTemplate@@@Z 5f80c7db f
 0001:0000b837       ??0CMDIFrameWnd@@QAE@XZ    5f80c837 f
 0001:0000b850       ?LoadFrame@CMDIFrameWnd@@UAEHIKPAVCWnd@@PAUCCreateContext@@@Z 5f80c850 f
 0001:0000b87f       ?PreCreateWindow@CMDIFrameWnd@@UAEHAAUtagCREATESTRUCTW@@@Z 5f80c87f f
 0001:0000b89f       ?OnCreateClient@CMDIFrameWnd@@UAEHPAUtagCREATESTRUCTW@@PAUCCreateContext@@@Z 5f80c89f f
 0001:0000b8eb       ?CreateClient@CMDIFrameWnd@@UAEHPAUtagCREATESTRUCTW@@PAVCMenu@@@Z 5f80c8eb f
 0001:0000b987       ?EnableShellOpen@CWinApp@@IAEXXZ 5f80c987 f
 0001:0000b9b1       __imp_load__ExtractIconW@12 5f80c9b1 f
 0001:0000b9bd       ?UpdateRegistry@COleTemplateServer@@QAEXW4OLE_APPTYPE@@PAPBG1@Z 5f80c9bd f
 0001:0000bb2f       ?GetFirstDocTemplatePosition@CWinApp@@QBEPAU__POSITION@@XZ 5f80cb2f f
 0001:0000bb42       ?GetNextDocTemplate@CWinApp@@QBEPAVCDocTemplate@@AAPAU__POSITION@@@Z 5f80cb42 f
 0001:0000bb54       ??0CSplitterWnd@@QAE@XZ    5f80cb54 f
 0001:0000bba6       ?Create@CSplitterWnd@@QAEHPAVCWnd@@HHUtagSIZE@@PAUCCreateContext@@KI@Z 5f80cba6 f
 0001:0000bc1c       ?CreateCommon@CSplitterWnd@@IAEHPAVCWnd@@UtagSIZE@@KI@Z 5f80cc1c f
 0001:0000bd1c       ?OnNcCreate@CSplitterWnd@@IAEHPAUtagCREATESTRUCTW@@@Z 5f80cd1c f
 0001:0000bd4e       ?OnSize@CSplitterWnd@@IAEXIHH@Z 5f80cd4e f
 0001:0000bd79       ?SetScrollStyle@CSplitterWnd@@QAEXK@Z 5f80cd79 f
 0001:0000be9e       ?GetScrollStyle@CSplitterWnd@@QBEKXZ 5f80ce9e f
 0001:0000beb4       ?CreateScrollBarCtrl@CSplitterWnd@@UAEHKI@Z 5f80ceb4 f
 0001:0000bef1       ?CreateView@CSplitterWnd@@UAEHHHPAUCRuntimeClass@@UtagSIZE@@PAUCCreateContext@@@Z 5f80cef1 f
 0001:0000bfd9       ?IdFromRowCol@CSplitterWnd@@QBEHHH@Z 5f80cfd9 f
 0001:0000bfec       ?GetRuntimeClass@CSplitterWnd@@UBEPAUCRuntimeClass@@XZ 5f80cfec f
 0001:0000bff2       ?RecalcLayout@CSplitterWnd@@UAEXXZ 5f80cff2 f
 0001:0000c2b5       ?GetInsideRect@CSplitterWnd@@MBEXAAVCRect@@@Z 5f80d2b5 f
 0001:0000c303       ?_AfxLayoutRowCol@@YGXPAUCRowColInfo@CSplitterWnd@@HHH@Z 5f80d303 f
 0001:0000c37e       ?GetSizingParent@CSplitterWnd@@IAEPAVCWnd@@XZ 5f80d37e f
 0001:0000c420       ?_AfxDeferClientPos@@YGXPAUAFX_SIZEPARENTPARAMS@@PAVCWnd@@HHHHH@Z 5f80d420 f
 0001:0000c505       ?GetRuntimeClass@CTempWnd@@UBEPAUCRuntimeClass@@XZ 5f80d505 f
 0001:0000c50b       ?GetPane@CSplitterWnd@@QBEPAVCWnd@@HH@Z 5f80d50b f
 0001:0000c527       ?DrawAllSplitBars@CSplitterWnd@@MAEXPAVCDC@@HH@Z 5f80d527 f
 0001:0000c689       ?OnDrawSplitter@CSplitterWnd@@MAEXPAVCDC@@W4ESplitType@1@ABVCRect@@@Z 5f80d689 f
 0001:0000c772       __imp_load__StgCreateDocfile@16 5f80d772 f
 0001:0000c77e       ?SetScrollInfo@CWnd@@QAEHHPAUtagSCROLLINFO@@H@Z 5f80d77e f
 0001:0000c7cb       ?SelectPalette@CDC@@QAEPAVCPalette@@PAV2@H@Z 5f80d7cb f
 0001:0000c7ed       ?OnPaint@CSplitterWnd@@IAEXXZ 5f80d7ed f
 0001:0000c90f       ?Draw3dRect@CDC@@QAEXPBUtagRECT@@KK@Z 5f80d90f f
 0001:0000c93a       ?Draw3dRect@CDC@@QAEXHHHHKK@Z 5f80d93a f
 0001:0000c9a4       ?FillSolidRect@CDC@@QAEXPBUtagRECT@@K@Z 5f80d9a4 f
 0001:0000c9ce       ?SetBkColor@CDC@@UAEKK@Z   5f80d9ce f
 0001:0000c9fa       ?DDX_Control@@YGXPAVCDataExchange@@HAAVCWnd@@@Z 5f80d9fa f
 0001:0000ca3f       ?HandleInComingCall@XMessageFilter@COleMessageFilter@@UAGKKPAUHTASK__@@KPAUtagINTERFACEINFO@@@Z 5f80da3f f
 0001:0000ca8e       ?InvokeHelperV@COleDispatchDriver@@QAEXJGGPAXPBEPAD@Z 5f80da8e f
 0001:0000cce8       ?AfxVariantInit@@YGXPAUtagVARIANT@@@Z 5f80dce8 f
 0001:0000ccfb       ?Invoke@COleDispatchImpl@@UAGJJABU_GUID@@KGPAUtagDISPPARAMS@@PAUtagVARIANT@@PAUtagEXCEPINFO@@PAI@Z 5f80dcfb f
 0001:0000cef6       ?IsInvokeAllowed@CCmdTarget@@UAEHJ@Z 5f80def6 f
 0001:0000cefc       ?GetDispEntry@CCmdTarget@@IAGPBUAFX_DISPMAP_ENTRY@@J@Z 5f80defc f
 0001:0000cf72       ?GetEntryCount@CCmdTarget@@KGIPBUAFX_DISPMAP@@@Z 5f80df72 f
 0001:0000cfa1       ?CallMemberFunc@CCmdTarget@@IAEJPBUAFX_DISPMAP_ENTRY@@GPAUtagVARIANT@@PAUtagDISPPARAMS@@PAI@Z 5f80dfa1 f
 0001:0000d18c       ?GetStackSize@CCmdTarget@@KGIPBEG@Z 5f80e18c f
 0001:0000d1d1       ?PushStackArgs@CCmdTarget@@IAEJPAEPBEPAXGPAUtagDISPPARAMS@@PAIPAUtagVARIANT@@@Z 5f80e1d1 f
 0001:0000d2db       __AfxDispatchCall@12       5f80e2db f
 0001:0000d2ec       ?InvokeHelper@COleDispatchDriver@@QAAXJGGPAXPBEZZ 5f80e2ec f
 0001:0000d30c       ?ContinueModal@CWnd@@UAEHXZ 5f80e30c f
 0001:0000d3f7       ?OnOK@CDialog@@MAEXXZ      5f80e3f7 f
 0001:0000d410       ?EndDialog@CDialog@@QAEXH@Z 5f80e410 f
 0001:0000d433       ?EndModalLoop@CWnd@@UAEXH@Z 5f80e433 f
 0001:0000d457       ?OnFinalRelease@CWnd@@UAEXXZ 5f80e457 f
 0001:0000d469       ?ReleaseDispatch@COleDispatchDriver@@QAEXXZ 5f80e469 f
 0001:0000d483       ??1CEdit@@UAE@XZ           5f80e483 f
 0001:0000d4bb       ??1CStatic@@UAE@XZ         5f80e4bb f
 0001:0000d4f3       ??0COleDispatchDriver@@QAE@XZ 5f80e4f3 f
 0001:0000d500       ?DoModal@CDialog@@UAEHXZ   5f80e500 f
 0001:0000d613       ?PrepareCtrl@CDataExchange@@QAEPAUHWND__@@H@Z 5f80e613 f
 0001:0000d641       ?GetDlgItem@CWnd@@QBEXHPAPAUHWND__@@@Z 5f80e641 f
 0001:0000d662       ?CreateDispatch@COleDispatchDriver@@QAEHABU_GUID@@PAVCOleException@@@Z 5f80e662 f
 0001:0000d6e6       __imp_load__CoCreateInstance@20 5f80e6e6 f
 0001:0000d6f2       __imp_load__OleRun@4       5f80e6f2 f
 0001:0000d6fe       ?CreateInstance@XClassFactory@COleObjectFactory@@UAGJPAUIUnknown@@ABU_GUID@@PAPAX@Z 5f80e6fe f
 0001:0000d71b       ?CreateInstanceLic@XClassFactory@COleObjectFactory@@UAGJPAUIUnknown@@0ABU_GUID@@PAGPAPAX@Z 5f80e71b f
 0001:0000d7ff       ?IsLicenseValid@COleObjectFactory@@QAEHXZ 5f80e7ff f
 0001:0000d81a       ?VerifyUserLicense@COleObjectFactory@@MAEHXZ 5f80e81a f
 0001:0000d81e       ?OnCreateObject@COleObjectFactory@@MAEPAVCCmdTarget@@XZ 5f80e81e f
 0001:0000d835       ?_AfxQueryInterface@@YGPAUIUnknown@@PAU1@ABU_GUID@@@Z 5f80e835 f
 0001:0000d859       ?SetProperty@COleDispatchDriver@@QAAXJGZZ 5f80e859 f
 0001:0000d897       __imp_load__VariantClear@4 5f80e897 f
 0001:0000d89e       __tailMerge_OLEAUT32       5f80e89e f
 0001:0000d8ac       ?GetProperty@COleDispatchDriver@@QBEXJGPAX@Z 5f80e8ac f
 0001:0000d8c8       __imp_load__VariantChangeType@16 5f80e8c8 f
 0001:0000d8d1       ?RunModalLoop@CWnd@@QAEHK@Z 5f80e8d1 f
 0001:0000d9e4       __imp_load__SysAllocString@4 5f80e9e4 f
 0001:0000d9f0       ?MessagePending@XMessageFilter@COleMessageFilter@@UAGKPAUHTASK__@@KK@Z 5f80e9f0 f
 0001:0000da64       ?OnMessagePending@COleMessageFilter@@UAEHPBUtagMSG@@@Z 5f80ea64 f
 0001:0000daac       ?EndModalState@CFrameWnd@@UAEXXZ 5f80eaac f
 0001:0000dad6       ??1CPrintInfo@@QAE@XZ      5f80ead6 f
 0001:0000db31       ??_GCPrintDialog@@UAEPAXI@Z 5f80eb31 f
 0001:0000db31       ??_ECPrintDialog@@UAEPAXI@Z 5f80eb31 f
 0001:0000db4d       ?CreatePrinterDC@CWinApp@@QAEHAAVCDC@@@Z 5f80eb4d f
 0001:0000db83       ?AfxCreateDC@@YGPAUHDC__@@PAX0@Z 5f80eb83 f
 0001:0000dbf1       ?DeleteDC@CDC@@QAEHXZ      5f80ebf1 f
 0001:0000dbfe       ?OnPrinterChanged@CRichEditView@@MAEXABVCDC@@@Z 5f80ebfe f
 0001:0000dc89       ?GetLBText@CComboBox@@QBEXHAAVCString@@@Z 5f80ec89 f
 0001:0000dccc       ?OnBeginPrinting@CRichEditView@@MAEXPAVCDC@@PAUCPrintInfo@@@Z 5f80eccc f
 0001:0000dcf8       ??0CPrintingDialog@@QAE@PAVCWnd@@@Z 5f80ecf8 f
 0001:0000dd4b       ?OnInitDialog@CPrintingDialog@@UAEHXZ 5f80ed4b f
 0001:0000dd6f       ?SetDlgItemTextW@CWnd@@QAEXHPBG@Z 5f80ed6f f
 0001:0000dd8e       ?AfxFormatString1@@YGXAAVCString@@IPBG@Z 5f80ed8e f
 0001:0000dda5       ?AfxFormatStrings@@YGXAAVCString@@IPBQBGH@Z 5f80eda5 f
 0001:0000dddf       ?OnPrepareDC@CRichEditView@@UAEXPAVCDC@@PAUCPrintInfo@@@Z 5f80eddf f
 0001:0000de18       ?OnPrint@CRichEditView@@MAEXPAVCDC@@PAUCPrintInfo@@@Z 5f80ee18 f
 0001:0000de83       ?PrintPage@CRichEditView@@QAEJPAVCDC@@JJ@Z 5f80ee83 f
 0001:0000df53       ?GetPageRect@CRichEditView@@QBE?AVCRect@@XZ 5f80ef53 f
 0001:0000df73       ?GetPrintRect@CRichEditView@@QBE?AVCRect@@XZ 5f80ef73 f
 0001:0000dfa4       ?_AfxAbortProc@@YGHPAUHDC__@@H@Z 5f80efa4 f
 0001:0000dfe8       ?PaginateTo@CRichEditView@@IAEHPAVCDC@@PAUCPrintInfo@@@Z 5f80efe8 f
 0001:0000e0c2       ?IntersectClipRect@CDC@@QAEHHHHH@Z 5f80f0c2 f
 0001:0000e0f9       ?OnEndPrinting@CRichEditView@@MAEXPAVCDC@@PAUCPrintInfo@@@Z 5f80f0f9 f
 0001:0000e121       ?CheckAutoCenter@CDialog@@UAEHXZ 5f80f121 f
 0001:0000e197       ?PreModal@CDialog@@IAEPAUHWND__@@XZ 5f80f197 f
 0001:0000e1d2       ?GetSafeOwner_@CWnd@@SGPAUHWND__@@PAU2@PAPAU2@@Z 5f80f1d2 f
 0001:0000e266       ?GetRoutingFrame_@CCmdTarget@@KGPAVCFrameWnd@@XZ 5f80f266 f
 0001:0000e272       ?Enable@CTestCmdUI@@UAEXH@Z 5f80f272 f
 0001:0000e283       ?OnFilePrint@CView@@IAEXXZ 5f80f283 f
 0001:0000e6bd       ??0CPrintInfo@@QAE@XZ      5f80f6bd f
 0001:0000e745       ?GetCurrentMessage@CWnd@@KGPBUtagMSG@@XZ 5f80f745 f
 0001:0000e77a       ?DoPreparePrinting@CView@@QAEHPAUCPrintInfo@@@Z 5f80f77a f
 0001:0000e80e       ?DoPrintDialog@CWinApp@@QAEHPAVCPrintDialog@@@Z 5f80f80e f
 0001:0000e873       ?GetDriverName@CPrintDialog@@QBE?AVCString@@XZ 5f80f873 f
 0001:0000e8a6       ?DoModal@CPrintDialog@@UAEHXZ 5f80f8a6 f
 0001:0000e8d4       ?GetRuntimeClass@CPrintDialog@@UBEPAUCRuntimeClass@@XZ 5f80f8d4 f
 0001:0000e8da       ?AfxFindResourceHandle@@YGPAUHINSTANCE__@@PBG0@Z 5f80f8da f
 0001:0000e9a2       ?AfxEndDeferRegisterClass@@YGHJ@Z 5f80f9a2 f
 0001:0000ec1b       ?_AfxInitCommonControls@@YGJPAUtagINITCOMMONCONTROLSEX@@J@Z 5f80fc1b f
 0001:0000ec64       ??4CString@@QAEABV0@ABV0@@Z 5f80fc64 f
 0001:0000ecb1       ?AfxFormatStrings@@YGXAAVCString@@PBGPBQBGH@Z 5f80fcb1 f
 0001:0000ed98       ?SetMapMode@CDC@@UAEHH@Z   5f80fd98 f
 0001:0000edc3       ?EnableWindow@CWnd@@QAEHH@Z 5f80fdc3 f
 0001:0000edde       ??0CFrameWnd@@QAE@XZ       5f80fdde f
 0001:0000eea4       ?AddFrameWnd@CFrameWnd@@IAEXXZ 5f80fea4 f
 0001:0000eec5       ?AfxRegisterClass@@YGHPAUtagWNDCLASSW@@@Z 5f80fec5 f
 0001:0000ef23       ?GetIconWndClass@CFrameWnd@@IAEPBGKI@Z 5f80ff23 f
 0001:0000efa6       ?AfxRegisterWndClass@@YGPBGIPAUHICON__@@PAUHBRUSH__@@0@Z 5f80ffa6 f
 0001:0000f03e       ?CreateEx@CWnd@@QAEHKPBG0KHHHHPAUHWND__@@PAUHMENU__@@PAX@Z 5f81003e f
 0001:0000f0f4       ?OnCreateHelper@CFrameWnd@@IAEHPAUtagCREATESTRUCTW@@PAUCCreateContext@@@Z 5f8100f4 f
 0001:0000f146       ?RecalcLayout@CFrameWnd@@UAEXH@Z 5f810146 f
 0001:0000f1c4       ?RepositionBars@CWnd@@QAEXIIIIPAUtagRECT@@PBU2@H@Z 5f8101c4 f
 0001:0000f2d1       ?CalcWindowRect@CWnd@@UAEXPAUtagRECT@@I@Z 5f8102d1 f
 0001:0000f2fc       ?AfxRepositionWindow@@YGXPAUAFX_SIZEPARENTPARAMS@@PAUHWND__@@PBUtagRECT@@@Z 5f8102fc f
 0001:0000f384       ?Create@CWnd@@UAEHPBG0KABUtagRECT@@PAV1@IPAUCCreateContext@@@Z 5f810384 f
 0001:0000f3d0       ?OnNcCalcSize@CToolBar@@IAEXHPAUtagNCCALCSIZE_PARAMS@@@Z 5f8103d0 f
 0001:0000f431       ?OnNcCalcSize@CStatusBar@@IAEXHPAUtagNCCALCSIZE_PARAMS@@@Z 5f810431 f
 0001:0000f473       ?OnSize@CStatusBar@@IAEXIHH@Z 5f810473 f
 0001:0000f48a       ?CalcInsideRect@CStatusBar@@QBEXAAVCRect@@H@Z 5f81048a f
 0001:0000f4fa       ??0CClientDC@@QAE@PAVCWnd@@@Z 5f8104fa f
 0001:0000f551       ??1CClientDC@@UAE@XZ       5f810551 f
 0001:0000f593       ?OnNcCalcSize@CDockBar@@IAEXHPAUtagNCCALCSIZE_PARAMS@@@Z 5f810593 f
 0001:0000f5d9       ?OnWindowPosChanging@CToolBar@@IAEXPAUtagWINDOWPOS@@@Z 5f8105d9 f
 0001:0000f616       ?OnWindowPosChanging@CControlBar@@QAEXPAUtagWINDOWPOS@@@Z 5f810616 f
 0001:0000f685       ?Attach@CGdiObject@@QAEHPAX@Z 5f810685 f
 0001:0000f6b1       ?CreateNewDocument@CDocTemplate@@UAEPAVCDocument@@XZ 5f8106b1 f
 0001:0000f6dc       ??0COleLinkingDoc@@QAE@XZ  5f8106dc f
 0001:0000f751       ??0COleDocument@@QAE@XZ    5f810751 f
 0001:0000f7b6       ??0CDocument@@QAE@XZ       5f8107b6 f
 0001:0000f81a       ??0CObList@@QAE@H@Z        5f81081a f
 0001:0000f83d       ?AfxOleLockApp@@YGXXZ      5f81083d f
 0001:0000f84d       ?AddDocument@CDocTemplate@@UAEXPAVCDocument@@@Z 5f81084d f
 0001:0000f857       ?CreateNewFrame@CDocTemplate@@UAEPAVCFrameWnd@@PAVCDocument@@PAV2@@Z 5f810857 f
 0001:0000f8c4       ?PreCreateWindow@CFrameWnd@@MAEHAAUtagCREATESTRUCTW@@@Z 5f8108c4 f
 0001:0000f908       ??0CView@@IAE@XZ           5f810908 f
 0001:0000f91e       ?PreCreateWindow@CView@@MAEHAAUtagCREATESTRUCTW@@@Z 5f81091e f
 0001:0000f95f       ?OnCreate@CView@@IAEHPAUtagCREATESTRUCTW@@@Z 5f81095f f
 0001:0000f98f       ?AddView@CDocument@@QAEXPAVCView@@@Z 5f81098f f
 0001:0000f9af       ?OnSizeParent@CControlBar@@QAEJIJ@Z 5f8109af f
 0001:0000fafd       ?RecalcDelayShow@CControlBar@@UAEKPAUAFX_SIZEPARENTPARAMS@@@Z 5f810afd f
 0001:0000fb2d       ?ModifyStyleEx@CWnd@@QAEHKKI@Z 5f810b2d f
 0001:0000fb50       ?CalcDynamicLayout@CControlBar@@UAE?AVCSize@@HK@Z 5f810b50 f
 0001:0000fb73       ?ModifyStyleEx@CWnd@@SGHPAUHWND__@@KKI@Z 5f810b73 f
 0001:0000fb8d       ?CalcFixedLayout@CStatusBar@@UAE?AVCSize@@HH@Z 5f810b8d f
 0001:0000fc52       ?OnSizeParent@CDockBar@@IAEJIJ@Z 5f810c52 f
 0001:0000fcb8       ?CalcFixedLayout@CDockBar@@UAE?AVCSize@@HH@Z 5f810cb8 f
 0001:0000ff56       ?OnSize@CFrameWnd@@IAEXIHH@Z 5f810f56 f
 0001:0000ff75       ?CalcFixedLayout@CToolBar@@UAE?AVCSize@@HH@Z 5f810f75 f
 0001:0000ff9e       ?OnWindowPosChanging@CStatusBar@@IAEXPAUtagWINDOWPOS@@@Z 5f810f9e f
 0001:0000ffbe       ?_GetBaseClass@CCtrlView@@KGPAUCRuntimeClass@@XZ 5f810fbe f
 0001:0000ffc4       ?OnNewDocument@COleLinkingDoc@@UAEHXZ 5f810fc4 f
 0001:0000fff5       ?OnNewDocument@COleDocument@@UAEHXZ 5f810ff5 f
 0001:00010046       ?OnNewDocument@CDocument@@UAEHXZ 5f811046 f
 0001:0001006b       ??0CWindowDC@@QAE@PAVCWnd@@@Z 5f81106b f
 0001:000100c0       ??1CWindowDC@@UAE@XZ       5f8110c0 f
 0001:00010102       ?EraseNonClient@CControlBar@@QAEXXZ 5f811102 f
 0001:00010102       ?OnNcPaint@CToolBar@@IAEXXZ 5f811102 f
 0001:000101cf       ?ExcludeClipRect@CDC@@QAEHPBUtagRECT@@@Z 5f8111cf f
 0001:00010207       ?IntersectClipRect@CDC@@QAEHPBUtagRECT@@@Z 5f811207 f
 0001:0001023f       ?OnPaint@CDockBar@@IAEXXZ  5f81123f f
 0001:0001029f       ?GetDockedVisibleCount@CDockBar@@UBEHXZ 5f81129f f
 0001:000102dc       ?DoPaint@CDockBar@@UAEXPAVCDC@@@Z 5f8112dc f
 0001:000102df       ??0COleServerDoc@@QAE@XZ   5f8112df f
 0001:00010384       ?OnCreateClient@CFrameWnd@@MAEHPAUtagCREATESTRUCTW@@PAUCCreateContext@@@Z 5f811384 f
 0001:000103a6       ?CreateView@CFrameWnd@@QAEPAVCWnd@@PAUCCreateContext@@I@Z 5f8113a6 f
 0001:00010422       ?AfxTlsAddRef@@YGXXZ       5f811422 f
 0001:00010429       ?AfxCriticalInit@@YGHXZ    5f811429 f
 0001:00010463       ??0CThreadSlotData@@QAE@XZ 5f811463 f
 0001:000104a4       ?AllocSlot@CThreadSlotData@@QAEHXZ 5f8114a4 f
 0001:00010569       __initterm                 5f811569 f
 0001:00010592       ??0CFixedAlloc@@QAE@II@Z   5f811592 f
 0001:000105ba       _atexit                    5f8115ba f
 0001:000105cc       __onexit                   5f8115cc f
 0001:000105f0       ___dllonexit               5f8115f0 f
 0001:00010739       ??0CSessionMapPtrToPtr@@QAE@XZ 5f811739 f
 0001:00010788       ??0CSyncObject@@QAE@PBG@Z  5f811788 f
 0001:00010887       ??0AFX_MODULE_STATE@@QAE@HP6GJPAUHWND__@@IIJ@ZKH@Z 5f811887 f
 0001:0001093d       ??0CMemoryException@@QAE@HI@Z 5f81193d f
 0001:00010967       ??0CException@@QAE@H@Z     5f811967 f
 0001:0001099c       ??0CNotSupportedException@@QAE@HI@Z 5f81199c f
 0001:000109d1       ?AfxClassInit@@YGXPAUCRuntimeClass@@@Z 5f8119d1 f
 0001:00010a89       ??0CWnd@@AAE@PAUHWND__@@@Z 5f811a89 f
 0001:00010bc2       ??0CResourceException@@QAE@HI@Z 5f811bc2 f
 0001:00010c0f       ??0CUserException@@QAE@HI@Z 5f811c0f f
 0001:00010c60       ??0AUX_DATA@@QAE@XZ        5f811c60 f
 0001:00010cfb       ?UpdateSysMetrics@AUX_DATA@@QAEXXZ 5f811cfb f
 0001:00010d50       ?AfxEnableWin40Compatibility@@YGXXZ 5f811d50 f
 0001:00010d80       ?UpdateSysColors@AUX_DATA@@QAEXXZ 5f811d80 f
 0001:00010deb       ??0OLE_DATA@@QAE@XZ        5f811deb f
 0001:00010ee9       ??0CColorPropPageFactory@CColorPropPage@@QAE@ABU_GUID@@PAUCRuntimeClass@@HPBG@Z 5f811ee9 f
 0001:00010f0d       ??0COleObjectFactory@@QAE@ABU_GUID@@PAUCRuntimeClass@@HPBG@Z 5f811f0d f
 0001:00010fbf       ??0CFontPropPageFactory@CFontPropPage@@QAE@ABU_GUID@@PAUCRuntimeClass@@HPBG@Z 5f811fbf f
 0001:00011010       ??0CPicturePropPageFactory@CPicturePropPage@@QAE@ABU_GUID@@PAUCRuntimeClass@@HPBG@Z 5f812010 f
 0001:00011052       ??0CWinApp@@QAE@PBG@Z      5f812052 f
 0001:00011131       ??0CWinThread@@QAE@XZ      5f812131 f
 0001:0001116e       ?AfxInitExtensionModule@@YGHAAUAFX_EXTENSION_MODULE@@PAUHINSTANCE__@@@Z 5f81216e f
 0001:000111b0       ?AfxWinInit@@YGHPAUHINSTANCE__@@0PAGH@Z 5f8121b0 f
 0001:00011213       ?SetCurrentHandles@CWinApp@@QAEXXZ 5f812213 f
 0001:0001132c       ?RegisterAll@COleObjectFactory@@SGHXZ 5f81232c f
 0001:000113bc       ?IsRegistered@COleObjectFactory@@UBEHXZ 5f8123bc f
 0001:000113ec       ?Register@COleTemplateServer@@UAEHXZ 5f8123ec f
 0001:000113ec       ?Register@COleObjectFactory@@UAEHXZ 5f8123ec f
 0001:00011402       ??0CDynLinkLibrary@@QAE@AAUAFX_EXTENSION_MODULE@@H@Z 5f812402 f
 0001:0001148c       ?CreateObject@?$CProcessLocal@V_AFX_BASE_MODULE_STATE@@@@SGPAVCNoTrackObject@@XZ 5f81248c f
 0001:000114be       ??0AFX_MODULE_STATE@@QAE@HP6GJPAUHWND__@@IIJ@ZK@Z 5f8124be f
 0001:0001151f       ?AfxWinMain@@YGHPAUHINSTANCE__@@0PAGH@Z 5f81251f f
 0001:00011594       ?CreateObject@?$CProcessLocal@V_AFX_CTL3D_STATE@@@@SGPAVCNoTrackObject@@XZ 5f812594 f
 0001:000115aa       ?InitApplication@CWinApp@@UAEHXZ 5f8125aa f
 0001:000115ea       ?Enable3dControls@CWinApp@@IAEHXZ 5f8125ea f
 0001:00011600       ?AfxOleInit@@YGHXZ         5f812600 f
 0001:00011692       ??0COleMessageFilter@@QAE@XZ 5f812692 f
 0001:000116d4       ?Register@COleMessageFilter@@QAEHXZ 5f8126d4 f
 0001:000116f3       __imp_load__CoRegisterMessageFilter@8 5f8126f3 f
 0001:000116ff       ?AddRef@XMessageFilter@COleMessageFilter@@UAGKXZ 5f8126ff f
 0001:0001170e       __imp_load__InitCommonControlsEx@4 5f81270e f
 0001:00011715       __tailMerge_COMCTL32       5f812715 f
 0001:00011723       ?SetContainerInfo@CDocTemplate@@QAEXI@Z 5f812723 f
 0001:0001173b       ?ClientToScreen@CWnd@@QBEXPAUtagRECT@@@Z 5f81273b f
 0001:00011773       ?CreateObject@?$CProcessLocal@V_AFX_WIN_STATE@@@@SGPAVCNoTrackObject@@XZ 5f812773 f
 0001:000117a4       ??0_AFX_WIN_STATE@@QAE@XZ  5f8127a4 f
 0001:000117ad       ?SubclassWindow@CWnd@@QAEHPAUHWND__@@@Z 5f8127ad f
 0001:000117f0       ??0COleTemplateServer@@QAE@XZ 5f8127f0 f
 0001:00011811       ??0CCommandLineInfo@@QAE@XZ 5f812811 f
 0001:00011880       ?LoadStdProfileSettings@CWinApp@@IAEXI@Z 5f812880 f
 0001:000118fc       ??0CRecentFileList@@QAE@IPBG0HH@Z 5f8128fc f
 0001:000119b8       ??0CDocTemplate@@IAE@IPAUCRuntimeClass@@00@Z 5f8129b8 f
 0001:00011abf       ??0CDocManager@@QAE@XZ     5f812abf f
 0001:00011af9       ??_L@YGXPAXIHP6EX0@Z1@Z    5f812af9 f
 0001:00011b6e       ?AddDocTemplate@CDocManager@@UAEXPAVCDocTemplate@@@Z 5f812b6e f
 0001:00011bd3       ?LoadTemplate@CDocTemplate@@UAEXXZ 5f812bd3 f
 0001:00011c96       ?ReadList@CRecentFileList@@UAEXXZ 5f812c96 f
 0001:00011d35       ?GetProfileStringW@CWinApp@@QAE?AVCString@@PBG00@Z 5f812d35 f
 0001:00011e46       ?GetProfileIntW@CWinApp@@QAEIPBG0H@Z 5f812e46 f
 0001:00011eb5       ?ParseCommandLine@CWinApp@@QAEXAAVCCommandLineInfo@@@Z 5f812eb5 f
 0001:00011f0f       ??0CStatusBar@@QAE@XZ      5f812f0f f
 0001:00011f41       ??0CControlBar@@IAE@XZ     5f812f41 f
 0001:00011f93       ??0CToolBar@@QAE@XZ        5f812f93 f
 0001:00011ff7       ?LoadFrame@CFrameWnd@@UAEHIKPAVCWnd@@PAUCCreateContext@@@Z 5f812ff7 f
 0001:000120c3       ?_AfxRegisterWithIcon@@YGHPAUtagWNDCLASSW@@PBGI@Z 5f8130c3 f
 0001:00012104       ?Create@CFrameWnd@@QAEHPBG0KABUtagRECT@@PAVCWnd@@0KPAUCCreateContext@@@Z 5f813104 f
 0001:0001218c       ?OnCreate@CFrameWnd@@IAEHPAUtagCREATESTRUCTW@@@Z 5f81318c f
 0001:0001219b       ?Create@CToolBar@@QAEHPAVCWnd@@KI@Z 5f81319b f
 0001:000121dd       ?CreateEx@CToolBar@@QAEHPAVCWnd@@KKVCRect@@I@Z 5f8131dd f
 0001:00012281       ?SetBorders@CControlBar@@QAEXHHHH@Z 5f813281 f
 0001:000122a0       ?_AfxGetComCtlVersion@@YGKXZ 5f8132a0 f
 0001:0001230e       ?_AfxGetDropDownWidth@@YGHXZ 5f81330e f
 0001:0001238f       ?PreCreateWindow@CControlBar@@UAEHAAUtagCREATESTRUCTW@@@Z 5f81338f f
 0001:00012402       ?PreCreateWindow@CWnd@@UAEHAAUtagCREATESTRUCTW@@@Z 5f813402 f
 0001:00012418       ?OnNcCreate@CToolBar@@IAEHPAUtagCREATESTRUCTW@@@Z 5f813418 f
 0001:00012449       ?OnCreate@CControlBar@@QAEHPAUtagCREATESTRUCTW@@@Z 5f813449 f
 0001:0001249e       ?SetSizes@CToolBar@@QAEXUtagSIZE@@0@Z 5f81349e f
 0001:00012503       ?OnSetBitmapSize@CToolBar@@IAEJIJ@Z 5f813503 f
 0001:00012516       ?OnSetSizeHelper@CToolBar@@IAEJAAVCSize@@J@Z 5f813516 f
 0001:00012567       ?OnSetButtonSize@CToolBar@@IAEJIJ@Z 5f813567 f
 0001:0001257a       ?LoadBitmapW@CToolBar@@QAEHPBG@Z 5f81357a f
 0001:000125ce       ?AfxLoadSysColorBitmap@@YGPAUHBITMAP__@@PAUHINSTANCE__@@PAUHRSRC__@@H@Z 5f8135ce f
 0001:0001273a       ?AddReplaceBitmap@CToolBar@@QAEHPAUHBITMAP__@@@Z 5f81373a f
 0001:000127b1       ?SetButtons@CToolBar@@QAEHPBIH@Z 5f8137b1 f
 0001:00012896       ?Create@CStatusBar@@QAEHPAVCWnd@@KI@Z 5f813896 f
 0001:000128ac       ?CreateEx@CStatusBar@@QAEHPAVCWnd@@KKI@Z 5f8138ac f
 0001:0001291c       ?PreCreateWindow@CStatusBar@@UAEHAAUtagCREATESTRUCTW@@@Z 5f81391c f
 0001:0001294b       ?OnChildNotify@CStatusBar@@MAEHIIJPAJ@Z 5f81394b f
 0001:0001296d       ?SetIndicators@CStatusBar@@QAEHPBIH@Z 5f81396d f
 0001:00012aaa       ?EnableDocking@CFrameWnd@@QAEXK@Z 5f813aaa f
 0001:00012b3e       ?GetControlBar@CFrameWnd@@QAEPAVCControlBar@@I@Z 5f813b3e f
 0001:00012b72       ??0CDockBar@@QAE@H@Z       5f813b72 f
 0001:00012bf0       ?Create@CDockBar@@QAEHPAVCWnd@@KI@Z 5f813bf0 f
 0001:00012c37       ?EnableDocking@CControlBar@@QAEXK@Z 5f813c37 f
 0001:00012c96       ??0CDockContext@@QAE@PAVCControlBar@@@Z 5f813c96 f
 0001:00012cf7       ?DockControlBar@CFrameWnd@@QAEXPAVCControlBar@@IPBUtagRECT@@@Z 5f813cf7 f
 0001:00012d1a       ?DockControlBar@CFrameWnd@@QAEXPAVCControlBar@@PAVCDockBar@@PBUtagRECT@@@Z 5f813d1a f
 0001:00012d66       ?DockControlBar@CDockBar@@QAEXPAVCControlBar@@PBUtagRECT@@@Z 5f813d66 f
 0001:00012ec3       ?GetWindowTextW@CWnd@@QBEHPAGH@Z 5f813ec3 f
 0001:00012ee2       ?SetBarStyle@CControlBar@@QAEXK@Z 5f813ee2 f
 0001:00012f10       ?EnableToolTips@CWnd@@QAEHH@Z 5f813f10 f
 0001:00012f1e       ?_EnableToolTips@CWnd@@QAEHHI@Z 5f813f1e f
 0001:00012f6c       ?OnBarStyleChange@CToolBar@@UAEXKK@Z 5f813f6c f
 0001:00012f9f       ?RemovePlaceHolder@CDockBar@@QAEXPAVCControlBar@@@Z 5f813f9f f
 0001:00012fd8       ?FindBar@CDockBar@@QAEHPAVCControlBar@@H@Z 5f813fd8 f
 0001:00013006       ?GetDockingFrame@CControlBar@@QBEPAVCFrameWnd@@XZ 5f814006 f
 0001:00013018       ?LoadAccelTable@CFrameWnd@@QAEHPBG@Z 5f814018 f
 0001:00013041       ?ConnectTemplate@COleTemplateServer@@QAEXABU_GUID@@PAVCDocTemplate@@H@Z 5f814041 f
 0001:00013064       ?SetServerInfo@CDocTemplate@@QAEXIIPAUCRuntimeClass@@0@Z 5f814064 f
 0001:00013091       ?CalcInsideRect@CControlBar@@QBEXAAVCRect@@H@Z 5f814091 f
 0001:00013139       ?_SetButton@CToolBar@@IAEXHPAU_TBBUTTON@@@Z 5f814139 f
 0001:0001322d       ?ModifyStyle@CWnd@@QAEHKKI@Z 5f81422d f
 0001:00013250       ?ModifyStyle@CWnd@@SGHPAUHWND__@@KKI@Z 5f814250 f
 0001:0001326a       ?_AfxModifyStyle@@YGHPAUHWND__@@HKKI@Z 5f81426a f
 0001:000132bb       ?AfxSetWindowText@@YGXPAUHWND__@@PBG@Z 5f8142bb f
 0001:00013315       ?UpdateFrameTitleForDocument@CFrameWnd@@QAEXPBG@Z 5f814315 f
 0001:000133d2       ??0CHandleMap@@QAE@PAUCRuntimeClass@@IH@Z 5f8143d2 f
 0001:0001342e       ?AfxOleSetUserCtrl@@YGXH@Z 5f81442e f
 0001:0001343d       ?AfxExtractSubString@@YGHAAVCString@@PBGHG@Z 5f81443d f
 0001:000134b3       ?GetDocString@CDocTemplate@@UBEHAAVCString@@W4DocStringIndex@1@@Z 5f8144b3 f
 0001:000134c9       ?Run@CWinApp@@UAEHXZ       5f8144c9 f
 0001:000134e9       ?Run@CWinThread@@UAEHXZ    5f8144e9 f
 0001:0001356c       ?CommonConstruct@CWinThread@@QAEXXZ 5f81456c f
 0001:0001359e       ?AfxInitThread@@YGXXZ      5f81459e f
 0001:000135f6       ?CreateObject@?$CThreadLocal@V_AFX_CTL3D_THREAD@@@@SGPAVCNoTrackObject@@XZ 5f8145f6 f
 0001:0001360c       ??0CException@@QAE@XZ      5f81460c f
 0001:0001361c       ?_AfxActivationWndProc@@YGJPAUHWND__@@IIJ@Z 5f81461c f
 0001:000136a0       ?OnInitialUpdate@CControlBar@@QAEXXZ 5f8146a0 f
 0001:000136aa       ?DragAcceptFiles@CWnd@@QAEXH@Z 5f8146aa f
 0001:000136ba       __imp_load__DragAcceptFiles@8 5f8146ba f
 0001:000136c1       __tailMerge_SHELL32        5f8146c1 f
 0001:000136cf       ??0AFX_EXCEPTION_LINK@@QAE@XZ 5f8146cf f
 0001:000136e5       ?AfxGetExceptionContext@@YAPAUAFX_EXCEPTION_CONTEXT@@XZ 5f8146e5 f
 0001:0001370d       ?AfxTryCleanup@@YGXXZ      5f81470d f
 0001:0001372a       ?SelectObject@CDC@@UAEPAVCFont@@PAV2@@Z 5f81472a f
 0001:00013769       ?ExtTextOutW@CDC@@UAEHHHIPBUtagRECT@@PBGIPAH@Z 5f814769 f
 0001:0001378e       ?AddRef@XPersistStorage@COleServerDoc@@UAGKXZ 5f81478e f
 0001:000137a0       ?CalcFixedLayout@CControlBar@@UAE?AVCSize@@HH@Z 5f8147a0 f
 0001:000137d4       ?CalcDynamicLayout@CToolBar@@UAE?AVCSize@@HK@Z 5f8147d4 f
 0001:00013819       ?CalcLayout@CToolBar@@IAE?AVCSize@@KH@Z 5f814819 f
 0001:00013b2b       ?SizeToolBar@CToolBar@@IAEXPAU_TBBUTTON@@HHH@Z 5f814b2b f
 0001:00013bd7       ?WrapToolBar@CToolBar@@IAEHPAU_TBBUTTON@@HH@Z 5f814bd7 f
 0001:00013caa       ?CalcSize@CToolBar@@IAE?AVCSize@@PAU_TBBUTTON@@H@Z 5f814caa f
 0001:00013dc3       ?Layout@CToolBar@@IAEXXZ   5f814dc3 f
 0001:00013e02       ?OnPaint@CToolBar@@IAEXXZ  5f814e02 f
 0001:00013e1c       ?OnEraseBkgnd@CToolBar@@IAEHPAVCDC@@@Z 5f814e1c f
 0001:00013e24       ?OnShowViews@COleLinkingDoc@@MAEXH@Z 5f814e24 f
 0001:00013e39       ?SetTitle@CDocument@@UAEXPBG@Z 5f814e39 f
 0001:00013e56       ?RegisterIfServerAttached@COleLinkingDoc@@MAEHPBGH@Z 5f814e56 f
 0001:00013e82       ?Register@COleLinkingDoc@@QAEHPAVCOleObjectFactory@@PBG@Z 5f814e82 f
 0001:00013f64       ?InitialUpdateFrame@CDocTemplate@@UAEXPAVCFrameWnd@@PAVCDocument@@H@Z 5f814f64 f
 0001:00013f78       ?InitialUpdateFrame@CFrameWnd@@QAEXPAVCDocument@@H@Z 5f814f78 f
 0001:0001403e       ??_9@$BOI@AE               5f81503e f
 0001:00014046       ?OnInitialUpdate@CView@@UAEXXZ 5f815046 f
 0001:00014054       ?OnUpdate@CView@@MAEXPAV1@JPAVCObject@@@Z 5f815054 f
 0001:00014064       ?ActivateFrame@CFrameWnd@@UAEXH@Z 5f815064 f
 0001:000140a9       ?BringToTop@CFrameWnd@@IAEXH@Z 5f8150a9 f
 0001:000140d8       ??0CPaintDC@@QAE@PAVCWnd@@@Z 5f8150d8 f
 0001:0001412d       ?FillSolidRect@CDC@@QAEXHHHHK@Z 5f81512d f
 0001:00014179       ??1CPaintDC@@UAE@XZ        5f815179 f
 0001:000141c0       ?SetTextColor@CDC@@UAEKK@Z 5f8151c0 f
 0001:000141ec       ?DrawBorders@CControlBar@@QAEXPAVCDC@@AAVCRect@@@Z 5f8151ec f
 0001:000143f3       ?OnEraseBkgnd@CWnd@@IAEHPAVCDC@@@Z 5f8153f3 f
 0001:000143fb       ?DrawGripper@CControlBar@@QAEXPAVCDC@@ABVCRect@@@Z 5f8153fb f
 0001:00014419       ?ProcessShellCommand@CWinApp@@QAEHAAVCCommandLineInfo@@@Z 5f815419 f
 0001:00014491       __imp_load__CoLockObjectExternal@12 5f815491 f
 0001:0001449d       __imp_load__GetFileTitleW@12 5f81549d f
 0001:000144a4       __tailMerge_comdlg32       5f8154a4 f
 0001:000144b2       ?Open@CFile@@UAEHPBGIPAVCFileException@@@Z 5f8154b2 f
 0001:00014583       ?AfxFullPath@@YGHPAGPBG@Z  5f815583 f
 0001:0001461a       ?AfxGetRoot@@YGXPBGAAVCString@@@Z 5f81561a f
 0001:000146bb       ??0CTime@@QAE@ABU_FILETIME@@H@Z 5f8156bb f
 0001:0001470a       ??0CTime@@QAE@ABU_SYSTEMTIME@@H@Z 5f81570a f
 0001:00014755       ??0CTime@@QAE@HHHHHHH@Z    5f815755 f
 0001:000147a2       ?Seek@CFile@@UAEJJI@Z      5f8157a2 f
 0001:000147c7       ?Read@CFile@@UAEIPAXI@Z    5f8157c7 f
 0001:000147f8       ?Close@CFile@@UAEXXZ       5f8157f8 f
 0001:0001482f       ?OpenDocumentFile@CSingleDocTemplate@@UAEPAVCDocument@@PBGH@Z 5f81582f f
 0001:00014966       ?SetTitle@CRichEditDoc@@UAEXPBG@Z 5f815966 f
 0001:00014a23       ?DeleteContents@CRichEditView@@UAEXXZ 5f815a23 f
 0001:00014a53       ?SetSel@CRichEditCtrl@@QAEXJJ@Z 5f815a53 f
 0001:00014a7c       ?SetDefaultCharFormat@CRichEditCtrl@@QAEHAAU_charformat@@@Z 5f815a7c f
 0001:00014a9a       ?SetSelectionCharFormat@CRichEditCtrl@@QAEHAAU_charformat@@@Z 5f815a9a f
 0001:00014ab8       ?SetParaFormat@CRichEditCtrl@@QAEHAAU_paraformat@@@Z 5f815ab8 f
 0001:00014ad6       ?SetModifiedFlag@CRichEditDoc@@UAEXH@Z 5f815ad6 f
 0001:00014af5       ?OnInitialUpdate@CRichEditView@@MAEXXZ 5f815af5 f
 0001:00014b0e       ?OnPaint@CControlBar@@QAEXXZ 5f815b0e f
 0001:00014b60       ?DoPaint@CControlBar@@UAEXPAVCDC@@@Z 5f815b60 f
 0001:00014b97       ?MoveTo@CDC@@QAE?AVCPoint@@HH@Z 5f815b97 f
 0001:00014bda       ?LineTo@CDC@@QAEHHH@Z      5f815bda f
 0001:00014c02       ?SetBkMode@CDC@@QAEHH@Z    5f815c02 f
 0001:00014c2d       ?OnUpdateFrameTitle@CFrameWnd@@UAEXH@Z 5f815c2d f
 0001:00014c70       ?OpenDocumentFile@CWinApp@@UAEPAVCDocument@@PBG@Z 5f815c70 f
 0001:00014c82       ?OpenDocumentFile@CDocManager@@UAEPAVCDocument@@PBG@Z 5f815c82 f
 0001:00014d61       ?AfxResolveShortcut@@YGHPAVCWnd@@PBGPAGH@Z 5f815d61 f
 0001:00014da8       __imp_load__SHGetFileInfoW@20 5f815da8 f
 0001:00014db4       ?MatchDocType@CDocTemplate@@UAE?AW4Confidence@1@PBGAAPAVCDocument@@@Z 5f815db4 f
 0001:00014e67       ?AfxComparePath@@YGHPBG0@Z 5f815e67 f
 0001:00014ea2       ?OnOpenDocument@COleLinkingDoc@@UAEHPBG@Z 5f815ea2 f
 0001:00014ef1       __imp_load__CreateFileMoniker@8 5f815ef1 f
 0001:00014efd       __imp_load__GetRunningObjectTable@8 5f815efd f
 0001:00014f09       ?OnOpenDocument@COleDocument@@UAEHPBG@Z 5f815f09 f
 0001:00014f4e       ?OnOpenDocument@CDocument@@UAEHPBG@Z 5f815f4e f
 0001:00015080       ?GetBufferPtr@CFile@@UAEIIIPAPAX0@Z 5f816080 f
 0001:00015085       ?Serialize@CRichEditDoc@@UAEXAAVCArchive@@@Z 5f816085 f
 0001:0001509f       ?Serialize@CRichEditView@@UAEXAAVCArchive@@@Z 5f81609f f
 0001:000150ad       ?Stream@CRichEditView@@QAEXAAVCArchive@@H@Z 5f8160ad f
 0001:00015127       ?EditStreamCallBack@CRichEditView@@SGKKPAEJPAJ@Z 5f816127 f
 0001:00015186       ?GetPosition@CFile@@UBEKXZ 5f816186 f
 0001:000151a5       ?SetMessageText@CFrameWnd@@QAEXPBG@Z 5f8161a5 f
 0001:000151bc       ?ReleaseFile@CDocument@@UAEXPAVCFile@@H@Z 5f8161bc f
 0001:000151e4       ?SetPathName@CRichEditDoc@@UAEXPBGH@Z 5f8161e4 f
 0001:000151f4       ?SetPathName@CDocument@@UAEXPBGH@Z 5f8161f4 f
 0001:00015270       ?AddToRecentFileList@CWinApp@@UAEXPBG@Z 5f816270 f
 0001:00015286       ?Add@CRecentFileList@@UAEXPBG@Z 5f816286 f
 0001:000152e4       ?AfxBeginThread@@YGPAVCWinThread@@P6AIPAX@Z0HIKPAU_SECURITY_ATTRIBUTES@@@Z 5f8162e4 f
 0001:0001535e       ??0CWinThread@@QAE@P6AIPAX@Z0@Z 5f81635e f
 0001:000153a2       ?CreateThread@CWinThread@@QAEHKIPAU_SECURITY_ATTRIBUTES@@@Z 5f8163a2 f
 0001:0001546d       ?_AfxThreadEntry@@YGIPAX@Z 5f81646d f
 0001:0001553d       ??1CButton@@UAE@XZ         5f81653d f
 0001:00015575       ?AfxEndThread@@YGXIH@Z     5f816575 f
 0001:000155bb       ?Delete@CWinThread@@UAEXXZ 5f8165bb f
 0001:000155cd       ??_ECWinThread@@UAEPAXI@Z  5f8165cd f
 0001:000155cd       ??_GCWinThread@@UAEPAXI@Z  5f8165cd f
 0001:000155e9       ?AfxTermThread@@YGXPAUHINSTANCE__@@@Z 5f8165e9 f
 0001:00015653       ??0CDockState@@QAE@XZ      5f816653 f
 0001:000156d0       ??0CSingleDocTemplate@@QAE@IPAUCRuntimeClass@@00@Z 5f8166d0 f
 0001:000156f8       ??_ECPtrList@@UAEPAXI@Z    5f8166f8 f
 0001:00015723       ?ParseParam@CCommandLineInfo@@UAEXPBGHH@Z 5f816723 f
 0001:00015758       ?ParseParamNotFlag@CCommandLineInfo@@IAEXPBG@Z 5f816758 f
 0001:00015778       ?ParseLast@CCommandLineInfo@@IAEXH@Z 5f816778 f
 0001:000157a7       ?SetRegistryKey@CWinApp@@IAEXPBG@Z 5f8167a7 f
 0001:000157ee       __imp_load__RegOpenKeyExW@20 5f8167ee f
 0001:000157fa       __imp_load__RegCreateKeyExW@36 5f8167fa f
 0001:00015806       __imp_load__RegQueryValueExW@24 5f816806 f
 0001:00015812       ?GetProfileBinary@CWinApp@@QAEHPBG0PAPAEPAI@Z 5f816812 f
 0001:000158b4       ?Write@CMemFile@@UAEXPBXI@Z 5f8168b4 f
 0001:000158f6       ??5CArchive@@QAEAAV0@AAM@Z 5f8168f6 f
 0001:0001592a       ?FillBuffer@CArchive@@QAEXI@Z 5f81692a f
 0001:00015986       ?Read@CArchive@@QAEIPAXI@Z 5f816986 f
 0001:000159d0       ?SetScreenSize@CDockState@@QAEXAAVCSize@@@Z 5f8169d0 f
 0001:00015a06       ??5CArchive@@QAEAAV0@AAG@Z 5f816a06 f
 0001:00015a31       ?ScalePoint@CDockState@@QAEXAAVCPoint@@@Z 5f816a31 f
 0001:00015a5f       ?ScaleRectPos@CDockState@@QAEXAAVCRect@@@Z 5f816a5f f
 0001:00015aab       ?SubclassDlgItem@CWnd@@QAEHIPAV1@@Z 5f816aab f
 0001:00015ad7       ?OnChildNotify@CButton@@MAEHIIJPAJ@Z 5f816ad7 f
 0001:00015b05       ?OnDrawItem@CWnd@@IAEXHPAUtagDRAWITEMSTRUCT@@@Z 5f816b05 f
 0001:00015b2d       ?SelectGdiObject@CDC@@KGPAVCGdiObject@@PAUHDC__@@PAX@Z 5f816b2d f
 0001:00015b44       __imp_load__PrintDlgW@4    5f816b44 f
 0001:00015b50       ??0CRichEditDoc@@IAE@XZ    5f816b50 f
 0001:00015b73       ?AddDocument@CSingleDocTemplate@@UAEXPAVCDocument@@@Z 5f816b73 f
 0001:00015b89       ??0CRichEditView@@QAE@XZ   5f816b89 f
 0001:00015c49       ??0CCtrlView@@QAE@PBGK@Z   5f816c49 f
 0001:00015c9a       ??0CDWordArray@@QAE@XZ     5f816c9a f
 0001:00015cb1       ?PreCreateWindow@CRichEditView@@MAEHAAUtagCREATESTRUCTW@@@Z 5f816cb1 f
 0001:00015ce6       ?AfxInitRichEdit@@YGHXZ    5f816ce6 f
 0001:00015d16       ?CreateObject@?$CProcessLocal@V_AFX_RICHEDIT_STATE@@@@SGPAVCNoTrackObject@@XZ 5f816d16 f
 0001:00015d53       ??0_AFX_EDIT_STATE@@QAE@XZ 5f816d53 f
 0001:00015d98       ?PreCreateWindow@CCtrlView@@MAEHAAUtagCREATESTRUCTW@@@Z 5f816d98 f
 0001:00015de2       ?OnCreate@CRichEditView@@IAEHPAUtagCREATESTRUCTW@@@Z 5f816de2 f
 0001:00015e65       ?AddRef@XRichEditOleCallback@CRichEditView@@UAGKXZ 5f816e65 f
 0001:00015e78       ?GetIRichEditOle@CRichEditCtrl@@QBEPAUIRichEditOle@@XZ 5f816e78 f
 0001:00015e99       ?WrapChanged@CRichEditView@@MAEXXZ 5f816e99 f
 0001:00015efc       ?AfxW2AHelper@@YGPADPADPBGH@Z 5f816efc f
 0001:00015f26       ?GetWindowPlacement@CWnd@@QBEHPAUtagWINDOWPLACEMENT@@@Z 5f816f26 f
 0001:00015f3d       ?CalcWindowRect@CView@@UAEXPAUtagRECT@@I@Z 5f816f3d f
 0001:00015f5e       ?Create@CComboBox@@QAEHKABUtagRECT@@PAVCWnd@@I@Z 5f816f5e f
 0001:00015f7f       ?OnMeasureItem@CWnd@@IAEXHPAUtagMEASUREITEMSTRUCT@@@Z 5f816f7f f
 0001:00015fbd       ?SetButtonInfo@CToolBar@@QAEXHIIH@Z 5f816fbd f
 0001:0001602c       ?GetItemRect@CToolBar@@UBEXHPAUtagRECT@@@Z 5f81702c f
 0001:00016062       ?SetDefaultTitle@CSingleDocTemplate@@UAEXPAVCDocument@@@Z 5f817062 f
 0001:000160c4       ?SetDockState@CFrameWnd@@QAEXABVCDockState@@@Z 5f8170c4 f
 0001:0001615f       ?SetBarInfo@CControlBar@@QAEXPAVCControlBarInfo@@PAVCFrameWnd@@@Z 5f81715f f
 0001:0001622d       ?SetBarInfo@CDockBar@@QAEXPAVCControlBarInfo@@PAVCFrameWnd@@@Z 5f81722d f
 0001:000163b0       ?RemoveControlBar@CDockBar@@QAEHPAVCControlBar@@HH@Z 5f8173b0 f
 0001:00016434       ?RemoveAt@CDWordArray@@QAEXHH@Z 5f817434 f
 0001:0001646c       ?InsertAt@CUIntArray@@QAEXHIH@Z 5f81746c f
 0001:000164ff       ?GetRuntimeClass@CCtrlView@@UBEPAUCRuntimeClass@@XZ 5f8174ff f
 0001:00016505       ?UpdateData@CWnd@@QAEHH@Z  5f817505 f
 0001:0001657e       ??0CDataExchange@@QAE@PAVCWnd@@H@Z 5f81757e f
 0001:00016594       ?HandleSetFont@CDialog@@IAEJIJ@Z 5f817594 f
 0001:000165b8       ?SetCheck@CTestCmdUI@@UAEXH@Z 5f8175b8 f
 0001:000165bb       ?_AfxPreInitDialog@@YGXPAVCWnd@@PAUtagRECT@@PAK@Z 5f8175bb f
 0001:000165de       ?HandleInitDialog@CDialog@@IAEJIJ@Z 5f8175de f
 0001:0001661b       ?OnInitDialog@CDialog@@UAEHXZ 5f81761b f
 0001:00016667       ?ExecuteDlgInit@CWnd@@QAEHPBG@Z 5f817667 f
 0001:000166ab       ?ExecuteDlgInit@CWnd@@QAEHPAX@Z 5f8176ab f
 0001:000166eb       ?_AfxPostInitDialog@@YGXPAVCWnd@@ABUtagRECT@@K@Z 5f8176eb f
 0001:00016766       ?_GetBaseClass@COlePropertyPage@@KGPAUCRuntimeClass@@XZ 5f817766 f
 0001:0001676c       ?CenterWindow@CWnd@@QAEXPAV1@@Z 5f81776c f
 0001:00016901       _xMonitorFromWindow@8      5f817901 f
 0001:00016927       _InitMultipleMonitorStubs  5f817927 f
 0001:000169b2       _xGetMonitorInfo@8         5f8179b2 f
 0001:00016a3c       ?CreateDlgIndirect@CWnd@@IAEHPBUDLGTEMPLATE@@PAV1@PAUHINSTANCE__@@@Z 5f817a3c f
 0001:00016b66       ?GetFont@CDialogTemplate@@SAHPBUDLGTEMPLATE@@AAVCString@@AAG@Z 5f817b66 f
 0001:00016bb4       ?GetFontSizeField@CDialogTemplate@@KAPAEPBUDLGTEMPLATE@@@Z 5f817bb4 f
 0001:00016c07       ?Create@CDialog@@QAEHPBGPAVCWnd@@@Z 5f817c07 f
 0001:00016c58       ?CreateIndirect@CDialog@@IAEHPAXPAVCWnd@@PAUHINSTANCE__@@@Z 5f817c58 f
 0001:00016c7b       ?CreateIndirect@CDialog@@IAEHPBUDLGTEMPLATE@@PAVCWnd@@PAXPAUHINSTANCE__@@@Z 5f817c7b f
 0001:00016ca6       ??0CDialog@@QAE@XZ         5f817ca6 f
 0001:00016cc8       ?UpdatePrinterSelection@CWinApp@@IAEXH@Z 5f817cc8 f
 0001:00016e77       ??0CPrintDialog@@QAE@HKPAVCWnd@@@Z 5f817e77 f
 0001:00016f1d       ?GetDefaults@CPrintDialog@@QAEHXZ 5f817f1d f
 0001:00016f2d       _PrintDlgW@4               5f817f2d f
 0001:00016f33       ??0CMapStringToPtr@@QAE@H@Z 5f817f33 f
 0001:00016f5a       ?Lookup@CMapStringToOb@@QBEHPBGAAPAVCObject@@@Z 5f817f5a f
 0001:00016f7c       ?GetAssocAt@CMapStringToString@@IBEPAUCAssoc@1@PBGAAI@Z 5f817f7c f
 0001:00016fd5       ??ACMapStringToOb@@QAEAAPAVCObject@@PBG@Z 5f817fd5 f
 0001:00017039       ?NewAssoc@CMapStringToPtr@@IAEPAUCAssoc@1@XZ 5f818039 f
 0001:0001709e       ?RemoveKey@CMapStringToPtr@@QAEHPBG@Z 5f81809e f
 0001:00017109       ?FreeAssoc@CMapStringToOb@@IAEXPAUCAssoc@1@@Z 5f818109 f
 0001:0001712f       ??0CString@@QAE@PBD@Z      5f81812f f
 0001:0001717c       ??1CMapStringToPtr@@UAE@XZ 5f81817c f
 0001:000171af       ?RemoveAll@CMapStringToOb@@QAEXXZ 5f8181af f
 0001:00017203       ?EnableModeless@CWinApp@@QAEXH@Z 5f818203 f
 0001:0001722c       ?OnCmdMsg@CDialog@@UAEHIHPAXPAUAFX_CMDHANDLERINFO@@@Z 5f81822c f
 0001:0001726d       ?PostModal@CDialog@@IAEXXZ 5f81826d f
 0001:000172a8       ??_9@$BNA@AE               5f8182a8 f
 0001:000172b0       ?OnCancel@CCommonDialog@@MAEXXZ 5f8182b0 f
 0001:000172b5       ??_9@$BMM@AE               5f8182b5 f
 0001:000172bd       ?OnOK@CCommonDialog@@MAEXXZ 5f8182bd f
 0001:000172d4       ?OnEnable@CFrameWnd@@IAEXH@Z 5f8182d4 f
 0001:0001736c       ?GetMessageMap@CPrintDialog@@MBEPBUAFX_MSGMAP@@XZ 5f81836c f
 0001:00017372       ?_GetBaseMessageMap@CColorDialog@@KGPBUAFX_MSGMAP@@XZ 5f818372 f
 0001:00017378       ?_GetBaseMessageMap@CCommonDialog@@KGPBUAFX_MSGMAP@@XZ 5f818378 f
 0001:0001737e       ?_AfxCommDlgProc@@YGIPAUHWND__@@IIJ@Z 5f81837e f
 0001:00017447       ?GetDeviceName@CPrintDialog@@QBE?AVCString@@XZ 5f818447 f
 0001:0001747b       ?GetPortName@CPrintDialog@@QBE?AVCString@@XZ 5f81847b f
 0001:000174af       ?BeginModalState@CFrameWnd@@UAEXXZ 5f8184af f
 0001:00017523       ?Serialize@CObject@@UAEXAAVCArchive@@@Z 5f818523 f
 0001:00017526       __alloca_probe             5f818526  
 0001:00017526       __chkstk                   5f818526  
 0001:00017557       ??_GCObject@@UAEPAXI@Z     5f818557 f
 0001:00017557       ??_ECObject@@UAEPAXI@Z     5f818557 f
 0001:00017574       ??_GCMemoryException@@UAEPAXI@Z 5f818574 f
 0001:00017574       ??_ECMemoryException@@UAEPAXI@Z 5f818574 f
 0001:00017590       ??_ECNotSupportedException@@UAEPAXI@Z 5f818590 f
 0001:00017590       ??_GCNotSupportedException@@UAEPAXI@Z 5f818590 f
 0001:000175ac       ??6CArchive@@QAEAAV0@E@Z   5f8185ac f
 0001:000175d9       ??5CArchive@@QAEAAV0@AAE@Z 5f8185d9 f
 0001:00017619       ??3CObject@@SGXPAX@Z       5f818619 f
 0001:00017626       ??_ECArchiveException@@UAEPAXI@Z 5f818626 f
 0001:00017626       ??_GCArchiveException@@UAEPAXI@Z 5f818626 f
 0001:00017642       ??1CArchiveException@@UAE@XZ 5f818642 f
 0001:00017678       ??_GCFileException@@UAEPAXI@Z 5f818678 f
 0001:00017678       ??_ECFileException@@UAEPAXI@Z 5f818678 f
 0001:00017694       ?SetFilePath@CFile@@UAEXPBG@Z 5f818694 f
 0001:000176a3       ?GetAt@CStringArray@@QBE?AVCString@@H@Z 5f8186a3 f
 0001:000176df       ??_ECSyncObject@@UAEPAXI@Z 5f8186df f
 0001:000176df       ??_GCSyncObject@@UAEPAXI@Z 5f8186df f
 0001:0001770b       ?Lock@CSyncObject@@UAEHK@Z 5f81870b f
 0001:00017720       ?Unlock@CSyncObject@@UAEHJPAJ@Z 5f818720 f
 0001:00017726       ??0CSemaphore@@QAE@JJPBGPAU_SECURITY_ATTRIBUTES@@@Z 5f818726 f
 0001:00017778       ??1CSemaphore@@UAE@XZ      5f818778 f
 0001:00017783       ?Unlock@CSemaphore@@UAEHJPAJ@Z 5f818783 f
 0001:00017797       ??0CMutex@@QAE@HPBGPAU_SECURITY_ATTRIBUTES@@@Z 5f818797 f
 0001:000177e6       ??1CMutex@@UAE@XZ          5f8187e6 f
 0001:000177f1       ?Unlock@CMutex@@UAEHXZ     5f8187f1 f
 0001:000177fb       ??0CEvent@@QAE@HHPBGPAU_SECURITY_ATTRIBUTES@@@Z 5f8187fb f
 0001:0001784d       ??1CEvent@@UAE@XZ          5f81884d f
 0001:00017858       ??0CSingleLock@@QAE@PAVCSyncObject@@H@Z 5f818858 f
 0001:0001787f       ?Lock@CSingleLock@@QAEHK@Z 5f81887f f
 0001:00017894       ?Unlock@CSingleLock@@QAEHXZ 5f818894 f
 0001:000178b6       ?Unlock@CSingleLock@@QAEHJPAJ@Z 5f8188b6 f
 0001:000178e2       ??0CMultiLock@@QAE@QAPAVCSyncObject@@KH@Z 5f8188e2 f
 0001:0001795a       ??1CMultiLock@@QAE@XZ      5f81895a f
 0001:0001797b       ?Lock@CMultiLock@@QAEKKHK@Z 5f81897b f
 0001:000179e4       ?Unlock@CMultiLock@@QAEHXZ 5f8189e4 f
 0001:00017a1a       ?Unlock@CMultiLock@@QAEHJPAJ@Z 5f818a1a f
 0001:00017a64       ?Unlock@CSemaphore@@UAEHXZ 5f818a64 f
 0001:00017acf       _xMonitorFromRect@8        5f818acf f
 0001:00017ba7       ?BeginModalState@CWnd@@UAEXXZ 5f818ba7 f
 0001:00017bb3       ?EndModalState@CWnd@@UAEXXZ 5f818bb3 f
 0001:00017bc2       ?GetTitle@CFrameWnd@@QBE?AVCString@@XZ 5f818bc2 f
 0001:00017be0       ?MDIActivate@CMDIChildWnd@@QAEXXZ 5f818be0 f
 0001:00017c07       ??0CPoint@@QAE@K@Z         5f818c07 f
 0001:00017c1e       ?OnCancelMode@CWnd@@IAEXXZ 5f818c1e f
 0001:00017c23       ?PtVisible@CDC@@UBEHHH@Z   5f818c23 f
 0001:00017c37       ?GrayStringW@CDC@@UAEHPAVCBrush@@P6GHPAUHDC__@@JH@ZJHHHHH@Z 5f818c37 f
 0001:00017c67       ?GetCurSel@CListBox@@QBEHXZ 5f818c67 f
 0001:00017c7a       ?LoadBitmapW@CBitmap@@QAEHI@Z 5f818c7a f
 0001:00017c9e       ?GetFont@CWnd@@QBEPAVCFont@@XZ 5f818c9e f
 0001:00017cb4       ?GetTabControl@CPropertySheet@@QBEPAVCTabCtrl@@XZ 5f818cb4 f
 0001:00017ccd       ??H@YG?AVCString@@ABV0@D@Z 5f818ccd f
 0001:00017ced       ??_ECCommonDialog@@UAEPAXI@Z 5f818ced f
 0001:00017ced       ??_GCCommonDialog@@UAEPAXI@Z 5f818ced f
 0001:00017d09       ??1CCommonDialog@@UAE@XZ   5f818d09 f
 0001:00017d0e       ?GetFaceName@CFontDialog@@QBE?AVCString@@XZ 5f818d0e f
 0001:00017d2c       ??_ECComboBoxEx@@UAEPAXI@Z 5f818d2c f
 0001:00017d2c       ??_GCComboBoxEx@@UAEPAXI@Z 5f818d2c f
 0001:00017d48       ??_GCIPAddressCtrl@@UAEPAXI@Z 5f818d48 f
 0001:00017d48       ??_ECIPAddressCtrl@@UAEPAXI@Z 5f818d48 f
 0001:00017d64       ??_GCResourceException@@UAEPAXI@Z 5f818d64 f
 0001:00017d64       ??_ECResourceException@@UAEPAXI@Z 5f818d64 f
 0001:00017d80       ??_ECUserException@@UAEPAXI@Z 5f818d80 f
 0001:00017d80       ??_GCUserException@@UAEPAXI@Z 5f818d80 f
 0001:00017d9c       ?TextOutW@CDC@@UAEHHHPBGH@Z 5f818d9c f
 0001:00017db8       ?TabbedTextOutW@CDC@@UAE?AVCSize@@HHPBGHHPAHH@Z 5f818db8 f
 0001:00017df0       ?DrawTextW@CDC@@UAEHPBGHPAUtagRECT@@I@Z 5f818df0 f
 0001:00017e0c       ?Escape@CDC@@UAEHHHPBDPAX@Z 5f818e0c f
 0001:00017e28       ??0CGdiObject@@QAE@XZ      5f818e28 f
 0001:00017e35       ??1CMenu@@UAE@XZ           5f818e35 f
 0001:00017e68       ?IsModified@CDocument@@UAEHXZ 5f818e68 f
 0001:00017e6c       ?SetModifiedFlag@CDocument@@UAEXH@Z 5f818e6c f
 0001:00017e76       ?GetReplaceString@CFindReplaceDialog@@QBE?AVCString@@XZ 5f818e76 f
 0001:00017e90       ?GetFindString@CFindReplaceDialog@@QBE?AVCString@@XZ 5f818e90 f
 0001:00017eaa       ??1CListView@@UAE@XZ       5f818eaa f
 0001:00017edf       ??1CTreeView@@UAE@XZ       5f818edf f
 0001:00017f21       ??1CCriticalSection@@UAE@XZ 5f818f21 f
 0001:00017f3d       ?Lock@CCriticalSection@@UAEHK@Z 5f818f3d f
 0001:00017f4d       ?Unlock@CCriticalSection@@UAEHXZ 5f818f4d f
 0001:00017f5b       ?GetServerName@CInternetConnection@@QBE?AVCString@@XZ 5f818f5b f
 0001:00017f76       ??0CGopherLocator@@QAE@ABV0@@Z 5f818f76 f
 0001:00017fce       ??_GCGopherLocator@@UAEPAXI@Z 5f818fce f
 0001:00017fce       ??_ECGopherLocator@@UAEPAXI@Z 5f818fce f
 0001:00017fea       ??0CFileFind@@QAE@XZ       5f818fea f
 0001:00018034       ?Close@CFileFind@@QAEXXZ   5f819034 f
 0001:00018074       ?CloseContext@CFileFind@@MAEXXZ 5f819074 f
 0001:0001807e       ?FindFile@CFileFind@@UAEHPBGK@Z 5f81907e f
 0001:00018161       ?MatchesMask@CFileFind@@UBEHK@Z 5f819161 f
 0001:0001817b       ?GetLastAccessTime@CFileFind@@UBEHPAU_FILETIME@@@Z 5f81917b f
 0001:0001819f       ?GetLastWriteTime@CFileFind@@UBEHPAU_FILETIME@@@Z 5f81919f f
 0001:000181c3       ?GetCreationTime@CFileFind@@UBEHPAU_FILETIME@@@Z 5f8191c3 f
 0001:000181e7       ?GetLastAccessTime@CFileFind@@UBEHAAVCTime@@@Z 5f8191e7 f
 0001:00018212       ?GetLastWriteTime@CFileFind@@UBEHAAVCTime@@@Z 5f819212 f
 0001:0001823d       ?GetCreationTime@CFileFind@@UBEHAAVCTime@@@Z 5f81923d f
 0001:00018268       ?IsDots@CFileFind@@UBEHXZ  5f819268 f
 0001:000182a5       ?FindNextFileW@CFileFind@@UAEHXZ 5f8192a5 f
 0001:000182e0       ?GetFileURL@CFileFind@@UBE?AVCString@@XZ 5f8192e0 f
 0001:00018359       ?GetRoot@CFileFind@@UBE?AVCString@@XZ 5f819359 f
 0001:00018374       ?GetFilePath@CFileFind@@UBE?AVCString@@XZ 5f819374 f
 0001:0001840f       ?GetFileTitle@CFileFind@@UBE?AVCString@@XZ 5f81940f f
 0001:000184a1       ?GetFileName@CFileFind@@UBE?AVCString@@XZ 5f8194a1 f
 0001:00018504       ?GetLength@CFileFind@@QBEKXZ 5f819504 f
 0001:00018512       ?GetLength64@CFileFind@@QBE_JXZ 5f819512 f
 0001:00018523       ??1COleDataObject@@QAE@XZ  5f819523 f
 0001:00018528       ?AfxCheckError@@YGXJ@Z     5f819528 f
 0001:00018547       ?_AfxCompareSafeArrays@@YGHPAUtagSAFEARRAY@@0@Z 5f819547 f
 0001:000187b7       ?_AfxCreateOneDimArray@@YGXAAUtagVARIANT@@K@Z 5f8197b7 f
 0001:00018863       ?_AfxCopyBinaryData@@YGXPAUtagSAFEARRAY@@PBXK@Z 5f819863 f
 0001:0001889e       ??0COleVariant@@QAE@ABUtagVARIANT@@@Z 5f81989e f
 0001:000188be       ??0COleVariant@@QAE@PBGG@Z 5f8198be f
 0001:000188ed       ?SetString@COleVariant@@QAEXPBGG@Z 5f8198ed f
 0001:00018921       ??0COleVariant@@QAE@FG@Z   5f819921 f
 0001:00018957       ??0COleVariant@@QAE@JG@Z   5f819957 f
 0001:00018999       ?_ClearCompat@COleVariant@@QAEXXZ 5f819999 f
 0001:000189a1       ?ChangeType@COleVariant@@QAEXGPAUtagVARIANT@@@Z 5f8199a1 f
 0001:000189cc       ??8COleVariant@@QBEHABUtagVARIANT@@@Z 5f8199cc f
 0001:00018aef       ??4COleVariant@@QAEABV0@QBG@Z 5f819aef f
 0001:00018b27       ??4COleVariant@@QAEABV0@ABVCString@@@Z 5f819b27 f
 0001:00018b54       ??4COleVariant@@QAEABV0@E@Z 5f819b54 f
 0001:00018b76       ??4COleVariant@@QAEABV0@F@Z 5f819b76 f
 0001:00018bb9       ??4COleVariant@@QAEABV0@J@Z 5f819bb9 f
 0001:00018bff       ??4COleVariant@@QAEABV0@ABVCOleCurrency@@@Z 5f819bff f
 0001:00018c29       ??4COleVariant@@QAEABV0@M@Z 5f819c29 f
 0001:00018c4b       ??4COleVariant@@QAEABV0@N@Z 5f819c4b f
 0001:00018c6d       ??4COleVariant@@QAEABV0@ABVCOleDateTime@@@Z 5f819c6d f
 0001:00018c91       ??4COleVariant@@QAEABV0@ABVCByteArray@@@Z 5f819c91 f
 0001:00018cb8       ??4COleVariant@@QAEABV0@ABVCLongBinary@@@Z 5f819cb8 f
 0001:00018cee       ??6@YGAAVCArchive@@AAV0@VCOleVariant@@@Z 5f819cee f
 0001:00018eb9       ??5@YGAAVCArchive@@AAV0@AAVCOleVariant@@@Z 5f819eb9 f
 0001:000190ed       ?ConstructElements@@YGXPAVCOleVariant@@H@Z 5f81a0ed f
 0001:00019118       ?DestructElements@@YGXPAVCOleVariant@@H@Z 5f81a118 f
 0001:0001913d       ?CopyElements@@YGXPAVCOleVariant@@PBV1@H@Z 5f81a13d f
 0001:00019169       ?SerializeElements@@YGXAAVCArchive@@PAVCOleVariant@@H@Z 5f81a169 f
 0001:000191c4       ?HashKey@@YGIABUtagVARIANT@@@Z 5f81a1c4 f
 0001:0001924c       ??0COleCurrency@@QAE@JJ@Z  5f81a24c f
 0001:00019266       ??4COleCurrency@@QAEABV0@TtagCY@@@Z 5f81a266 f
 0001:0001927c       ??4COleCurrency@@QAEABV0@ABV0@@Z 5f81a27c f
 0001:00019295       ??4COleCurrency@@QAEABV0@ABUtagVARIANT@@@Z 5f81a295 f
 0001:00019333       ??MCOleCurrency@@QBEHABV0@@Z 5f81a333 f
 0001:00019359       ??OCOleCurrency@@QBEHABV0@@Z 5f81a359 f
 0001:0001937f       ??NCOleCurrency@@QBEHABV0@@Z 5f81a37f f
 0001:000193a4       ??PCOleCurrency@@QBEHABV0@@Z 5f81a3a4 f
 0001:000193c9       ??HCOleCurrency@@QBE?AV0@ABV0@@Z 5f81a3c9 f
 0001:00019455       ??GCOleCurrency@@QBE?AV0@ABV0@@Z 5f81a455 f
 0001:000194e0       ??GCOleCurrency@@QBE?AV0@XZ 5f81a4e0 f
 0001:0001952a       ??DCOleCurrency@@QBE?AV0@J@Z 5f81a52a f
 0001:00019704       ??KCOleCurrency@@QBE?AV0@J@Z 5f81a704 f
 0001:0001996d       ?SetCurrency@COleCurrency@@QAEXJJ@Z 5f81a96d f
 0001:00019a13       ?ParseCurrency@COleCurrency@@QAEHPBGKK@Z 5f81aa13 f
 0001:00019aa2       ?Format@COleCurrency@@QBE?AVCString@@KK@Z 5f81aaa2 f
 0001:00019b68       ??6@YGAAVCArchive@@AAV0@VCOleCurrency@@@Z 5f81ab68 f
 0001:00019b90       ??5@YGAAVCArchive@@AAV0@AAVCOleCurrency@@@Z 5f81ab90 f
 0001:00019bbd       ?_AfxOleDateFromTm@@YGHGGGGGGAAN@Z 5f81abbd f
 0001:00019d0c       ?_AfxTmFromOleDate@@YGHNAAUtm@@@Z 5f81ad0c f
 0001:00019f0b       ?_AfxTmConvertToStandardFormat@@YGXAAUtm@@@Z 5f81af0b f
 0001:00019f22       ?_AfxDoubleFromDate@@YGNN@Z 5f81af22 f
 0001:00019f49       ?_AfxDateFromDouble@@YGNN@Z 5f81af49 f
 0001:00019f70       ?GetTickCount@COleDateTime@@SG?AV1@XZ 5f81af70 f
 0001:00019f93       ??6CArchive@@QAEAAV0@N@Z   5f81af93 f
 0001:00019fc0       ?GetAsSystemTime@COleDateTime@@QBEHAAU_SYSTEMTIME@@@Z 5f81afc0 f
 0001:0001a02a       ?GetYear@COleDateTime@@QBEHXZ 5f81b02a f
 0001:0001a054       ?GetMonth@COleDateTime@@QBEHXZ 5f81b054 f
 0001:0001a07e       ?GetDay@COleDateTime@@QBEHXZ 5f81b07e f
 0001:0001a0a8       ?GetHour@COleDateTime@@QBEHXZ 5f81b0a8 f
 0001:0001a0d2       ??5CArchive@@QAEAAV0@AAN@Z 5f81b0d2 f
 0001:0001a10a       ?GetMinute@COleDateTime@@QBEHXZ 5f81b10a f
 0001:0001a134       ?GetSecond@COleDateTime@@QBEHXZ 5f81b134 f
 0001:0001a15e       ?GetDayOfWeek@COleDateTime@@QBEHXZ 5f81b15e f
 0001:0001a188       ?GetDayOfYear@COleDateTime@@QBEHXZ 5f81b188 f
 0001:0001a1b2       ??4COleDateTime@@QAEABV0@ABUtagVARIANT@@@Z 5f81b1b2 f
 0001:0001a241       ??4COleDateTime@@QAEABV0@N@Z 5f81b241 f
 0001:0001a250       ??4COleDateTime@@QAEABV0@ABJ@Z 5f81b250 f
 0001:0001a2a2       ??4COleDateTime@@QAEABV0@ABU_SYSTEMTIME@@@Z 5f81b2a2 f
 0001:0001a2da       ??4COleDateTime@@QAEABV0@ABU_FILETIME@@@Z 5f81b2da f
 0001:0001a33c       ??MCOleDateTime@@QBEHABV0@@Z 5f81b33c f
 0001:0001a372       ??OCOleDateTime@@QBEHABV0@@Z 5f81b372 f
 0001:0001a3a8       ??NCOleDateTime@@QBEHABV0@@Z 5f81b3a8 f
 0001:0001a3de       ??PCOleDateTime@@QBEHABV0@@Z 5f81b3de f
 0001:0001a414       ??HCOleDateTime@@QBE?AV0@ABVCOleDateTimeSpan@@@Z 5f81b414 f
 0001:0001a491       ??GCOleDateTime@@QBE?AV0@ABVCOleDateTimeSpan@@@Z 5f81b491 f
 0001:0001a50e       ??GCOleDateTime@@QBE?AVCOleDateTimeSpan@@ABV0@@Z 5f81b50e f
 0001:0001a56d       ?SetDateTime@COleDateTime@@QAEHHHHHHH@Z 5f81b56d f
 0001:0001a598       ?ParseDateTime@COleDateTime@@QAEHPBGKK@Z 5f81b598 f
 0001:0001a625       ?Format@COleDateTime@@QBE?AVCString@@KK@Z 5f81b625 f
 0001:0001a6ed       ?Format@COleDateTime@@QBE?AVCString@@PBG@Z 5f81b6ed f
 0001:0001a7b6       ?Format@COleDateTime@@QBE?AVCString@@I@Z 5f81b7b6 f
 0001:0001a812       ?CheckRange@COleDateTime@@IAEXXZ 5f81b812 f
 0001:0001a834       ??6@YGAAVCArchive@@AAV0@VCOleDateTime@@@Z 5f81b834 f
 0001:0001a856       ??5@YGAAVCArchive@@AAV0@AAVCOleDateTime@@@Z 5f81b856 f
 0001:0001a876       ?GetHours@COleDateTimeSpan@@QBEJXZ 5f81b876 f
 0001:0001a8a9       ?GetMinutes@COleDateTimeSpan@@QBEJXZ 5f81b8a9 f
 0001:0001a8e2       ?GetSeconds@COleDateTimeSpan@@QBEJXZ 5f81b8e2 f
 0001:0001a91b       ??4COleDateTimeSpan@@QAEABV0@ABV0@@Z 5f81b91b f
 0001:0001a92e       ??HCOleDateTimeSpan@@QBE?AV0@ABV0@@Z 5f81b92e f
 0001:0001a98d       ??GCOleDateTimeSpan@@QBE?AV0@ABV0@@Z 5f81b98d f
 0001:0001a9ec       ?SetDateTimeSpan@COleDateTimeSpan@@QAEXJHHH@Z 5f81b9ec f
 0001:0001aa1b       ?Format@COleDateTimeSpan@@QBE?AVCString@@PBG@Z 5f81ba1b f
 0001:0001abc4       ?Format@COleDateTimeSpan@@QBE?AVCString@@I@Z 5f81bbc4 f
 0001:0001ac20       ?CheckRange@COleDateTimeSpan@@QAEXXZ 5f81bc20 f
 0001:0001ac42       ??0COleSafeArray@@QAE@PBUtagSAFEARRAY@@G@Z 5f81bc42 f
 0001:0001ac87       ??0COleSafeArray@@QAE@ABUtagVARIANT@@@Z 5f81bc87 f
 0001:0001acb9       ?Attach@COleSafeArray@@QAEXAAUtagVARIANT@@@Z 5f81bcb9 f
 0001:0001acdd       ?Detach@COleSafeArray@@QAE?AUtagVARIANT@@XZ 5f81bcdd f
 0001:0001ad04       ??4COleSafeArray@@QAEAAV0@ABVCOleVariant@@@Z 5f81bd04 f
 0001:0001ad1e       ??8COleSafeArray@@QBEHPBUtagSAFEARRAY@@@Z 5f81bd1e f
 0001:0001ad2d       ??8COleSafeArray@@QBEHABVCOleVariant@@@Z 5f81bd2d f
 0001:0001ad4b       ?CreateOneDim@COleSafeArray@@QAEXGKPBXJ@Z 5f81bd4b f
 0001:0001ada7       ?GetOneDimSize@COleSafeArray@@QAEKXZ 5f81bda7 f
 0001:0001add1       ?ResizeOneDim@COleSafeArray@@QAEXK@Z 5f81bdd1 f
 0001:0001aded       ?Create@COleSafeArray@@QAEXGKPAK@Z 5f81bded f
 0001:0001ae70       ?Create@COleSafeArray@@QAEXGKPAUtagSAFEARRAYBOUND@@@Z 5f81be70 f
 0001:0001aeba       ?AccessData@COleSafeArray@@QAEXPAPAX@Z 5f81beba f
 0001:0001aed0       ?UnaccessData@COleSafeArray@@QAEXXZ 5f81bed0 f
 0001:0001aee0       ?AllocData@COleSafeArray@@QAEXXZ 5f81bee0 f
 0001:0001aef0       ?AllocDescriptor@COleSafeArray@@QAEXK@Z 5f81bef0 f
 0001:0001af07       ?Copy@COleSafeArray@@QAEXPAPAUtagSAFEARRAY@@@Z 5f81bf07 f
 0001:0001af1d       ?GetLBound@COleSafeArray@@QAEXKPAJ@Z 5f81bf1d f
 0001:0001af37       ?GetUBound@COleSafeArray@@QAEXKPAJ@Z 5f81bf37 f
 0001:0001af51       ?GetElement@COleSafeArray@@QAEXPAJPAX@Z 5f81bf51 f
 0001:0001af6b       ?PtrOfIndex@COleSafeArray@@QAEXPAJPAPAX@Z 5f81bf6b f
 0001:0001af85       ?PutElement@COleSafeArray@@QAEXPAJPAX@Z 5f81bf85 f
 0001:0001af9f       ?Redim@COleSafeArray@@QAEXPAUtagSAFEARRAYBOUND@@@Z 5f81bf9f f
 0001:0001afb5       ?Lock@COleSafeArray@@QAEXXZ 5f81bfb5 f
 0001:0001afc5       ?Unlock@COleSafeArray@@QAEXXZ 5f81bfc5 f
 0001:0001afd5       ?Destroy@COleSafeArray@@QAEXXZ 5f81bfd5 f
 0001:0001afe5       ?DestroyData@COleSafeArray@@QAEXXZ 5f81bfe5 f
 0001:0001aff5       ?DestroyDescriptor@COleSafeArray@@QAEXXZ 5f81bff5 f
 0001:0001b005       ?AfxSafeArrayInit@@YGXPAVCOleSafeArray@@@Z 5f81c005 f
 0001:0001b018       ?DDX_Text@@YGXPAVCDataExchange@@HAAVCOleDateTime@@@Z 5f81c018 f
 0001:0001b0df       ?DDX_Text@@YGXPAVCDataExchange@@HAAVCOleCurrency@@@Z 5f81c0df f
 0001:0001b1a6       ??0COleVariant@@QAE@PBU_ITEMIDLIST@@@Z 5f81c1a6 f
 0001:0001b20b       ??_9@$BBAI@AE              5f81c20b f
 0001:0001b213       ??_GCOleException@@UAEPAXI@Z 5f81c213 f
 0001:0001b213       ??_ECOleException@@UAEPAXI@Z 5f81c213 f
 0001:0001b22f       ?GetInterfaceMap@CEnumOleVerb@@MBEPBUAFX_INTERFACEMAP@@XZ 5f81c22f f
 0001:0001b235       ??1CEnumOleVerb@@UAE@XZ    5f81c235 f
 0001:0001b26e       ??_GCEnumOleVerb@@UAEPAXI@Z 5f81c26e f
 0001:0001b26e       ??_ECEnumOleVerb@@UAEPAXI@Z 5f81c26e f
 0001:0001b28a       ?OnNext@CEnumOleVerb@@MAEHPAX@Z 5f81c28a f
 0001:0001b2b9       ?EnumOleVerbs@CCmdTarget@@QAEHPAPAUIEnumOLEVERB@@@Z 5f81c2b9 f
 0001:0001b427       ?DoOleVerb@CCmdTarget@@QAEHJPAUtagMSG@@PAUHWND__@@PBUtagRECT@@@Z 5f81c427 f
 0001:0001b501       ?OnSize@CWnd@@IAEXIHH@Z    5f81c501 f
 0001:0001b509       ?EnableTypeLib@CCmdTarget@@QAEXXZ 5f81c509 f
 0001:0001b52e       ?GetTypeInfoOfGuid@CCmdTarget@@QAEJKABU_GUID@@PAPAUITypeInfo@@@Z 5f81c52e f
 0001:0001b648       ?AfxGetTypeLibCache@@YGPAVCTypeLibCache@@PBU_GUID@@@Z 5f81c648 f
 0001:0001b722       ??_ECTypeLibCacheMap@@UAEPAXI@Z 5f81c722 f
 0001:0001b722       ??_GCTypeLibCacheMap@@UAEPAXI@Z 5f81c722 f
 0001:0001b73e       ??1CTypeLibCacheMap@@UAE@XZ 5f81c73e f
 0001:0001b743       ?Lock@CTypeLibCache@@QAEXXZ 5f81c743 f
 0001:0001b758       ?Lookup@CTypeLibCache@@QAEHKPAPAUITypeLib@@@Z 5f81c758 f
 0001:0001b789       ?Cache@CTypeLibCache@@QAEXKPAUITypeLib@@@Z 5f81c789 f
 0001:0001b7cc       ?LookupTypeInfo@CTypeLibCache@@QAEHKABU_GUID@@PAPAUITypeInfo@@@Z 5f81c7cc f
 0001:0001b81d       ?CacheTypeInfo@CTypeLibCache@@QAEXKABU_GUID@@PAUITypeInfo@@@Z 5f81c81d f
 0001:0001b853       ??8@YAHABU_GUID@@0@Z       5f81c853 f
 0001:0001b86b       ?T2OLE@@YAPAGPAG@Z         5f81c86b f
 0001:0001b870       ?Create@CDateTimeCtrl@@QAEHKABUtagRECT@@PAVCWnd@@I@Z 5f81c870 f
 0001:0001b8a1       ?GetRange@CDateTimeCtrl@@QBEKPAVCTime@@0@Z 5f81c8a1 f
 0001:0001b915       ?GetRange@CDateTimeCtrl@@QBEKPAVCOleDateTime@@0@Z 5f81c915 f
 0001:0001b9a1       ?SetRange@CDateTimeCtrl@@QAEHPBVCTime@@0@Z 5f81c9a1 f
 0001:0001b9f4       ?SetRange@CDateTimeCtrl@@QAEHPBVCOleDateTime@@0@Z 5f81c9f4 f
 0001:0001ba53       ?SetTime@CDateTimeCtrl@@QAEHPAU_SYSTEMTIME@@@Z 5f81ca53 f
 0001:0001ba72       ?SetTime@CDateTimeCtrl@@QAEHABVCOleDateTime@@@Z 5f81ca72 f
 0001:0001bab0       ?SetTime@CDateTimeCtrl@@QAEHPBVCTime@@@Z 5f81cab0 f
 0001:0001baec       ?GetTime@CDateTimeCtrl@@QBEHAAVCOleDateTime@@@Z 5f81caec f
 0001:0001bb45       ?GetTime@CDateTimeCtrl@@QBEKAAVCTime@@@Z 5f81cb45 f
 0001:0001bb82       ??1CDateTimeCtrl@@UAE@XZ   5f81cb82 f
 0001:0001bbba       ?Create@CMonthCalCtrl@@QAEHKABUtagRECT@@PAVCWnd@@I@Z 5f81cbba f
 0001:0001bbeb       ?Create@CMonthCalCtrl@@QAEHKABUtagPOINT@@PAVCWnd@@I@Z 5f81cbeb f
 0001:0001bc59       ?SizeMinReq@CMonthCalCtrl@@QAEHH@Z 5f81cc59 f
 0001:0001bcad       ?SetToday@CMonthCalCtrl@@QAEXABVCOleDateTime@@@Z 5f81ccad f
 0001:0001bcf6       ?SetToday@CMonthCalCtrl@@QAEXPBVCTime@@@Z 5f81ccf6 f
 0001:0001bd43       ?SetCurSel@CMonthCalCtrl@@QAEHABVCOleDateTime@@@Z 5f81cd43 f
 0001:0001bd85       ?SetCurSel@CMonthCalCtrl@@QAEHABVCTime@@@Z 5f81cd85 f
 0001:0001bdbe       ?GetCurSel@CMonthCalCtrl@@QBEHAAVCOleDateTime@@@Z 5f81cdbe f
 0001:0001be00       ?GetToday@CMonthCalCtrl@@QBEHAAVCOleDateTime@@@Z 5f81ce00 f
 0001:0001be42       ?GetCurSel@CMonthCalCtrl@@QBEHAAVCTime@@@Z 5f81ce42 f
 0001:0001be7f       ?GetToday@CMonthCalCtrl@@QBEHAAVCTime@@@Z 5f81ce7f f
 0001:0001bebc       ??1CMonthCalCtrl@@UAE@XZ   5f81cebc f
 0001:0001bef4       ?GetFirstDayOfWeek@CMonthCalCtrl@@QBEHPAH@Z 5f81cef4 f
 0001:0001bf1b       ?SetFirstDayOfWeek@CMonthCalCtrl@@QAEHHPAH@Z 5f81cf1b f
 0001:0001bf42       ?SetDayState@CMonthCalCtrl@@QAEHHPAK@Z 5f81cf42 f
 0001:0001bf5b       ?SetRange@CMonthCalCtrl@@QAEHPBVCOleDateTime@@0@Z 5f81cf5b f
 0001:0001bfba       ?SetRange@CMonthCalCtrl@@QAEHQAU_SYSTEMTIME@@0@Z 5f81cfba f
 0001:0001c012       ?GetRange@CMonthCalCtrl@@QBEKPAVCOleDateTime@@0@Z 5f81d012 f
 0001:0001c090       ?GetRange@CMonthCalCtrl@@QBEKPAU_SYSTEMTIME@@0@Z 5f81d090 f
 0001:0001c100       ?SetRange@CMonthCalCtrl@@QAEHPBVCTime@@0@Z 5f81d100 f
 0001:0001c153       ?GetRange@CMonthCalCtrl@@QBEKPAVCTime@@0@Z 5f81d153 f
 0001:0001c1c7       ?GetMonthRange@CMonthCalCtrl@@QBEHAAVCOleDateTime@@0K@Z 5f81d1c7 f
 0001:0001c232       ?GetMonthRange@CMonthCalCtrl@@QBEHPAU_SYSTEMTIME@@0K@Z 5f81d232 f
 0001:0001c276       ?GetMonthRange@CMonthCalCtrl@@QBEHAAVCTime@@0K@Z 5f81d276 f
 0001:0001c2d7       ?GetSelRange@CMonthCalCtrl@@QBEHPAU_SYSTEMTIME@@0@Z 5f81d2d7 f
 0001:0001c31e       ?SetSelRange@CMonthCalCtrl@@QAEHQAU_SYSTEMTIME@@0@Z 5f81d31e f
 0001:0001c35f       ?SetSelRange@CMonthCalCtrl@@QAEHABVCOleDateTime@@0@Z 5f81d35f f
 0001:0001c3ad       ?GetSelRange@CMonthCalCtrl@@QBEHAAVCOleDateTime@@0@Z 5f81d3ad f
 0001:0001c41b       ?SetSelRange@CMonthCalCtrl@@QAEHABVCTime@@0@Z 5f81d41b f
 0001:0001c464       ?GetSelRange@CMonthCalCtrl@@QBEHAAVCTime@@0@Z 5f81d464 f
 0001:0001c4c8       ?DDX_DateTimeCtrl@@YGXPAVCDataExchange@@HAAVCOleDateTime@@@Z 5f81d4c8 f
 0001:0001c4f9       ?DDX_DateTimeCtrl@@YGXPAVCDataExchange@@HAAVCTime@@@Z 5f81d4f9 f
 0001:0001c52a       ?DDX_MonthCalCtrl@@YGXPAVCDataExchange@@HAAVCOleDateTime@@@Z 5f81d52a f
 0001:0001c55b       ?DDX_MonthCalCtrl@@YGXPAVCDataExchange@@HAAVCTime@@@Z 5f81d55b f
 0001:0001c58c       ?DDV_MinMaxDateTime@@YGXPAVCDataExchange@@AAVCTime@@PBV2@2@Z 5f81d58c f
 0001:0001c5f0       ?DDV_MinMaxDateTime@@YGXPAVCDataExchange@@AAVCOleDateTime@@PBV2@2@Z 5f81d5f0 f
 0001:0001c651       ?DDV_MinMaxMonth@@YGXPAVCDataExchange@@AAVCTime@@PBV2@2@Z 5f81d651 f
 0001:0001c6b5       ?DDV_MinMaxMonth@@YGXPAVCDataExchange@@AAVCOleDateTime@@PBV2@2@Z 5f81d6b5 f
 0001:0001c709       ??MCTime@@QBEHV0@@Z        5f81d709 f
 0001:0001c717       ??OCTime@@QBEHV0@@Z        5f81d717 f
 0001:0001c725       ??_ECDateTimeCtrl@@UAEPAXI@Z 5f81d725 f
 0001:0001c725       ??_GCDateTimeCtrl@@UAEPAXI@Z 5f81d725 f
 0001:0001c741       ??_GCMonthCalCtrl@@UAEPAXI@Z 5f81d741 f
 0001:0001c741       ??_ECMonthCalCtrl@@UAEPAXI@Z 5f81d741 f
 0001:0001c75d       ?GetMessageMap@CHtmlView@@MBEPBUAFX_MSGMAP@@XZ 5f81d75d f
 0001:0001c763       ?_GetBaseEventSinkMap@CHtmlView@@KGPBUAFX_EVENTSINKMAP@@XZ 5f81d763 f
 0001:0001c769       ?GetEventSinkMap@CHtmlView@@MBEPBUAFX_EVENTSINKMAP@@XZ 5f81d769 f
 0001:0001c76f       ??0CHtmlView@@IAE@XZ       5f81d76f f
 0001:0001c7b2       ??_ECHtmlView@@UAEPAXI@Z   5f81d7b2 f
 0001:0001c7b2       ??_GCHtmlView@@UAEPAXI@Z   5f81d7b2 f
 0001:0001c7ce       ??1CHtmlView@@UAE@XZ       5f81d7ce f
 0001:0001c823       ?OnFilePrint@CHtmlView@@QAEXXZ 5f81d823 f
 0001:0001c875       ?OnDestroy@CHtmlView@@IAEXXZ 5f81d875 f
 0001:0001c882       ?OnSize@CHtmlView@@IAEXIHH@Z 5f81d882 f
 0001:0001c8f9       ?OnPaint@CHtmlView@@IAEXXZ 5f81d8f9 f
 0001:0001c8fe       ?Create@CHtmlView@@UAEHPBG0KABUtagRECT@@PAVCWnd@@IPAUCCreateContext@@@Z 5f81d8fe f
 0001:0001c9a7       ?GetType@CHtmlView@@QBE?AVCString@@XZ 5f81d9a7 f
 0001:0001ca07       ?GetLeft@CHtmlView@@QBEJXZ 5f81da07 f
 0001:0001ca20       ?GetTop@CHtmlView@@QBEJXZ  5f81da20 f
 0001:0001ca39       ?GetToolBar@CHtmlView@@QBEHXZ 5f81da39 f
 0001:0001ca55       ?GetHeight@CHtmlView@@QBEJXZ 5f81da55 f
 0001:0001ca6e       ?GetVisible@CHtmlView@@QBEHXZ 5f81da6e f
 0001:0001ca8b       ?GetLocationName@CHtmlView@@QBE?AVCString@@XZ 5f81da8b f
 0001:0001caeb       ?GetLocationURL@CHtmlView@@QBE?AVCString@@XZ 5f81daeb f
 0001:0001cb4b       ?GetBusy@CHtmlView@@QBEHXZ 5f81db4b f
 0001:0001cb65       ?GetReadyState@CHtmlView@@QBE?AW4tagREADYSTATE@@XZ 5f81db65 f
 0001:0001cb81       ?GetOffline@CHtmlView@@QBEHXZ 5f81db81 f
 0001:0001cb9e       ?GetSilent@CHtmlView@@QBEHXZ 5f81db9e f
 0001:0001cbbb       ?GetApplication@CHtmlView@@QBEPAUIDispatch@@XZ 5f81dbbb f
 0001:0001cbd4       ?GetParentBrowser@CHtmlView@@QBEPAUIDispatch@@XZ 5f81dbd4 f
 0001:0001cbed       ?GetContainer@CHtmlView@@QBEPAUIDispatch@@XZ 5f81dbed f
 0001:0001cc06       ?GetHtmlDocument@CHtmlView@@QBEPAUIDispatch@@XZ 5f81dc06 f
 0001:0001cc1f       ?GetTopLevelContainer@CHtmlView@@QBEHXZ 5f81dc1f f
 0001:0001cc39       ?GetMenuBar@CHtmlView@@QBEHXZ 5f81dc39 f
 0001:0001cc56       ?GetFullScreen@CHtmlView@@QBEHXZ 5f81dc56 f
 0001:0001cc73       ?GetStatusBar@CHtmlView@@QBEHXZ 5f81dc73 f
 0001:0001cc90       ?QueryStatusWB@CHtmlView@@QBE?AW4OLECMDF@@W4OLECMDID@@@Z 5f81dc90 f
 0001:0001ccb0       ?ExecWB@CHtmlView@@QAEXW4OLECMDID@@W4OLECMDEXECOPT@@PAUtagVARIANT@@2@Z 5f81dcb0 f
 0001:0001ccd2       ?GetRegisterAsBrowser@CHtmlView@@QBEHXZ 5f81dcd2 f
 0001:0001ccef       ?GetRegisterAsDropTarget@CHtmlView@@QBEHXZ 5f81dcef f
 0001:0001cd0c       ?GetTheaterMode@CHtmlView@@QBEHXZ 5f81dd0c f
 0001:0001cd29       ?GetAddressBar@CHtmlView@@QBEHXZ 5f81dd29 f
 0001:0001cd46       ?LoadFromResource@CHtmlView@@QAEHPBG@Z 5f81dd46 f
 0001:0001cde5       ?LoadFromResource@CHtmlView@@QAEHI@Z 5f81dde5 f
 0001:0001ce84       ?Navigate@CHtmlView@@QAEXPBGK00PAXK@Z 5f81de84 f
 0001:0001cf6e       ?Navigate2@CHtmlView@@QAEXPAU_ITEMIDLIST@@KPBG@Z 5f81df6e f
 0001:0001d00a       ?Navigate2@CHtmlView@@QAEXPBGK00PAXK@Z 5f81e00a f
 0001:0001d0ec       ?Navigate2@CHtmlView@@QAEXPBGKAAVCByteArray@@00@Z 5f81e0ec f
 0001:0001d1aa       ?PutProperty@CHtmlView@@QAEXPBGABUtagVARIANT@@@Z 5f81e1aa f
 0001:0001d212       ?GetProperty@CHtmlView@@QAEHPBGAAVCString@@@Z 5f81e212 f
 0001:0001d2ab       ?GetProperty@CHtmlView@@QAE?AVCOleVariant@@PBG@Z 5f81e2ab f
 0001:0001d318       ?GetFullName@CHtmlView@@QBE?AVCString@@XZ 5f81e318 f
 0001:0001d37b       ?NavigateComplete2@CHtmlView@@MAEXPAUIDispatch@@PAUtagVARIANT@@@Z 5f81e37b f
 0001:0001d3c2       ?BeforeNavigate2@CHtmlView@@MAEXPAUIDispatch@@PAUtagVARIANT@@1111PAH@Z 5f81e3c2 f
 0001:0001d4dc       ?DocumentComplete@CHtmlView@@MAEXPAUIDispatch@@PAUtagVARIANT@@@Z 5f81e4dc f
 0001:0001d523       ?OnBeforeNavigate2@CHtmlView@@UAEXPBGK0AAVCByteArray@@0PAH@Z 5f81e523 f
 0001:0001d526       ?OnStatusTextChange@CHtmlView@@UAEXPBG@Z 5f81e526 f
 0001:0001d53d       ??_9@$BBDM@AE              5f81e53d f
 0001:0001d545       ??_9@$BBFM@AE              5f81e545 f
 0001:0001d54d       ??_9@$BBBM@AE              5f81e54d f
 0001:0001d555       ??_9@$BBEA@AE              5f81e555 f
 0001:0001d55d       ??_9@$BBGA@AE              5f81e55d f
 0001:0001d565       ??_9@$BBCA@AE              5f81e565 f
 0001:0001d56d       ??_9@$BBEE@AE              5f81e56d f
 0001:0001d575       ??_9@$BBCE@AE              5f81e575 f
 0001:0001d57d       ??_9@$BBEI@AE              5f81e57d f
 0001:0001d585       ??_9@$BBCI@AE              5f81e585 f
 0001:0001d58d       ??_9@$BBEM@AE              5f81e58d f
 0001:0001d595       ??_9@$BBCM@AE              5f81e595 f
 0001:0001d59d       ??_9@$BBFA@AE              5f81e59d f
 0001:0001d5a5       ??_9@$BBDA@AE              5f81e5a5 f
 0001:0001d5ad       ??_9@$BBFE@AE              5f81e5ad f
 0001:0001d5b5       ??_9@$BBDE@AE              5f81e5b5 f
 0001:0001d5bd       ??_9@$BBFI@AE              5f81e5bd f
 0001:0001d5c5       ??_9@$BBBI@AE              5f81e5c5 f
 0001:0001d5cd       ?AfxEnableControlContainer@@YAXPAVCOccManager@@@Z 5f81e5cd f
 0001:0001d5f4       ?_AfxFindFirstDlgItem@@YGPAUDLGITEMTEMPLATE@@PBUDLGTEMPLATE@@@Z 5f81e5f4 f
 0001:0001d678       ?_AfxFindNextDlgItem@@YGPAUDLGITEMTEMPLATE@@PAU1@H@Z 5f81e678 f
 0001:0001d6cc       ?OnEvent@COccManager@@UAEHPAVCCmdTarget@@IPAUAFX_EVENT@@PAUAFX_CMDHANDLERINFO@@@Z 5f81e6cc f
 0001:0001d6e4       ?CreateContainer@COccManager@@UAEPAVCOleControlContainer@@PAVCWnd@@@Z 5f81e6e4 f
 0001:0001d71b       ?CreateSite@COccManager@@UAEPAVCOleControlSite@@PAVCOleControlContainer@@@Z 5f81e71b f
 0001:0001d755       ?PreCreateDialog@COccManager@@UAEPBUDLGTEMPLATE@@PAU_AFX_OCC_DIALOG_INFO@@PBU2@@Z 5f81e755 f
 0001:0001d7a0       ?PostCreateDialog@COccManager@@UAEXPAU_AFX_OCC_DIALOG_INFO@@@Z 5f81e7a0 f
 0001:0001d7c5       ?SplitDialogTemplate@COccManager@@UAEPAUDLGTEMPLATE@@PBU2@PAPAUDLGITEMTEMPLATE@@@Z 5f81e7c5 f
 0001:0001d904       ?CreateDlgControls@COccManager@@UAEHPAVCWnd@@PBGPAU_AFX_OCC_DIALOG_INFO@@@Z 5f81e904 f
 0001:0001d966       ?CreateDlgControls@COccManager@@UAEHPAVCWnd@@PAXPAU_AFX_OCC_DIALOG_INFO@@@Z 5f81e966 f
 0001:0001dad6       ?BindControls@COccManager@@IAEXPAVCWnd@@@Z 5f81ead6 f
 0001:0001dbf1       ?CreateDlgControl@COccManager@@IAEPAUHWND__@@PAVCWnd@@PAU2@HPAUDLGITEMTEMPLATE@@GPAEK@Z 5f81ebf1 f
 0001:0001dec2       ?PrepareOleCtrl@CDataExchange@@QAEPAVCWnd@@H@Z 5f81eec2 f
 0001:0001def4       ?CreateObject@?$CProcessLocal@VCOccManager@@@@SGPAVCNoTrackObject@@XZ 5f81eef4 f
 0001:0001df09       ??_GCOccManager@@UAEPAXI@Z 5f81ef09 f
 0001:0001df09       ??_ECOccManager@@UAEPAXI@Z 5f81ef09 f
 0001:0001df24       ?OnEvent@CCmdTarget@@QAEHIPAUAFX_EVENT@@PAUAFX_CMDHANDLERINFO@@@Z 5f81ef24 f
 0001:0001e137       ?GetEventSinkEntry@CCmdTarget@@IAGPBUAFX_EVENTSINKMAP_ENTRY@@IPAUAFX_EVENT@@@Z 5f81f137 f
 0001:0001e1ae       ?CreateControl@CWnd@@QAEHPBG0KABUtagRECT@@PAV1@IPAVCFile@@HPAG@Z 5f81f1ae f
 0001:0001e1f3       ?CreateControl@CWnd@@QAEHABU_GUID@@PBGKABUtagRECT@@PAV1@IPAVCFile@@HPAG@Z 5f81f1f3 f
 0001:0001e251       ?CreateControl@CWnd@@QAEHABU_GUID@@PBGKPBUtagPOINT@@PBUtagSIZE@@PAV1@IPAVCFile@@HPAG@Z 5f81f251 f
 0001:0001e29a       ?InitControlContainer@CWnd@@IAEHXZ 5f81f29a f
 0001:0001e343       ?GetInterfaceMap@COleControlContainer@@MBEPBUAFX_INTERFACEMAP@@XZ 5f81f343 f
 0001:0001e349       ?_GetBaseDispatchMap@COleControlContainer@@KGPBUAFX_DISPMAP@@XZ 5f81f349 f
 0001:0001e34f       ?GetDispatchMap@COleControlContainer@@MBEPBUAFX_DISPMAP@@XZ 5f81f34f f
 0001:0001e355       ??0COleControlContainer@@QAE@PAVCWnd@@@Z 5f81f355 f
 0001:0001e3b4       ??_GCOleControlContainer@@UAEPAXI@Z 5f81f3b4 f
 0001:0001e3b4       ??_ECOleControlContainer@@UAEPAXI@Z 5f81f3b4 f
 0001:0001e3d0       ??1COleControlContainer@@UAE@XZ 5f81f3d0 f
 0001:0001e4ae       ?CreateControl@COleControlContainer@@QAEHPAVCWnd@@ABU_GUID@@PBGKABUtagRECT@@IPAVCFile@@HPAGPAPAVCOleControlSite@@@Z 5f81f4ae f
 0001:0001e50f       ?CreateControl@COleControlContainer@@QAEHPAVCWnd@@ABU_GUID@@PBGKPBUtagPOINT@@PBUtagSIZE@@IPAVCFile@@HPAGPAPAVCOleControlSite@@@Z 5f81f50f f
 0001:0001e5ca       ?FindItem@COleControlContainer@@UBEPAVCOleControlSite@@I@Z 5f81f5ca f
 0001:0001e614       ?GetAmbientProp@COleControlContainer@@UAEHPAVCOleControlSite@@JPAUtagVARIANT@@@Z 5f81f614 f
 0001:0001e81c       ?CreateOleFont@COleControlContainer@@QAEXPAVCFont@@@Z 5f81f81c f
 0001:0001e966       ?FreezeAllEvents@COleControlContainer@@QAEXH@Z 5f81f966 f
 0001:0001e9a7       ?ScrollChildren@COleControlContainer@@UAEXHH@Z 5f81f9a7 f
 0001:0001ea01       ?OnUIActivate@COleControlContainer@@UAEXPAVCOleControlSite@@@Z 5f81fa01 f
 0001:0001ea1f       ?OnUIDeactivate@COleControlContainer@@UAEXPAVCOleControlSite@@@Z 5f81fa1f f
 0001:0001ea2f       ?CheckDlgButton@COleControlContainer@@UAEXHI@Z 5f81fa2f f
 0001:0001ea6c       ?CheckRadioButton@COleControlContainer@@UAEXHHH@Z 5f81fa6c f
 0001:0001ea94       ?GetDlgItem@COleControlContainer@@UBEPAVCWnd@@H@Z 5f81fa94 f
 0001:0001eaaf       ?GetDlgItem@COleControlContainer@@UBEXHPAPAUHWND__@@@Z 5f81faaf f
 0001:0001eaeb       ?GetDlgItemInt@COleControlContainer@@UBEIHPAHH@Z 5f81faeb f
 0001:0001eba7       ?GetDlgItemTextW@COleControlContainer@@UBEHHPAGH@Z 5f81fba7 f
 0001:0001ebc6       ?SendDlgItemMessageW@COleControlContainer@@UAEJHIIJ@Z 5f81fbc6 f
 0001:0001ebeb       ?SetDlgItemInt@COleControlContainer@@UAEXHIH@Z 5f81fbeb f
 0001:0001ec2a       ?SetDlgItemTextW@COleControlContainer@@UAEXHPBG@Z 5f81fc2a f
 0001:0001ec45       ?IsDlgButtonChecked@COleControlContainer@@UBEIH@Z 5f81fc45 f
 0001:0001ecc1       ?QueryInterface@XOleIPFrame@COleControlContainer@@UAGJABU_GUID@@PAPAX@Z 5f81fcc1 f
 0001:0001ecd8       ?AddRef@XOleIPFrame@COleControlContainer@@UAGKXZ 5f81fcd8 f
 0001:0001ece9       ?Release@XOleIPFrame@COleControlContainer@@UAGKXZ 5f81fce9 f
 0001:0001ecf8       ?GetWindow@XOleIPFrame@COleControlContainer@@UAGJPAPAUHWND__@@@Z 5f81fcf8 f
 0001:0001ed0d       ?SetActiveObject@XOleIPFrame@COleControlContainer@@UAGJPAUIOleInPlaceActiveObject@@PBG@Z 5f81fd0d f
 0001:0001ed44       ?GetInterfaceMap@CEnumUnknown@@MBEPBUAFX_INTERFACEMAP@@XZ 5f81fd44 f
 0001:0001ed4a       ??1CEnumUnknown@@UAE@XZ    5f81fd4a f
 0001:0001eda0       ??_GCEnumUnknown@@UAEPAXI@Z 5f81fda0 f
 0001:0001eda0       ??_ECEnumUnknown@@UAEPAXI@Z 5f81fda0 f
 0001:0001edbc       ?OnNext@CEnumUnknown@@MAEHPAX@Z 5f81fdbc f
 0001:0001edda       ?QueryInterface@XOleContainer@COleControlContainer@@UAGJABU_GUID@@PAPAX@Z 5f81fdda f
 0001:0001edf1       ?Release@XOleContainer@COleControlContainer@@UAGKXZ 5f81fdf1 f
 0001:0001ee00       ?AddRef@XOleContainer@COleControlContainer@@UAGKXZ 5f81fe00 f
 0001:0001ee11       ?ParseDisplayName@XOleContainer@COleControlContainer@@UAGJPAUIBindCtx@@PAGPAKPAPAUIMoniker@@@Z 5f81fe11 f
 0001:0001ee19       ?EnumObjects@XOleContainer@COleControlContainer@@UAGJKPAPAUIEnumUnknown@@@Z 5f81fe19 f
 0001:0001ef27       ?GetInterfaceMap@COleControlSite@@MBEPBUAFX_INTERFACEMAP@@XZ 5f81ff27 f
 0001:0001ef2d       ??0COleControlSite@@QAE@PAVCOleControlContainer@@@Z 5f81ff2d f
 0001:0001f038       ??_ECOleControlSite@@UAEPAXI@Z 5f820038 f
 0001:0001f038       ??_GCOleControlSite@@UAEPAXI@Z 5f820038 f
 0001:0001f054       ??1COleControlSite@@UAE@XZ 5f820054 f
 0001:0001f180       ?SetExtent@COleControlSite@@IAEHXZ 5f820180 f
 0001:0001f228       ?CreateControl@COleControlSite@@QAEJPAVCWnd@@ABU_GUID@@PBGKABUtagRECT@@IPAVCFile@@HPAG@Z 5f820228 f
 0001:0001f286       ?CreateControl@COleControlSite@@QAEJPAVCWnd@@ABU_GUID@@PBGKPBUtagPOINT@@PBUtagSIZE@@IPAVCFile@@HPAG@Z 5f820286 f
 0001:0001f543       ?DestroyControl@COleControlSite@@UAEHXZ 5f820543 f
 0001:0001f572       ?_AfxCoCreateInstanceLic@@YGJABU_GUID@@PAUIUnknown@@K0PAPAXPAG@Z 5f820572 f
 0001:0001f5ff       ?QuickActivate@COleControlSite@@UAEHXZ 5f8205ff f
 0001:0001f7a0       ?CreateOrLoad@COleControlSite@@IAEJABU_GUID@@PAVCFile@@HPAG@Z 5f8207a0 f
 0001:0001fab2       ?DoVerb@COleControlSite@@UAEJJPAUtagMSG@@@Z 5f820ab2 f
 0001:0001fade       ?IsDefaultButton@COleControlSite@@QAEHXZ 5f820ade f
 0001:0001faf2       ?SetDefaultButton@COleControlSite@@QAEXH@Z 5f820af2 f
 0001:0001fb42       ?ConnectSink@COleControlSite@@IAEKABU_GUID@@PAUIUnknown@@@Z 5f820b42 f
 0001:0001fbaa       ?DisconnectSink@COleControlSite@@IAEXABU_GUID@@K@Z 5f820baa f
 0001:0001fc08       ?GetEventIID@COleControlSite@@QAEHPAU_GUID@@@Z 5f820c08 f
 0001:0001fd75       ?GetControlInfo@COleControlSite@@QAEXXZ 5f820d75 f
 0001:0001fdc3       ?IsMatchingMnemonic@COleControlSite@@QAEHPAUtagMSG@@@Z 5f820dc3 f
 0001:0001fe70       ?SendMnemonic@COleControlSite@@QAEXPAUtagMSG@@@Z 5f820e70 f
 0001:0001feb8       ?FreezeEvents@COleControlSite@@QAEXH@Z 5f820eb8 f
 0001:0001feee       ?AttachWindow@COleControlSite@@IAEXXZ 5f820eee f
 0001:0001ff2b       ?DetachWindow@COleControlSite@@IAEXXZ 5f820f2b f
 0001:0001ff79       ?OnEvent@COleControlSite@@IAEHPAUAFX_EVENT@@@Z 5f820f79 f
 0001:0001ffb6       ?InvokeHelperV@COleControlSite@@UAEXJGGPAXPBEPAD@Z 5f820fb6 f
 0001:0002000c       ?SetPropertyV@COleControlSite@@UAEXJGPAD@Z 5f82100c f
 0001:0002005f       ?InvokeHelper@COleControlSite@@UAAXJGGPAXPBEZZ 5f82105f f
 0001:0002007f       ?GetProperty@COleControlSite@@UBEXJGPAX@Z 5f82107f f
 0001:0002009b       ?SetProperty@COleControlSite@@UAAXJGZZ 5f82109b f
 0001:000200b2       ?SafeSetProperty@COleControlSite@@UAAHJGZZ 5f8210b2 f
 0001:00020105       ?GetStyle@COleControlSite@@UBEKXZ 5f821105 f
 0001:000201bb       ?GetExStyle@COleControlSite@@UBEKXZ 5f8211bb f
 0001:00020223       ?ModifyStyle@COleControlSite@@UAEHKKI@Z 5f821223 f
 0001:000202b3       ?ModifyStyleEx@COleControlSite@@UAEHKKI@Z 5f8212b3 f
 0001:00020303       ?SetWindowTextW@COleControlSite@@UAEXPBG@Z 5f821303 f
 0001:00020336       ?GetWindowTextW@COleControlSite@@UBEXAAVCString@@@Z 5f821336 f
 0001:000203a5       ?GetWindowTextW@COleControlSite@@UBEHPAGH@Z 5f8213a5 f
 0001:00020404       ?GetWindowTextLengthW@COleControlSite@@UBEHXZ 5f821404 f
 0001:0002044d       ?GetDlgCtrlID@COleControlSite@@UBEHXZ 5f82144d f
 0001:00020451       ?SetDlgCtrlID@COleControlSite@@UAEHH@Z 5f821451 f
 0001:0002045e       ?MoveWindow@COleControlSite@@UAEXHHHHH@Z 5f82145e f
 0001:000204d8       ?SetWindowPos@COleControlSite@@UAEHPBVCWnd@@HHHHI@Z 5f8214d8 f
 0001:0002058d       ?ShowWindow@COleControlSite@@UAEHH@Z 5f82158d f
 0001:000205cc       ?IsWindowEnabled@COleControlSite@@UBEHXZ 5f8215cc f
 0001:0002061a       ?EnableWindow@COleControlSite@@UAEHH@Z 5f82161a f
 0001:00020683       ?SetFocus@COleControlSite@@UAEPAVCWnd@@XZ 5f821683 f
 0001:000206bc       ?EnableDSC@COleControlSite@@UAEXXZ 5f8216bc f
 0001:00020710       ?BindDefaultProperty@COleControlSite@@UAEXJGPBGPAVCWnd@@@Z 5f821710 f
 0001:000207b2       ?BindProperty@COleControlSite@@UAEXJPAVCWnd@@@Z 5f8217b2 f
 0001:000208cc       ?AddRef@XOleClientSite@COleControlSite@@UAGKXZ 5f8218cc f
 0001:000208df       ?Release@XOleClientSite@COleControlSite@@UAGKXZ 5f8218df f
 0001:000208f1       ?QueryInterface@XOleClientSite@COleControlSite@@UAGJABU_GUID@@PAPAX@Z 5f8218f1 f
 0001:0002090b       ?GetContainer@XOleClientSite@COleControlSite@@UAGJPAPAUIOleContainer@@@Z 5f82190b f
 0001:00020926       ?ShowObject@XOleClientSite@COleControlSite@@UAGJXZ 5f821926 f
 0001:0002096f       ?OnShowWindow@XOleClientSite@COleControlSite@@UAGJH@Z 5f82196f f
 0001:00020974       ?AddRef@XOleIPSite@COleControlSite@@UAGKXZ 5f821974 f
 0001:00020987       ?Release@XOleIPSite@COleControlSite@@UAGKXZ 5f821987 f
 0001:00020999       ?QueryInterface@XOleIPSite@COleControlSite@@UAGJABU_GUID@@PAPAX@Z 5f821999 f
 0001:000209b3       ?GetWindow@XOleIPSite@COleControlSite@@UAGJPAPAUHWND__@@@Z 5f8219b3 f
 0001:000209de       ?CanInPlaceActivate@XOleIPSite@COleControlSite@@UAGJXZ 5f8219de f
 0001:000209e3       ?OnUIActivate@XOleIPSite@COleControlSite@@UAGJXZ 5f8219e3 f
 0001:000209fa       ?GetWindowContext@XOleIPSite@COleControlSite@@UAGJPAPAUIOleInPlaceFrame@@PAPAUIOleInPlaceUIWindow@@PAUtagRECT@@2PAUtagOIFI@@@Z 5f8219fa f
 0001:00020aa3       ?Scroll@XOleIPSite@COleControlSite@@UAGJUtagSIZE@@@Z 5f821aa3 f
 0001:00020aa9       ?OnUIDeactivate@XOleIPSite@COleControlSite@@UAGJH@Z 5f821aa9 f
 0001:00020ac0       ?OnInPlaceDeactivate@XOleIPSite@COleControlSite@@UAGJXZ 5f821ac0 f
 0001:00020b09       ?DeactivateAndUndo@XOleIPSite@COleControlSite@@UAGJXZ 5f821b09 f
 0001:00020b1b       ?OnPosRectChange@XOleIPSite@COleControlSite@@UAGJPBUtagRECT@@@Z 5f821b1b f
 0001:00020b6e       ?AddRef@XOleControlSite@COleControlSite@@UAGKXZ 5f821b6e f
 0001:00020b81       ?Release@XOleControlSite@COleControlSite@@UAGKXZ 5f821b81 f
 0001:00020b93       ?QueryInterface@XOleControlSite@COleControlSite@@UAGJABU_GUID@@PAPAX@Z 5f821b93 f
 0001:00020bad       ?OnControlInfoChanged@XOleControlSite@COleControlSite@@UAGJXZ 5f821bad f
 0001:00020bc1       ?TransformCoords@XOleControlSite@COleControlSite@@UAGJPAU_POINTL@@PAUtagPOINTF@@K@Z 5f821bc1 f
 0001:00020cc6       ?AddRef@XAmbientProps@COleControlSite@@UAGKXZ 5f821cc6 f
 0001:00020cd9       ?Release@XAmbientProps@COleControlSite@@UAGKXZ 5f821cd9 f
 0001:00020ceb       ?QueryInterface@XAmbientProps@COleControlSite@@UAGJABU_GUID@@PAPAX@Z 5f821ceb f
 0001:00020d05       ?Invoke@XAmbientProps@COleControlSite@@UAGJJABU_GUID@@KGPAUtagDISPPARAMS@@PAUtagVARIANT@@PAUtagEXCEPINFO@@PAI@Z 5f821d05 f
 0001:00020d68       ?QueryInterface@XPropertyNotifySink@COleControlSite@@UAGJABU_GUID@@PAPAX@Z 5f821d68 f
 0001:00020db2       ?OnChanged@XPropertyNotifySink@COleControlSite@@UAGJJ@Z 5f821db2 f
 0001:00020efb       ?OnRequestEdit@XPropertyNotifySink@COleControlSite@@UAGJJ@Z 5f821efb f
 0001:00020f82       ?AddRef@XEventSink@COleControlSite@@UAGKXZ 5f821f82 f
 0001:00020f88       ?QueryInterface@XEventSink@COleControlSite@@UAGJABU_GUID@@PAPAX@Z 5f821f88 f
 0001:00020fec       ?GetIDsOfNames@XEventSink@COleControlSite@@UAGJABU_GUID@@PAPAGIKPAJ@Z 5f821fec f
 0001:00020ff4       ?Invoke@XEventSink@COleControlSite@@UAGJJABU_GUID@@KGPAUtagDISPPARAMS@@PAUtagVARIANT@@PAUtagEXCEPINFO@@PAI@Z 5f821ff4 f
 0001:00021078       ??0CDataSourceControl@@QAE@PAVCOleControlSite@@@Z 5f822078 f
 0001:000210c6       ??1CDataSourceControl@@QAE@XZ 5f8220c6 f
 0001:000212a6       ?ReleaseAccessors@CAccessorBase@ATL@@QAEJPAUIUnknown@@@Z 5f8222a6 f
 0001:0002132d       ??1CRowset@ATL@@QAE@XZ     5f82232d f
 0001:00021378       ?Close@CRowset@ATL@@QAEXXZ 5f822378 f
 0001:000213a7       ?ReleaseRows@CRowset@ATL@@QAEJXZ 5f8223a7 f
 0001:000213c7       ?Close@CDynamicAccessor@ATL@@QAEXXZ 5f8223c7 f
 0001:00021401       ?Initialize@CDataSourceControl@@QAEJXZ 5f822401 f
 0001:0002159f       ?GetCursor@CDataSourceControl@@UAEPAUIUnknown@@XZ 5f82259f f
 0001:00021606       ?GetMetaData@CDataSourceControl@@QAEJXZ 5f822606 f
 0001:00021944       ??0CRowset@ATL@@QAE@PAUIRowset@@@Z 5f822944 f
 0001:00021995       ?MoveFirst@CRowset@ATL@@QAEJXZ 5f822995 f
 0001:000219b8       ?MoveNext@CRowset@ATL@@QAEJJ_N@Z 5f8229b8 f
 0001:00021a11       ?GetData@CRowset@ATL@@QAEJXZ 5f822a11 f
 0001:00021a45       ?GetData@CRowset@ATL@@QAEJH@Z 5f822a45 f
 0001:00021a68       ?SetupOptionalRowsetInterfaces@CRowset@ATL@@QAEXXZ 5f822a68 f
 0001:00021a7d       ?BindColumns@CDynamicAccessor@ATL@@QAEJPAUIUnknown@@@Z 5f822a7d f
 0001:00021d34       ?AllocateAccessorMemory@CAccessorBase@ATL@@QAEJH@Z 5f822d34 f
 0001:00021d90       ?BindEntries@CAccessorBase@ATL@@SAJPAUtagDBBINDING@@HPAKKPAUIAccessor@@@Z 5f822d90 f
 0001:00021dda       ?Bind@CAccessorBase@ATL@@SAXPAUtagDBBINDING@@KGKEEKKKKPAUtagDBOBJECT@@@Z 5f822dda f
 0001:00021e59       ?CopyColumnID@CDataSourceControl@@QAEHPAUtagDBCOLUMNID@@PBU2@@Z 5f822e59 f
 0001:00021ec7       ?BindProp@CDataSourceControl@@UAEXPAVCOleControlSite@@H@Z 5f822ec7 f
 0001:0002200c       ?TranslateColumnNo@CDynamicAccessor@ATL@@QBE_NAAK@Z 5f82300c f
 0001:0002205f       ?BindProp@CDataSourceControl@@UAEXPAVCDataBoundProperty@@H@Z 5f82305f f
 0001:000220a7       ?BindColumns@CDataSourceControl@@UAEXXZ 5f8230a7 f
 0001:00022251       ?GetBoundClientRow@CDataSourceControl@@QAEJXZ 5f823251 f
 0001:000222ae       ?ToVariant@CDataSourceControl@@QAE?AVCOleVariant@@H@Z 5f8232ae f
 0001:00022a27       ?GetStatus@CDynamicAccessor@ATL@@QBE_NKPAK@Z 5f823a27 f
 0001:00022a6b       ?_GetDataPtr@CDynamicAccessor@ATL@@QBEPAXK@Z 5f823a6b f
 0001:00022a82       ?UpdateControls@CDataSourceControl@@UAEJXZ 5f823a82 f
 0001:00022c1d       ?UpdateCursor@CDataSourceControl@@UAEJXZ 5f823c1d f
 0001:00023572       ?SetData@CRowset@ATL@@QBEJXZ 5f824572 f
 0001:0002359a       ?SetData@CRowset@ATL@@QBEJH@Z 5f82459a f
 0001:000235c9       ?CreateAccessor@CManualAccessor@ATL@@QAEJHPAXK@Z 5f8245c9 f
 0001:00023640       ?AddBindEntry@CManualAccessor@ATL@@QAEXKGKPAX00@Z 5f824640 f
 0001:00023694       ?BindColumns@CManualAccessor@ATL@@QAEJPAUIUnknown@@@Z 5f824694 f
 0001:0002372c       ??0CDataBoundProperty@@QAE@PAV0@JG@Z 5f82472c f
 0001:00023752       ?SetDSCSite@CDataBoundProperty@@QAEXPAVCOleControlSite@@@Z 5f824752 f
 0001:00023766       ?GetNext@CDataBoundProperty@@QAEPAV1@XZ 5f824766 f
 0001:0002376a       ?RemoveSource@CDataBoundProperty@@QAEXXZ 5f82476a f
 0001:0002376e       ?Notify@CDataBoundProperty@@QAEXXZ 5f82476e f
 0001:000237f1       ?GetCursor@CDataBoundProperty@@QAEPAUIUnknown@@XZ 5f8247f1 f
 0001:00023827       ?GetCursor@COleControlSite@@IAEJJPAPAUIUnknown@@PAPAX@Z 5f824827 f
 0001:0002385e       ?AddRef@XBoundObjectSite@COleControlSite@@UAGKXZ 5f82485e f
 0001:000238a5       ?Release@XBoundObjectSite@COleControlSite@@UAGKXZ 5f8248a5 f
 0001:000238ec       ?QueryInterface@XBoundObjectSite@COleControlSite@@UAGJABU_GUID@@PAPAX@Z 5f8248ec f
 0001:00023939       ?GetCursor@XBoundObjectSite@COleControlSite@@UAGJJPAPAUICursor@@PAPAX@Z 5f824939 f
 0001:00023989       ?QueryInterface@XNotifyDBEvents@COleControlSite@@UAGJABU_GUID@@PAPAX@Z 5f824989 f
 0001:000239d3       ?OKToDo@XNotifyDBEvents@COleControlSite@@UAGJKKQAUtagDBNOTIFYREASON@@@Z 5f8249d3 f
 0001:00023a5d       ?Cancelled@XNotifyDBEvents@COleControlSite@@UAGJKKQAUtagDBNOTIFYREASON@@@Z 5f824a5d f
 0001:00023aaf       ?SyncBefore@XNotifyDBEvents@COleControlSite@@UAGJKKQAUtagDBNOTIFYREASON@@@Z 5f824aaf f
 0001:00023b34       ?AboutToDo@XNotifyDBEvents@COleControlSite@@UAGJKKQAUtagDBNOTIFYREASON@@@Z 5f824b34 f
 0001:00023b86       ?FailedToDo@XNotifyDBEvents@COleControlSite@@UAGJKKQAUtagDBNOTIFYREASON@@@Z 5f824b86 f
 0001:00023bd8       ?SyncAfter@XNotifyDBEvents@COleControlSite@@UAGJKKQAUtagDBNOTIFYREASON@@@Z 5f824bd8 f
 0001:00023c7c       ?DidEvent@XNotifyDBEvents@COleControlSite@@UAGJKKQAUtagDBNOTIFYREASON@@@Z 5f824c7c f
 0001:00023d05       ?FireEvent@XNotifyDBEvents@COleControlSite@@QAEJKKQAUtagDBNOTIFYREASON@@W4DSCSTATE@@@Z 5f824d05 f
 0001:00023dc7       ?QueryInterface@XRowsetNotify@COleControlSite@@UAGJABU_GUID@@PAPAX@Z 5f824dc7 f
 0001:00023e11       ?OnFieldChange@XRowsetNotify@COleControlSite@@UAGJPAUIRowset@@KKQAKKKH@Z 5f824e11 f
 0001:00023ef9       ?OnRowChange@XRowsetNotify@COleControlSite@@UAGJPAUIRowset@@KQBKKKH@Z 5f824ef9 f
 0001:0002409f       ?OnRowsetChange@XRowsetNotify@COleControlSite@@UAGJPAUIRowset@@KKH@Z 5f82509f f
 0001:00024149       ?AtlComPtrAssign@ATL@@YGPAUIUnknown@@PAPAU2@PAU2@@Z 5f825149 f
 0001:00024172       ??1COleDispatchDriver@@QAE@XZ 5f825172 f
 0001:00024177       ??0AFX_EVENT@@QAE@H@Z      5f825177 f
 0001:0002419a       ??0COleControlLock@@QAE@ABU_GUID@@@Z 5f82519a f
 0001:00024209       ??_GCOleControlLock@@UAEPAXI@Z 5f825209 f
 0001:00024209       ??_ECOleControlLock@@UAEPAXI@Z 5f825209 f
 0001:00024225       ??1COleControlLock@@UAE@XZ 5f825225 f
 0001:0002424c       ?AfxOleLockControl@@YGHABU_GUID@@@Z 5f82524c f
 0001:000242eb       ?AfxOleLockControl@@YGHPBG@Z 5f8252eb f
 0001:00024312       ?AfxOleUnlockControl@@YGHPBG@Z 5f825312 f
 0001:00024339       ?AfxOleUnlockControl@@YGHABU_GUID@@@Z 5f825339 f
 0001:000243bc       ?DDX_OCText@@YGXPAVCDataExchange@@HJAAVCString@@@Z 5f8253bc f
 0001:000243fb       ?DDX_OCTextRO@@YGXPAVCDataExchange@@HJAAVCString@@@Z 5f8253fb f
 0001:0002443d       ?DDX_OCBool@@YGXPAVCDataExchange@@HJAAH@Z 5f82543d f
 0001:0002447c       ?DDX_OCBoolRO@@YGXPAVCDataExchange@@HJAAH@Z 5f82547c f
 0001:00024499       ?DDX_OCIntRO@@YGXPAVCDataExchange@@HJAAH@Z 5f825499 f
 0001:000244b6       ?DDX_OCIntRO@@YGXPAVCDataExchange@@HJAAJ@Z 5f8254b6 f
 0001:000244d3       ?DDX_OCShort@@YGXPAVCDataExchange@@HJAAF@Z 5f8254d3 f
 0001:00024514       ?DDX_OCShortRO@@YGXPAVCDataExchange@@HJAAF@Z 5f825514 f
 0001:00024531       ?DDX_OCColor@@YGXPAVCDataExchange@@HJAAK@Z 5f825531 f
 0001:00024570       ?DDX_OCColorRO@@YGXPAVCDataExchange@@HJAAK@Z 5f825570 f
 0001:0002458d       ?DDX_OCFloat@@YGXPAVCDataExchange@@HJAAM@Z 5f82558d f
 0001:000245d1       ?DDX_OCFloatRO@@YGXPAVCDataExchange@@HJAAM@Z 5f8255d1 f
 0001:000245f7       ?DDX_OCFloat@@YGXPAVCDataExchange@@HJAAN@Z 5f8255f7 f
 0001:0002463b       ?DDX_OCFloatRO@@YGXPAVCDataExchange@@HJAAN@Z 5f82563b f
 0001:00024661       ?_AfxGetDlgCode@@YGKPAVCWnd@@PAUtagMSG@@@Z 5f825661 f
 0001:0002468f       ?_AfxDlgSetFocus@@YGXPAVCWnd@@@Z 5f82568f f
 0001:000246bd       ?_AfxGetChildControl@@YGPAVCWnd@@PAV1@0@Z 5f8256bd f
 0001:00024716       ?_AfxNextControl@@YGPAVCWnd@@PAV1@0I@Z 5f825716 f
 0001:000247f2       ?IsMatchingMnemonic@COccManager@@SAHPAVCWnd@@PAUtagMSG@@@Z 5f8257f2 f
 0001:00024811       ?_AfxFindNextMnem@@YGPAVCWnd@@PAV1@0PAUtagMSG@@@Z 5f825811 f
 0001:00024896       ?IsLabelControl@COccManager@@SAHPAVCWnd@@@Z 5f825896 f
 0001:000248bc       ?_AfxGetNextMnem@@YGPAVCWnd@@PAV1@0PAUtagMSG@@@Z 5f8258bc f
 0001:00024931       ?UIActivateControl@COccManager@@KAXPAVCWnd@@@Z 5f825931 f
 0001:0002498e       ?UIDeactivateIfNecessary@COccManager@@KAXPAVCWnd@@0@Z 5f82598e f
 0001:00024a01       ?_AfxFindDlgItem@@YGPAVCWnd@@PAV1@K@Z 5f825a01 f
 0001:00024a58       ?SetDefaultButton@COccManager@@SAXPAVCWnd@@H@Z 5f825a58 f
 0001:00024aa5       ?GetDefBtnCode@COccManager@@SAKPAVCWnd@@@Z 5f825aa5 f
 0001:00024ab5       ?GetDefBtnCode@COleControlSite@@QAEKXZ 5f825ab5 f
 0001:00024ada       ?_AfxRemoveDefaultButton@@YGXPAVCWnd@@0@Z 5f825ada f
 0001:00024b3c       ?_AfxOriginalDefButton@@YGHPAVCWnd@@@Z 5f825b3c f
 0001:00024b69       ?_AfxCheckDefPushButton@@YGXPAVCWnd@@00@Z 5f825b69 f
 0001:00024c51       ?IsDialogMessageW@COccManager@@UAEHPAVCWnd@@PAUtagMSG@@@Z 5f825c51 f
 0001:0002504a       ?OnActivateView@CDocObjectServer@@MAEJXZ 5f82604a f
 0001:00025391       ?AddRef@XOleDocumentView@CDocObjectServer@@UAGKXZ 5f826391 f
 0001:000253d0       ?Release@XOleDocumentView@CDocObjectServer@@UAGKXZ 5f8263d0 f
 0001:0002540f       ?QueryInterface@XOleDocumentView@CDocObjectServer@@UAGJABU_GUID@@PAPAX@Z 5f82640f f
 0001:00025454       ?SetInPlaceSite@XOleDocumentView@CDocObjectServer@@UAGJPAUIOleInPlaceSite@@@Z 5f826454 f
 0001:000254c5       ?GetInPlaceSite@XOleDocumentView@CDocObjectServer@@UAGJPAPAUIOleInPlaceSite@@@Z 5f8264c5 f
 0001:00025513       ?GetDocument@XOleDocumentView@CDocObjectServer@@UAGJPAPAUIUnknown@@@Z 5f826513 f
 0001:0002555b       ?OnSetItemRects@CDocObjectServer@@IAEXPAUtagRECT@@0@Z 5f82655b f
 0001:00025571       ?SetRect@XOleDocumentView@CDocObjectServer@@UAGJPAUtagRECT@@@Z 5f826571 f
 0001:000255e0       ?GetRect@XOleDocumentView@CDocObjectServer@@UAGJPAUtagRECT@@@Z 5f8265e0 f
 0001:00025624       ?SetRectComplex@XOleDocumentView@CDocObjectServer@@UAGJPAUtagRECT@@000@Z 5f826624 f
 0001:00025649       ?Show@XOleDocumentView@CDocObjectServer@@UAGJH@Z 5f826649 f
 0001:0002569e       ?UIActivate@XOleDocumentView@CDocObjectServer@@UAGJH@Z 5f82669e f
 0001:000256fa       ?Open@XOleDocumentView@CDocObjectServer@@UAGJXZ 5f8266fa f
 0001:0002574c       ?CloseView@XOleDocumentView@CDocObjectServer@@UAGJK@Z 5f82674c f
 0001:00025793       ?SaveViewState@XOleDocumentView@CDocObjectServer@@UAGJPAUIStream@@@Z 5f826793 f
 0001:000258bd       ?ApplyViewState@XOleDocumentView@CDocObjectServer@@UAGJPAUIStream@@@Z 5f8268bd f
 0001:000259e7       ?Clone@XOleDocumentView@CDocObjectServer@@UAGJPAUIOleInPlaceSite@@PAPAUIOleDocumentView@@@Z 5f8269e7 f
 0001:00025a0c       ?_GetBaseClass@CDocObjectServer@@KGPAUCRuntimeClass@@XZ 5f826a0c f
 0001:00025a12       ?GetRuntimeClass@CDocObjectServer@@UBEPAUCRuntimeClass@@XZ 5f826a12 f
 0001:00025a18       ?_GetBaseMessageMap@CDocObjectServer@@KGPBUAFX_MSGMAP@@XZ 5f826a18 f
 0001:00025a1e       ?GetMessageMap@CDocObjectServer@@MBEPBUAFX_MSGMAP@@XZ 5f826a1e f
 0001:00025a24       ?GetInterfaceMap@CDocObjectServer@@MBEPBUAFX_INTERFACEMAP@@XZ 5f826a24 f
 0001:00025a2a       ??0CDocObjectServer@@QAE@PAVCOleServerDoc@@PAUIOleDocumentSite@@@Z 5f826a2a f
 0001:00025a7e       ??_ECDocObjectServer@@UAEPAXI@Z 5f826a7e f
 0001:00025a7e       ??_GCDocObjectServer@@UAEPAXI@Z 5f826a7e f
 0001:00025a9a       ??1CDocObjectServer@@UAE@XZ 5f826a9a f
 0001:00025ad2       ?ReleaseDocSite@CDocObjectServer@@QAEXXZ 5f826ad2 f
 0001:00025ae8       ?SetDocSite@CDocObjectServer@@QAEXPAUIOleDocumentSite@@@Z 5f826ae8 f
 0001:00025afb       ?OnCloseDocument@CDocObjectServer@@UAEXXZ 5f826afb f
 0001:00025b10       ?OnExecOleCmd@CDocObjectServer@@IAGJPBU_GUID@@KKPAUtagVARIANT@@1@Z 5f826b10 f
 0001:00025b3f       ?GetControllingFrame@CDocObjectServer@@QBEPAVCOleDocIPFrameWnd@@XZ 5f826b3f f
 0001:00025b84       ?DoPreparePrinting@CDocObjectServer@@IAEHPAVCView@@PAUCPrintInfo@@@Z 5f826b84 f
 0001:00025b97       ?DoPrepareDC@CDocObjectServer@@IAEXPAVCView@@PAVCDC@@PAUCPrintInfo@@@Z 5f826b97 f
 0001:00025bae       ?DoPrint@CDocObjectServer@@IAEXPAVCView@@PAVCDC@@PAUCPrintInfo@@@Z 5f826bae f
 0001:00025bc5       ?DoBeginPrinting@CDocObjectServer@@IAEXPAVCView@@PAVCDC@@PAUCPrintInfo@@@Z 5f826bc5 f
 0001:00025bdc       ?DoEndPrinting@CDocObjectServer@@IAEXPAVCView@@PAVCDC@@PAUCPrintInfo@@@Z 5f826bdc f
 0001:00025bf3       ?AddRef@XPrint@CDocObjectServer@@UAGKXZ 5f826bf3 f
 0001:00025c32       ?Release@XPrint@CDocObjectServer@@UAGKXZ 5f826c32 f
 0001:00025c71       ?QueryInterface@XPrint@CDocObjectServer@@UAGJABU_GUID@@PAPAX@Z 5f826c71 f
 0001:00025cb8       ?SetInitialPageNum@XPrint@CDocObjectServer@@UAGJJ@Z 5f826cb8 f
 0001:00025ce2       ?GetPageInfo@XPrint@CDocObjectServer@@UAGJPAJ0@Z 5f826ce2 f
 0001:00025dd0       ?Print@XPrint@CDocObjectServer@@UAGJKPAPAUtagDVTARGETDEVICE@@PAPAUtagPAGESET@@PAUtagSTGMEDIUM@@PAUIContinueCallback@@JPAJ4@Z 5f826dd0 f
 0001:000264d3       ?AddRef@XOleDocument@CDocObjectServer@@UAGKXZ 5f8274d3 f
 0001:00026512       ?Release@XOleDocument@CDocObjectServer@@UAGKXZ 5f827512 f
 0001:00026551       ?QueryInterface@XOleDocument@CDocObjectServer@@UAGJABU_GUID@@PAPAX@Z 5f827551 f
 0001:00026598       ?CreateView@XOleDocument@CDocObjectServer@@UAGJPAUIOleInPlaceSite@@PAUIStream@@KPAPAUIOleDocumentView@@@Z 5f827598 f
 0001:0002662c       ?GetDocMiscStatus@XOleDocument@CDocObjectServer@@UAGJPAK@Z 5f82762c f
 0001:00026654       ?EnumViews@XOleDocument@CDocObjectServer@@UAGJPAPAUIEnumOleDocumentViews@@PAPAUIOleDocumentView@@@Z 5f827654 f
 0001:0002669e       ?AddRef@XOleObject@CDocObjectServer@@UAGKXZ 5f82769e f
 0001:000266dd       ?Release@XOleObject@CDocObjectServer@@UAGKXZ 5f8276dd f
 0001:0002671c       ?QueryInterface@XOleObject@CDocObjectServer@@UAGJABU_GUID@@PAPAX@Z 5f82771c f
 0001:00026761       ?SetClientSite@XOleObject@CDocObjectServer@@UAGJPAUIOleClientSite@@@Z 5f827761 f
 0001:000267d4       ?GetClientSite@XOleObject@CDocObjectServer@@UAGJPAPAUIOleClientSite@@@Z 5f8277d4 f
 0001:00026821       ?SetHostNames@XOleObject@CDocObjectServer@@UAGJPBG0@Z 5f827821 f
 0001:00026871       ?Close@XOleObject@CDocObjectServer@@UAGJK@Z 5f827871 f
 0001:000268be       ?SetMoniker@XOleObject@CDocObjectServer@@UAGJKPAUIMoniker@@@Z 5f8278be f
 0001:0002690e       ?GetMoniker@XOleObject@CDocObjectServer@@UAGJKKPAPAUIMoniker@@@Z 5f82790e f
 0001:00026961       ?InitFromData@XOleObject@CDocObjectServer@@UAGJPAUIDataObject@@HK@Z 5f827961 f
 0001:000269b4       ?GetClipboardData@XOleObject@CDocObjectServer@@UAGJKPAPAUIDataObject@@@Z 5f8279b4 f
 0001:00026a04       ?DoVerb@XOleObject@CDocObjectServer@@UAGJJPAUtagMSG@@PAUIOleClientSite@@JPAUHWND__@@PBUtagRECT@@@Z 5f827a04 f
 0001:00026a60       ?EnumVerbs@XOleObject@CDocObjectServer@@UAGJPAPAUIEnumOLEVERB@@@Z 5f827a60 f
 0001:00026aad       ?Update@XOleObject@CDocObjectServer@@UAGJXZ 5f827aad f
 0001:00026af7       ?IsUpToDate@XOleObject@CDocObjectServer@@UAGJXZ 5f827af7 f
 0001:00026b41       ?GetUserClassID@XOleObject@CDocObjectServer@@UAGJPAU_GUID@@@Z 5f827b41 f
 0001:00026b8e       ?GetUserType@XOleObject@CDocObjectServer@@UAGJKPAPAG@Z 5f827b8e f
 0001:00026bde       ?SetExtent@XOleObject@CDocObjectServer@@UAGJKPAUtagSIZE@@@Z 5f827bde f
 0001:00026c3d       ?GetExtent@XOleObject@CDocObjectServer@@UAGJKPAUtagSIZE@@@Z 5f827c3d f
 0001:00026c8d       ?Advise@XOleObject@CDocObjectServer@@UAGJPAUIAdviseSink@@PAK@Z 5f827c8d f
 0001:00026cdd       ?Unadvise@XOleObject@CDocObjectServer@@UAGJK@Z 5f827cdd f
 0001:00026d2a       ?EnumAdvise@XOleObject@CDocObjectServer@@UAGJPAPAUIEnumSTATDATA@@@Z 5f827d2a f
 0001:00026d77       ?GetMiscStatus@XOleObject@CDocObjectServer@@UAGJKPAK@Z 5f827d77 f
 0001:00026dc7       ?SetColorScheme@XOleObject@CDocObjectServer@@UAGJPAUtagLOGPALETTE@@@Z 5f827dc7 f
 0001:00026e14       ?_GetBaseClass@CDocObjectServerItem@@KGPAUCRuntimeClass@@XZ 5f827e14 f
 0001:00026e1a       ?GetRuntimeClass@CDocObjectServerItem@@UBEPAUCRuntimeClass@@XZ 5f827e1a f
 0001:00026e20       ??0CDocObjectServerItem@@IAE@PAVCOleServerDoc@@H@Z 5f827e20 f
 0001:00026e3c       ??_ECDocObjectServerItem@@UAEPAXI@Z 5f827e3c f
 0001:00026e3c       ??_GCDocObjectServerItem@@UAEPAXI@Z 5f827e3c f
 0001:00026e58       ??1CDocObjectServerItem@@UAE@XZ 5f827e58 f
 0001:00026e5e       ??1COleServerItem@@UAE@XZ  5f827e5e f
 0001:00026f06       ?OnDoVerb@CDocObjectServerItem@@MAEXJ@Z 5f827f06 f
 0001:00026f33       ?OnHide@CDocObjectServerItem@@MAEXXZ 5f827f33 f
 0001:00026f4e       ?OnOpen@CDocObjectServerItem@@MAEXXZ 5f827f4e f
 0001:00026f60       ?ActivateDocObject@COleServerDoc@@QAEXXZ 5f827f60 f
 0001:00026f6e       ?ActivateDocObject@CDocObjectServer@@QAEXXZ 5f827f6e f
 0001:00026f86       ?OnShow@CDocObjectServerItem@@MAEXXZ 5f827f86 f
 0001:00026f9a       ??0COleCmdUI@@QAE@PAU_tagOLECMD@@KPBU_GUID@@@Z 5f827f9a f
 0001:00026fcb       ?Enable@COleCmdUI@@UAEXH@Z 5f827fcb f
 0001:00026ff2       ?SetCheck@COleCmdUI@@UAEXH@Z 5f827ff2 f
 0001:00027036       ?SetText@COleCmdUI@@UAEXPBG@Z 5f828036 f
 0001:00027045       ?DoUpdate@COleCmdUI@@UAEHPAVCCmdTarget@@H@Z 5f828045 f
 0001:00027100       ?AddRef@XOleCommandTarget@CDocObjectServer@@UAGKXZ 5f828100 f
 0001:0002713f       ?Release@XOleCommandTarget@CDocObjectServer@@UAGKXZ 5f82813f f
 0001:0002717e       ?QueryInterface@XOleCommandTarget@CDocObjectServer@@UAGJABU_GUID@@PAPAX@Z 5f82817e f
 0001:000271c3       ?_AfxQueryStatusOleCommandHelper@@YGJPAVCCmdTarget@@PBU_GUID@@KQAU_tagOLECMD@@PAU_tagOLECMDTEXT@@@Z 5f8281c3 f
 0001:000272be       ?QueryStatus@XOleCommandTarget@CDocObjectServer@@UAGJPBU_GUID@@KQAU_tagOLECMD@@PAU_tagOLECMDTEXT@@@Z 5f8282be f
 0001:00027311       ?_AfxExecOleCommandHelper@@YGJPAVCCmdTarget@@PBU_GUID@@KKPAUtagVARIANT@@2@Z 5f828311 f
 0001:000273b7       ?Exec@XOleCommandTarget@CDocObjectServer@@UAGJPBU_GUID@@KKPAUtagVARIANT@@1@Z 5f8283b7 f
 0001:00027429       ?CreateObject@COleDocIPFrameWnd@@SGPAVCObject@@XZ 5f828429 f
 0001:0002745e       ?_GetBaseClass@COleDocIPFrameWnd@@KGPAUCRuntimeClass@@XZ 5f82845e f
 0001:00027464       ?GetRuntimeClass@COleDocIPFrameWnd@@UBEPAUCRuntimeClass@@XZ 5f828464 f
 0001:0002746a       ?_GetBaseMessageMap@COleDocIPFrameWnd@@KGPBUAFX_MSGMAP@@XZ 5f82846a f
 0001:00027470       ?GetMessageMap@COleDocIPFrameWnd@@MBEPBUAFX_MSGMAP@@XZ 5f828470 f
 0001:00027476       ??0COleDocIPFrameWnd@@QAE@XZ 5f828476 f
 0001:0002748f       ??1COleDocIPFrameWnd@@UAE@XZ 5f82848f f
 0001:00027495       ??1COleIPFrameWnd@@UAE@XZ  5f828495 f
 0001:00027513       ?OnRequestPositionChange@COleDocIPFrameWnd@@MAEXPBUtagRECT@@@Z 5f828513 f
 0001:00027532       ?RecalcLayout@COleDocIPFrameWnd@@MAEXH@Z 5f828532 f
 0001:0002768f       ?BuildSharedMenu@COleDocIPFrameWnd@@MAEHXZ 5f82868f f
 0001:0002772d       ?DestroySharedMenu@COleDocIPFrameWnd@@MAEXXZ 5f82872d f
 0001:000277a1       ?_GetBaseClass@COleDocObjectItem@@KGPAUCRuntimeClass@@XZ 5f8287a1 f
 0001:000277a7       ?GetRuntimeClass@COleDocObjectItem@@UBEPAUCRuntimeClass@@XZ 5f8287a7 f
 0001:000277ad       ?_GetBaseInterfaceMap@COleDocObjectItem@@KGPBUAFX_INTERFACEMAP@@XZ 5f8287ad f
 0001:000277b3       ?GetInterfaceMap@COleDocObjectItem@@MBEPBUAFX_INTERFACEMAP@@XZ 5f8287b3 f
 0001:000277b9       ??0COleDocObjectItem@@QAE@PAVCOleDocument@@@Z 5f8287b9 f
 0001:000277ef       ??_ECOleDocObjectItem@@UAEPAXI@Z 5f8287ef f
 0001:000277ef       ??_GCOleDocObjectItem@@UAEPAXI@Z 5f8287ef f
 0001:0002780b       ??1COleDocObjectItem@@UAE@XZ 5f82880b f
 0001:00027863       ?AddRef@XOleDocumentSite@COleDocObjectItem@@UAGKXZ 5f828863 f
 0001:000278a7       ?Release@XOleDocumentSite@COleDocObjectItem@@UAGKXZ 5f8288a7 f
 0001:000278eb       ?QueryInterface@XOleDocumentSite@COleDocObjectItem@@UAGJABU_GUID@@PAPAX@Z 5f8288eb f
 0001:00027935       ?ActivateMe@XOleDocumentSite@COleDocObjectItem@@UAGJPAUIOleDocumentView@@@Z 5f828935 f
 0001:00027a79       ?ActivateAndShow@COleDocObjectItem@@IAEXXZ 5f828a79 f
 0001:00027ab8       ?OnGetItemPosition@COleDocObjectItem@@MAEXAAVCRect@@@Z 5f828ab8 f
 0001:00027acb       ?GetActiveView@COleDocObjectItem@@QBEPAUIOleDocumentView@@XZ 5f828acb f
 0001:00027acf       ?Release@COleDocObjectItem@@UAEXW4tagOLECLOSE@@@Z 5f828acf f
 0001:00027aff       ?ExecCommand@COleDocObjectItem@@QAEJKKPBU_GUID@@@Z 5f828aff f
 0001:00027b42       ?SupportsIPrint@COleDocObjectItem@@IAEHXZ 5f828b42 f
 0001:00027ba5       ?GetPageCount@COleDocObjectItem@@QAEHPAJ0@Z 5f828ba5 f
 0001:00027bf0       ?GetHelpMenu@COleDocObjectItem@@MAEPAVCMenu@@AAI@Z 5f828bf0 f
 0001:00027c1d       ?OnInsertMenus@COleDocObjectItem@@UAEXPAVCMenu@@PAUtagOleMenuGroupWidths@@@Z 5f828c1d f
 0001:00027da5       ?OnRemoveMenus@COleDocObjectItem@@UAEXPAVCMenu@@@Z 5f828da5 f
 0001:00027e12       ?OnPreparePrinting@COleDocObjectItem@@SAHPAVCView@@PAUCPrintInfo@@H@Z 5f828e12 f
 0001:00027f12       ?OnPrint@COleDocObjectItem@@SAXPAVCView@@PAUCPrintInfo@@H@Z 5f828f12 f
 0001:000280c2       ??0?$CIP@UIUnknown@@$1?IID_IUnknown@@3U_GUID@@B@@QAE@PAUIUnknown@@H@Z 5f8290c2 f
 0001:000280dd       ??B?$CIP@UIUnknown@@$1?IID_IUnknown@@3U_GUID@@B@@QAEPAUIUnknown@@XZ 5f8290dd f
 0001:000280e0       ??0CMonikerFile@@QAE@XZ    5f8290e0 f
 0001:00028119       ?GetMoniker@CMonikerFile@@QBEPAUIMoniker@@XZ 5f829119 f
 0001:0002811d       ?SetBinding@CAsyncMonikerFile@@IAEXPAUIBinding@@@Z 5f82911d f
 0001:0002812c       ?SetFormatEtc@CAsyncMonikerFile@@IAEXPAUtagFORMATETC@@@Z 5f82912c f
 0001:00028136       ?AddRef@XOleCache@COleControl@@UAGKXZ 5f829136 f
 0001:00028148       ?Release@XOleCache@COleControl@@UAGKXZ 5f829148 f
 0001:0002815a       ?QueryInterface@XOleCache@COleControl@@UAGJABU_GUID@@PAPAX@Z 5f82915a f
 0001:00028174       ?Cache@XOleCache@COleControl@@UAGJPAUtagFORMATETC@@KPAK@Z 5f829174 f
 0001:000281b2       ?Uncache@XOleCache@COleControl@@UAGJK@Z 5f8291b2 f
 0001:000281e8       ?EnumCache@XOleCache@COleControl@@UAGJPAPAUIEnumSTATDATA@@@Z 5f8291e8 f
 0001:0002821e       ?InitCache@XOleCache@COleControl@@UAGJPAUIDataObject@@@Z 5f82921e f
 0001:00028254       ?SetData@XOleCache@COleControl@@UAGJPAUtagFORMATETC@@PAUtagSTGMEDIUM@@H@Z 5f829254 f
 0001:00028292       ?_AfxGetParkingWindow@@YGPAUHWND__@@XZ 5f829292 f
 0001:00028329       ?_AfxReleaseParkingWindow@@YGXXZ 5f829329 f
 0001:000283ab       ?_GetBaseInterfaceMap@COleControl@@KGPBUAFX_INTERFACEMAP@@XZ 5f8293ab f
 0001:000283b1       ?GetInterfaceMap@COleControl@@MBEPBUAFX_INTERFACEMAP@@XZ 5f8293b1 f
 0001:000283b7       ?_GetBaseMessageMap@COleControl@@KGPBUAFX_MSGMAP@@XZ 5f8293b7 f
 0001:000283bd       ?GetMessageMap@COleControl@@MBEPBUAFX_MSGMAP@@XZ 5f8293bd f
 0001:000283c3       ??0COleControl@@QAE@XZ     5f8293c3 f
 0001:000285fa       ??_GCOleControl@@UAEPAXI@Z 5f8295fa f
 0001:000285fa       ??_ECOleControl@@UAEPAXI@Z 5f8295fa f
 0001:00028616       ??1COleControl@@UAE@XZ     5f829616 f
 0001:000286f9       ?ReleaseCaches@COleControl@@IAEXXZ 5f8296f9 f
 0001:000287ff       ?OnFinalRelease@COleControl@@MAEXXZ 5f8297ff f
 0001:00028833       ?GetInterfaceHook@COleControl@@MAEPAUIUnknown@@PBX@Z 5f829833 f
 0001:000288b0       ?SetInitialSize@COleControl@@QAEXHH@Z 5f8298b0 f
 0001:000288eb       ?GetDispatchIID@COleControl@@MAEHPAU_GUID@@@Z 5f8298eb f
 0001:00028909       ?InitializeIIDs@COleControl@@QAEXPBU_GUID@@0@Z 5f829909 f
 0001:00028931       ?_AfxFillPSOnStack@@YGXXZ  5f829931 f
 0001:00028958       ?DoSuperclassPaint@COleControl@@QAEXPAVCDC@@ABVCRect@@@Z 5f829958 f
 0001:00028a42       ?IsSubclassedControl@COleControl@@UAEHXZ 5f829a42 f
 0001:00028a6b       ?CreateControlWindow@COleControl@@MAEHPAUHWND__@@ABVCRect@@PBUtagRECT@@@Z 5f829a6b f
 0001:00028c98       ?ReparentControlWindow@COleControl@@UAEXPAUHWND__@@0@Z 5f829c98 f
 0001:00028ca9       ?GetControlSize@COleControl@@QAEXPAH0@Z 5f829ca9 f
 0001:00028ce4       ?SetControlSize@COleControl@@QAEHHH@Z 5f829ce4 f
 0001:00028d2c       ?SetRectInContainer@COleControl@@QAEHPBUtagRECT@@@Z 5f829d2c f
 0001:00028d74       ?OnResetState@COleControl@@UAEXXZ 5f829d74 f
 0001:00028da1       ?_AfxDrawBorders@@YGXPAVCDC@@AAVCRect@@HH@Z 5f829da1 f
 0001:00028dfc       ?DrawContent@COleControl@@IAEXPAVCDC@@AAVCRect@@@Z 5f829dfc f
 0001:00028ece       ?DrawMetafile@COleControl@@IAEXPAVCDC@@AAVCRect@@@Z 5f829ece f
 0001:00028f4f       ?OnDraw@COleControl@@UAEXPAVCDC@@ABVCRect@@1@Z 5f829f4f f
 0001:00028f52       ?OnDrawMetafile@COleControl@@UAEXPAVCDC@@ABVCRect@@@Z 5f829f52 f
 0001:00028f69       ?GetMetafileData@COleControl@@IAEHPAUtagFORMATETC@@PAUtagSTGMEDIUM@@@Z 5f829f69 f
 0001:000290e3       ?QueryDefHandler@COleControl@@IAEPAXABU_GUID@@@Z 5f82a0e3 f
 0001:00029147       ?InvalidateControl@COleControl@@QAEXPBUtagRECT@@H@Z 5f82a147 f
 0001:000291f4       ?GetOuterWindow@COleControl@@IBEPAVCWnd@@XZ 5f82a1f4 f
 0001:00029201       ?OnReflectorDestroyed@COleControl@@MAEXXZ 5f82a201 f
 0001:00029209       ?SaveState@COleControl@@IAEJPAUIStream@@@Z 5f82a209 f
 0001:00029297       ?LoadState@COleControl@@IAEJPAUIStream@@@Z 5f82a297 f
 0001:00029376       ?SendAdvise@COleControl@@IAEXI@Z 5f82a376 f
 0001:00029488       ?OnHide@COleControl@@MAEJXZ 5f82a488 f
 0001:000294e7       ?OnOpen@COleControl@@MAEJHPAUtagMSG@@@Z 5f82a4e7 f
 0001:000295d3       ?CreateFrameWindow@COleControl@@MAEPAVCControlFrameWnd@@XZ 5f82a5d3 f
 0001:0002963d       ?OnFrameClose@COleControl@@MAEXXZ 5f82a63d f
 0001:000296a3       ?ResizeOpenControl@COleControl@@IAEXHH@Z 5f82a6a3 f
 0001:000296e2       ?ResizeFrameWindow@COleControl@@MAEXHH@Z 5f82a6e2 f
 0001:00029752       ?GetRectInContainer@COleControl@@QAEHPAUtagRECT@@@Z 5f82a752 f
 0001:0002977c       ?GetPropPageIDs@COleControl@@MAEPAU_GUID@@AAK@Z 5f82a77c f
 0001:00029788       ?OnEdit@COleControl@@UAEHPAUtagMSG@@PAUHWND__@@PBUtagRECT@@@Z 5f82a788 f
 0001:000297b6       ?_AfxGetTopLevelWindow@@YGPAUHWND__@@PAU1@@Z 5f82a7b6 f
 0001:000297ce       ?OnProperties@COleControl@@UAEHPAUtagMSG@@PAUHWND__@@PBUtagRECT@@@Z 5f82a7ce f
 0001:0002989c       ?GetControlFlags@COleControl@@UAEKXZ 5f82a89c f
 0001:000298a0       ?OnPaint@COleControl@@IAEXPAVCDC@@@Z 5f82a8a0 f
 0001:000299a5       ?OnEraseBkgnd@COleControl@@IAEHPAVCDC@@@Z 5f82a9a5 f
 0001:000299c4       ?Serialize@COleControl@@MAEXAAVCArchive@@@Z 5f82a9c4 f
 0001:00029a08       ?DoPropExchange@COleControl@@UAEXPAVCPropExchange@@@Z 5f82aa08 f
 0001:00029a23       ?ControlInfoChanged@COleControl@@QAEXXZ 5f82aa23 f
 0001:00029a34       ?LockInPlaceActive@COleControl@@QAEHH@Z 5f82aa34 f
 0001:00029a58       ?GetExtendedControl@COleControl@@QAEPAUIDispatch@@XZ 5f82aa58 f
 0001:00029a79       ?TransformCoords@COleControl@@QAEXPAU_POINTL@@PAUtagPOINTF@@K@Z 5f82aa79 f
 0001:00029ac9       ?AddRef@XOleControl@COleControl@@UAGKXZ 5f82aac9 f
 0001:00029adb       ?Release@XOleControl@COleControl@@UAGKXZ 5f82aadb f
 0001:00029aed       ?QueryInterface@XOleControl@COleControl@@UAGJABU_GUID@@PAPAX@Z 5f82aaed f
 0001:00029b07       ?GetControlInfo@XOleControl@COleControl@@UAGJPAUtagCONTROLINFO@@@Z 5f82ab07 f
 0001:00029b56       ?OnMnemonic@XOleControl@COleControl@@UAGJPAUtagMSG@@@Z 5f82ab56 f
 0001:00029ba5       ?OnAmbientPropertyChange@XOleControl@COleControl@@UAGJJ@Z 5f82aba5 f
 0001:00029c26       ?FreezeEvents@XOleControl@COleControl@@UAGJH@Z 5f82ac26 f
 0001:00029c96       ?OnGetControlInfo@COleControl@@UAEXPAUtagCONTROLINFO@@@Z 5f82ac96 f
 0001:00029ca9       ?OnSetClientSite@COleControl@@UAEXXZ 5f82aca9 f
 0001:00029ce4       ?GetClientSite@COleControl@@QAEPAUIOleClientSite@@XZ 5f82ace4 f
 0001:00029ceb       ?TranslateColor@COleControl@@QAEKKPAUHPALETTE__@@@Z 5f82aceb f
 0001:00029d0a       ?Refresh@COleControl@@QAEXXZ 5f82ad0a f
 0001:00029d26       ?DoClick@COleControl@@QAEXXZ 5f82ad26 f
 0001:00029d31       ?OnNcCreate@COleControl@@IAEHPAUtagCREATESTRUCTW@@@Z 5f82ad31 f
 0001:00029d4f       ?RecreateControlWindow@COleControl@@QAEXXZ 5f82ad4f f
 0001:00029e0b       ?CreateWindowForSubclassedControl@COleControl@@IAEXXZ 5f82ae0b f
 0001:00029e7b       ?OnMouseActivate@COleControl@@IAEHPAVCWnd@@II@Z 5f82ae7b f
 0001:00029e9e       ?PreModalDialog@COleControl@@QAEXPAUHWND__@@@Z 5f82ae9e f
 0001:00029ecb       ?PostModalDialog@COleControl@@QAEXPAUHWND__@@@Z 5f82aecb f
 0001:00029ef8       ?SetModifiedFlag@COleControl@@QAEXH@Z 5f82aef8 f
 0001:00029f18       ?IsModified@COleControl@@QAEHXZ 5f82af18 f
 0001:00029f25       ?WillAmbientsBeValidDuringLoad@COleControl@@QAEHXZ 5f82af25 f
 0001:00029f32       ?EnableSimpleFrame@COleControl@@QAEXXZ 5f82af32 f
 0001:00029f3a       ?IgnoreWindowMessage@COleControl@@IAEHIIJPAJ@Z 5f82af3a f
 0001:00029f95       ?WindowProc@COleControl@@UAEJIIJ@Z 5f82af95 f
 0001:0002a0e5       ?DefWindowProcW@COleControl@@MAEJIIJ@Z 5f82b0e5 f
 0001:0002a103       ?OnCreate@COleControl@@IAEHPAUtagCREATESTRUCTW@@@Z 5f82b103 f
 0001:0002a121       ?OnSize@COleControl@@IAEXIHH@Z 5f82b121 f
 0001:0002a13b       ?OnShowWindow@COleControl@@IAEXHI@Z 5f82b13b f
 0001:0002a155       ?OnInitMenuPopup@COleControl@@IAEXPAVCMenu@@IH@Z 5f82b155 f
 0001:0002a296       ?OnMenuSelect@COleControl@@IAEXIIPAUHMENU__@@@Z 5f82b296 f
 0001:0002a346       ?GetMessageString@COleControl@@UBEXIAAVCString@@@Z 5f82b346 f
 0001:0002a38c       ?OnSetMessageString@COleControl@@IAEJIJ@Z 5f82b38c f
 0001:0002a411       ?OnEnterIdle@COleControl@@IAEXIPAVCWnd@@@Z 5f82b411 f
 0001:0002a43a       ?AddRef@XSpecifyPropertyPages@COleControl@@UAGKXZ 5f82b43a f
 0001:0002a44c       ?Release@XSpecifyPropertyPages@COleControl@@UAGKXZ 5f82b44c f
 0001:0002a45e       ?QueryInterface@XSpecifyPropertyPages@COleControl@@UAGJABU_GUID@@PAPAX@Z 5f82b45e f
 0001:0002a478       ?GetPages@XSpecifyPropertyPages@COleControl@@UAGJPAUtagCAUUID@@@Z 5f82b478 f
 0001:0002a521       ?OnDestroy@COleControl@@IAEXXZ 5f82b521 f
 0001:0002a561       ?OnKillFocus@COleControl@@IAEXPAVCWnd@@@Z 5f82b561 f
 0001:0002a57f       ?OnSetFocus@COleControl@@IAEXPAVCWnd@@@Z 5f82b57f f
 0001:0002a59d       ?OnOcmCtlColorBtn@COleControl@@IAEJIJ@Z 5f82b59d f
 0001:0002a5b6       ?OnOcmCtlColorDlg@COleControl@@IAEJIJ@Z 5f82b5b6 f
 0001:0002a5cf       ?OnOcmCtlColorEdit@COleControl@@IAEJIJ@Z 5f82b5cf f
 0001:0002a5e8       ?OnOcmCtlColorListBox@COleControl@@IAEJIJ@Z 5f82b5e8 f
 0001:0002a601       ?OnOcmCtlColorMsgBox@COleControl@@IAEJIJ@Z 5f82b601 f
 0001:0002a61a       ?OnOcmCtlColorScrollBar@COleControl@@IAEJIJ@Z 5f82b61a f
 0001:0002a633       ?OnOcmCtlColorStatic@COleControl@@IAEJIJ@Z 5f82b633 f
 0001:0002a64c       ?ThrowError@COleControl@@QAEXJII@Z 5f82b64c f
 0001:0002a68e       ?ThrowError@COleControl@@QAEXJPBGI@Z 5f82b68e f
 0001:0002a6d6       ?IsInvokeAllowed@COleControl@@MAEHJ@Z 5f82b6d6 f
 0001:0002a6e5       ?GetIID@XPropConnPt@COleControl@@UAEABU_GUID@@XZ 5f82b6e5 f
 0001:0002a6eb       ??_GXEventConnPt@COleControl@@UAEPAXI@Z 5f82b6eb f
 0001:0002a6eb       ??_EXEventConnPt@COleControl@@UAEPAXI@Z 5f82b6eb f
 0001:0002a707       ??1CConnectionPoint@@UAE@XZ 5f82b707 f
 0001:0002a707       ??1XEventConnPt@COleControl@@UAE@XZ 5f82b707 f
 0001:0002a76c       ??_ECReflectorWnd@@UAEPAXI@Z 5f82b76c f
 0001:0002a76c       ??_GCReflectorWnd@@UAEPAXI@Z 5f82b76c f
 0001:0002a788       ??1CReflectorWnd@@UAE@XZ   5f82b788 f
 0001:0002a78d       ??0CParkingWnd@@QAE@XZ     5f82b78d f
 0001:0002a7ff       ??_GCParkingWnd@@UAEPAXI@Z 5f82b7ff f
 0001:0002a7ff       ??_ECParkingWnd@@UAEPAXI@Z 5f82b7ff f
 0001:0002a81b       ??1CParkingWnd@@UAE@XZ     5f82b81b f
 0001:0002a850       ?_GetBaseConnectionMap@COleControl@@KGPBUAFX_CONNECTIONMAP@@XZ 5f82b850 f
 0001:0002a856       ?GetConnectionMap@COleControl@@MBEPBUAFX_CONNECTIONMAP@@XZ 5f82b856 f
 0001:0002a85c       ?GetConnectionHook@COleControl@@MAEPAUIConnectionPoint@@ABU_GUID@@@Z 5f82b85c f
 0001:0002a887       ?GetExtraConnectionPoints@COleControl@@MAEHPAVCPtrArray@@@Z 5f82b887 f
 0001:0002a8a0       ?AddRef@XProvideClassInfo@COleControl@@UAGKXZ 5f82b8a0 f
 0001:0002a8b2       ?Release@XProvideClassInfo@COleControl@@UAGKXZ 5f82b8b2 f
 0001:0002a8c4       ?QueryInterface@XProvideClassInfo@COleControl@@UAGJABU_GUID@@PAPAX@Z 5f82b8c4 f
 0001:0002a8de       ?GetClassInfoW@XProvideClassInfo@COleControl@@UAGJPAPAUITypeInfo@@@Z 5f82b8de f
 0001:0002a942       ?GetGUID@XProvideClassInfo@COleControl@@UAGJKPAU_GUID@@@Z 5f82b942 f
 0001:0002a978       ?OnAdvise@XEventConnPt@COleControl@@UAEXH@Z 5f82b978 f
 0001:0002a9bf       ?GetIID@XEventConnPt@COleControl@@UAEABU_GUID@@XZ 5f82b9bf f
 0001:0002a9cf       ?QuerySinkInterface@XEventConnPt@COleControl@@UAEPAUIUnknown@@PAU3@@Z 5f82b9cf f
 0001:0002aa04       ?AfxConnectionAdvise@@YGHPAUIUnknown@@ABU_GUID@@0HPAK@Z 5f82ba04 f
 0001:0002aa76       ?AfxConnectionUnadvise@@YGHPAUIUnknown@@ABU_GUID@@0HK@Z 5f82ba76 f
 0001:0002aaf3       ?_AfxRegisterClipFormat@@YGGABU_GUID@@@Z 5f82baf3 f
 0001:0002ab50       ?_AfxGetClipboardFormatConvertVBX@@YGGXZ 5f82bb50 f
 0001:0002ab6c       ?_AfxGetClipboardFormatPersistPropset@@YGGXZ 5f82bb6c f
 0001:0002ab88       ?_AfxOleMatchPropsetClipFormat@@YGHGPAU_GUID@@@Z 5f82bb88 f
 0001:0002abc2       ?AddRef@XDataObject@COleControl@@UAGKXZ 5f82bbc2 f
 0001:0002abd4       ?Release@XDataObject@COleControl@@UAGKXZ 5f82bbd4 f
 0001:0002abe6       ?QueryInterface@XDataObject@COleControl@@UAGJABU_GUID@@PAPAX@Z 5f82bbe6 f
 0001:0002ac00       ?GetData@XDataObject@COleControl@@UAGJPAUtagFORMATETC@@PAUtagSTGMEDIUM@@@Z 5f82bc00 f
 0001:0002ac2f       ?GetDataHere@XDataObject@COleControl@@UAGJPAUtagFORMATETC@@PAUtagSTGMEDIUM@@@Z 5f82bc2f f
 0001:0002ac5e       ?QueryGetData@XDataObject@COleControl@@UAGJPAUtagFORMATETC@@@Z 5f82bc5e f
 0001:0002ac89       ?GetCanonicalFormatEtc@XDataObject@COleControl@@UAGJPAUtagFORMATETC@@0@Z 5f82bc89 f
 0001:0002acb8       ?SetData@XDataObject@COleControl@@UAGJPAUtagFORMATETC@@PAUtagSTGMEDIUM@@H@Z 5f82bcb8 f
 0001:0002aceb       ?EnumFormatEtc@XDataObject@COleControl@@UAGJKPAPAUIEnumFORMATETC@@@Z 5f82bceb f
 0001:0002ad1a       ?DAdvise@XDataObject@COleControl@@UAGJPAUtagFORMATETC@@KPAUIAdviseSink@@PAK@Z 5f82bd1a f
 0001:0002ad5e       ?DUnadvise@XDataObject@COleControl@@UAGJK@Z 5f82bd5e f
 0001:0002ad7d       ?EnumDAdvise@XDataObject@COleControl@@UAGJPAPAUIEnumSTATDATA@@@Z 5f82bd7d f
 0001:0002ada0       ??0CControlDataSource@COleControl@@QAE@PAV1@@Z 5f82bda0 f
 0001:0002adc2       ??_GCControlDataSource@COleControl@@UAEPAXI@Z 5f82bdc2 f
 0001:0002adc2       ??_ECControlDataSource@COleControl@@UAEPAXI@Z 5f82bdc2 f
 0001:0002adde       ??1COleDataSource@@UAE@XZ  5f82bdde f
 0001:0002adde       ??1CControlDataSource@COleControl@@UAE@XZ 5f82bdde f
 0001:0002ae30       ?OnRenderGlobalData@CControlDataSource@COleControl@@MAEHPAUtagFORMATETC@@PAPAX@Z 5f82be30 f
 0001:0002ae46       ?OnRenderFileData@CControlDataSource@COleControl@@MAEHPAUtagFORMATETC@@PAVCFile@@@Z 5f82be46 f
 0001:0002ae5c       ?OnRenderData@CControlDataSource@COleControl@@MAEHPAUtagFORMATETC@@PAUtagSTGMEDIUM@@@Z 5f82be5c f
 0001:0002ae8e       ?OnSetData@CControlDataSource@COleControl@@MAEHPAUtagFORMATETC@@PAUtagSTGMEDIUM@@H@Z 5f82be8e f
 0001:0002aea8       ?OnRenderData@COleControl@@UAEHPAUtagFORMATETC@@PAUtagSTGMEDIUM@@@Z 5f82bea8 f
 0001:0002aef6       ?OnSetData@COleControl@@UAEHPAUtagFORMATETC@@PAUtagSTGMEDIUM@@H@Z 5f82bef6 f
 0001:0002af44       ?GetDataSource@COleControl@@IAEPAVCControlDataSource@1@XZ 5f82bf44 f
 0001:0002afdc       ?SetInitialDataFormats@COleControl@@MAEXXZ 5f82bfdc f
 0001:0002b06b       ?InitStockEventMask@COleControl@@IAEXXZ 5f82c06b f
 0001:0002b0de       ?GetEventMap@COleControl@@MBEPBUAFX_EVENTMAP@@XZ 5f82c0de f
 0001:0002b0e4       ?GetEventMapEntry@COleControl@@IBEPBUAFX_EVENTMAP_ENTRY@@PBGPAJ@Z 5f82c0e4 f
 0001:0002b148       ?FireEventV@COleControl@@IAEXJPAEPAD@Z 5f82c148 f
 0001:0002b1eb       ?FireEvent@COleControl@@QAAXJPAEZZ 5f82c1eb f
 0001:0002b202       ?_AfxShiftState@@YGFXZ     5f82c202 f
 0001:0002b23b       ?OnSysKeyDown@COleControl@@IAEXIII@Z 5f82c23b f
 0001:0002b288       ?OnSysKeyUp@COleControl@@IAEXIII@Z 5f82c288 f
 0001:0002b2d5       ?OnKeyDown@COleControl@@IAEXIII@Z 5f82c2d5 f
 0001:0002b322       ?OnKeyUp@COleControl@@IAEXIII@Z 5f82c322 f
 0001:0002b36f       ?KeyUp@COleControl@@IAEXPAG@Z 5f82c36f f
 0001:0002b3c1       ?KeyDown@COleControl@@IAEXPAG@Z 5f82c3c1 f
 0001:0002b413       ?_AfxPostTrailByte@@YGXPAVCWnd@@E@Z 5f82c413 f
 0001:0002b481       ?OnGetDlgCode@COleControl@@IAEIXZ 5f82c481 f
 0001:0002b4b8       ?OnChar@COleControl@@IAEXIII@Z 5f82c4b8 f
 0001:0002b635       ?OnKeyPressEvent@COleControl@@UAEXG@Z 5f82c635 f
 0001:0002b638       ?OnKeyUpEvent@COleControl@@UAEXGG@Z 5f82c638 f
 0001:0002b63b       ?ButtonDown@COleControl@@IAEXGIVCPoint@@@Z 5f82c63b f
 0001:0002b6c4       ?ButtonUp@COleControl@@IAEXGIVCPoint@@@Z 5f82c6c4 f
 0001:0002b798       ?ButtonDblClk@COleControl@@IAEXGIVCPoint@@@Z 5f82c798 f
 0001:0002b7ec       ?OnMouseMove@COleControl@@IAEXIVCPoint@@@Z 5f82c7ec f
 0001:0002b845       ?OnLButtonDown@COleControl@@IAEXIVCPoint@@@Z 5f82c845 f
 0001:0002b85b       ?OnLButtonUp@COleControl@@IAEXIVCPoint@@@Z 5f82c85b f
 0001:0002b871       ?OnLButtonDblClk@COleControl@@IAEXIVCPoint@@@Z 5f82c871 f
 0001:0002b887       ?OnMButtonDown@COleControl@@IAEXIVCPoint@@@Z 5f82c887 f
 0001:0002b89d       ?OnMButtonUp@COleControl@@IAEXIVCPoint@@@Z 5f82c89d f
 0001:0002b8b3       ?OnMButtonDblClk@COleControl@@IAEXIVCPoint@@@Z 5f82c8b3 f
 0001:0002b8c9       ?OnRButtonDown@COleControl@@IAEXIVCPoint@@@Z 5f82c8c9 f
 0001:0002b8df       ?OnRButtonUp@COleControl@@IAEXIVCPoint@@@Z 5f82c8df f
 0001:0002b8f5       ?OnRButtonDblClk@COleControl@@IAEXIVCPoint@@@Z 5f82c8f5 f
 0001:0002b90b       ?OnButtonDown@COleControl@@IAEXGIVCPoint@@@Z 5f82c90b f
 0001:0002b946       ?OnButtonUp@COleControl@@IAEXGIVCPoint@@@Z 5f82c946 f
 0001:0002b9ba       ?OnButtonDblClk@COleControl@@IAEXGIVCPoint@@@Z 5f82c9ba f
 0001:0002b9e7       ?OnCancelMode@COleControl@@IAEXXZ 5f82c9e7 f
 0001:0002ba15       ?OnClick@COleControl@@UAEXG@Z 5f82ca15 f
 0001:0002ba3c       ?FireError@COleControl@@QAEXJPBGI@Z 5f82ca3c f
 0001:0002bae5       ?DisplayError@COleControl@@UAEXJPBG00I@Z 5f82cae5 f
 0001:0002baf7       ?GetMessageMap@CControlFrameWnd@@MBEPBUAFX_MSGMAP@@XZ 5f82caf7 f
 0001:0002bafd       ??0CControlFrameWnd@@QAE@PAVCOleControl@@@Z 5f82cafd f
 0001:0002bb18       ?PreCreateWindow@CControlFrameWnd@@UAEHAAUtagCREATESTRUCTW@@@Z 5f82cb18 f
 0001:0002bb36       ?Create@CControlFrameWnd@@UAEHPBG@Z 5f82cb36 f
 0001:0002bb5d       ?OnClose@CControlFrameWnd@@IAEXXZ 5f82cb5d f
 0001:0002bb74       ?PostNcDestroy@CControlFrameWnd@@MAEXXZ 5f82cb74 f
 0001:0002bb80       ?OnActivate@CControlFrameWnd@@IAEXIPAVCWnd@@H@Z 5f82cb80 f
 0001:0002bb94       ??0CFontHolder@@QAE@PAUIPropertyNotifySink@@@Z 5f82cb94 f
 0001:0002bba7       ?SetFontNotifySink@CFontHolder@@QAEXPAUIPropertyNotifySink@@@Z 5f82cba7 f
 0001:0002bbb1       ?ReleaseFont@CFontHolder@@QAEXXZ 5f82cbb1 f
 0001:0002bbb1       ??1CFontHolder@@QAE@XZ     5f82cbb1 f
 0001:0002bbda       ?InitializeFont@CFontHolder@@QAEXPBUtagFONTDESC@@PAUIDispatch@@@Z 5f82cbda f
 0001:0002bc57       ?_AfxIsSameFont@@YGHAAVCFontHolder@@PBUtagFONTDESC@@PAUIFontDisp@@@Z 5f82cc57 f
 0001:0002bde9       ?GetFontHandle@CFontHolder@@QAEPAUHFONT__@@XZ 5f82cde9 f
 0001:0002bdfa       ?GetFontHandle@CFontHolder@@QAEPAUHFONT__@@JJ@Z 5f82cdfa f
 0001:0002be2f       ?Select@CFontHolder@@QAEPAVCFont@@PAVCDC@@JJ@Z 5f82ce2f f
 0001:0002be7a       ?QueryTextMetrics@CFontHolder@@QAEXPAUtagTEXTMETRICW@@@Z 5f82ce7a f
 0001:0002be9f       ?SetFont@CFontHolder@@QAEXPAUIFont@@@Z 5f82ce9f f
 0001:0002becf       ?GetDisplayString@CFontHolder@@QAEHAAVCString@@@Z 5f82cecf f
 0001:0002bee0       ??0_AFXCTL_UIACTIVE_INFO@@QAE@PAUHMENU__@@PAUIOleInPlaceFrame@@@Z 5f82cee0 f
 0001:0002bf4d       ??1_AFXCTL_UIACTIVE_INFO@@QAE@XZ 5f82cf4d f
 0001:0002bf6e       ?_GetClippingCoordinates@@YGXPBUtagRECT@@0PAU1@PAUtagPOINT@@@Z 5f82cf6e f
 0001:0002bfd5       ?OnActivateInPlace@COleControl@@MAEJHPAUtagMSG@@@Z 5f82cfd5 f
 0001:0002c3a0       ?ForwardActivationMsg@COleControl@@IAEXPAUtagMSG@@@Z 5f82d3a0 f
 0001:0002c46c       ?OnGetInPlaceMenu@COleControl@@UAEPAUHMENU__@@XZ 5f82d46c f
 0001:0002c46f       ?BuildSharedMenu@COleControl@@MAEHXZ 5f82d46f f
 0001:0002c50e       ?DestroySharedMenu@COleControl@@MAEXXZ 5f82d50e f
 0001:0002c576       ?AddFrameLevelUI@COleControl@@MAEXXZ 5f82d576 f
 0001:0002c5a4       ?RemoveFrameLevelUI@COleControl@@MAEXXZ 5f82d5a4 f
 0001:0002c5d8       ?OnShowToolBars@COleControl@@UAEXXZ 5f82d5d8 f
 0001:0002c5e7       ?AddRef@XOleInPlaceObject@COleControl@@UAGKXZ 5f82d5e7 f
 0001:0002c5f9       ?Release@XOleInPlaceObject@COleControl@@UAGKXZ 5f82d5f9 f
 0001:0002c60b       ?QueryInterface@XOleInPlaceObject@COleControl@@UAGJABU_GUID@@PAPAX@Z 5f82d60b f
 0001:0002c625       ?GetWindow@XOleInPlaceObject@COleControl@@UAGJPAPAUHWND__@@@Z 5f82d625 f
 0001:0002c65b       ?ContextSensitiveHelp@XOleInPlaceObject@COleControl@@UAGJH@Z 5f82d65b f
 0001:0002c663       ?InPlaceDeactivate@XOleInPlaceObject@COleControl@@UAGJXZ 5f82d663 f
 0001:0002c71f       ?UIDeactivate@XOleInPlaceObject@COleControl@@UAGJXZ 5f82d71f f
 0001:0002c7c3       ?SetObjectRects@XOleInPlaceObject@COleControl@@UAGJPBUtagRECT@@0@Z 5f82d7c3 f
 0001:0002c821       ?OnSetObjectRects@COleControl@@UAEHPBUtagRECT@@0@Z 5f82d821 f
 0001:0002c919       ?ReactivateAndUndo@XOleInPlaceObject@COleControl@@UAGJXZ 5f82d919 f
 0001:0002c921       ?AddRef@XOleInPlaceActiveObject@COleControl@@UAGKXZ 5f82d921 f
 0001:0002c933       ?Release@XOleInPlaceActiveObject@COleControl@@UAGKXZ 5f82d933 f
 0001:0002c945       ?QueryInterface@XOleInPlaceActiveObject@COleControl@@UAGJABU_GUID@@PAPAX@Z 5f82d945 f
 0001:0002c95f       ?GetWindow@XOleInPlaceActiveObject@COleControl@@UAGJPAPAUHWND__@@@Z 5f82d95f f
 0001:0002c973       ?TranslateAcceleratorW@XOleInPlaceActiveObject@COleControl@@UAGJPAUtagMSG@@@Z 5f82d973 f
 0001:0002c9f0       ?OnDocWindowActivate@XOleInPlaceActiveObject@COleControl@@UAGJH@Z 5f82d9f0 f
 0001:0002ca57       ?AfxVerifyLicFile@@YGHPAUHINSTANCE__@@PBG1I@Z 5f82da57 f
 0001:0002cb55       ??0CConnectionPoint@@QAE@XZ 5f82db55 f
 0001:0002cb76       ??_ECConnectionPoint@@UAEPAXI@Z 5f82db76 f
 0001:0002cb76       ??_GCConnectionPoint@@UAEPAXI@Z 5f82db76 f
 0001:0002cb92       ?GetStartPosition@CConnectionPoint@@QBEPAU__POSITION@@XZ 5f82db92 f
 0001:0002cbb0       ?GetNextConnection@CConnectionPoint@@QBEPAUIUnknown@@AAPAU__POSITION@@@Z 5f82dbb0 f
 0001:0002cbe4       ?GetConnections@CConnectionPoint@@QAEPBVCPtrArray@@XZ 5f82dbe4 f
 0001:0002cbf7       ?GetMaxConnections@CConnectionPoint@@UAEHXZ 5f82dbf7 f
 0001:0002cbfb       ?GetContainer@CConnectionPoint@@UAEPAUIConnectionPointContainer@@XZ 5f82dbfb f
 0001:0002cc19       ?CreateConnectionArray@CConnectionPoint@@QAEXXZ 5f82dc19 f
 0001:0002cc6f       ?GetConnectionCount@CConnectionPoint@@QAEHXZ 5f82dc6f f
 0001:0002cc87       ?QuerySinkInterface@CConnectionPoint@@UAEPAUIUnknown@@PAU2@@Z 5f82dc87 f
 0001:0002ccac       ?Release@XConnPt@CConnectionPoint@@UAGKXZ 5f82dcac f
 0001:0002ccbb       ?AddRef@XConnPt@CConnectionPoint@@UAGKXZ 5f82dcbb f
 0001:0002cccc       ?QueryInterface@XConnPt@CConnectionPoint@@UAGJABU_GUID@@PAPAX@Z 5f82dccc f
 0001:0002cd16       ?GetConnectionInterface@XConnPt@CConnectionPoint@@UAGJPAU_GUID@@@Z 5f82dd16 f
 0001:0002cd36       ?GetConnectionPointContainer@XConnPt@CConnectionPoint@@UAGJPAPAUIConnectionPointContainer@@@Z 5f82dd36 f
 0001:0002cd5a       ?Advise@XConnPt@CConnectionPoint@@UAGJPAUIUnknown@@PAK@Z 5f82dd5a f
 0001:0002cdec       ?Unadvise@XConnPt@CConnectionPoint@@UAGJK@Z 5f82ddec f
 0001:0002ce59       ?GetInterfaceMap@CEnumConnections@@MBEPBUAFX_INTERFACEMAP@@XZ 5f82de59 f
 0001:0002ce5f       ??0CEnumConnections@@QAE@PBXI@Z 5f82de5f f
 0001:0002ce83       ??_ECEnumConnections@@UAEPAXI@Z 5f82de83 f
 0001:0002ce83       ??_GCEnumConnections@@UAEPAXI@Z 5f82de83 f
 0001:0002ce9f       ??1CEnumConnections@@UAE@XZ 5f82de9f f
 0001:0002cef5       ?OnClone@CEnumConnections@@MAEPAVCEnumArray@@XZ 5f82def5 f
 0001:0002cf3e       ?AddConnection@CEnumConnections@@QAEXPAUtagCONNECTDATA@@@Z 5f82df3e f
 0001:0002cfa7       ?EnumConnections@XConnPt@CConnectionPoint@@UAGJPAPAUIEnumConnections@@@Z 5f82dfa7 f
 0001:0002d096       ?GetInterfaceMap@CEnumConnPoints@@MBEPBUAFX_INTERFACEMAP@@XZ 5f82e096 f
 0001:0002d09c       ??0CEnumConnPoints@@QAE@PBXI@Z 5f82e09c f
 0001:0002d0c0       ??_GCEnumConnPoints@@UAEPAXI@Z 5f82e0c0 f
 0001:0002d0c0       ??_ECEnumConnPoints@@UAEPAXI@Z 5f82e0c0 f
 0001:0002d0dc       ??1CEnumConnPoints@@UAE@XZ 5f82e0dc f
 0001:0002d132       ?AddConnPoint@CEnumConnPoints@@QAEXPAUIConnectionPoint@@@Z 5f82e132 f
 0001:0002d190       ?AddRef@COleConnPtContainer@@UAGKXZ 5f82e190 f
 0001:0002d19f       ?Release@COleConnPtContainer@@UAGKXZ 5f82e19f f
 0001:0002d1ae       ?QueryInterface@COleConnPtContainer@@UAGJABU_GUID@@PAPAX@Z 5f82e1ae f
 0001:0002d1c5       ?EnumConnectionPoints@COleConnPtContainer@@UAGJPAPAUIEnumConnectionPoints@@@Z 5f82e1c5 f
 0001:0002d2c6       ?FindConnectionPoint@COleConnPtContainer@@UAGJABU_GUID@@PAPAUIConnectionPoint@@@Z 5f82e2c6 f
 0001:0002d338       ?EnableConnections@CCmdTarget@@QAEXXZ 5f82e338 f
 0001:0002d340       ?AddRef@XOleObject@COleControl@@UAGKXZ 5f82e340 f
 0001:0002d352       ?Release@XOleObject@COleControl@@UAGKXZ 5f82e352 f
 0001:0002d364       ?QueryInterface@XOleObject@COleControl@@UAGJABU_GUID@@PAPAX@Z 5f82e364 f
 0001:0002d37e       ?SetClientSite@XOleObject@COleControl@@UAGJPAUIOleClientSite@@@Z 5f82e37e f
 0001:0002d4f2       ?GetClientSite@XOleObject@COleControl@@UAGJPAPAUIOleClientSite@@@Z 5f82e4f2 f
 0001:0002d51e       ?Close@XOleObject@COleControl@@UAGJK@Z 5f82e51e f
 0001:0002d56d       ?OnClose@COleControl@@UAEXK@Z 5f82e56d f
 0001:0002d5b6       ?GetMoniker@XOleObject@COleControl@@UAGJKKPAPAUIMoniker@@@Z 5f82e5b6 f
 0001:0002d5be       ?GetClipboardData@XOleObject@COleControl@@UAGJKPAPAUIDataObject@@@Z 5f82e5be f
 0001:0002d5c6       ?DoVerb@XOleObject@COleControl@@UAGJJPAUtagMSG@@PAUIOleClientSite@@JPAUHWND__@@PBUtagRECT@@@Z 5f82e5c6 f
 0001:0002d750       ?OnDoVerb@COleControl@@UAEHJPAUtagMSG@@PAUHWND__@@PBUtagRECT@@@Z 5f82e750 f
 0001:0002d768       ?EnumVerbs@XOleObject@COleControl@@UAGJPAPAUIEnumOLEVERB@@@Z 5f82e768 f
 0001:0002d7c3       ?OnEnumVerbs@COleControl@@UAEHPAPAUIEnumOLEVERB@@@Z 5f82e7c3 f
 0001:0002d7cf       ?GetUserClassID@XOleObject@COleControl@@UAGJPAU_GUID@@@Z 5f82e7cf f
 0001:0002d7ec       ?GetUserType@XOleObject@COleControl@@UAGJKPAPAG@Z 5f82e7ec f
 0001:0002d851       ?GetUserType@COleControl@@IAEXPAG@Z 5f82e851 f
 0001:0002d8a0       ?SetExtent@XOleObject@COleControl@@UAGJKPAUtagSIZE@@@Z 5f82e8a0 f
 0001:0002d8d5       ?OnSetExtent@COleControl@@UAEHPAUtagSIZE@@@Z 5f82e8d5 f
 0001:0002d9be       ?GetExtent@XOleObject@COleControl@@UAGJKPAUtagSIZE@@@Z 5f82e9be f
 0001:0002d9ea       ?Advise@XOleObject@COleControl@@UAGJPAUIAdviseSink@@PAK@Z 5f82e9ea f
 0001:0002da17       ?Unadvise@XOleObject@COleControl@@UAGJK@Z 5f82ea17 f
 0001:0002da36       ?EnumAdvise@XOleObject@COleControl@@UAGJPAPAUIEnumSTATDATA@@@Z 5f82ea36 f
 0001:0002da55       ?GetMiscStatus@XOleObject@COleControl@@UAGJKPAK@Z 5f82ea55 f
 0001:0002da82       ??0CPictureHolder@@QAE@XZ  5f82ea82 f
 0001:0002da88       ??1CPictureHolder@@QAE@XZ  5f82ea88 f
 0001:0002da8f       ?CreateEmpty@CPictureHolder@@QAEHXZ 5f82ea8f f
 0001:0002dac7       ?CreateFromBitmap@CPictureHolder@@QAEHI@Z 5f82eac7 f
 0001:0002db2e       ?CreateFromBitmap@CPictureHolder@@QAEHPAVCBitmap@@PAVCPalette@@H@Z 5f82eb2e f
 0001:0002db82       ?CreateFromBitmap@CPictureHolder@@QAEHPAUHBITMAP__@@PAUHPALETTE__@@H@Z 5f82eb82 f
 0001:0002dbcc       ?CreateFromMetafile@CPictureHolder@@QAEHPAUHMETAFILE__@@HHH@Z 5f82ebcc f
 0001:0002dc1c       ?CreateFromIcon@CPictureHolder@@QAEHI@Z 5f82ec1c f
 0001:0002dc47       ?CreateFromIcon@CPictureHolder@@QAEHPAUHICON__@@H@Z 5f82ec47 f
 0001:0002dc8b       ?GetPictureDispatch@CPictureHolder@@QAEPAUIPictureDisp@@XZ 5f82ec8b f
 0001:0002dcac       ?SetPictureDispatch@CPictureHolder@@QAEXPAUIPictureDisp@@@Z 5f82ecac f
 0001:0002dceb       ?Render@CPictureHolder@@QAEXPAVCDC@@ABVCRect@@1@Z 5f82eceb f
 0001:0002dd4f       ?GetType@CPictureHolder@@QAEFXZ 5f82ed4f f
 0001:0002dd6d       ?GetDisplayString@CPictureHolder@@QAEHAAVCString@@@Z 5f82ed6d f
 0001:0002de19       ?_AfxGetArchiveStream@@YGPAUIStream@@AAVCArchive@@AAVCArchiveStream@@@Z 5f82ee19 f
 0001:0002de4a       ?_AfxInitBlob@@YGHPAPAXPAX@Z 5f82ee4a f
 0001:0002de9e       ?_AfxCopyBlob@@YGHPAPAXPAX@Z 5f82ee9e f
 0001:0002decb       ?_AfxCopyPropValue@@YGHGPAXPBX@Z 5f82eecb f
 0001:0002df52       ?ExchangeExtent@COleControl@@QAEHPAVCPropExchange@@@Z 5f82ef52 f
 0001:0002dfdb       ?SerializeVersion@COleControl@@QAEKAAVCArchive@@KH@Z 5f82efdb f
 0001:0002e00f       ?ResetVersion@COleControl@@QAEXK@Z 5f82f00f f
 0001:0002e019       ?SerializeExtent@COleControl@@QAEXAAVCArchive@@@Z 5f82f019 f
 0001:0002e08f       ?ExchangeVersion@CPropExchange@@UAEHAAKKH@Z 5f82f08f f
 0001:0002e0e0       ??0CArchivePropExchange@@QAE@AAVCArchive@@@Z 5f82f0e0 f
 0001:0002e103       ?ExchangeProp@CArchivePropExchange@@UAEHPBGGPAXPBX@Z 5f82f103 f
 0001:0002e268       ?ExchangeBlobProp@CArchivePropExchange@@UAEHPBGPAPAXPAX@Z 5f82f268 f
 0001:0002e30e       ?_AfxPeekAtClassIDInStream@@YGHPAUIStream@@PAU_GUID@@@Z 5f82f30e f
 0001:0002e347       ?_AfxIsSameUnknownObject@@YGHABU_GUID@@PAUIUnknown@@1@Z 5f82f347 f
 0001:0002e3b3       ?ExchangePersistentProp@CArchivePropExchange@@UAEHPBGPAPAUIUnknown@@ABU_GUID@@PAU2@@Z 5f82f3b3 f
 0001:0002e614       ?ExchangeFontProp@CArchivePropExchange@@UAEHPBGAAVCFontHolder@@PBUtagFONTDESC@@PAUIFontDisp@@@Z 5f82f614 f
 0001:0002e6f9       ??0CResetPropExchange@@QAE@XZ 5f82f6f9 f
 0001:0002e711       ?ExchangeProp@CResetPropExchange@@UAEHPBGGPAXPBX@Z 5f82f711 f
 0001:0002e725       ?ExchangeBlobProp@CResetPropExchange@@UAEHPBGPAPAXPAX@Z 5f82f725 f
 0001:0002e752       ?ExchangePersistentProp@CResetPropExchange@@UAEHPBGPAPAUIUnknown@@ABU_GUID@@PAU2@@Z 5f82f752 f
 0001:0002e77f       ?ExchangeFontProp@CResetPropExchange@@UAEHPBGAAVCFontHolder@@PBUtagFONTDESC@@PAUIFontDisp@@@Z 5f82f77f f
 0001:0002e796       ??0CAsyncPropExchange@@QAE@K@Z 5f82f796 f
 0001:0002e7b1       ?ExchangeVersion@CAsyncPropExchange@@UAEHAAKKH@Z 5f82f7b1 f
 0001:0002e7e5       ?ExchangeProp@CAsyncPropExchange@@UAEHPBGGPAXPBX@Z 5f82f7e5 f
 0001:0002e7ea       ?ExchangeBlobProp@CAsyncPropExchange@@UAEHPBGPAPAXPAX@Z 5f82f7ea f
 0001:0002e7ef       ?PX_Short@@YAHPAVCPropExchange@@PBGAAF@Z 5f82f7ef f
 0001:0002e80f       ?PX_UShort@@YAHPAVCPropExchange@@PBGAAGG@Z 5f82f80f f
 0001:0002e832       ?PX_Long@@YAHPAVCPropExchange@@PBGAAJ@Z 5f82f832 f
 0001:0002e852       ?PX_Long@@YAHPAVCPropExchange@@PBGAAJJ@Z 5f82f852 f
 0001:0002e875       ?PX_Bool@@YAHPAVCPropExchange@@PBGAAH@Z 5f82f875 f
 0001:0002e895       ?PX_Bool@@YAHPAVCPropExchange@@PBGAAHH@Z 5f82f895 f
 0001:0002e8b8       ?PX_String@@YAHPAVCPropExchange@@PBGAAVCString@@@Z 5f82f8b8 f
 0001:0002e8d8       ?PX_String@@YAHPAVCPropExchange@@PBGAAVCString@@ABV2@@Z 5f82f8d8 f
 0001:0002e8fa       ?PX_String@@YAHPAVCPropExchange@@PBGAAVCString@@1@Z 5f82f8fa f
 0001:0002e91c       ?PX_Currency@@YAHPAVCPropExchange@@PBGAATtagCY@@@Z 5f82f91c f
 0001:0002e93c       ?PX_Currency@@YAHPAVCPropExchange@@PBGAATtagCY@@T2@@Z 5f82f93c f
 0001:0002e95f       ?PX_Float@@YAHPAVCPropExchange@@PBGAAM@Z 5f82f95f f
 0001:0002e97f       ?PX_Float@@YAHPAVCPropExchange@@PBGAAMM@Z 5f82f97f f
 0001:0002e9a2       ?PX_Double@@YAHPAVCPropExchange@@PBGAAN@Z 5f82f9a2 f
 0001:0002e9c2       ?PX_Double@@YAHPAVCPropExchange@@PBGAANN@Z 5f82f9c2 f
 0001:0002e9e5       ?PX_Blob@@YAHPAVCPropExchange@@PBGAAPAXPAX@Z 5f82f9e5 f
 0001:0002ea05       ?PX_Font@@YAHPAVCPropExchange@@PBGAAVCFontHolder@@PBUtagFONTDESC@@PAUIFontDisp@@@Z 5f82fa05 f
 0001:0002ea29       ?PX_IUnknown@@YAHPAVCPropExchange@@PBGAAPAUIUnknown@@ABU_GUID@@PAU2@@Z 5f82fa29 f
 0001:0002ea4d       ?PX_Picture@@YAHPAVCPropExchange@@PBGAAVCPictureHolder@@@Z 5f82fa4d f
 0001:0002ea74       ?PX_Picture@@YAHPAVCPropExchange@@PBGAAVCPictureHolder@@2@Z 5f82fa74 f
 0001:0002ea9f       ?PX_VBXFontConvert@@YAHPAVCPropExchange@@AAVCFontHolder@@@Z 5f82fa9f f
 0001:0002ebcf       ?_Afx_PX_DataPath@@YGHPAVCPropExchange@@PBGAAVCDataPathProperty@@GPBX@Z 5f82fbcf f
 0001:0002ecf3       ?PX_DataPath@@YAHPAVCPropExchange@@PBGAAVCDataPathProperty@@1@Z 5f82fcf3 f
 0001:0002ed0b       ?PX_DataPath@@YAHPAVCPropExchange@@PBGAAVCDataPathProperty@@ABVCString@@@Z 5f82fd0b f
 0001:0002ed23       ?GetPath@CDataPathProperty@@QBE?AVCString@@XZ 5f82fd23 f
 0001:0002ed3e       ?GetInterfaceMap@COlePropertyPage@@MBEPBUAFX_INTERFACEMAP@@XZ 5f82fd3e f
 0001:0002ed44       ?_GetBaseMessageMap@COlePropertyPage@@KGPBUAFX_MSGMAP@@XZ 5f82fd44 f
 0001:0002ed4a       ?GetMessageMap@COlePropertyPage@@MBEPBUAFX_MSGMAP@@XZ 5f82fd4a f
 0001:0002ed50       ??0AFX_DDPDATA@@QAE@PAXHH0IPBG@Z 5f82fd50 f
 0001:0002ed83       ?_AfxCleanupDDPs@@YGXAAVCPtrArray@@@Z 5f82fd83 f
 0001:0002edba       ??0COlePropertyPage@@QAE@II@Z 5f82fdba f
 0001:0002eea5       ??_GCOlePropertyPage@@UAEPAXI@Z 5f82fea5 f
 0001:0002eea5       ??_ECOlePropertyPage@@UAEPAXI@Z 5f82fea5 f
 0001:0002eec1       ?OnSetPageSite@COlePropertyPage@@UAEXXZ 5f82fec1 f
 0001:0002f039       ?OnInitDialog@COlePropertyPage@@UAEHXZ 5f830039 f
 0001:0002f041       ?PreTranslateMessage@COlePropertyPage@@MAEHPAUtagMSG@@@Z 5f830041 f
 0001:0002f131       ?CleanupObjectArray@COlePropertyPage@@IAEXXZ 5f830131 f
 0001:0002f1c9       ?OnFinalRelease@COlePropertyPage@@MAEXXZ 5f8301c9 f
 0001:0002f1e6       ?WindowProc@COlePropertyPage@@MAEJIIJ@Z 5f8301e6 f
 0001:0002f269       ?OnCtlColor@COlePropertyPage@@IAEPAUHBRUSH__@@PAVCDC@@PAVCWnd@@I@Z 5f830269 f
 0001:0002f2b6       ?OnObjectsChanged@COlePropertyPage@@UAEXXZ 5f8302b6 f
 0001:0002f2b7       ?GetObjectArray@COlePropertyPage@@QAEPAPAUIDispatch@@PAK@Z 5f8302b7 f
 0001:0002f2d0       ?SetModifiedFlag@COlePropertyPage@@QAEXH@Z 5f8302d0 f
 0001:0002f311       ?IsModified@COlePropertyPage@@QAEHXZ 5f830311 f
 0001:0002f315       ?SetPageName@COlePropertyPage@@QAEXPBG@Z 5f830315 f
 0001:0002f327       ?SetDialogResource@COlePropertyPage@@QAEXPAX@Z 5f830327 f
 0001:0002f396       ?SetHelpInfo@COlePropertyPage@@QAEXPBG0K@Z 5f830396 f
 0001:0002f3c5       ?GetPageSite@COlePropertyPage@@QAEPAUIPropertyPageSite@@XZ 5f8303c5 f
 0001:0002f3cc       ?MessageBoxW@COlePropertyPage@@QAEHPBG0I@Z 5f8303cc f
 0001:0002f3f7       ?AddRef@XPropertyPage@COlePropertyPage@@UAGKXZ 5f8303f7 f
 0001:0002f409       ?Release@XPropertyPage@COlePropertyPage@@UAGKXZ 5f830409 f
 0001:0002f41b       ?QueryInterface@XPropertyPage@COlePropertyPage@@UAGJABU_GUID@@PAPAX@Z 5f83041b f
 0001:0002f435       ?SetPageSite@XPropertyPage@COlePropertyPage@@UAGJPAUIPropertyPageSite@@@Z 5f830435 f
 0001:0002f49e       ?Activate@XPropertyPage@COlePropertyPage@@UAGJPAUHWND__@@PBUtagRECT@@H@Z 5f83049e f
 0001:0002f5e7       ?EnumChildProc@COlePropertyPage@@KGHPAUHWND__@@J@Z 5f8305e7 f
 0001:0002f5f7       ?EnumControls@COlePropertyPage@@KGHPAUHWND__@@J@Z 5f8305f7 f
 0001:0002f62d       ?Deactivate@XPropertyPage@COlePropertyPage@@UAGJXZ 5f83062d f
 0001:0002f676       ?GetPageInfo@XPropertyPage@COlePropertyPage@@UAGJPAUtagPROPPAGEINFO@@@Z 5f830676 f
 0001:0002f6ba       ?SetObjects@XPropertyPage@COlePropertyPage@@UAGJKPAPAUIUnknown@@@Z 5f8306ba f
 0001:0002f7ea       ?Show@XPropertyPage@COlePropertyPage@@UAGJI@Z 5f8307ea f
 0001:0002f814       ?Move@XPropertyPage@COlePropertyPage@@UAGJPBUtagRECT@@@Z 5f830814 f
 0001:0002f843       ?IsPageDirty@XPropertyPage@COlePropertyPage@@UAGJXZ 5f830843 f
 0001:0002f852       ?Apply@XPropertyPage@COlePropertyPage@@UAGJXZ 5f830852 f
 0001:0002f90b       ?Help@XPropertyPage@COlePropertyPage@@UAGJPBG@Z 5f83090b f
 0001:0002f963       ?_AfxAtEndOfTabList@@YGHPAVCDialog@@I@Z 5f830963 f
 0001:0002fa03       ?TranslateAcceleratorW@XPropertyPage@COlePropertyPage@@UAGJPAUtagMSG@@@Z 5f830a03 f
 0001:0002fbc1       ?EditProperty@XPropertyPage@COlePropertyPage@@UAGJJ@Z 5f830bc1 f
 0001:0002fc1c       ?QueryInterface@XPropNotifySink@COlePropertyPage@@UAGJABU_GUID@@PAPAX@Z 5f830c1c f
 0001:0002fc66       ?OnChanged@XPropNotifySink@COlePropertyPage@@UAGJJ@Z 5f830c66 f
 0001:0002fcd1       ?_AfxIsRadioButton@@YGHPAUHWND__@@@Z 5f830cd1 f
 0001:0002fcf4       ?OnCommand@COlePropertyPage@@MAEHIJ@Z 5f830cf4 f
 0001:0002fe75       ?IgnoreApply@COlePropertyPage@@QAEXI@Z 5f830e75 f
 0001:0002fe8a       ?GetControlStatus@COlePropertyPage@@QAEHI@Z 5f830e8a f
 0001:0002febe       ?SetControlStatus@COlePropertyPage@@QAEHIH@Z 5f830ebe f
 0001:0002fef8       ?SetPropText@COlePropertyPage@@QAEHPBGAAE@Z 5f830ef8 f
 0001:0002ffaf       ?GetPropText@COlePropertyPage@@QAEHPBGPAE@Z 5f830faf f
 0001:00030076       ?SetPropText@COlePropertyPage@@QAEHPBGAAF@Z 5f831076 f
 0001:0003012d       ?GetPropText@COlePropertyPage@@QAEHPBGPAF@Z 5f83112d f
 0001:000301fd       ?SetPropText@COlePropertyPage@@QAEHPBGAAH@Z 5f8311fd f
 0001:000302b2       ?GetPropText@COlePropertyPage@@QAEHPBGPAH@Z 5f8312b2 f
 0001:00030379       ?SetPropText@COlePropertyPage@@QAEHPBGAAI@Z 5f831379 f
 0001:0003042e       ?GetPropText@COlePropertyPage@@QAEHPBGPAI@Z 5f83142e f
 0001:000304f5       ?SetPropText@COlePropertyPage@@QAEHPBGAAJ@Z 5f8314f5 f
 0001:000305aa       ?GetPropText@COlePropertyPage@@QAEHPBGPAJ@Z 5f8315aa f
 0001:00030671       ?SetPropText@COlePropertyPage@@QAEHPBGAAK@Z 5f831671 f
 0001:00030726       ?GetPropText@COlePropertyPage@@QAEHPBGPAK@Z 5f831726 f
 0001:000307ed       ?SetPropText@COlePropertyPage@@QAEHPBGAAM@Z 5f8317ed f
 0001:000308a7       ?GetPropText@COlePropertyPage@@QAEHPBGPAM@Z 5f8318a7 f
 0001:00030981       ?SetPropText@COlePropertyPage@@QAEHPBGAAN@Z 5f831981 f
 0001:00030a3b       ?GetPropText@COlePropertyPage@@QAEHPBGPAN@Z 5f831a3b f
 0001:00030b16       ?SetPropText@COlePropertyPage@@QAEHPBGAAVCString@@@Z 5f831b16 f
 0001:00030bcb       ?GetPropText@COlePropertyPage@@QAEHPBGPAVCString@@@Z 5f831bcb f
 0001:00030cfe       ?SetPropCheck@COlePropertyPage@@QAEHPBGH@Z 5f831cfe f
 0001:00030dbd       ?GetPropCheck@COlePropertyPage@@QAEHPBGPAH@Z 5f831dbd f
 0001:00030e94       ?SetPropRadio@COlePropertyPage@@QAEHPBGH@Z 5f831e94 f
 0001:00030f49       ?GetPropRadio@COlePropertyPage@@QAEHPBGPAH@Z 5f831f49 f
 0001:00031016       ?SetPropIndex@COlePropertyPage@@QAEHPBGH@Z 5f832016 f
 0001:00031026       ?GetPropIndex@COlePropertyPage@@QAEHPBGPAH@Z 5f832026 f
 0001:00031036       ?DDP_EndText@@YGXPAVCDataExchange@@HPAEPBG@Z 5f832036 f
 0001:00031052       ?DDP_Text@@YGXPAVCDataExchange@@HAAEPBG@Z 5f832052 f
 0001:000310c4       ?DDP_EndText@@YGXPAVCDataExchange@@HPAFPBG@Z 5f8320c4 f
 0001:000310e0       ?DDP_Text@@YGXPAVCDataExchange@@HAAFPBG@Z 5f8320e0 f
 0001:00031152       ?DDP_EndText@@YGXPAVCDataExchange@@HPAHPBG@Z 5f832152 f
 0001:0003116e       ?DDP_Text@@YGXPAVCDataExchange@@HAAHPBG@Z 5f83216e f
 0001:000311e0       ?DDP_EndText@@YGXPAVCDataExchange@@HPAIPBG@Z 5f8321e0 f
 0001:000311fc       ?DDP_Text@@YGXPAVCDataExchange@@HAAIPBG@Z 5f8321fc f
 0001:0003126e       ?DDP_EndText@@YGXPAVCDataExchange@@HPAJPBG@Z 5f83226e f
 0001:0003128a       ?DDP_Text@@YGXPAVCDataExchange@@HAAJPBG@Z 5f83228a f
 0001:000312fc       ?DDP_EndText@@YGXPAVCDataExchange@@HPAKPBG@Z 5f8322fc f
 0001:00031318       ?DDP_Text@@YGXPAVCDataExchange@@HAAKPBG@Z 5f832318 f
 0001:0003138a       ?DDP_EndText@@YGXPAVCDataExchange@@HPAMPBG@Z 5f83238a f
 0001:000313a6       ?DDP_Text@@YGXPAVCDataExchange@@HAAMPBG@Z 5f8323a6 f
 0001:00031418       ?DDP_EndText@@YGXPAVCDataExchange@@HPANPBG@Z 5f832418 f
 0001:00031434       ?DDP_Text@@YGXPAVCDataExchange@@HAANPBG@Z 5f832434 f
 0001:000314a6       ?DDP_EndText@@YGXPAVCDataExchange@@HPAVCString@@PBG@Z 5f8324a6 f
 0001:000314c2       ?DDP_Text@@YGXPAVCDataExchange@@HAAVCString@@PBG@Z 5f8324c2 f
 0001:00031534       ?DDP_EndCheck@@YGXPAVCDataExchange@@HPAHPBG@Z 5f832534 f
 0001:00031552       ?DDP_Check@@YGXPAVCDataExchange@@HAAHPBG@Z 5f832552 f
 0001:000315c4       ?DDP_EndRadio@@YGXPAVCDataExchange@@HPAHPBG@Z 5f8325c4 f
 0001:000315e2       ?DDP_Radio@@YGXPAVCDataExchange@@HAAHPBG@Z 5f8325e2 f
 0001:00031654       ?DDP_PostProcessing@@YGXPAVCDataExchange@@@Z 5f832654 f
 0001:00031744       ?InitStockPropMask@COleControl@@IAEXXZ 5f832744 f
 0001:000317af       ?_AfxToggleBorderStyle@@YGXPAVCWnd@@@Z 5f8327af f
 0001:000317e9       ?_AfxToggleAppearance@@YGXPAVCWnd@@@Z 5f8327e9 f
 0001:00031823       ?ExchangeStockProps@COleControl@@QAEXPAVCPropExchange@@@Z 5f832823 f
 0001:00031b11       ?SerializeStockProps@COleControl@@QAEXAAVCArchive@@@Z 5f832b11 f
 0001:00031ee5       ?ResetStockProps@COleControl@@QAEXXZ 5f832ee5 f
 0001:00031fce       ?GetAppearance@COleControl@@QAEFXZ 5f832fce f
 0001:00031fd6       ?SetAppearance@COleControl@@QAEXF@Z 5f832fd6 f
 0001:00032049       ?GetBackColor@COleControl@@QAEKXZ 5f833049 f
 0001:00032050       ?SetBackColor@COleControl@@QAEXK@Z 5f833050 f
 0001:000320c0       ?GetBorderStyle@COleControl@@QAEFXZ 5f8330c0 f
 0001:000320c8       ?SetBorderStyle@COleControl@@QAEXF@Z 5f8330c8 f
 0001:0003213b       ?OnBorderStyleChanged@COleControl@@UAEXXZ 5f83313b f
 0001:00032145       ?InternalGetText@COleControl@@QAEABVCString@@XZ 5f833145 f
 0001:000321bc       ?GetText@COleControl@@QAEPAGXZ 5f8331bc f
 0001:000321c3       ?AllocSysString@CString@@QBEPAGXZ 5f8331c3 f
 0001:000321df       ?SetText@COleControl@@QAEXPBG@Z 5f8331df f
 0001:00032211       ?OnSetText@COleControl@@IAEJIJ@Z 5f833211 f
 0001:0003231b       ?GetEnabled@COleControl@@QAEHXZ 5f83331b f
 0001:00032322       ?SetEnabled@COleControl@@QAEXH@Z 5f833322 f
 0001:0003239f       ?InternalGetFont@COleControl@@QAEAAVCFontHolder@@XZ 5f83339f f
 0001:000323a6       ?GetFont@COleControl@@QAEPAUIFontDisp@@XZ 5f8333a6 f
 0001:000323ac       ?GetFontDispatch@CFontHolder@@QAEPAUIFontDisp@@XZ 5f8333ac f
 0001:000323cd       ?SetFont@COleControl@@QAEXPAUIFontDisp@@@Z 5f8333cd f
 0001:00032402       ?OnFontChanged@COleControl@@UAEXXZ 5f833402 f
 0001:000324a7       ?GetForeColor@COleControl@@QAEKXZ 5f8334a7 f
 0001:000324ae       ?SetForeColor@COleControl@@QAEXK@Z 5f8334ae f
 0001:0003251e       ?GetHwnd@COleControl@@QAEIXZ 5f83351e f
 0001:0003252e       ?GetReadyState@COleControl@@QAEJXZ 5f83352e f
 0001:00032535       ?QueryInterface@XFontNotification@COleControl@@UAGJABU_GUID@@PAPAX@Z 5f833535 f
 0001:00032579       ?OnChanged@XFontNotification@COleControl@@UAGJJ@Z 5f833579 f
 0001:000325d8       ?SelectStockFont@COleControl@@QAEPAVCFont@@PAVCDC@@@Z 5f8335d8 f
 0001:000325eb       ?SelectFontObject@COleControl@@QAEPAVCFont@@PAVCDC@@AAVCFontHolder@@@Z 5f8335eb f
 0001:00032608       ?GetStockTextMetrics@COleControl@@QAEXPAUtagTEXTMETRICW@@@Z 5f833608 f
 0001:0003261a       ?GetFontTextMetrics@COleControl@@QAEXPAUtagTEXTMETRICW@@AAVCFontHolder@@@Z 5f83361a f
 0001:0003262a       ?_GetI4Property@@YGHPAUIDispatch@@JPAK@Z 5f83362a f
 0001:000326e5       ?GetAmbientDispatchDriver@COleControl@@IAEPAVCOleDispatchDriver@@XZ 5f8336e5 f
 0001:00032724       ?GetAmbientProperty@COleControl@@QAEHJGPAX@Z 5f833724 f
 0001:00032864       ?AmbientAppearance@COleControl@@QAEFXZ 5f833864 f
 0001:00032885       ?AmbientBackColor@COleControl@@QAEKXZ 5f833885 f
 0001:000328ad       ?AmbientDisplayName@COleControl@@QAE?AVCString@@XZ 5f8338ad f
 0001:0003290f       ?AmbientFont@COleControl@@QAEPAUIFontDisp@@XZ 5f83390f f
 0001:0003292f       ?AmbientForeColor@COleControl@@QAEKXZ 5f83392f f
 0001:00032957       ?AmbientLocaleID@COleControl@@QAEKXZ 5f833957 f
 0001:00032977       ?AmbientScaleUnits@COleControl@@QAE?AVCString@@XZ 5f833977 f
 0001:000329d9       ?AmbientTextAlign@COleControl@@QAEFXZ 5f8339d9 f
 0001:000329fa       ?AmbientUserMode@COleControl@@QAEHXZ 5f8339fa f
 0001:00032a1e       ?AmbientUIDead@COleControl@@QAEHXZ 5f833a1e f
 0001:00032a3e       ?AmbientShowGrabHandles@COleControl@@QAEHXZ 5f833a3e f
 0001:00032a62       ?AmbientShowHatching@COleControl@@QAEHXZ 5f833a62 f
 0001:00032a86       ?BoundPropertyChanged@COleControl@@QAEXJ@Z 5f833a86 f
 0001:00032abe       ?BoundPropertyRequestEdit@COleControl@@QAEHJ@Z 5f833abe f
 0001:00032b00       ?SetNotPermitted@COleControl@@QAEXXZ 5f833b00 f
 0001:00032b12       ?SetNotSupported@COleControl@@QAEXXZ 5f833b12 f
 0001:00032b24       ?GetNotSupported@COleControl@@QAEXXZ 5f833b24 f
 0001:00032b36       ?AddRef@XPerPropertyBrowsing@COleControl@@UAGKXZ 5f833b36 f
 0001:00032b48       ?Release@XPerPropertyBrowsing@COleControl@@UAGKXZ 5f833b48 f
 0001:00032b5a       ?QueryInterface@XPerPropertyBrowsing@COleControl@@UAGJABU_GUID@@PAPAX@Z 5f833b5a f
 0001:00032b74       ?GetDisplayString@XPerPropertyBrowsing@COleControl@@UAGJJPAPAG@Z 5f833b74 f
 0001:00032c05       ?OnGetDisplayString@COleControl@@UAEHJAAVCString@@@Z 5f833c05 f
 0001:00032c7a       ?MapPropertyToPage@XPerPropertyBrowsing@COleControl@@UAGJJPAU_GUID@@@Z 5f833c7a f
 0001:00032d0e       ?OnMapPropertyToPage@COleControl@@UAEHJPAU_GUID@@PAH@Z 5f833d0e f
 0001:00032d53       ?GetPredefinedStrings@XPerPropertyBrowsing@COleControl@@UAGJJPAUtagCALPOLESTR@@PAUtagCADWORD@@@Z 5f833d53 f
 0001:00032ee2       ?_AfxCopyString@@YGPAGPBG@Z 5f833ee2 f
 0001:00032f18       ?OnGetPredefinedStrings@COleControl@@UAEHJPAVCStringArray@@PAVCDWordArray@@@Z 5f833f18 f
 0001:00032fe4       ?GetPredefinedValue@XPerPropertyBrowsing@COleControl@@UAGJJKPAUtagVARIANT@@@Z 5f833fe4 f
 0001:00033045       ?OnGetPredefinedValue@COleControl@@UAEHJKPAUtagVARIANT@@@Z 5f834045 f
 0001:0003307d       ?Load@COleControl@@QAEXPBGAAVCDataPathProperty@@@Z 5f83407d f
 0001:00033094       ?Open@CDataPathProperty@@UAEHPAVCFileException@@@Z 5f834094 f
 0001:000330bb       ?Open@CDataPathProperty@@UAEHPBGPAVCFileException@@@Z 5f8340bb f
 0001:000330dc       ?Open@CDataPathProperty@@UAEHPAVCOleControl@@PAVCFileException@@@Z 5f8340dc f
 0001:000330f2       ?Open@CDataPathProperty@@UAEHPBGPAVCOleControl@@PAVCFileException@@@Z 5f8340f2 f
 0001:0003311a       ?_AfxTransferFileContent@@YAKPAVCFile@@0@Z 5f83411a f
 0001:00033163       ?OnDataAvailable@CCachedDataPathProperty@@UAEXKK@Z 5f834163 f
 0001:000331da       ?Close@CCachedDataPathProperty@@UAEXXZ 5f8341da f
 0001:000331f1       ?ResetData@CCachedDataPathProperty@@UAEXXZ 5f8341f1 f
 0001:000331fd       ?_AfxCreateMemoryStream@@YGPAUIStream@@XZ 5f8341fd f
 0001:0003323b       ?GetPropsetData@COleControl@@IAEHPAUtagFORMATETC@@PAUtagSTGMEDIUM@@ABU_GUID@@@Z 5f83423b f
 0001:00033467       ?SetPropsetData@COleControl@@IAEHPAUtagFORMATETC@@PAUtagSTGMEDIUM@@ABU_GUID@@@Z 5f834467 f
 0001:000335da       ??0CPropsetPropExchange@@QAE@AAVCPropertySection@@PAUIStorage@@H@Z 5f8345da f
 0001:00033609       ?_AfxGetSizeOfVarType@@YGIG@Z 5f834609 f
 0001:00033640       ?_AfxCoerceNumber@@YGHPAXG0G@Z 5f834640 f
 0001:000336bb       ?_AfxIsSamePropValue@@YGHGPBX0@Z 5f8346bb f
 0001:00033729       ?ExchangeProp@CPropsetPropExchange@@UAEHPBGGPAXPBX@Z 5f834729 f
 0001:00033929       ?ExchangeBlobProp@CPropsetPropExchange@@UAEHPBGPAPAXPAX@Z 5f834929 f
 0001:00033a09       ?_AfxSaveStreamDataAsBlobProp@@YGHPAUIStream@@AAVCPropertySection@@KK@Z 5f834a09 f
 0001:00033ad2       ?_AfxInitStreamDataFromBlobProp@@YGHPAUIStream@@PAVCProperty@@@Z 5f834ad2 f
 0001:00033b2c       ?_AfxCreateFontFromStream@@YGPAUIFont@@PAUIStream@@@Z 5f834b2c f
 0001:00033bfd       ?_AfxLoadObjectFromStreamedPropset@@YGHPAUIUnknown@@PAUIStream@@@Z 5f834bfd f
 0001:00033c72       ?_AfxGetClassIDFromStreamedPropset@@YGHPAU_GUID@@PAUIStream@@@Z 5f834c72 f
 0001:00033ce2       ?_AfxCreateObjectFromStreamedPropset@@YGPAUIUnknown@@PAUIStream@@ABU_GUID@@@Z 5f834ce2 f
 0001:00033dd2       ?_AfxLoadStreamFromPropset@@YGPAUIStream@@AAVCPropertySection@@PBGAAK@Z 5f834dd2 f
 0001:00033e3d       ?_AfxSaveObjectInPropset@@YGHPAUIUnknown@@AAVCPropertySection@@K@Z 5f834e3d f
 0001:00033f62       ?ExchangePersistentProp@CPropsetPropExchange@@UAEHPBGPAPAUIUnknown@@ABU_GUID@@PAU2@@Z 5f834f62 f
 0001:000340a6       ?ExchangeFontProp@CPropsetPropExchange@@UAEHPBGAAVCFontHolder@@PBUtagFONTDESC@@PAUIFontDisp@@@Z 5f8350a6 f
 0001:00034160       ?AddRef@XPersistStorage@COleControl@@UAGKXZ 5f835160 f
 0001:00034172       ?Release@XPersistStorage@COleControl@@UAGKXZ 5f835172 f
 0001:00034184       ?QueryInterface@XPersistStorage@COleControl@@UAGJABU_GUID@@PAPAX@Z 5f835184 f
 0001:0003419e       ?GetClassID@XPersistStorage@COleControl@@UAGJPAU_GUID@@@Z 5f83519e f
 0001:000341bb       ?IsDirty@XPersistStorage@COleControl@@UAGJXZ 5f8351bb f
 0001:00034205       ?InitNew@XPersistStorage@COleControl@@UAGJPAUIStorage@@@Z 5f835205 f
 0001:0003429d       ?Load@XPersistStorage@COleControl@@UAGJPAUIStorage@@@Z 5f83529d f
 0001:000343b6       ?Save@XPersistStorage@COleControl@@UAGJPAUIStorage@@H@Z 5f8353b6 f
 0001:00034485       ?SaveCompleted@XPersistStorage@COleControl@@UAGJPAUIStorage@@@Z 5f835485 f
 0001:000344ca       ?HandsOffStorage@XPersistStorage@COleControl@@UAGJXZ 5f8354ca f
 0001:000344fc       ?AddRef@XPersistStreamInit@COleControl@@UAGKXZ 5f8354fc f
 0001:0003450e       ?Release@XPersistStreamInit@COleControl@@UAGKXZ 5f83550e f
 0001:00034520       ?QueryInterface@XPersistStreamInit@COleControl@@UAGJABU_GUID@@PAPAX@Z 5f835520 f
 0001:0003453a       ?GetClassID@XPersistStreamInit@COleControl@@UAGJPAU_GUID@@@Z 5f83553a f
 0001:00034557       ?IsDirty@XPersistStreamInit@COleControl@@UAGJXZ 5f835557 f
 0001:0003456c       ?Load@XPersistStreamInit@COleControl@@UAGJPAUIStream@@@Z 5f83556c f
 0001:000345b6       ?Save@XPersistStreamInit@COleControl@@UAGJPAUIStream@@H@Z 5f8355b6 f
 0001:0003460d       ?InitNew@XPersistStreamInit@COleControl@@UAGJXZ 5f83560d f
 0001:0003467b       ?AddRef@XPersistMemory@COleControl@@UAGKXZ 5f83567b f
 0001:0003468d       ?Release@XPersistMemory@COleControl@@UAGKXZ 5f83568d f
 0001:0003469f       ?QueryInterface@XPersistMemory@COleControl@@UAGJABU_GUID@@PAPAX@Z 5f83569f f
 0001:000346b9       ?GetClassID@XPersistMemory@COleControl@@UAGJPAU_GUID@@@Z 5f8356b9 f
 0001:000346d6       ?IsDirty@XPersistMemory@COleControl@@UAGJXZ 5f8356d6 f
 0001:000346eb       ?Load@XPersistMemory@COleControl@@UAGJPAXK@Z 5f8356eb f
 0001:000347f9       ?InitNew@XPersistMemory@COleControl@@UAGJXZ 5f8357f9 f
 0001:00034867       ?Create@CReflectorWnd@@QAEHABVCRect@@PAUHWND__@@@Z 5f835867 f
 0001:000348ab       ?PostNcDestroy@CReflectorWnd@@MAEXXZ 5f8358ab f
 0001:000348cc       ?WindowProc@CReflectorWnd@@MAEJIIJ@Z 5f8358cc f
 0001:0003495f       ?SetControl@CReflectorWnd@@QAEXPAVCOleControl@@@Z 5f83595f f
 0001:00034969       ?WindowProc@CParkingWnd@@UAEJIIJ@Z 5f835969 f
 0001:00034a76       ?_AfxRecursiveRegDeleteKey@@YGJPAUHKEY__@@PAG@Z 5f835a76 f
 0001:00034abb       ?_AfxUnregisterInterfaces@@YAXPAUITypeLib@@@Z 5f835abb f
 0001:00034b7b       ?AfxOleRegisterTypeLib@@YGHPAUHINSTANCE__@@ABU_GUID@@PBG2@Z 5f835b7b f
 0001:00034c9a       ?AfxOleUnregisterTypeLib@@YGHABU_GUID@@GGK@Z 5f835c9a f
 0001:00034f27       ?AfxOleRegisterControlClass@@YGHPAUHINSTANCE__@@ABU_GUID@@PBGIIHK1GG@Z 5f835f27 f
 0001:000351a4       ?AfxOleUnregisterClass@@YGHABU_GUID@@PBG@Z 5f8361a4 f
 0001:000352f3       ?AfxOleRegisterPropertyPageClass@@YGHPAUHINSTANCE__@@ABU_GUID@@I@Z 5f8362f3 f
 0001:00035309       ?AfxOleRegisterPropertyPageClass@@YGHPAUHINSTANCE__@@ABU_GUID@@IH@Z 5f836309 f
 0001:00035460       ?_AfxOffsetTrackerRect@@YGXAAVCRect@@PAVCWnd@@@Z 5f836460 f
 0001:000354cf       ?CreateTracker@COleControl@@IAEXHH@Z 5f8364cf f
 0001:000354e1       ?CreateTracker@COleControl@@IAEXHHPBUtagRECT@@@Z 5f8364e1 f
 0001:000355b2       ?DestroyTracker@COleControl@@IAEXXZ 5f8365b2 f
 0001:000355f0       ?OnNcPaint@COleControl@@IAEXXZ 5f8365f0 f
 0001:00035758       ?OnNcCalcSize@COleControl@@IAEXHPAUtagNCCALCSIZE_PARAMS@@@Z 5f836758 f
 0001:000357a4       ?OnNcHitTest@COleControl@@IAEIVCPoint@@@Z 5f8367a4 f
 0001:00035883       ?OnNcLButtonDown@COleControl@@IAEXIVCPoint@@@Z 5f836883 f
 0001:00035a45       ?OnSetCursor@COleControl@@IAEHPAVCWnd@@II@Z 5f836a45 f
 0001:00035aab       ??_GCControlRectTracker@@UAEPAXI@Z 5f836aab f
 0001:00035aab       ??_ECControlRectTracker@@UAEPAXI@Z 5f836aab f
 0001:00035ac7       ??1CControlRectTracker@@UAE@XZ 5f836ac7 f
 0001:00035ac7       ??1CRectTracker@@UAE@XZ    5f836ac7 f
 0001:00035ace       ?OnGetViewExtent@COleControl@@UAEHKJPAUtagDVTARGETDEVICE@@PAUtagSIZE@@@Z 5f836ace f
 0001:00035b00       ?OnGetViewRect@COleControl@@UAEHKPAU_RECTL@@@Z 5f836b00 f
 0001:00035b37       ?OnGetViewStatus@COleControl@@UAEKXZ 5f836b37 f
 0001:00035b3b       ?OnQueryHitPoint@COleControl@@UAEHKPBUtagRECT@@UtagPOINT@@JPAK@Z 5f836b3b f
 0001:00035b55       ?OnQueryHitRect@COleControl@@UAEHKPBUtagRECT@@0JPAK@Z 5f836b55 f
 0001:00035b6f       ?OnGetNaturalExtent@COleControl@@UAEHKJPAUtagDVTARGETDEVICE@@PAUHDC__@@PAUtagExtentInfo@@PAUtagSIZE@@@Z 5f836b6f f
 0001:00035b74       ?AddRef@XViewObject@COleControl@@UAGKXZ 5f836b74 f
 0001:00035b86       ?Release@XViewObject@COleControl@@UAGKXZ 5f836b86 f
 0001:00035b98       ?QueryInterface@XViewObject@COleControl@@UAGJABU_GUID@@PAPAX@Z 5f836b98 f
 0001:00035bb2       ?Draw@XViewObject@COleControl@@UAGJKJPAXPAUtagDVTARGETDEVICE@@PAUHDC__@@2PBU_RECTL@@3P6GHK@ZK@Z 5f836bb2 f
 0001:00035d7b       ?GetColorSet@XViewObject@COleControl@@UAGJKJPAXPAUtagDVTARGETDEVICE@@PAUHDC__@@PAPAUtagLOGPALETTE@@@Z 5f836d7b f
 0001:00035de9       ?SetAdvise@XViewObject@COleControl@@UAGJKKPAUIAdviseSink@@@Z 5f836de9 f
 0001:00035e87       ?GetAdvise@XViewObject@COleControl@@UAGJPAK0PAPAUIAdviseSink@@@Z 5f836e87 f
 0001:00035eed       ?GetExtent@XViewObject@COleControl@@UAGJKJPAUtagDVTARGETDEVICE@@PAUtagSIZE@@@Z 5f836eed f
 0001:00035f1f       ?GetRect@XViewObject@COleControl@@UAGJKPAU_RECTL@@@Z 5f836f1f f
 0001:00035f4e       ?GetViewStatus@XViewObject@COleControl@@UAGJPAK@Z 5f836f4e f
 0001:00035f6f       ?QueryHitPoint@XViewObject@COleControl@@UAGJKPBUtagRECT@@UtagPOINT@@JPAK@Z 5f836f6f f
 0001:00035fa7       ?QueryHitRect@XViewObject@COleControl@@UAGJKPBUtagRECT@@0JPAK@Z 5f836fa7 f
 0001:00035fdc       ?GetNaturalExtent@XViewObject@COleControl@@UAGJKJPAUtagDVTARGETDEVICE@@PAUHDC__@@PAUtagExtentInfo@@PAUtagSIZE@@@Z 5f836fdc f
 0001:00036014       ?_AfxCountPrefixedStringA@@YGPAXPBD@Z 5f837014 f
 0001:0003604b       ?_AfxCountPrefixedStringW@@YGPAXPBG@Z 5f83704b f
 0001:00036086       ?_AfxConvertStringProp@@YGPAEPAEKKI@Z 5f837086 f
 0001:0003618c       ??0CProperty@@QAE@XZ       5f83718c f
 0001:00036199       ??0CProperty@@QAE@KQAXK@Z  5f837199 f
 0001:000361c0       ??1CProperty@@QAE@XZ       5f8371c0 f
 0001:000361c0       ?FreeValue@CProperty@@AAEXXZ 5f8371c0 f
 0001:000361d8       ?Set@CProperty@@QAEHKQAXK@Z 5f8371d8 f
 0001:000361f1       ?Set@CProperty@@QAEHQAXK@Z 5f8371f1 f
 0001:00036204       ?Set@CProperty@@QAEHQAX@Z  5f837204 f
 0001:000363bc       ?Get@CProperty@@QAEPAXXZ   5f8373bc f
 0001:000363c4       ?Get@CProperty@@QAEPAXPAK@Z 5f8373c4 f
 0001:00036470       ?GetType@CProperty@@QAEKXZ 5f837470 f
 0001:00036474       ?GetID@CProperty@@QAEKXZ   5f837474 f
 0001:00036477       ?SetID@CProperty@@QAEXK@Z  5f837477 f
 0001:00036480       ?GetRawValue@CProperty@@QAEPAXXZ 5f837480 f
 0001:00036484       ?WriteToStream@CProperty@@QAEHPAUIStream@@@Z 5f837484 f
 0001:00036626       ?ReadFromStream@CProperty@@QAEHPAUIStream@@@Z 5f837626 f
 0001:0003683b       ?AllocValue@CProperty@@AAEPAXK@Z 5f83783b f
 0001:00036850       ??0CPropertySection@@QAE@XZ 5f837850 f
 0001:000368ab       ??0CPropertySection@@QAE@U_GUID@@@Z 5f8378ab f
 0001:00036906       ??1CPropertySection@@QAE@XZ 5f837906 f
 0001:00036954       ?GetFormatID@CPropertySection@@QAE?AU_GUID@@XZ 5f837954 f
 0001:00036967       ?SetFormatID@CPropertySection@@QAEXU_GUID@@@Z 5f837967 f
 0001:00036978       ?Set@CPropertySection@@QAEHKPAXK@Z 5f837978 f
 0001:000369f8       ?Set@CPropertySection@@QAEHKPAX@Z 5f8379f8 f
 0001:00036a26       ?Get@CPropertySection@@QAEPAXK@Z 5f837a26 f
 0001:00036a34       ?Get@CPropertySection@@QAEPAXKPAK@Z 5f837a34 f
 0001:00036a53       ?Remove@CPropertySection@@QAEXK@Z 5f837a53 f
 0001:00036a92       ?RemoveAll@CPropertySection@@QAEXXZ 5f837a92 f
 0001:00036acb       ?GetProperty@CPropertySection@@QAEPAVCProperty@@K@Z 5f837acb f
 0001:00036ae8       ?AddProperty@CPropertySection@@QAEXPAVCProperty@@@Z 5f837ae8 f
 0001:00036afe       ?GetSize@CPropertySection@@QAEKXZ 5f837afe f
 0001:00036b02       ?GetCount@CPropertySection@@QAEKXZ 5f837b02 f
 0001:00036b06       ?GetList@CPropertySection@@QAEPAVCPtrList@@XZ 5f837b06 f
 0001:00036b0a       ?WriteToStream@CPropertySection@@QAEHPAUIStream@@@Z 5f837b0a f
 0001:00036c5f       ?ReadFromStream@CPropertySection@@QAEHPAUIStream@@T_LARGE_INTEGER@@@Z 5f837c5f f
 0001:00036d8c       ?GetID@CPropertySection@@QAEHPBGPAK@Z 5f837d8c f
 0001:00036df0       ?SetName@CPropertySection@@QAEHKPBG@Z 5f837df0 f
 0001:00036e7b       ?ReadNameDictFromStream@CPropertySection@@QAEHPAUIStream@@@Z 5f837e7b f
 0001:00036f6c       ?_AfxWriteNameDictEntry@@YGHPAUIStream@@KAAVCString@@@Z 5f837f6c f
 0001:00036fe9       ?WriteNameDictToStream@CPropertySection@@QAEHPAUIStream@@@Z 5f837fe9 f
 0001:0003709a       ?SetSectionName@CPropertySection@@QAEHPBG@Z 5f83809a f
 0001:000370ac       ?GetSectionName@CPropertySection@@QAEPBGXZ 5f8380ac f
 0001:000370b0       ??0CPropertySet@@QAE@XZ    5f8380b0 f
 0001:000370f0       ??0CPropertySet@@QAE@U_GUID@@@Z 5f8380f0 f
 0001:00037131       ?Set@CPropertySet@@QAEHU_GUID@@KPAXK@Z 5f838131 f
 0001:000371b7       ?Set@CPropertySet@@QAEHU_GUID@@KPAX@Z 5f8381b7 f
 0001:000371e7       ?Get@CPropertySet@@QAEPAXU_GUID@@KPAK@Z 5f8381e7 f
 0001:00037217       ?Get@CPropertySet@@QAEPAXU_GUID@@K@Z 5f838217 f
 0001:00037236       ?Remove@CPropertySet@@QAEXU_GUID@@K@Z 5f838236 f
 0001:0003725e       ?Remove@CPropertySet@@QAEXU_GUID@@@Z 5f83825e f
 0001:000372b5       ?RemoveAll@CPropertySet@@QAEXXZ 5f8382b5 f
 0001:000372ee       ?GetSection@CPropertySet@@QAEPAVCPropertySection@@U_GUID@@@Z 5f8382ee f
 0001:0003731d       ?AddSection@CPropertySet@@QAEPAVCPropertySection@@U_GUID@@@Z 5f83831d f
 0001:0003738e       ?AddSection@CPropertySet@@QAEXPAVCPropertySection@@@Z 5f83838e f
 0001:000373a4       ?GetProperty@CPropertySet@@QAEPAVCProperty@@U_GUID@@K@Z 5f8383a4 f
 0001:000373d0       ?AddProperty@CPropertySet@@QAEXU_GUID@@PAVCProperty@@@Z 5f8383d0 f
 0001:000373f8       ?GetByteOrder@CPropertySet@@QAEGXZ 5f8383f8 f
 0001:000373fc       ?GetFormatVersion@CPropertySet@@QAEGXZ 5f8383fc f
 0001:00037401       ?SetFormatVersion@CPropertySet@@QAEXG@Z 5f838401 f
 0001:0003740d       ?SetOSVersion@CPropertySet@@QAEXK@Z 5f83840d f
 0001:00037417       ?GetClassID@CPropertySet@@QAE?AU_GUID@@XZ 5f838417 f
 0001:0003742b       ?SetClassID@CPropertySet@@QAEXU_GUID@@@Z 5f83842b f
 0001:0003743d       ?GetCount@CPropertySet@@QAEKXZ 5f83843d f
 0001:00037441       ?GetList@CPropertySet@@QAEPAVCPtrList@@XZ 5f838441 f
 0001:00037445       ?WriteToStream@CPropertySet@@QAEHPAUIStream@@@Z 5f838445 f
 0001:0003751a       ?ReadFromStream@CPropertySet@@QAEHPAUIStream@@@Z 5f83851a f
 0001:00037649       ??0CBlobProperty@@QAE@PAX@Z 5f838649 f
 0001:00037662       ?AddRef@CBlobProperty@@UAGKXZ 5f838662 f
 0001:00037673       ?Release@CBlobProperty@@UAGKXZ 5f838673 f
 0001:00037699       ?QueryInterface@CBlobProperty@@UAGJABU_GUID@@PAPAX@Z 5f838699 f
 0001:00037701       ?GetClassID@CBlobProperty@@UAGJPAU_GUID@@@Z 5f838701 f
 0001:00037717       ?Load@CBlobProperty@@UAGJPAUIStream@@@Z 5f838717 f
 0001:000377b6       ?Save@CBlobProperty@@UAGJPAUIStream@@H@Z 5f8387b6 f
 0001:0003780f       ?GetSizeMax@CBlobProperty@@UAGJPAT_ULARGE_INTEGER@@@Z 5f83880f f
 0001:00037846       ??0CPropbagPropExchange@@QAE@PAUIPropertyBag@@PAUIErrorLog@@HH@Z 5f838846 f
 0001:0003788f       ?ExchangeProp@CPropbagPropExchange@@UAEHPBGGPAXPBX@Z 5f83888f f
 0001:00037a43       ?ExchangeBlobProp@CPropbagPropExchange@@UAEHPBGPAPAXPAX@Z 5f838a43 f
 0001:00037b1d       ?ExchangeFontProp@CPropbagPropExchange@@UAEHPBGAAVCFontHolder@@PBUtagFONTDESC@@PAUIFontDisp@@@Z 5f838b1d f
 0001:00037be1       ?ExchangePersistentProp@CPropbagPropExchange@@UAEHPBGPAPAUIUnknown@@ABU_GUID@@PAU2@@Z 5f838be1 f
 0001:00037ca4       ?AddRef@XPersistPropertyBag@COleControl@@UAGKXZ 5f838ca4 f
 0001:00037cb6       ?Release@XPersistPropertyBag@COleControl@@UAGKXZ 5f838cb6 f
 0001:00037cc8       ?QueryInterface@XPersistPropertyBag@COleControl@@UAGJABU_GUID@@PAPAX@Z 5f838cc8 f
 0001:00037ce2       ?GetClassID@XPersistPropertyBag@COleControl@@UAGJPAU_GUID@@@Z 5f838ce2 f
 0001:00037cff       ?InitNew@XPersistPropertyBag@COleControl@@UAGJXZ 5f838cff f
 0001:00037d6d       ?Load@XPersistPropertyBag@COleControl@@UAGJPAUIPropertyBag@@PAUIErrorLog@@@Z 5f838d6d f
 0001:00037e4f       ?Save@XPersistPropertyBag@COleControl@@UAGJPAUIPropertyBag@@HH@Z 5f838e4f f
 0001:00037ef8       ??0_AFXCTL_AMBIENT_CACHE@@QAE@XZ 5f838ef8 f
 0001:00037f01       ?Cache@_AFXCTL_AMBIENT_CACHE@@QAEXPAUtagQACONTAINER@@@Z 5f838f01 f
 0001:00037f58       ?AddRef@XQuickActivate@COleControl@@UAGKXZ 5f838f58 f
 0001:00037f6a       ?Release@XQuickActivate@COleControl@@UAGKXZ 5f838f6a f
 0001:00037f7c       ?QueryInterface@XQuickActivate@COleControl@@UAGJABU_GUID@@PAPAX@Z 5f838f7c f
 0001:00037f96       ?QuickActivate@XQuickActivate@COleControl@@UAGJPAUtagQACONTAINER@@PAUtagQACONTROL@@@Z 5f838f96 f
 0001:000380a1       ?SetContentExtent@XQuickActivate@COleControl@@UAGJPAUtagSIZE@@@Z 5f8390a1 f
 0001:000380b7       ?GetContentExtent@XQuickActivate@COleControl@@UAGJPAUtagSIZE@@@Z 5f8390b7 f
 0001:000380cd       ?_GetBaseClass@CWindowlessDC@@KGPAUCRuntimeClass@@XZ 5f8390cd f
 0001:000380d3       ?GetRuntimeClass@CWindowlessDC@@UBEPAUCRuntimeClass@@XZ 5f8390d3 f
 0001:000380d9       ??0CWindowlessDC@@QAE@PAUHDC__@@AAVCPoint@@@Z 5f8390d9 f
 0001:00038159       ??_GCWindowlessDC@@UAEPAXI@Z 5f839159 f
 0001:00038159       ??_ECWindowlessDC@@UAEPAXI@Z 5f839159 f
 0001:00038175       ??1CWindowlessDC@@UAE@XZ   5f839175 f
 0001:0003817a       ?Detach@CWindowlessDC@@QAEPAUHDC__@@XZ 5f83917a f
 0001:000381a2       ?GetClientOffset@COleControl@@UBEXPAJ0@Z 5f8391a2 f
 0001:000381fa       ?ParentToClient@COleControl@@UBEIPBUtagRECT@@PAUtagPOINT@@H@Z 5f8391fa f
 0001:00038291       ?ClientToParent@COleControl@@UBEXPBUtagRECT@@PAUtagPOINT@@@Z 5f839291 f
 0001:000382c0       ?OnInactiveSetCursor@COleControl@@UAEHPBUtagRECT@@JJKH@Z 5f8392c0 f
 0001:00038330       ?OnInactiveMouseMove@COleControl@@UAEXPBUtagRECT@@JJK@Z 5f839330 f
 0001:0003837e       ?AddRef@XPointerInactive@COleControl@@UAGKXZ 5f83937e f
 0001:00038390       ?Release@XPointerInactive@COleControl@@UAGKXZ 5f839390 f
 0001:000383a2       ?QueryInterface@XPointerInactive@COleControl@@UAGJABU_GUID@@PAPAX@Z 5f8393a2 f
 0001:000383bc       ?GetActivationPolicy@XPointerInactive@COleControl@@UAGJPAK@Z 5f8393bc f
 0001:000383dd       ?OnInactiveSetCursor@XPointerInactive@COleControl@@UAGJPBUtagRECT@@JJKH@Z 5f8393dd f
 0001:00038409       ?OnInactiveMouseMove@XPointerInactive@COleControl@@UAGJPBUtagRECT@@JJK@Z 5f839409 f
 0001:0003842f       ?OnWindowlessMessage@COleControl@@UAEHIIJPAJ@Z 5f83942f f
 0001:0003849d       ?OnWindowMessage@XOleInPlaceObject@COleControl@@UAGJIIJPAJ@Z 5f83949d f
 0001:000384c6       ?GetDropTarget@XOleInPlaceObject@COleControl@@UAGJPAPAUIDropTarget@@@Z 5f8394c6 f
 0001:000384f3       ?SetCapture@COleControl@@QAEPAVCWnd@@XZ 5f8394f3 f
 0001:00038534       ?ReleaseCapture@COleControl@@QAEHXZ 5f839534 f
 0001:00038560       ?GetCapture@COleControl@@QAEPAVCWnd@@XZ 5f839560 f
 0001:00038599       ?SetFocus@COleControl@@QAEPAVCWnd@@XZ 5f839599 f
 0001:000385d2       ?GetFocus@COleControl@@QAEPAVCWnd@@XZ 5f8395d2 f
 0001:0003860b       ?GetDC@COleControl@@QAEPAVCDC@@PBUtagRECT@@K@Z 5f83960b f
 0001:00038703       ?ReleaseDC@COleControl@@QAEHPAVCDC@@@Z 5f839703 f
 0001:00038767       ?InvalidateRgn@COleControl@@QAEXPAVCRgn@@H@Z 5f839767 f
 0001:0003883a       ?ScrollWindow@COleControl@@QAEXHHPBUtagRECT@@0@Z 5f83983a f
 0001:00038904       ?ClipCaretRect@COleControl@@QAEHPAUtagRECT@@@Z 5f839904 f
 0001:0003898c       ?GetClientRect@COleControl@@UBEXPAUtagRECT@@@Z 5f83998c f
 0001:00038a0b       ??0CColorButton@@QAE@XZ    5f839a0b f
 0001:00038a21       ??_ECColorButton@@UAEPAXI@Z 5f839a21 f
 0001:00038a21       ??_GCColorButton@@UAEPAXI@Z 5f839a21 f
 0001:00038a3d       ??1CColorButton@@UAE@XZ    5f839a3d f
 0001:00038a42       ?SetFaceColor@CColorButton@@QAEXK@Z 5f839a42 f
 0001:00038a4c       ?colGetFaceColor@CColorButton@@QAEKXZ 5f839a4c f
 0001:00038a50       ?DrawItem@CColorButton@@MAEXPAUtagDRAWITEMSTRUCT@@@Z 5f839a50 f
 0001:00038c06       ?GetMessageMap@CColorPropPage@@MBEPBUAFX_MSGMAP@@XZ 5f839c06 f
 0001:00038c0c       ??0CColorPropPage@@QAE@XZ  5f839c0c f
 0001:00038c9c       ??_GCColorPropPage@@UAEPAXI@Z 5f839c9c f
 0001:00038c9c       ??_ECColorPropPage@@UAEPAXI@Z 5f839c9c f
 0001:00038cb8       ??1CColorPropPage@@UAE@XZ  5f839cb8 f
 0001:00038d2d       ?OnInitDialog@CColorPropPage@@MAEHXZ 5f839d2d f
 0001:00038d94       ?FillSysColors@CColorPropPage@@IAEXXZ 5f839d94 f
 0001:00038e2a       ?DoDataExchange@CColorPropPage@@MAEXPAVCDataExchange@@@Z 5f839e2a f
 0001:00038fbc       ?SetColorProp@CColorPropPage@@IAEHPAVCDataExchange@@KPBG@Z 5f839fbc f
 0001:000390ae       ?GetColorProp@CColorPropPage@@IAEHPAVCDataExchange@@PAKPBG@Z 5f83a0ae f
 0001:000391a1       ?OnSelect@CColorPropPage@@AAEXXZ 5f83a1a1 f
 0001:000391b9       ?SetButton@CColorPropPage@@AAEXPAVCColorButton@@@Z 5f83a1b9 f
 0001:0003921d       ?OnSelchangeColorprop@CColorPropPage@@AAEXXZ 5f83a21d f
 0001:0003922a       ?_AfxDraw3DFrame@@YAXPAVCDC@@VCRect@@KK@Z 5f83a22a f
 0001:0003934c       ?_AfxDraw3DButtonFrame@@YAXPAVCDC@@VCRect@@H@Z 5f83a34c f
 0001:0003951a       ?_AfxInitPalette@@YAPAUHPALETTE__@@XZ 5f83a51a f
 0001:00039621       ?OnSelchangeSystemcolors@CColorPropPage@@AAEXXZ 5f83a621 f
 0001:00039651       ?OnEditProperty@CColorPropPage@@MAEHJ@Z 5f83a651 f
 0001:00039664       ?OnObjectsChanged@CColorPropPage@@MAEXXZ 5f83a664 f
 0001:000396e1       ?GetClassID@CColorPropPage@@UAEJPAU_GUID@@@Z 5f83a6e1 f
 0001:000396f7       ?UpdateRegistry@CColorPropPageFactory@CColorPropPage@@UAEHH@Z 5f83a6f7 f
 0001:00039729       ?_GetBaseMessageMap@CFontPropPage@@KGPBUAFX_MSGMAP@@XZ 5f83a729 f
 0001:0003972f       ?GetMessageMap@CFontPropPage@@MBEPBUAFX_MSGMAP@@XZ 5f83a72f f
 0001:00039735       ??0CFontPropPage@@QAE@XZ   5f83a735 f
 0001:000397f8       ??_ECFontPropPage@@UAEPAXI@Z 5f83a7f8 f
 0001:000397f8       ??_GCFontPropPage@@UAEPAXI@Z 5f83a7f8 f
 0001:00039814       ??1CSizeComboBox@@UAE@XZ   5f83a814 f
 0001:00039819       ??1CFontPropPage@@UAE@XZ   5f83a819 f
 0001:000398d4       ??_GCSizeComboBox@@UAEPAXI@Z 5f83a8d4 f
 0001:000398d4       ??_ECSizeComboBox@@UAEPAXI@Z 5f83a8d4 f
 0001:000398f0       ?_AfxStringFromCy@@YAHAAVCString@@AATtagCY@@@Z 5f83a8f0 f
 0001:0003995b       ?_AfxCyFromString@@YAHAATtagCY@@PBG@Z 5f83a95b f
 0001:000399c7       ?_AfxDrawMaskedBitmap@@YAXPAVCDC@@PAVCBitmap@@1HHHH@Z 5f83a9c7 f
 0001:00039b1c       ?_AfxInitMaskFromBitmap@@YAXPAVCBitmap@@0@Z 5f83ab1c f
 0001:00039c60       ?DoDataExchange@CFontPropPage@@MAEXPAVCDataExchange@@@Z 5f83ac60 f
 0001:00039e79       ??0tagFONTOBJECT@@QAE@ABU0@@Z 5f83ae79 f
 0001:00039eba       ?SetFontProps@CFontPropPage@@IAEHPAVCDataExchange@@UtagFONTOBJECT@@PBG@Z 5f83aeba f
 0001:0003a0ac       ?GetFontProps@CFontPropPage@@IAEHPAVCDataExchange@@PAUtagFONTOBJECT@@PBGPAUtagMERGEOBJECT@@@Z 5f83b0ac f
 0001:0003a2bf       ?OnInitDialog@CFontPropPage@@MAEHXZ 5f83b2bf f
 0001:0003a2e2       ?FillFacenameList@CFontPropPage@@IAEXXZ 5f83b2e2 f
 0001:0003a3b3       ?EnumFontFamiliesCallBack@CFontPropPage@@KGHPAUtagENUMLOGFONTW@@PAUtagNEWTEXTMETRICW@@HJ@Z 5f83b3b3 f
 0001:0003a48c       ?EnumFontFamiliesCallBack2@CFontPropPage@@KGHPAUtagENUMLOGFONTW@@PAUtagNEWTEXTMETRICW@@HJ@Z 5f83b48c f
 0001:0003a53b       ??0CFontComboBox@@QAE@XZ   5f83b53b f
 0001:0003a59d       ??_GCFontComboBox@@UAEPAXI@Z 5f83b59d f
 0001:0003a59d       ??_ECFontComboBox@@UAEPAXI@Z 5f83b59d f
 0001:0003a5b9       ?AddFont@CFontComboBox@@QAEHPAUtagLOGFONTW@@K@Z 5f83b5b9 f
 0001:0003a662       ?GetFontItem@CFontComboBox@@QAEPAUFONTITEM_PPG@@H@Z 5f83b662 f
 0001:0003a6ec       ?GetLogFont@CFontComboBox@@QAEPAUtagLOGFONTW@@H@Z 5f83b6ec f
 0001:0003a6fb       ?GetFontType@CFontComboBox@@QAEKH@Z 5f83b6fb f
 0001:0003a709       ?GetCurrentName@CFontComboBox@@QAE?AVCString@@XZ 5f83b709 f
 0001:0003a764       ?DrawItem@CFontComboBox@@UAEXPAUtagDRAWITEMSTRUCT@@@Z 5f83b764 f
 0001:0003a890       ?DeleteItem@CFontComboBox@@UAEXPAUtagDELETEITEMSTRUCT@@@Z 5f83b890 f
 0001:0003a8ac       ?AddSize@CSizeComboBox@@QAEHHJ@Z 5f83b8ac f
 0001:0003a9af       ?GetPointSize@CSizeComboBox@@QAEXAATtagCY@@@Z 5f83b9af f
 0001:0003a9da       ?GetHeight@CSizeComboBox@@QAEJH@Z 5f83b9da f
 0001:0003aa7b       ?UpdateLogFont@CSizeComboBox@@QAEXPAUtagLOGFONTW@@H@Z 5f83ba7b f
 0001:0003aa91       ?OnEditupdateFontnames@CFontPropPage@@IAEXXZ 5f83ba91 f
 0001:0003ab1a       ?OnEditupdateFontsizes@CFontPropPage@@IAEXXZ 5f83bb1a f
 0001:0003ab77       ?OnSelchangeFontnames@CFontPropPage@@IAEXXZ 5f83bb77 f
 0001:0003ab77       ?FillSizeList@CFontPropPage@@IAEXXZ 5f83bb77 f
 0001:0003adcf       ?UpdateSampleFont@CFontPropPage@@IAEXXZ 5f83bdcf f
 0001:0003ae8e       ?OnPaint@CFontPropPage@@MAEXXZ 5f83be8e f
 0001:0003b035       ?OnSelchangeFontsizes@CFontPropPage@@IAEXXZ 5f83c035 f
 0001:0003b06e       ?OnSelchangeFontstyles@CFontPropPage@@IAEXXZ 5f83c06e f
 0001:0003b0af       ?OnEditchangeFontstyles@CFontPropPage@@IAEXXZ 5f83c0af f
 0001:0003b15a       ?SelectFontFromList@CFontPropPage@@IAEXVCString@@PAUtagMERGEOBJECT@@@Z 5f83c15a f
 0001:0003b2cd       ?OnStrikeout@CFontPropPage@@IAEXXZ 5f83c2cd f
 0001:0003b30b       ?OnUnderline@CFontPropPage@@IAEXXZ 5f83c30b f
 0001:0003b349       ?OnSelchangeFontprop@CFontPropPage@@IAEXXZ 5f83c349 f
 0001:0003b356       ?OnObjectsChanged@CFontPropPage@@MAEXXZ 5f83c356 f
 0001:0003b402       ?GetClassID@CFontPropPage@@UAEJPAU_GUID@@@Z 5f83c402 f
 0001:0003b418       ?UpdateRegistry@CFontPropPageFactory@CFontPropPage@@UAEHH@Z 5f83c418 f
 0001:0003b44a       ??_9@$BOM@AE               5f83c44a f
 0001:0003b452       ??_ECFontPropPageFactory@CFontPropPage@@UAEPAXI@Z 5f83c452 f
 0001:0003b452       ??_GCFontPropPageFactory@CFontPropPage@@UAEPAXI@Z 5f83c452 f
 0001:0003b46e       ?GetMessageMap@CPicturePropPage@@MBEPBUAFX_MSGMAP@@XZ 5f83c46e f
 0001:0003b474       ??0CPicturePropPage@@QAE@XZ 5f83c474 f
 0001:0003b4e0       ??_ECPicturePropPage@@UAEPAXI@Z 5f83c4e0 f
 0001:0003b4e0       ??_GCPicturePropPage@@UAEPAXI@Z 5f83c4e0 f
 0001:0003b4fc       ??1CPicturePropPage@@UAE@XZ 5f83c4fc f
 0001:0003b57d       ?OnInitDialog@CPicturePropPage@@MAEHXZ 5f83c57d f
 0001:0003b5c3       ?DoDataExchange@CPicturePropPage@@MAEXPAVCDataExchange@@@Z 5f83c5c3 f
 0001:0003b655       ?SetPictureProp@CPicturePropPage@@IAEHPAVCDataExchange@@PAUIPictureDisp@@PBG@Z 5f83c655 f
 0001:0003b75d       ?GetPictureProp@CPicturePropPage@@IAEHPAVCDataExchange@@PAPAUIPictureDisp@@PBG@Z 5f83c75d f
 0001:0003b889       ?OnPaint@CPicturePropPage@@IAEXXZ 5f83c889 f
 0001:0003ba01       ?_AfxCreateStreamOnFile@@YAJPBGPAPAUIStream@@PAJ@Z 5f83ca01 f
 0001:0003bb13       ?OnBrowse@CPicturePropPage@@IAEXXZ 5f83cb13 f
 0001:0003bd4f       ?OnClear@CPicturePropPage@@IAEXXZ 5f83cd4f f
 0001:0003bd7d       ?ChangePicture@CPicturePropPage@@IAEXPAUIPicture@@@Z 5f83cd7d f
 0001:0003bdf0       ?OnSelchangePictProp@CPicturePropPage@@IAEXXZ 5f83cdf0 f
 0001:0003be94       ?OnEditProperty@CPicturePropPage@@MAEHJ@Z 5f83ce94 f
 0001:0003bea7       ?OnObjectsChanged@CPicturePropPage@@MAEXXZ 5f83cea7 f
 0001:0003bee5       ?GetClassID@CPicturePropPage@@UAEJPAU_GUID@@@Z 5f83cee5 f
 0001:0003befb       ?UpdateRegistry@CPicturePropPageFactory@CPicturePropPage@@UAEHH@Z 5f83cefb f
 0001:0003bf2d       ??1CPicturePropPageFactory@CPicturePropPage@@UAE@XZ 5f83cf2d f
 0001:0003bf32       ?_AfxSizeComboToContent@@YAXPAVCComboBox@@@Z 5f83cf32 f
 0001:0003bfb2       ??0CStockPropPage@@QAE@II@Z 5f83cfb2 f
 0001:0003bffb       ??_ECStockPropPage@@UAEPAXI@Z 5f83cffb f
 0001:0003bffb       ??_GCStockPropPage@@UAEPAXI@Z 5f83cffb f
 0001:0003c017       ?FillPropnameList@CStockPropPage@@IAEXABU_GUID@@HAAVCComboBox@@@Z 5f83d017 f
 0001:0003c223       ?OnSelchangePropname@CStockPropPage@@IAEXAAVCComboBox@@@Z 5f83d223 f
 0001:0003c295       ?OnEditProperty@CStockPropPage@@IAEHJAAVCComboBox@@@Z 5f83d295 f
 0001:0003c2f9       ?AfxOleTypeMatchGuid@@YGHPAUITypeInfo@@PAUtagTYPEDESC@@ABU_GUID@@K@Z 5f83d2f9 f
 0001:0003c3ae       ?AfxThrowDBException@@YGXFPAVCDatabase@@PAX@Z 5f83d3ae f
 0001:0003c411       ??0CDBException@@QAE@F@Z   5f83d411 f
 0001:0003c489       ??_GCDBException@@UAEPAXI@Z 5f83d489 f
 0001:0003c489       ??_ECDBException@@UAEPAXI@Z 5f83d489 f
 0001:0003c4a5       ?BuildErrorString@CDBException@@UAEXPAVCDatabase@@PAXH@Z 5f83d4a5 f
 0001:0003c6cc       ?GetErrorMessage@CDBException@@UAEHPAGIPAI@Z 5f83d6cc f
 0001:0003c6fd       ?Empty@CDBException@@QAEXXZ 5f83d6fd f
 0001:0003c712       ?AfxGetHENV@@YGPAXXZ       5f83d712 f
 0001:0003c725       ??0CDatabase@@QAE@XZ       5f83d725 f
 0001:0003c78c       ??1CDatabase@@UAE@XZ       5f83d78c f
 0001:0003c7da       ?Open@CDatabase@@UAEHPBGHH0H@Z 5f83d7da f
 0001:0003c8cf       ?OpenEx@CDatabase@@UAEHPBGK@Z 5f83d8cf f
 0001:0003c950       ?ExecuteSQL@CDatabase@@QAEXPBG@Z 5f83d950 f
 0001:0003caaf       ?Cancel@CDatabase@@QAEXXZ  5f83daaf f
 0001:0003cab8       ?Close@CDatabase@@UAEXXZ   5f83dab8 f
 0001:0003cb53       ?Free@CDatabase@@IAEXXZ    5f83db53 f
 0001:0003cbc5       ?OnSetOptions@CDatabase@@UAEXPAX@Z 5f83dbc5 f
 0001:0003cbf0       ?GetDatabaseName@CDatabase@@QBE?AVCString@@XZ 5f83dbf0 f
 0001:0003cc34       ?BeginTrans@CDatabase@@QAEHXZ 5f83dc34 f
 0001:0003cc57       ?CommitTrans@CDatabase@@QAEHXZ 5f83dc57 f
 0001:0003cc9c       ?Rollback@CDatabase@@QAEHXZ 5f83dc9c f
 0001:0003cce1       ?Check@CDatabase@@UBEHF@Z  5f83dce1 f
 0001:0003ccf0       ?CheckHstmt@CDatabase@@QBGHFPAX@Z 5f83dcf0 f
 0001:0003cd0d       ?ReplaceBrackets@CDatabase@@QAEXPAG@Z 5f83dd0d f
 0001:0003cd99       ?AllocConnect@CDatabase@@IAEXK@Z 5f83dd99 f
 0001:0003ce55       ?Connect@CDatabase@@IAEHK@Z 5f83de55 f
 0001:0003cf9a       ?VerifyConnect@CDatabase@@IAEXXZ 5f83df9a f
 0001:0003d021       ?GetConnectInfo@CDatabase@@IAEXXZ 5f83e021 f
 0001:0003d1e3       ??0CRecordset@@QAE@PAVCDatabase@@@Z 5f83e1e3 f
 0001:0003d3f8       ??_ECRecordset@@UAEPAXI@Z  5f83e3f8 f
 0001:0003d3f8       ??_GCRecordset@@UAEPAXI@Z  5f83e3f8 f
 0001:0003d414       ??1CRecordset@@UAE@XZ      5f83e414 f
 0001:0003d526       ?Open@CRecordset@@UAEHIPBGK@Z 5f83e526 f
 0001:0003d5fa       ?Close@CRecordset@@UAEXXZ  5f83e5fa f
 0001:0003d7c4       ??_ECODBCFieldInfo@@QAEPAXI@Z 5f83e7c4 f
 0001:0003d80f       ??1CODBCFieldInfo@@QAE@XZ  5f83e80f f
 0001:0003d814       ?IsOpen@CRecordset@@QBEHXZ 5f83e814 f
 0001:0003d8cf       ?IsFieldDirty@CRecordset@@QAEHPAX@Z 5f83e8cf f
 0001:0003d93c       ?IsFieldNull@CRecordset@@QAEHPAX@Z 5f83e93c f
 0001:0003d98d       ?IsFieldNullable@CRecordset@@QAEHPAX@Z 5f83e98d f
 0001:0003d9c7       ?CanBookmark@CRecordset@@QBEHXZ 5f83e9c7 f
 0001:0003d9ea       ?Move@CRecordset@@UAEXJG@Z 5f83e9ea f
 0001:0003dac5       ?CheckRowsetError@CRecordset@@UAEXF@Z 5f83eac5 f
 0001:0003db7e       ?GetBookmark@CRecordset@@QAEXAAVCDBVariant@@@Z 5f83eb7e f
 0001:0003dc0a       ?SetBookmark@CRecordset@@QAEXABVCDBVariant@@@Z 5f83ec0a f
 0001:0003dc4b       ?SetRowsetSize@CRecordset@@UAEXK@Z 5f83ec4b f
 0001:0003dcfd       ?AddNew@CRecordset@@UAEXXZ 5f83ecfd f
 0001:0003dd5c       ?Edit@CRecordset@@UAEXXZ   5f83ed5c f
 0001:0003de15       ?Update@CRecordset@@UAEHXZ 5f83ee15 f
 0001:0003de49       ?Delete@CRecordset@@UAEXXZ 5f83ee49 f
 0001:0003de70       ?CancelUpdate@CRecordset@@QAEXXZ 5f83ee70 f
 0001:0003de88       ?LoadFields@CRecordset@@QAEXXZ 5f83ee88 f
 0001:0003deb2       ?FlushResultSet@CRecordset@@QBEHXZ 5f83eeb2 f
 0001:0003def1       ?GetODBCFieldInfo@CRecordset@@QAEXPBGAAUCODBCFieldInfo@@@Z 5f83eef1 f
 0001:0003df14       ?GetODBCFieldInfo@CRecordset@@QAEXFAAUCODBCFieldInfo@@@Z 5f83ef14 f
 0001:0003df57       ?GetFieldValue@CRecordset@@QAEXPBGAAVCDBVariant@@F@Z 5f83ef57 f
 0001:0003df8b       ?GetFieldValue@CRecordset@@QAEXFAAVCDBVariant@@F@Z 5f83ef8b f
 0001:0003e0f7       ?GetFieldValue@CRecordset@@QAEXPBGAAVCString@@@Z 5f83f0f7 f
 0001:0003e11a       ?GetFieldValue@CRecordset@@QAEXFAAVCString@@@Z 5f83f11a f
 0001:0003e204       ?SetFieldDirty@CRecordset@@QAEXPAXH@Z 5f83f204 f
 0001:0003e24a       ?SetFieldNull@CRecordset@@QAEXPAXH@Z 5f83f24a f
 0001:0003e2a9       ?SetParamNull@CRecordset@@QAEXHH@Z 5f83f2a9 f
 0001:0003e2d9       ?SetLockingMode@CRecordset@@QAEXI@Z 5f83f2d9 f
 0001:0003e32c       ?Requery@CRecordset@@UAEHXZ 5f83f32c f
 0001:0003e465       ?Cancel@CRecordset@@QAEXXZ 5f83f465 f
 0001:0003e482       ?GetDefaultConnect@CRecordset@@UAE?AVCString@@XZ 5f83f482 f
 0001:0003e49e       ?OnSetOptions@CRecordset@@UAEXPAX@Z 5f83f49e f
 0001:0003e4f7       ?Check@CRecordset@@UBEHF@Z 5f83f4f7 f
 0001:0003e519       ?SetState@CRecordset@@IAEXHPBGK@Z 5f83f519 f
 0001:0003e5c9       ?AllocHstmt@CRecordset@@IAEHXZ 5f83f5c9 f
 0001:0003e7a5       ?BuildSQL@CRecordset@@IAEXPBG@Z 5f83f7a5 f
 0001:0003e88c       ?PrepareAndExecute@CRecordset@@IAEXXZ 5f83f88c f
 0001:0003eab9       ?VerifyDriverBehavior@CRecordset@@IAEXXZ 5f83fab9 f
 0001:0003eb4f       ?VerifyCursorSupport@CRecordset@@IAEKXZ 5f83fb4f f
 0001:0003ebe1       ?AllocAndCacheFieldInfo@CRecordset@@IAEXXZ 5f83fbe1 f
 0001:0003ed0f       ?AllocRowset@CRecordset@@IAEXXZ 5f83fd0f f
 0001:0003ed3f       ?FreeRowset@CRecordset@@IAEXXZ 5f83fd3f f
 0001:0003ed97       ?EnableBookmarks@CRecordset@@IAEXXZ 5f83fd97 f
 0001:0003edd1       ?SetUpdateMethod@CRecordset@@IAEXXZ 5f83fdd1 f
 0001:0003edf3       ?SetConcurrencyAndCursorType@CRecordset@@IAEXPAXK@Z 5f83fdf3 f
 0001:0003eee7       ?IsSQLUpdatable@CRecordset@@QAEHPBG@Z 5f83fee7 f
 0001:0003ef40       ?IsSelectQueryUpdatable@CRecordset@@QAEHPBG@Z 5f83ff40 f
 0001:0003f070       ?IsJoin@CRecordset@@SGHPBG@Z 5f840070 f
 0001:0003f09e       ?FindSQLToken@CRecordset@@SGPBGPBG0@Z 5f84009e f
 0001:0003f1c4       ?InitRecord@CRecordset@@QAEXXZ 5f8401c4 f
 0001:0003f1f6       ?ResetCursor@CRecordset@@QAEXXZ 5f8401f6 f
 0001:0003f21e       ?CheckRowsetCurrencyStatus@CRecordset@@QAEXGJ@Z 5f84021e f
 0001:0003f2af       ?FetchData@CRecordset@@QAEFGJPAK@Z 5f8402af f
 0001:0003f32c       ?SkipDeletedRecords@CRecordset@@QAEXGJPAKPAF@Z 5f84032c f
 0001:0003f409       ?SetRowsetCurrencyStatus@CRecordset@@UAEXFGJK@Z 5f840409 f
 0001:0003f61c       ?RefreshRowset@CRecordset@@QAEXGG@Z 5f84061c f
 0001:0003f65f       ?SetRowsetCursorPosition@CRecordset@@QAEXGG@Z 5f84065f f
 0001:0003f67e       ?BuildSelectSQL@CRecordset@@IAEXXZ 5f84067e f
 0001:0003f79f       ?AppendFilterAndSortSQL@CRecordset@@IAEXXZ 5f84079f f
 0001:0003f7f4       ?IsRecordsetUpdatable@CRecordset@@IAEHXZ 5f8407f4 f
 0001:0003f82e       ?ExecuteSetPosUpdate@CRecordset@@IAEXXZ 5f84082e f
 0001:0003f8c3       ?PrepareUpdateHstmt@CRecordset@@IAEXXZ 5f8408c3 f
 0001:0003f93c       ?BuildUpdateSQL@CRecordset@@IAEXXZ 5f84093c f
 0001:0003fb60       ?ExecuteUpdateSQL@CRecordset@@IAEXXZ 5f840b60 f
 0001:0003fc78       ?SendLongBinaryData@CRecordset@@IAEXPAX@Z 5f840c78 f
 0001:0003fdd5       ?AllocStatusArrays@CRecordset@@QAEXXZ 5f840dd5 f
 0001:0003febb       ?GetBoundFieldIndex@CRecordset@@QAEHPAX@Z 5f840ebb f
 0001:0003fedd       ?GetBoundParamIndex@CRecordset@@QAEHPAX@Z 5f840edd f
 0001:0003feff       ?GetFieldIndexByName@CRecordset@@QAEFPBG@Z 5f840eff f
 0001:0003ff49       ?GetFieldLengthBuffer@CRecordset@@QAEPAJKH@Z 5f840f49 f
 0001:0003ff70       ?GetFieldStatus@CRecordset@@QAEEK@Z 5f840f70 f
 0001:0003ff80       ?SetFieldStatus@CRecordset@@QAEXKE@Z 5f840f80 f
 0001:0003ff95       ?ClearFieldStatus@CRecordset@@QAEXXZ 5f840f95 f
 0001:0003ffa9       ?IsFieldStatusDirty@CRecordset@@QBEHK@Z 5f840fa9 f
 0001:0003ffbc       ?SetDirtyFieldStatus@CRecordset@@QAEXK@Z 5f840fbc f
 0001:0003ffce       ?ClearDirtyFieldStatus@CRecordset@@QAEXK@Z 5f840fce f
 0001:0003ffe0       ?IsFieldStatusNull@CRecordset@@QBEHK@Z 5f840fe0 f
 0001:0003fff3       ?SetNullFieldStatus@CRecordset@@QAEXK@Z 5f840ff3 f
 0001:00040005       ?ClearNullFieldStatus@CRecordset@@QAEXK@Z 5f841005 f
 0001:00040017       ?IsParamStatusNull@CRecordset@@QBEHK@Z 5f841017 f
 0001:0004002a       ?SetNullParamStatus@CRecordset@@QAEXK@Z 5f84102a f
 0001:0004003c       ?ClearNullParamStatus@CRecordset@@QAEXK@Z 5f84103c f
 0001:0004004e       ?IsFieldNullable@CRecordset@@QBEHK@Z 5f84104e f
 0001:00040067       ?BindParams@CRecordset@@QAEIPAX@Z 5f841067 f
 0001:00040096       ?RebindParams@CRecordset@@QAEXPAX@Z 5f841096 f
 0001:000400c8       ?BindFieldsToColumns@CRecordset@@QAEIXZ 5f8410c8 f
 0001:00040100       ?BindFieldsForUpdate@CRecordset@@QAEXXZ 5f841100 f
 0001:0004013a       ?UnbindFieldsForUpdate@CRecordset@@QAEXXZ 5f84113a f
 0001:00040174       ?Fixups@CRecordset@@QAEXXZ 5f841174 f
 0001:0004019e       ?AppendNames@CRecordset@@QAEIPAVCString@@PBG@Z 5f84119e f
 0001:000401de       ?AppendNamesValues@CRecordset@@QAEIPAXPAVCString@@PBG@Z 5f8411de f
 0001:00040219       ?AppendValues@CRecordset@@QAEIPAXPAVCString@@PBG@Z 5f841219 f
 0001:00040254       ?StoreFields@CRecordset@@QAEXXZ 5f841254 f
 0001:00040278       ?MarkForUpdate@CRecordset@@QAEXXZ 5f841278 f
 0001:0004029c       ?MarkForAddNew@CRecordset@@QAEXXZ 5f84129c f
 0001:000402c0       ?AllocDataCache@CRecordset@@QAEXXZ 5f8412c0 f
 0001:000402e4       ?FreeDataCache@CRecordset@@QAEXXZ 5f8412e4 f
 0001:00040376       ?UpdateInsertDelete@CRecordset@@IAEHXZ 5f841376 f
 0001:0004056b       ?GetLBFetchSize@CRecordset@@MAEJJ@Z 5f84156b f
 0001:00040574       ?GetDefaultFieldType@CRecordset@@SGFF@Z 5f841574 f
 0001:00040600       ?GetDataBuffer@CRecordset@@SGPAXAAVCDBVariant@@FPAHFK@Z 5f841600 f
 0001:000407b2       ?GetTextLen@CRecordset@@SGHFK@Z 5f8417b2 f
 0001:000407de       ?GetData@CRecordset@@SGJPAVCDatabase@@PAXFF1HF@Z 5f8417de f
 0001:0004082e       ?GetLongCharDataAndCleanup@CRecordset@@SGXPAVCDatabase@@PAXFJPAPAXHAAVCString@@F@Z 5f84182e f
 0001:000408bc       ?GetLongBinaryDataAndCleanup@CRecordset@@SGXPAVCDatabase@@PAXFJPAPAXHAAVCDBVariant@@F@Z 5f8418bc f
 0001:00040976       ?AfxSetCurrentRecord@@YGXPAJJF@Z 5f841976 f
 0001:00040994       ?AfxSetRecordCount@@YGXPAJJJHF@Z 5f841994 f
 0001:000409ac       ?AfxSetRecordCount@@YGXPAJJHF@Z 5f8419ac f
 0001:000409d6       ?ThrowDBException@CDatabase@@MAEXF@Z 5f8419d6 f
 0001:000409e6       ?ThrowDBException@CRecordset@@UAEXFPAX@Z 5f8419e6 f
 0001:00040a01       ??0CFieldExchange@@QAE@IPAVCRecordset@@PAX@Z 5f841a01 f
 0001:00040a3d       ?IsFieldType@CFieldExchange@@QAEHPAI@Z 5f841a3d f
 0001:00040a7a       ?Default@CFieldExchange@@QAEXPBGPAXPAJHII@Z 5f841a7a f
 0001:00040d68       ?RFX_Text@@YGXPAVCFieldExchange@@PBGPAGHHF@Z 5f841d68 f
 0001:00041460       ?RFX_Text@@YGXPAVCFieldExchange@@PBGAAVCString@@HHF@Z 5f842460 f
 0001:00041c1c       ?RFX_Int@@YGXPAVCFieldExchange@@PBGAAH@Z 5f842c1c f
 0001:00041d43       ?RFX_Long@@YGXPAVCFieldExchange@@PBGAAJ@Z 5f842d43 f
 0001:00041e6b       ?RFX_Byte@@YGXPAVCFieldExchange@@PBGAAE@Z 5f842e6b f
 0001:00041f88       ?RFX_Bool@@YGXPAVCFieldExchange@@PBGAAH@Z 5f842f88 f
 0001:000420b0       ?RFX_Binary@@YGXPAVCFieldExchange@@PBGAAVCByteArray@@H@Z 5f8430b0 f
 0001:000422fd       ?RFX_Date@@YGXPAVCFieldExchange@@PBGAAVCTime@@@Z 5f8432fd f
 0001:000429a2       ?RFX_Date@@YGXPAVCFieldExchange@@PBGAAUtagTIMESTAMP_STRUCT@@@Z 5f8439a2 f
 0001:00042b5c       ?RFX_Date@@YGXPAVCFieldExchange@@PBGAAVCOleDateTime@@@Z 5f843b5c f
 0001:00043185       ??9CTime@@QBEHV0@@Z        5f844185 f
 0001:00043193       ?RFX_LongBinary@@YGXPAVCFieldExchange@@PBGAAVCLongBinary@@@Z 5f844193 f
 0001:00043468       ?GetLongBinarySize@CFieldExchange@@QAEJH@Z 5f844468 f
 0001:000434ae       ?GetLongBinaryData@CFieldExchange@@QAEXHAAVCLongBinary@@PAJ@Z 5f8444ae f
 0001:0004361c       ?ReallocLongBinary@CFieldExchange@@QAEPAEAAVCLongBinary@@JJ@Z 5f84461c f
 0001:0004369e       ?AfxStoreField@@YGXAAVCRecordset@@IPAX@Z 5f84469e f
 0001:0004370a       ?AfxLoadField@@YGXAAVCRecordset@@IPAXPAJ@Z 5f84470a f
 0001:00043781       ?AfxCompareValueByRef@@YGHPAX0H@Z 5f844781 f
 0001:000438d4       ??8CTime@@QBEHV0@@Z        5f8448d4 f
 0001:000438e2       ?AfxCopyValueByRef@@YGXPAX0PAJH@Z 5f8448e2 f
 0001:00043a0f       ?RFX_Text_Bulk@@YGXPAVCFieldExchange@@PBGPAPADPAPAJH@Z 5f844a0f f
 0001:00043a98       ?RFX_Long_Bulk@@YGXPAVCFieldExchange@@PBGPAPAJ2@Z 5f844a98 f
 0001:00043b1a       ?RFX_Date_Bulk@@YGXPAVCFieldExchange@@PBGPAPAUtagTIMESTAMP_STRUCT@@PAPAJ@Z 5f844b1a f
 0001:00043ba1       ?RFX_Byte_Bulk@@YGXPAVCFieldExchange@@PBGPAPAEPAPAJ@Z 5f844ba1 f
 0001:00043c23       ?RFX_Binary_Bulk@@YGXPAVCFieldExchange@@PBGPAPAEPAPAJH@Z 5f844c23 f
 0001:00043cac       ?AfxRFXBulkDefault@@YGXPAVCFieldExchange@@PBGPAXPAJHI@Z 5f844cac f
 0001:00043d13       ?GetMessageMap@CRecordView@@MBEPBUAFX_MSGMAP@@XZ 5f844d13 f
 0001:00043d19       ??0CRecordView@@IAE@PBG@Z  5f844d19 f
 0001:00043d31       ??_GCRecordView@@UAEPAXI@Z 5f844d31 f
 0001:00043d31       ??_ECRecordView@@UAEPAXI@Z 5f844d31 f
 0001:00043d4d       ??0CRecordView@@IAE@I@Z    5f844d4d f
 0001:00043d65       ??1CRecordView@@UAE@XZ     5f844d65 f
 0001:00043d70       ?OnInitialUpdate@CRecordView@@UAEXXZ 5f844d70 f
 0001:00043dd6       ?IsOnFirstRecord@CRecordView@@QAEHXZ 5f844dd6 f
 0001:00043dee       ?IsOnLastRecord@CRecordView@@QAEHXZ 5f844dee f
 0001:00043e17       ?OnMove@CRecordView@@UAEHI@Z 5f844e17 f
 0001:00043ec6       ?OnUpdateRecordFirst@CRecordView@@IAEXPAVCCmdUI@@@Z 5f844ec6 f
 0001:00043f1a       ?OnUpdateRecordPrev@CRecordView@@IAEXPAVCCmdUI@@@Z 5f844f1a f
 0001:00043f26       ?OnUpdateRecordNext@CRecordView@@IAEXPAVCCmdUI@@@Z 5f844f26 f
 0001:00043f71       ?OnUpdateRecordLast@CRecordView@@IAEXPAVCCmdUI@@@Z 5f844f71 f
 0001:00043fc5       ?AfxFieldText@@YGHPAVCDataExchange@@HPAXPAVCRecordset@@@Z 5f844fc5 f
 0001:00044095       ?DDX_FieldText@@YGXPAVCDataExchange@@HAAHPAVCRecordset@@@Z 5f845095 f
 0001:000440bf       ?DDX_FieldText@@YGXPAVCDataExchange@@HAAEPAVCRecordset@@@Z 5f8450bf f
 0001:000440e9       ?DDX_FieldText@@YGXPAVCDataExchange@@HAAIPAVCRecordset@@@Z 5f8450e9 f
 0001:00044113       ?DDX_FieldText@@YGXPAVCDataExchange@@HAAJPAVCRecordset@@@Z 5f845113 f
 0001:0004413d       ?DDX_FieldText@@YGXPAVCDataExchange@@HAAKPAVCRecordset@@@Z 5f84513d f
 0001:00044167       ?DDX_FieldText@@YGXPAVCDataExchange@@HAAVCString@@PAVCRecordset@@@Z 5f845167 f
 0001:00044291       ?DDX_FieldText@@YGXPAVCDataExchange@@HPAGHPAVCRecordset@@@Z 5f845291 f
 0001:0004432e       ?DDX_FieldLBString@@YGXPAVCDataExchange@@HAAVCString@@PAVCRecordset@@@Z 5f84532e f
 0001:00044438       ?DDX_FieldLBStringExact@@YGXPAVCDataExchange@@HAAVCString@@PAVCRecordset@@@Z 5f845438 f
 0001:000444b7       ?DDX_FieldLBIndex@@YGXPAVCDataExchange@@HAAHPAVCRecordset@@@Z 5f8454b7 f
 0001:000444f9       ?DDX_FieldCBString@@YGXPAVCDataExchange@@HAAVCString@@PAVCRecordset@@@Z 5f8454f9 f
 0001:0004463f       ?DDX_FieldCBStringExact@@YGXPAVCDataExchange@@HAAVCString@@PAVCRecordset@@@Z 5f84563f f
 0001:000446be       ?DDX_FieldCBIndex@@YGXPAVCDataExchange@@HAAHPAVCRecordset@@@Z 5f8456be f
 0001:00044700       ?DDX_FieldScroll@@YGXPAVCDataExchange@@HAAHPAVCRecordset@@@Z 5f845700 f
 0001:00044742       ?DDX_FieldCheck@@YGXPAVCDataExchange@@HAAHPAVCRecordset@@@Z 5f845742 f
 0001:000447f5       ?DDX_FieldRadio@@YGXPAVCDataExchange@@HAAHPAVCRecordset@@@Z 5f8457f5 f
 0001:00044863       ??_9@$BBBE@AE              5f845863 f
 0001:0004486b       ?RFX_Single@@YGXPAVCFieldExchange@@PBGAAM@Z 5f84586b f
 0001:000449a6       ?RFX_Double@@YGXPAVCFieldExchange@@PBGAAN@Z 5f8459a6 f
 0001:00044af3       ?RFX_Single_Bulk@@YGXPAVCFieldExchange@@PBGPAPAMPAPAJ@Z 5f845af3 f
 0001:00044b75       ?RFX_Double_Bulk@@YGXPAVCFieldExchange@@PBGPAPANPAPAJ@Z 5f845b75 f
 0001:00044bfc       ?DDX_FieldText@@YGXPAVCDataExchange@@HAAMPAVCRecordset@@@Z 5f845bfc f
 0001:00044c30       ?DDX_FieldText@@YGXPAVCDataExchange@@HAANPAVCRecordset@@@Z 5f845c30 f
 0001:00044c64       ??0CLongBinary@@QAE@XZ     5f845c64 f
 0001:00044c71       ??1CLongBinary@@UAE@XZ     5f845c71 f
 0001:00044c94       ??0CDBVariant@@QAE@XZ      5f845c94 f
 0001:00044ca1       ??_GCDBVariant@@UAEPAXI@Z  5f845ca1 f
 0001:00044ca1       ??_ECDBVariant@@UAEPAXI@Z  5f845ca1 f
 0001:00044ce1       ??1CDBVariant@@UAE@XZ      5f845ce1 f
 0001:00044ce7       ?Clear@CDBVariant@@QAEXXZ  5f845ce7 f
 0001:00044d0a       ??0_AFX_DAO_STATE@@QAE@XZ  5f845d0a f
 0001:00044d46       ??_G_AFX_DAO_STATE@@UAEPAXI@Z 5f845d46 f
 0001:00044d46       ??_E_AFX_DAO_STATE@@UAEPAXI@Z 5f845d46 f
 0001:00044d61       ??1_AFX_DAO_STATE@@UAE@XZ  5f845d61 f
 0001:00044d8d       ?AfxDaoCheck@@YGXJPBD0HHH@Z 5f845d8d f
 0001:00044dbb       ??0CDaoIndexInfo@@QAE@XZ   5f845dbb f
 0001:00044ddc       ??_ECDaoIndexInfo@@UAEPAXI@Z 5f845ddc f
 0001:00044ddc       ??_GCDaoIndexInfo@@UAEPAXI@Z 5f845ddc f
 0001:00044df8       ??_ECDaoIndexFieldInfo@@QAEPAXI@Z 5f845df8 f
 0001:00044e43       ??0CDaoRelationInfo@@QAE@XZ 5f845e43 f
 0001:00044e96       ??_GCDaoRelationInfo@@UAEPAXI@Z 5f845e96 f
 0001:00044e96       ??_ECDaoRelationInfo@@UAEPAXI@Z 5f845e96 f
 0001:00044eb2       ??_ECDaoRelationFieldInfo@@QAEPAXI@Z 5f845eb2 f
 0001:00044efd       ?_GetBaseClass@CDaoException@@KGPAUCRuntimeClass@@XZ 5f845efd f
 0001:00044f03       ?GetRuntimeClass@CDaoException@@UBEPAUCRuntimeClass@@XZ 5f845f03 f
 0001:00044f09       ??0CDaoException@@QAE@XZ   5f845f09 f
 0001:00044f26       ??1CDaoException@@UAE@XZ   5f845f26 f
 0001:00044f91       ??1CDaoErrorInfo@@QAE@XZ   5f845f91 f
 0001:00044fd6       ?GetErrorCount@CDaoException@@QAEFXZ 5f845fd6 f
 0001:0004501b       ?GetErrorInfo@CDaoException@@QAEXH@Z 5f84601b f
 0001:000450ab       ?GetErrorMessage@CDaoException@@UAEHPAGIPAI@Z 5f8460ab f
 0001:00045143       ?InitErrorsCollection@CDaoException@@IAEXXZ 5f846143 f
 0001:00045175       ?FillErrorInfo@CDaoException@@IAEXXZ 5f846175 f
 0001:000452ae       ??0CDaoErrorInfo@@QAE@XZ   5f8462ae f
 0001:000452ee       ?AfxThrowDaoException@@YGXHJ@Z 5f8462ee f
 0001:0004537b       ?GetRuntimeClass@CDaoWorkspace@@UBEPAUCRuntimeClass@@XZ 5f84637b f
 0001:00045386       ??0CDaoWorkspace@@QAE@XZ   5f846386 f
 0001:000453d5       ??1CDaoWorkspace@@UAE@XZ   5f8463d5 f
 0001:00045438       ?Create@CDaoWorkspace@@UAEXPBG00@Z 5f846438 f
 0001:000454eb       ?Append@CDaoWorkspace@@UAEXXZ 5f8464eb f
 0001:0004557d       ?Open@CDaoWorkspace@@UAEXPBG@Z 5f84657d f
 0001:0004564a       ?Close@CDaoWorkspace@@UAEXXZ 5f84664a f
 0001:000456ec       ?GetVersion@CDaoWorkspace@@SG?AVCString@@XZ 5f8466ec f
 0001:00045763       ?GetIniPath@CDaoWorkspace@@SG?AVCString@@XZ 5f846763 f
 0001:000457da       ?SetIniPath@CDaoWorkspace@@SGXPBG@Z 5f8467da f
 0001:0004583d       ?SetDefaultUser@CDaoWorkspace@@SGXPBG@Z 5f84683d f
 0001:000458a0       ?SetDefaultPassword@CDaoWorkspace@@SGXPBG@Z 5f8468a0 f
 0001:00045903       ?GetLoginTimeout@CDaoWorkspace@@SGFXZ 5f846903 f
 0001:0004593c       ?SetLoginTimeout@CDaoWorkspace@@SGXF@Z 5f84693c f
 0001:0004596e       ?GetName@CDaoWorkspace@@QAE?AVCString@@XZ 5f84696e f
 0001:000459d6       ?GetUserNameW@CDaoWorkspace@@QAE?AVCString@@XZ 5f8469d6 f
 0001:00045a3e       ?SetIsolateODBCTrans@CDaoWorkspace@@QAEXH@Z 5f846a3e f
 0001:00045a60       ?GetIsolateODBCTrans@CDaoWorkspace@@QAEHXZ 5f846a60 f
 0001:00045a8a       ?CompactDatabase@CDaoWorkspace@@SGXPBG00H0@Z 5f846a8a f
 0001:00045bb5       ?CompactDatabase@CDaoWorkspace@@SGXPBG00H@Z 5f846bb5 f
 0001:00045bcf       ?RepairDatabase@CDaoWorkspace@@SGXPBG@Z 5f846bcf f
 0001:00045c32       ?Idle@CDaoWorkspace@@SGXH@Z 5f846c32 f
 0001:00045c9f       ?GetWorkspaceCount@CDaoWorkspace@@QAEFXZ 5f846c9f f
 0001:00045cd3       ?GetWorkspaceInfo@CDaoWorkspace@@QAEXHAAUCDaoWorkspaceInfo@@K@Z 5f846cd3 f
 0001:00045d5c       ?GetWorkspaceInfo@CDaoWorkspace@@QAEXPBGAAUCDaoWorkspaceInfo@@K@Z 5f846d5c f
 0001:00045de5       ?GetDatabaseCount@CDaoWorkspace@@QAEFXZ 5f846de5 f
 0001:00045e19       ?GetDatabaseInfo@CDaoWorkspace@@QAEXHAAUCDaoDatabaseInfo@@K@Z 5f846e19 f
 0001:00045ea2       ?GetDatabaseInfo@CDaoWorkspace@@QAEXPBGAAUCDaoDatabaseInfo@@K@Z 5f846ea2 f
 0001:00045f2b       ?BeginTrans@CDaoWorkspace@@QAEXXZ 5f846f2b f
 0001:00045f42       ?CommitTrans@CDaoWorkspace@@QAEXXZ 5f846f42 f
 0001:00045fa3       ?Rollback@CDaoWorkspace@@QAEXXZ 5f846fa3 f
 0001:00045fba       ?AfxDaoInit@@YGXXZ         5f846fba f
 0001:00045fba       ?InitializeEngine@CDaoWorkspace@@KAXXZ 5f846fba f
 0001:000460d1       ?InitWorkspacesCollection@CDaoWorkspace@@IAEXXZ 5f8470d1 f
 0001:00046105       ?FillWorkspaceInfo@CDaoWorkspace@@IAEXPAUDAOWorkspace@@AAUCDaoWorkspaceInfo@@K@Z 5f847105 f
 0001:000461d5       ?InitDatabasesCollection@CDaoWorkspace@@IAEXXZ 5f8471d5 f
 0001:000461f0       ?FillDatabaseInfo@CDaoWorkspace@@IAEXPAUDAODatabase@@AAUCDaoDatabaseInfo@@K@Z 5f8471f0 f
 0001:0004633e       ?GetRuntimeClass@CDaoDatabase@@UBEPAUCRuntimeClass@@XZ 5f84733e f
 0001:00046344       ??0CDaoDatabase@@QAE@PAVCDaoWorkspace@@@Z 5f847344 f
 0001:000463ba       ??1CDaoDatabase@@UAE@XZ    5f8473ba f
 0001:0004643f       ?Create@CDaoDatabase@@UAEXPBG0H@Z 5f84743f f
 0001:000464f8       ?Open@CDaoDatabase@@UAEXPBGHH0@Z 5f8474f8 f
 0001:000465fb       ?Close@CDaoDatabase@@UAEXXZ 5f8475fb f
 0001:00046726       ?CanUpdate@CDaoDatabase@@QAEHXZ 5f847726 f
 0001:00046750       ?CanTransact@CDaoDatabase@@QAEHXZ 5f847750 f
 0001:0004677a       ?GetName@CDaoDatabase@@QAE?AVCString@@XZ 5f84777a f
 0001:000467e2       ?GetConnect@CDaoDatabase@@QAE?AVCString@@XZ 5f8477e2 f
 0001:0004684a       ?GetVersion@CDaoDatabase@@QAE?AVCString@@XZ 5f84784a f
 0001:000468b2       ?GetQueryTimeout@CDaoDatabase@@QAEFXZ 5f8478b2 f
 0001:000468d6       ?SetQueryTimeout@CDaoDatabase@@QAEXF@Z 5f8478d6 f
 0001:000468f3       ?GetRecordsAffected@CDaoDatabase@@QAEJXZ 5f8478f3 f
 0001:00046916       ?DeleteTableDef@CDaoDatabase@@QAEXPBG@Z 5f847916 f
 0001:00046974       ?DeleteQueryDef@CDaoDatabase@@QAEXPBG@Z 5f847974 f
 0001:000469d2       ?CreateRelation@CDaoDatabase@@QAEXPBG00J00@Z 5f8479d2 f
 0001:00046a90       ?CreateRelation@CDaoDatabase@@QAEXAAUCDaoRelationInfo@@@Z 5f847a90 f
 0001:00046d12       ?DeleteRelation@CDaoDatabase@@QAEXPBG@Z 5f847d12 f
 0001:00046d70       ?Execute@CDaoDatabase@@QAEXPBGH@Z 5f847d70 f
 0001:00046dea       ?GetTableDefCount@CDaoDatabase@@QAEFXZ 5f847dea f
 0001:00046e1e       ?GetTableDefInfo@CDaoDatabase@@QAEXHAAUCDaoTableDefInfo@@K@Z 5f847e1e f
 0001:00046ea7       ?GetTableDefInfo@CDaoDatabase@@QAEXPBGAAUCDaoTableDefInfo@@K@Z 5f847ea7 f
 0001:00046f30       ?GetRelationCount@CDaoDatabase@@QAEFXZ 5f847f30 f
 0001:00046f64       ?GetRelationInfo@CDaoDatabase@@QAEXHAAUCDaoRelationInfo@@K@Z 5f847f64 f
 0001:00046fed       ?GetRelationInfo@CDaoDatabase@@QAEXPBGAAUCDaoRelationInfo@@K@Z 5f847fed f
 0001:00047076       ?GetQueryDefCount@CDaoDatabase@@QAEFXZ 5f848076 f
 0001:000470aa       ?GetQueryDefInfo@CDaoDatabase@@QAEXHAAUCDaoQueryDefInfo@@K@Z 5f8480aa f
 0001:00047133       ?GetQueryDefInfo@CDaoDatabase@@QAEXPBGAAUCDaoQueryDefInfo@@K@Z 5f848133 f
 0001:000471bc       ?InitWorkspace@CDaoDatabase@@IAEXXZ 5f8481bc f
 0001:0004721f       ?InitTableDefsCollection@CDaoDatabase@@IAEXXZ 5f84821f f
 0001:0004723a       ?FillTableDefInfo@CDaoDatabase@@IAEXPAU_DAOTableDef@@AAUCDaoTableDefInfo@@K@Z 5f84823a f
 0001:0004740c       ?InitRelationsCollection@CDaoDatabase@@IAEXXZ 5f84840c f
 0001:00047427       ?FillRelationInfo@CDaoDatabase@@IAEXPAU_DAORelation@@AAUCDaoRelationInfo@@K@Z 5f848427 f
 0001:000476eb       ??0CDaoRelationFieldInfo@@QAE@XZ 5f8486eb f
 0001:0004771c       ?InitQueryDefsCollection@CDaoDatabase@@IAEXXZ 5f84871c f
 0001:00047737       ?FillQueryDefInfo@CDaoDatabase@@IAEXPAU_DAOQueryDef@@AAUCDaoQueryDefInfo@@K@Z 5f848737 f
 0001:000478bb       ?GetRuntimeClass@CDaoTableDef@@UBEPAUCRuntimeClass@@XZ 5f8488bb f
 0001:000478c1       ??0CDaoTableDef@@QAE@PAVCDaoDatabase@@@Z 5f8488c1 f
 0001:000478e4       ??_ECDaoTableDef@@UAEPAXI@Z 5f8488e4 f
 0001:000478e4       ??_GCDaoTableDef@@UAEPAXI@Z 5f8488e4 f
 0001:00047900       ??1CDaoTableDef@@UAE@XZ    5f848900 f
 0001:0004794c       ?Create@CDaoTableDef@@UAEXPBGJ00@Z 5f84894c f
 0001:00047a51       ?Append@CDaoTableDef@@UAEXXZ 5f848a51 f
 0001:00047ad5       ?Open@CDaoTableDef@@UAEXPBG@Z 5f848ad5 f
 0001:00047ba1       ?Close@CDaoTableDef@@UAEXXZ 5f848ba1 f
 0001:00047bec       ?CanUpdate@CDaoTableDef@@QAEHXZ 5f848bec f
 0001:00047c16       ?SetName@CDaoTableDef@@QAEXPBG@Z 5f848c16 f
 0001:00047c68       ?GetName@CDaoTableDef@@QAE?AVCString@@XZ 5f848c68 f
 0001:00047cd0       ?SetSourceTableName@CDaoTableDef@@QAEXPBG@Z 5f848cd0 f
 0001:00047d22       ?GetSourceTableName@CDaoTableDef@@QAE?AVCString@@XZ 5f848d22 f
 0001:00047d8a       ?SetConnect@CDaoTableDef@@QAEXPBG@Z 5f848d8a f
 0001:00047ddc       ?GetConnect@CDaoTableDef@@QAE?AVCString@@XZ 5f848ddc f
 0001:00047e44       ?SetAttributes@CDaoTableDef@@QAEXJ@Z 5f848e44 f
 0001:00047e61       ?GetAttributes@CDaoTableDef@@QAEJXZ 5f848e61 f
 0001:00047e84       ?GetDateCreated@CDaoTableDef@@QAE?AVCOleDateTime@@XZ 5f848e84 f
 0001:00047ee2       ?GetDateLastUpdated@CDaoTableDef@@QAE?AVCOleDateTime@@XZ 5f848ee2 f
 0001:00047f40       ?SetValidationRule@CDaoTableDef@@QAEXPBG@Z 5f848f40 f
 0001:00047f92       ?GetValidationRule@CDaoTableDef@@QAE?AVCString@@XZ 5f848f92 f
 0001:00047ffa       ?SetValidationText@CDaoTableDef@@QAEXPBG@Z 5f848ffa f
 0001:0004804c       ?GetValidationText@CDaoTableDef@@QAE?AVCString@@XZ 5f84904c f
 0001:000480b4       ?GetRecordCount@CDaoTableDef@@QAEJXZ 5f8490b4 f
 0001:000480d7       ?CreateField@CDaoTableDef@@QAEXPBGFJJ@Z 5f8490d7 f
 0001:00048148       ??0CDaoFieldInfo@@QAE@XZ   5f849148 f
 0001:000481b5       ?CreateField@CDaoTableDef@@QAEXAAUCDaoFieldInfo@@@Z 5f8491b5 f
 0001:000482d7       ?DeleteField@CDaoTableDef@@QAEXPBG@Z 5f8492d7 f
 0001:00048335       ?DeleteField@CDaoTableDef@@QAEXH@Z 5f849335 f
 0001:00048386       ?CreateIndex@CDaoTableDef@@QAEXAAUCDaoIndexInfo@@@Z 5f849386 f
 0001:0004844b       ?DeleteIndex@CDaoTableDef@@QAEXPBG@Z 5f84944b f
 0001:000484a9       ?DeleteIndex@CDaoTableDef@@QAEXH@Z 5f8494a9 f
 0001:000484fa       ?GetFieldCount@CDaoTableDef@@QAEFXZ 5f8494fa f
 0001:0004852e       ?GetFieldInfo@CDaoTableDef@@QAEXHAAUCDaoFieldInfo@@K@Z 5f84952e f
 0001:000485b8       ?GetFieldInfo@CDaoTableDef@@QAEXPBGAAUCDaoFieldInfo@@K@Z 5f8495b8 f
 0001:00048642       ?GetIndexCount@CDaoTableDef@@QAEFXZ 5f849642 f
 0001:00048676       ?GetIndexInfo@CDaoTableDef@@QAEXHAAUCDaoIndexInfo@@K@Z 5f849676 f
 0001:00048700       ?GetIndexInfo@CDaoTableDef@@QAEXPBGAAUCDaoIndexInfo@@K@Z 5f849700 f
 0001:0004878a       ?RefreshLink@CDaoTableDef@@QAEXXZ 5f84978a f
 0001:000487a1       ?InitFieldsCollection@CDaoTableDef@@IAEXXZ 5f8497a1 f
 0001:000487bc       ?InitIndexesCollection@CDaoTableDef@@IAEXXZ 5f8497bc f
 0001:000487d7       ?ThrowDaoException@CDaoTableDef@@MAEXH@Z 5f8497d7 f
 0001:000487e5       ?GetRuntimeClass@CDaoQueryDef@@UBEPAUCRuntimeClass@@XZ 5f8497e5 f
 0001:000487eb       ??0CDaoQueryDef@@QAE@PAVCDaoDatabase@@@Z 5f8497eb f
 0001:0004880e       ??_ECDaoQueryDef@@UAEPAXI@Z 5f84980e f
 0001:0004880e       ??_GCDaoQueryDef@@UAEPAXI@Z 5f84980e f
 0001:0004882a       ??1CDaoQueryDef@@UAE@XZ    5f84982a f
 0001:00048876       ?Create@CDaoQueryDef@@UAEXPBG0@Z 5f849876 f
 0001:00048994       ?Append@CDaoQueryDef@@UAEXXZ 5f849994 f
 0001:00048a18       ?Open@CDaoQueryDef@@UAEXPBG@Z 5f849a18 f
 0001:00048af1       ?Close@CDaoQueryDef@@UAEXXZ 5f849af1 f
 0001:00048b45       ?CanUpdate@CDaoQueryDef@@QAEHXZ 5f849b45 f
 0001:00048b6f       ?GetName@CDaoQueryDef@@QAE?AVCString@@XZ 5f849b6f f
 0001:00048bd7       ?SetName@CDaoQueryDef@@QAEXPBG@Z 5f849bd7 f
 0001:00048c29       ?GetSQL@CDaoQueryDef@@QAE?AVCString@@XZ 5f849c29 f
 0001:00048c91       ?SetSQL@CDaoQueryDef@@QAEXPBG@Z 5f849c91 f
 0001:00048ce3       ?GetType@CDaoQueryDef@@QAEFXZ 5f849ce3 f
 0001:00048d07       ?GetDateCreated@CDaoQueryDef@@QAE?AVCOleDateTime@@XZ 5f849d07 f
 0001:00048d65       ?GetDateLastUpdated@CDaoQueryDef@@QAE?AVCOleDateTime@@XZ 5f849d65 f
 0001:00048dc3       ?GetConnect@CDaoQueryDef@@QAE?AVCString@@XZ 5f849dc3 f
 0001:00048e2b       ?SetConnect@CDaoQueryDef@@QAEXPBG@Z 5f849e2b f
 0001:00048e7d       ?GetODBCTimeout@CDaoQueryDef@@QAEFXZ 5f849e7d f
 0001:00048ea1       ?SetODBCTimeout@CDaoQueryDef@@QAEXF@Z 5f849ea1 f
 0001:00048ebe       ?SetReturnsRecords@CDaoQueryDef@@QAEXH@Z 5f849ebe f
 0001:00048ee0       ?GetRecordsAffected@CDaoQueryDef@@QAEJXZ 5f849ee0 f
 0001:00048f03       ?Execute@CDaoQueryDef@@UAEXH@Z 5f849f03 f
 0001:00048f5f       ?GetParamValue@CDaoQueryDef@@UAE?AVCOleVariant@@PBG@Z 5f849f5f f
 0001:0004903a       ?GetParamValue@CDaoQueryDef@@UAE?AVCOleVariant@@H@Z 5f84a03a f
 0001:00049115       ?SetParamValue@CDaoQueryDef@@UAEXPBGABVCOleVariant@@@Z 5f84a115 f
 0001:000491d1       ?SetParamValue@CDaoQueryDef@@UAEXHABVCOleVariant@@@Z 5f84a1d1 f
 0001:0004928d       ?SetParamValueNull@CDaoQueryDef@@QAEXPBG@Z 5f84a28d f
 0001:000492d5       ?SetParamValueNull@CDaoQueryDef@@QAEXH@Z 5f84a2d5 f
 0001:0004931d       ?GetFieldCount@CDaoQueryDef@@QAEFXZ 5f84a31d f
 0001:00049351       ?GetFieldInfo@CDaoQueryDef@@QAEXHAAUCDaoFieldInfo@@K@Z 5f84a351 f
 0001:000493db       ?GetFieldInfo@CDaoQueryDef@@QAEXPBGAAUCDaoFieldInfo@@K@Z 5f84a3db f
 0001:00049465       ?GetParameterCount@CDaoQueryDef@@QAEFXZ 5f84a465 f
 0001:00049499       ?GetParameterInfo@CDaoQueryDef@@QAEXHAAUCDaoParameterInfo@@K@Z 5f84a499 f
 0001:00049522       ?GetParameterInfo@CDaoQueryDef@@QAEXPBGAAUCDaoParameterInfo@@K@Z 5f84a522 f
 0001:000495ab       ?InitFieldsCollection@CDaoQueryDef@@IAEXXZ 5f84a5ab f
 0001:000495c6       ?InitParametersCollection@CDaoQueryDef@@IAEXXZ 5f84a5c6 f
 0001:000495e1       ?FillParameterInfo@CDaoQueryDef@@IAEXPAUDAOParameter@@AAUCDaoParameterInfo@@K@Z 5f84a5e1 f
 0001:000496c3       ?_GetBaseClass@CDaoRecordset@@KGPAUCRuntimeClass@@XZ 5f84a6c3 f
 0001:000496c9       ?GetRuntimeClass@CDaoRecordset@@UBEPAUCRuntimeClass@@XZ 5f84a6c9 f
 0001:000496cf       ??0CDaoRecordset@@QAE@PAVCDaoDatabase@@@Z 5f84a6cf f
 0001:00049798       ??1CDaoRecordset@@UAE@XZ   5f84a798 f
 0001:0004984a       ?Open@CDaoRecordset@@UAEXHPBGH@Z 5f84a84a f
 0001:00049c17       ?Open@CDaoRecordset@@UAEXPAVCDaoQueryDef@@HH@Z 5f84ac17 f
 0001:00049d53       ?Open@CDaoRecordset@@UAEXPAVCDaoTableDef@@HH@Z 5f84ad53 f
 0001:00049e7b       ?Close@CDaoRecordset@@UAEXXZ 5f84ae7b f
 0001:00049f9d       ?Requery@CDaoRecordset@@UAEXXZ 5f84af9d f
 0001:0004a0b5       ?GetDefaultDBName@CDaoRecordset@@UAE?AVCString@@XZ 5f84b0b5 f
 0001:0004a0d1       ?IsBOF@CDaoRecordset@@QBEHXZ 5f84b0d1 f
 0001:0004a0fb       ?CanScroll@CDaoRecordset@@QBEHXZ 5f84b0fb f
 0001:0004a0ff       ?CanUpdate@CDaoRecordset@@QBEHXZ 5f84b0ff f
 0001:0004a129       ?CanRestart@CDaoRecordset@@QAEHXZ 5f84b129 f
 0001:0004a153       ?CanTransact@CDaoRecordset@@QAEHXZ 5f84b153 f
 0001:0004a17d       ?CanBookmark@CDaoRecordset@@QAEHXZ 5f84b17d f
 0001:0004a1a7       ?GetName@CDaoRecordset@@QAE?AVCString@@XZ 5f84b1a7 f
 0001:0004a20f       ?GetType@CDaoRecordset@@QAEFXZ 5f84b20f f
 0001:0004a233       ?GetEditMode@CDaoRecordset@@QAEFXZ 5f84b233 f
 0001:0004a25a       ?GetSQL@CDaoRecordset@@QBE?AVCString@@XZ 5f84b25a f
 0001:0004a275       ?GetDateCreated@CDaoRecordset@@QAE?AVCOleDateTime@@XZ 5f84b275 f
 0001:0004a2d3       ?GetDateLastUpdated@CDaoRecordset@@QAE?AVCOleDateTime@@XZ 5f84b2d3 f
 0001:0004a331       ?GetLastModifiedBookmark@CDaoRecordset@@QAE?AVCOleVariant@@XZ 5f84b331 f
 0001:0004a39a       ?GetValidationRule@CDaoRecordset@@QAE?AVCString@@XZ 5f84b39a f
 0001:0004a405       ?GetValidationText@CDaoRecordset@@QAE?AVCString@@XZ 5f84b405 f
 0001:0004a46d       ?GetCurrentIndex@CDaoRecordset@@QAE?AVCString@@XZ 5f84b46d f
 0001:0004a4d5       ?SetCurrentIndex@CDaoRecordset@@QAEXPBG@Z 5f84b4d5 f
 0001:0004a52e       ?GetRecordCount@CDaoRecordset@@QAEJXZ 5f84b52e f
 0001:0004a551       ?SetFieldDirty@CDaoRecordset@@QAEXPAXH@Z 5f84b551 f
 0001:0004a59c       ?IsFieldDirty@CDaoRecordset@@QAEHPAX@Z 5f84b59c f
 0001:0004a609       ?SetFieldNull@CDaoRecordset@@QAEXPAXH@Z 5f84b609 f
 0001:0004a66c       ?IsFieldNull@CDaoRecordset@@QAEHPAX@Z 5f84b66c f
 0001:0004a6b5       ?IsFieldNullable@CDaoRecordset@@QAEHPAX@Z 5f84b6b5 f
 0001:0004a769       ?GetFieldCount@CDaoRecordset@@QAEFXZ 5f84b769 f
 0001:0004a79d       ?GetFieldInfo@CDaoRecordset@@QAEXHAAUCDaoFieldInfo@@K@Z 5f84b79d f
 0001:0004a827       ?GetFieldInfo@CDaoRecordset@@QAEXPBGAAUCDaoFieldInfo@@K@Z 5f84b827 f
 0001:0004a8b1       ?GetIndexCount@CDaoRecordset@@QAEFXZ 5f84b8b1 f
 0001:0004a8e5       ?GetIndexInfo@CDaoRecordset@@QAEXHAAUCDaoIndexInfo@@K@Z 5f84b8e5 f
 0001:0004a96f       ?GetIndexInfo@CDaoRecordset@@QAEXPBGAAUCDaoIndexInfo@@K@Z 5f84b96f f
 0001:0004a9f9       ?GetBookmark@CDaoRecordset@@QAE?AVCOleVariant@@XZ 5f84b9f9 f
 0001:0004aa62       ?SetBookmark@CDaoRecordset@@QAEXVCOleVariant@@@Z 5f84ba62 f
 0001:0004aaac       ?GetAbsolutePosition@CDaoRecordset@@QAEJXZ 5f84baac f
 0001:0004aad2       ?SetAbsolutePosition@CDaoRecordset@@QAEXJ@Z 5f84bad2 f
 0001:0004aafd       ?GetPercentPosition@CDaoRecordset@@QAEMXZ 5f84bafd f
 0001:0004ab23       ?SetPercentPosition@CDaoRecordset@@QAEXM@Z 5f84bb23 f
 0001:0004ab52       ?MoveNext@CDaoRecordset@@QAEXXZ 5f84bb52 f
 0001:0004ab5a       ?MovePrev@CDaoRecordset@@QAEXXZ 5f84bb5a f
 0001:0004ab62       ?MoveFirst@CDaoRecordset@@QAEXXZ 5f84bb62 f
 0001:0004ab6d       ?MoveLast@CDaoRecordset@@QAEXXZ 5f84bb6d f
 0001:0004ab78       ?Move@CDaoRecordset@@UAEXJ@Z 5f84bb78 f
 0001:0004ac61       ?FindNext@CDaoRecordset@@QAEHPBG@Z 5f84bc61 f
 0001:0004ac6f       ?FindPrev@CDaoRecordset@@QAEHPBG@Z 5f84bc6f f
 0001:0004ac7d       ?FindFirst@CDaoRecordset@@QAEHPBG@Z 5f84bc7d f
 0001:0004ac8e       ?FindLast@CDaoRecordset@@QAEHPBG@Z 5f84bc8e f
 0001:0004ac9f       ?Find@CDaoRecordset@@UAEHJPBG@Z 5f84bc9f f
 0001:0004ad6f       ?Seek@CDaoRecordset@@QAEHPBGPAVCOleVariant@@11@Z 5f84bd6f f
 0001:0004aedb       ?Seek@CDaoRecordset@@QAEHPBGPAVCOleVariant@@G@Z 5f84bedb f
 0001:0004b024       ?CancelUpdate@CDaoRecordset@@UAEXXZ 5f84c024 f
 0001:0004b055       ?GetLockingMode@CDaoRecordset@@QAEHXZ 5f84c055 f
 0001:0004b07f       ?SetCacheStart@CDaoRecordset@@QAEXVCOleVariant@@@Z 5f84c07f f
 0001:0004b0c1       ?GetCacheStart@CDaoRecordset@@QAE?AVCOleVariant@@XZ 5f84c0c1 f
 0001:0004b12d       ?SetCacheSize@CDaoRecordset@@QAEXJ@Z 5f84c12d f
 0001:0004b14d       ?GetCacheSize@CDaoRecordset@@QAEJXZ 5f84c14d f
 0001:0004b173       ?FillCache@CDaoRecordset@@QAEXPAJPAVCOleVariant@@@Z 5f84c173 f
 0001:0004b228       ?AddNew@CDaoRecordset@@UAEXXZ 5f84c228 f
 0001:0004b284       ?Edit@CDaoRecordset@@UAEXXZ 5f84c284 f
 0001:0004b2dc       ?Update@CDaoRecordset@@UAEXXZ 5f84c2dc f
 0001:0004b337       ?Delete@CDaoRecordset@@UAEXXZ 5f84c337 f
 0001:0004b37b       ?GetFieldValue@CDaoRecordset@@UAE?AVCOleVariant@@PBG@Z 5f84c37b f
 0001:0004b3d2       ?GetFieldValue@CDaoRecordset@@UAE?AVCOleVariant@@H@Z 5f84c3d2 f
 0001:0004b429       ?GetFieldValue@CDaoRecordset@@UAEXPBGAAVCOleVariant@@@Z 5f84c429 f
 0001:0004b494       ?GetFieldValue@CDaoRecordset@@UAEXHAAVCOleVariant@@@Z 5f84c494 f
 0001:0004b4ff       ?SetFieldValue@CDaoRecordset@@UAEXPBGABVCOleVariant@@@Z 5f84c4ff f
 0001:0004b576       ?SetFieldValue@CDaoRecordset@@UAEXHABVCOleVariant@@@Z 5f84c576 f
 0001:0004b5ed       ?SetFieldValue@CDaoRecordset@@QAEXHPBG@Z 5f84c5ed f
 0001:0004b635       ?SetFieldValue@CDaoRecordset@@QAEXPBG0@Z 5f84c635 f
 0001:0004b67d       ?SetFieldValueNull@CDaoRecordset@@QAEXPBG@Z 5f84c67d f
 0001:0004b6c5       ?SetFieldValueNull@CDaoRecordset@@QAEXH@Z 5f84c6c5 f
 0001:0004b70d       ?GetParamValue@CDaoRecordset@@UAE?AVCOleVariant@@PBG@Z 5f84c70d f
 0001:0004b72a       ?GetParamValue@CDaoRecordset@@UAE?AVCOleVariant@@H@Z 5f84c72a f
 0001:0004b747       ?SetParamValue@CDaoRecordset@@UAEXPBGABVCOleVariant@@@Z 5f84c747 f
 0001:0004b75a       ?SetParamValue@CDaoRecordset@@UAEXHABVCOleVariant@@@Z 5f84c75a f
 0001:0004b76d       ?SetParamValueNull@CDaoRecordset@@QAEXPBG@Z 5f84c76d f
 0001:0004b7b5       ?SetParamValueNull@CDaoRecordset@@QAEXH@Z 5f84c7b5 f
 0001:0004b7fd       ?GetFieldLength@CDaoRecordset@@QAEKH@Z 5f84c7fd f
 0001:0004b80a       ?InitFieldsCollection@CDaoRecordset@@IAEXXZ 5f84c80a f
 0001:0004b828       ?InitIndexesCollection@CDaoRecordset@@IAEXXZ 5f84c828 f
 0001:0004b846       ?BuildSQL@CDaoRecordset@@IAEXXZ 5f84c846 f
 0001:0004b907       ?AllocDatabase@CDaoRecordset@@IAEXXZ 5f84c907 f
 0001:0004b98c       ?BuildSelectList@CDaoRecordset@@IAEXXZ 5f84c98c f
 0001:0004b9bd       ?BuildParameterList@CDaoRecordset@@IAEXXZ 5f84c9bd f
 0001:0004ba0d       ?BindFields@CDaoRecordset@@IAEXXZ 5f84ca0d f
 0001:0004bad5       ?BindParameters@CDaoRecordset@@IAEXXZ 5f84cad5 f
 0001:0004baff       ?Fixup@CDaoRecordset@@IAEXXZ 5f84caff f
 0001:0004bb23       ?AllocCache@CDaoRecordset@@IAEXXZ 5f84cb23 f
 0001:0004bb90       ?StoreFields@CDaoRecordset@@IAEXXZ 5f84cb90 f
 0001:0004bbbf       ?LoadFields@CDaoRecordset@@IAEXXZ 5f84cbbf f
 0001:0004bbf9       ?FreeCache@CDaoRecordset@@IAEXXZ 5f84cbf9 f
 0001:0004bc75       ?MarkForAddNew@CDaoRecordset@@IAEXXZ 5f84cc75 f
 0001:0004bc99       ?MarkForEdit@CDaoRecordset@@IAEXXZ 5f84cc99 f
 0001:0004bcbd       ?GetFieldIndex@CDaoRecordset@@IAEHPAX@Z 5f84ccbd f
 0001:0004bce0       ?SetDirtyFields@CDaoRecordset@@MAEXXZ 5f84cce0 f
 0001:0004bd0f       ?SetCursorAttributes@CDaoRecordset@@QAEXXZ 5f84cd0f f
 0001:0004bd46       ?GetDataAndFixupNulls@CDaoRecordset@@QAEXXZ 5f84cd46 f
 0001:0004bddb       ?IsFieldStatusDirty@CDaoRecordset@@QAEHI@Z 5f84cddb f
 0001:0004bdf1       ?SetDirtyFieldStatus@CDaoRecordset@@QAEXI@Z 5f84cdf1 f
 0001:0004be00       ?ClearDirtyFieldStatus@CDaoRecordset@@QAEXI@Z 5f84ce00 f
 0001:0004be0f       ?IsFieldStatusNull@CDaoRecordset@@QAEHI@Z 5f84ce0f f
 0001:0004be25       ?SetNullFieldStatus@CDaoRecordset@@QAEXI@Z 5f84ce25 f
 0001:0004be34       ?ClearNullFieldStatus@CDaoRecordset@@QAEXI@Z 5f84ce34 f
 0001:0004be43       ?IsFieldStatusNullable@CDaoRecordset@@QAEHI@Z 5f84ce43 f
 0001:0004be59       ?SetNullableFieldStatus@CDaoRecordset@@QAEXI@Z 5f84ce59 f
 0001:0004be68       ?IsFieldStatusNullableKnown@CDaoRecordset@@QAEHI@Z 5f84ce68 f
 0001:0004be7e       ?SetNullableKnownFieldStatus@CDaoRecordset@@QAEXI@Z 5f84ce7e f
 0001:0004be8d       ?ClearFieldStatusFlags@CDaoRecordset@@QAEXXZ 5f84ce8d f
 0001:0004be9e       ?IsMatch@CDaoRecordset@@QAEHXZ 5f84ce9e f
 0001:0004bec9       ?StripBrackets@CDaoRecordset@@SAXPBGPAG@Z 5f84cec9 f
 0001:0004bf04       ?AfxGetFieldInfo@@YAXPAU_DAOField@@AAUCDaoFieldInfo@@K@Z 5f84cf04 f
 0001:0004c188       ?AfxSetFieldInfo@@YAXPAU_DAOField@@AAUCDaoFieldInfo@@@Z 5f84d188 f
 0001:0004c2e2       ?AfxGetDefaultValue@@YAXPAU_DAOField@@AAVCString@@@Z 5f84d2e2 f
 0001:0004c36c       ?AfxSetDefaultValue@@YAXPAU_DAOField@@AAVCString@@@Z 5f84d36c f
 0001:0004c3e7       ?AfxGetIndexInfo@@YAXPAU_DAOIndex@@AAUCDaoIndexInfo@@K@Z 5f84d3e7 f
 0001:0004c554       ?AfxSetIndexInfo@@YAXPAU_DAOIndex@@AAUCDaoIndexInfo@@@Z 5f84d554 f
 0001:0004c5e6       ?AfxGetIndexFields@@YAXPAU_DAOIndex@@PAPAUDAOIndexFields@@@Z 5f84d5e6 f
 0001:0004c66d       ?AfxGetIndexFieldInfo@@YAXPAU_DAOIndex@@AAUCDaoIndexInfo@@@Z 5f84d66d f
 0001:0004c889       ??0CDaoIndexFieldInfo@@QAE@XZ 5f84d889 f
 0001:0004c895       ?AfxSetIndexFieldInfo@@YAXPAU_DAOIndex@@AAUCDaoIndexInfo@@@Z 5f84d895 f
 0001:0004c9ce       ?ThrowGetRowsDaoException@@YAXJ@Z 5f84d9ce f
 0001:0004ca95       ?AfxGetDaoState@@YAPAV_AFX_DAO_STATE@@XZ 5f84da95 f
 0001:0004cb40       ?AfxDaoGetEngine@@YGPAU_DAODBEngine@@XZ 5f84db40 f
 0001:0004cb49       ?AfxDaoTerm@@YGXXZ         5f84db49 f
 0001:0004cbc9       ??_9@$BEM@AG               5f84dbc9 f
 0001:0004cbd2       ??_9@$BHE@AG               5f84dbd2 f
 0001:0004cbdb       ??_9@$BHI@AG               5f84dbdb f
 0001:0004cbe4       ??0CDaoFieldExchange@@QAE@IPAVCDaoRecordset@@PAX@Z 5f84dbe4 f
 0001:0004cc08       ?IsValidOperation@CDaoFieldExchange@@QAEHXZ 5f84dc08 f
 0001:0004cc2d       ?AppendParamType@CDaoFieldExchange@@SGXAAVCString@@K@Z 5f84dc2d f
 0001:0004ce67       ?GetCacheValue@CDaoFieldExchange@@SGPAUCDaoFieldCache@@PAVCDaoRecordset@@PAX@Z 5f84de67 f
 0001:0004ce92       ?SetNullValue@CDaoFieldExchange@@SGXPAXK@Z 5f84de92 f
 0001:0004cf4a       ?IsNullValue@CDaoFieldExchange@@SGHPAXK@Z 5f84df4a f
 0001:0004cff9       ?AllocCacheValue@CDaoFieldExchange@@SGXAAPAUCDaoFieldCache@@K@Z 5f84dff9 f
 0001:0004d17f       ?DeleteCacheValue@CDaoFieldExchange@@SGXPAUCDaoFieldCache@@K@Z 5f84e17f f
 0001:0004d1d1       ?CopyValue@CDaoFieldExchange@@SGXPAX0K@Z 5f84e1d1 f
 0001:0004d2f1       ?CompareValue@CDaoFieldExchange@@SGHPAX0K@Z 5f84e2f1 f
 0001:0004d458       ?FillVariant@CDaoFieldExchange@@SGXPAXKPAPAVCOleVariant@@@Z 5f84e458 f
 0001:0004d5b3       ?Default@CDaoFieldExchange@@QAEXPBGPAXKK@Z 5f84e5b3 f
 0001:0004da7c       ?DFX_Text@@YGXPAVCDaoFieldExchange@@PBGAAVCString@@HK@Z 5f84ea7c f
 0001:0004db38       ?DFX_Binary@@YGXPAVCDaoFieldExchange@@PBGAAVCByteArray@@HK@Z 5f84eb38 f
 0001:0004dbb5       ?DFX_LongBinary@@YGXPAVCDaoFieldExchange@@PBGAAVCLongBinary@@KK@Z 5f84ebb5 f
 0001:0004dc42       ?DFX_Bool@@YGXPAVCDaoFieldExchange@@PBGAAHK@Z 5f84ec42 f
 0001:0004dccc       ?DFX_Byte@@YGXPAVCDaoFieldExchange@@PBGAAEK@Z 5f84eccc f
 0001:0004dd3e       ?DFX_Short@@YGXPAVCDaoFieldExchange@@PBGAAFK@Z 5f84ed3e f
 0001:0004ddb2       ?DFX_Long@@YGXPAVCDaoFieldExchange@@PBGAAJK@Z 5f84edb2 f
 0001:0004de24       ?DFX_Currency@@YGXPAVCDaoFieldExchange@@PBGAAVCOleCurrency@@K@Z 5f84ee24 f
 0001:0004dec2       ?DFX_Single@@YGXPAVCDaoFieldExchange@@PBGAAMK@Z 5f84eec2 f
 0001:0004df38       ?DFX_Double@@YGXPAVCDaoFieldExchange@@PBGAANK@Z 5f84ef38 f
 0001:0004dfa9       ?DFX_DateTime@@YGXPAVCDaoFieldExchange@@PBGAAVCOleDateTime@@K@Z 5f84efa9 f
 0001:0004e046       _DaoStringAllocCallback@12 5f84f046 f
 0001:0004e0a0       _DaoBinaryAllocCallback@12 5f84f0a0 f
 0001:0004e0ff       _DaoLongBinaryAllocCallback@12 5f84f0ff f
 0001:0004e176       ?AllocLongBinary@@YAXAAVCLongBinary@@K@Z 5f84f176 f
 0001:0004e1d0       ?_GetBaseClass@CDaoRecordView@@KGPAUCRuntimeClass@@XZ 5f84f1d0 f
 0001:0004e1d6       ?GetRuntimeClass@CDaoRecordView@@UBEPAUCRuntimeClass@@XZ 5f84f1d6 f
 0001:0004e1dc       ?_GetBaseMessageMap@CDaoRecordView@@KGPBUAFX_MSGMAP@@XZ 5f84f1dc f
 0001:0004e1e2       ?GetMessageMap@CDaoRecordView@@MBEPBUAFX_MSGMAP@@XZ 5f84f1e2 f
 0001:0004e1e8       ??0CDaoRecordView@@IAE@PBG@Z 5f84f1e8 f
 0001:0004e275       ??_ECDaoRecordView@@UAEPAXI@Z 5f84f275 f
 0001:0004e275       ??_GCDaoRecordView@@UAEPAXI@Z 5f84f275 f
 0001:0004e291       ??0CDaoRecordView@@IAE@I@Z 5f84f291 f
 0001:0004e31e       ??1CDaoRecordView@@UAE@XZ  5f84f31e f
 0001:0004e353       ?OnInitialUpdate@CDaoRecordView@@UAEXXZ 5f84f353 f
 0001:0004e433       ?OnMove@CDaoRecordView@@UAEHI@Z 5f84f433 f
 0001:0004e6d0       ?IsOnFirstRecord@CDaoRecordView@@QAEHXZ 5f84f6d0 f
 0001:0004e6e3       ?IsOnLastRecord@CDaoRecordView@@QAEHXZ 5f84f6e3 f
 0001:0004e6f6       ?AfxFieldText@@YGHPAVCDataExchange@@HPAXPAVCDaoRecordset@@@Z 5f84f6f6 f
 0001:0004e7a1       ?DDX_FieldText@@YGXPAVCDataExchange@@HAAHPAVCDaoRecordset@@@Z 5f84f7a1 f
 0001:0004e7cb       ?DDX_FieldText@@YGXPAVCDataExchange@@HAAEPAVCDaoRecordset@@@Z 5f84f7cb f
 0001:0004e7f5       ?DDX_FieldText@@YGXPAVCDataExchange@@HAAFPAVCDaoRecordset@@@Z 5f84f7f5 f
 0001:0004e81f       ?DDX_FieldText@@YGXPAVCDataExchange@@HAAJPAVCDaoRecordset@@@Z 5f84f81f f
 0001:0004e849       ?DDX_FieldText@@YGXPAVCDataExchange@@HAAKPAVCDaoRecordset@@@Z 5f84f849 f
 0001:0004e873       ?DDX_FieldText@@YGXPAVCDataExchange@@HAAVCOleCurrency@@PAVCDaoRecordset@@@Z 5f84f873 f
 0001:0004e89d       ?DDX_FieldText@@YGXPAVCDataExchange@@HAAMPAVCDaoRecordset@@@Z 5f84f89d f
 0001:0004e8c7       ?DDX_FieldText@@YGXPAVCDataExchange@@HAANPAVCDaoRecordset@@@Z 5f84f8c7 f
 0001:0004e8f1       ?DDX_FieldText@@YGXPAVCDataExchange@@HAAVCOleDateTime@@PAVCDaoRecordset@@@Z 5f84f8f1 f
 0001:0004e91b       ?DDX_FieldText@@YGXPAVCDataExchange@@HAAVCString@@PAVCDaoRecordset@@@Z 5f84f91b f
 0001:0004e945       ?DDX_FieldText@@YGXPAVCDataExchange@@HPAGHPAVCDaoRecordset@@@Z 5f84f945 f
 0001:0004e973       ?DDX_FieldLBString@@YGXPAVCDataExchange@@HAAVCString@@PAVCDaoRecordset@@@Z 5f84f973 f
 0001:0004ea63       ?DDX_FieldLBStringExact@@YGXPAVCDataExchange@@HAAVCString@@PAVCDaoRecordset@@@Z 5f84fa63 f
 0001:0004eadc       ?DDX_FieldCBString@@YGXPAVCDataExchange@@HAAVCString@@PAVCDaoRecordset@@@Z 5f84fadc f
 0001:0004eba9       ?DDX_FieldCBStringExact@@YGXPAVCDataExchange@@HAAVCString@@PAVCDaoRecordset@@@Z 5f84fba9 f
 0001:0004ec22       ?DDX_FieldLBIndex@@YGXPAVCDataExchange@@HAAHPAVCDaoRecordset@@@Z 5f84fc22 f
 0001:0004ec5e       ?DDX_FieldCBIndex@@YGXPAVCDataExchange@@HAAHPAVCDaoRecordset@@@Z 5f84fc5e f
 0001:0004ec9a       ?DDX_FieldScroll@@YGXPAVCDataExchange@@HAAHPAVCDaoRecordset@@@Z 5f84fc9a f
 0001:0004ecd6       ?DDX_FieldSlider@@YGXPAVCDataExchange@@HAAHPAVCDaoRecordset@@@Z 5f84fcd6 f
 0001:0004ed12       ?DDX_FieldCheck@@YGXPAVCDataExchange@@HAAHPAVCDaoRecordset@@@Z 5f84fd12 f
 0001:0004edbe       ?DDX_FieldRadio@@YGXPAVCDataExchange@@HAAHPAVCDaoRecordset@@@Z 5f84fdbe f
 0001:0004ee27       ?OnUpdateRecordFirst@CDaoRecordView@@IAEXPAVCCmdUI@@@Z 5f84fe27 f
 0001:0004ee3e       ?OnUpdateRecordNext@CDaoRecordView@@IAEXPAVCCmdUI@@@Z 5f84fe3e f
 0001:0004ee55       ?OnUpdateRecordLast@CDaoRecordView@@IAEXPAVCCmdUI@@@Z 5f84fe55 f
 0001:0004ee6c       ?MoveLast@CRowset@ATL@@QAEJXZ 5f84fe6c f
 0001:0004eebe       ??0CPen@@QAE@XZ            5f84febe f
 0001:0004eecb       ??0CBrush@@QAE@XZ          5f84fecb f
 0001:0004eed8       ??0CFont@@QAE@XZ           5f84fed8 f
 0001:0004eee5       ??0CBitmap@@QAE@XZ         5f84fee5 f
 0001:0004eef2       ??0CPalette@@QAE@XZ        5f84fef2 f
 0001:0004eeff       ??1CPalette@@UAE@XZ        5f84feff f
 0001:0004ef32       ??0CRgn@@QAE@XZ            5f84ff32 f
 0001:0004ef3f       ??0CMenu@@QAE@XZ           5f84ff3f f
 0001:0004ef4c       ??0CStatic@@QAE@XZ         5f84ff4c f
 0001:0004ef5e       ??0CButton@@QAE@XZ         5f84ff5e f
 0001:0004ef70       ??0CListBox@@QAE@XZ        5f84ff70 f
 0001:0004ef82       ??0CCheckListBox@@QAE@XZ   5f84ff82 f
 0001:0004ef9c       ??1CCheckListBox@@UAE@XZ   5f84ff9c f
 0001:0004ef9c       ??1CListBox@@UAE@XZ        5f84ff9c f
 0001:0004efd4       ??0CComboBox@@QAE@XZ       5f84ffd4 f
 0001:0004efe6       ??0CEdit@@QAE@XZ           5f84ffe6 f
 0001:0004eff8       ??0CScrollBar@@QAE@XZ      5f84fff8 f
 0001:0004f00a       ??0CRectTracker@@QAE@XZ    5f85000a f
 0001:0004f01c       ??0CBitmapButton@@QAE@XZ   5f85001c f
 0001:0004f04d       ??1CBitmapButton@@UAE@XZ   5f85004d f
 0001:0004f0e1       ??0COleVariant@@QAE@XZ     5f8500e1 f
 0001:0004f0ee       ??0CDataPathProperty@@QAE@PAVCOleControl@@@Z 5f8500ee f
 0001:0004f12d       ??0CCachedDataPathProperty@@QAE@PAVCOleControl@@@Z 5f85012d f
 0001:0004f186       ??1CCachedDataPathProperty@@UAE@XZ 5f850186 f
 0001:0004f1ca       ??0CCriticalSection@@QAE@XZ 5f8501ca f
 0001:0004f1e8       ??0CDragListBox@@QAE@XZ    5f8501e8 f
 0001:0004f1fe       ??0CToolBarCtrl@@QAE@XZ    5f8501fe f
 0001:0004f210       ??0CStatusBarCtrl@@QAE@XZ  5f850210 f
 0001:0004f222       ??0CListCtrl@@QAE@XZ       5f850222 f
 0001:0004f234       ??0CTreeCtrl@@QAE@XZ       5f850234 f
 0001:0004f246       ??0CHotKeyCtrl@@QAE@XZ     5f850246 f
 0001:0004f258       ??0CSpinButtonCtrl@@QAE@XZ 5f850258 f
 0001:0004f26a       ??0CSliderCtrl@@QAE@XZ     5f85026a f
 0001:0004f27c       ??0CProgressCtrl@@QAE@XZ   5f85027c f
 0001:0004f28e       ??0CHeaderCtrl@@QAE@XZ     5f85028e f
 0001:0004f2a0       ??0CTabCtrl@@QAE@XZ        5f8502a0 f
 0001:0004f2b2       ??0CAnimateCtrl@@QAE@XZ    5f8502b2 f
 0001:0004f2c4       ??0CRichEditCtrl@@QAE@XZ   5f8502c4 f
 0001:0004f2d6       ??0CListView@@QAE@XZ       5f8502d6 f
 0001:0004f2f2       ??0CTreeView@@QAE@XZ       5f8502f2 f
 0001:0004f30e       ??_Gtype_info@@UAEPAXI@Z   5f85030e f
 0001:0004f30e       ??_Etype_info@@UAEPAXI@Z   5f85030e f
 0001:0004f336       __CxxThrowException@8      5f850336 f
 0001:0004f33c       __purecall                 5f85033c f
 0001:0004f342       __alldiv                   5f850342 f
 0001:0004f3ec       __allmul                   5f8503ec f
 0001:0004f420       __allshr                   5f850420 f
 0001:0004f46d       ?__ArrayUnwind@@YGXPAXIHP6EX0@Z@Z 5f85046d f
 0001:0004f4dc       __ftol                     5f8504dc f
 0001:0004f4e2       _labs                      5f8504e2 f
 0001:0004f4e8       _fabs                      5f8504e8 f
 0001:0004f511       ??1type_info@@UAE@XZ       5f850511 f
 0001:0004f517       __except_handler3          5f850517 f
 0001:0004f51d       ?terminate@@YAXXZ          5f85051d f
 0001:0004f523       _ReuseDDElParam@20         5f850523 f
 0001:0004f529       _UnpackDDElParam@16        5f850529 f
 0001:0004f52f       __imp_load__OleCreateFontIndirect@12 5f85052f f
 0001:0004f536       __tailMerge_OLEPRO32       5f850536 f
 0001:0004f544       __imp_load__OleCreatePropertyFrame@44 5f850544 f
 0001:0004f54d       __imp_load__OleTranslateColor@12 5f85054d f
 0001:0004f556       __imp_load__OleCreatePictureIndirect@16 5f850556 f
 0001:0004f55f       __imp_load__OleLoadPicture@20 5f85055f f
 0001:0004f568       __imp_load__SetFileSecurityW@12 5f850568 f
 0001:0004f574       __imp_load__GetFileSecurityW@20 5f850574 f
 0001:0004f580       __imp_load__RegEnumKeyW@16 5f850580 f
 0001:0004f58c       __imp_load__RegDeleteValueW@8 5f85058c f
 0001:0004f598       __imp_load__OleLockRunning@12 5f850598 f
 0001:0004f5a4       __imp_load__OleSetContainedObject@8 5f8505a4 f
 0001:0004f5b0       __imp_load__OleCreateFromData@28 5f8505b0 f
 0001:0004f5bc       __imp_load__OleCreateLinkFromData@28 5f8505bc f
 0001:0004f5c8       __imp_load__OleCreateStaticFromData@28 5f8505c8 f
 0001:0004f5d4       __imp_load__OleCreateFromFile@32 5f8505d4 f
 0001:0004f5e0       __imp_load__OleCreateLinkToFile@28 5f8505e0 f
 0001:0004f5ec       __imp_load__OleCreate@28   5f8505ec f
 0001:0004f5f8       __imp_load__OleLoad@16     5f8505f8 f
 0001:0004f604       __imp_load__OleSave@12     5f850604 f
 0001:0004f610       __imp_load__StgCreateDocfileOnILockBytes@16 5f850610 f
 0001:0004f61c       __imp_load__CreateILockBytesOnHGlobal@12 5f85061c f
 0001:0004f628       __imp_load__StgOpenStorageOnILockBytes@24 5f850628 f
 0001:0004f634       __imp_load__GetHGlobalFromILockBytes@8 5f850634 f
 0001:0004f640       __imp_load__ReleaseStgMedium@4 5f850640 f
 0001:0004f64c       __imp_load__OleGetIconOfClass@12 5f85064c f
 0001:0004f658       __imp_load__WriteClassStm@8 5f850658 f
 0001:0004f664       __imp_load__OleSaveToStream@8 5f850664 f
 0001:0004f670       __imp_load__CreateStreamOnHGlobal@12 5f850670 f
 0001:0004f67c       __imp_load__CreateItemMoniker@12 5f85067c f
 0001:0004f688       __imp_load__CreateGenericComposite@12 5f850688 f
 0001:0004f694       __imp_load__OleSetMenuDescriptor@20 5f850694 f
 0001:0004f6a0       __imp_load__OleQueryCreateFromData@4 5f8506a0 f
 0001:0004f6ac       __imp_load__OleQueryLinkFromData@4 5f8506ac f
 0001:0004f6b8       __imp_load__OleIsRunning@4 5f8506b8 f
 0001:0004f6c4       __imp_load__CoTaskMemAlloc@4 5f8506c4 f
 0001:0004f6d0       __imp_load__OleGetClipboard@4 5f8506d0 f
 0001:0004f6dc       __imp_load__OleSetClipboard@4 5f8506dc f
 0001:0004f6e8       __imp_load__OleFlushClipboard@0 5f8506e8 f
 0001:0004f6f4       __imp_load__OleIsCurrentClipboard@4 5f8506f4 f
 0001:0004f700       __imp_load__CLSIDFromProgID@8 5f850700 f
 0001:0004f70c       __imp_load__CLSIDFromString@8 5f85070c f
 0001:0004f718       __imp_load__CreateBindCtx@8 5f850718 f
 0001:0004f724       __imp_load__GetClassFile@8 5f850724 f
 0001:0004f730       __imp_load__OleRegGetUserType@12 5f850730 f
 0001:0004f73c       __imp_load__ReadFmtUserTypeStg@12 5f85073c f
 0001:0004f748       __imp_load__ReadClassStg@8 5f850748 f
 0001:0004f754       __imp_load__StgOpenStorage@24 5f850754 f
 0001:0004f760       __imp_load__StgIsStorageFile@4 5f850760 f
 0001:0004f76c       __imp_load__DoDragDrop@16  5f85076c f
 0001:0004f778       __imp_load__OleTranslateAccelerator@12 5f850778 f
 0001:0004f784       __imp_load__IsAccelerator@16 5f850784 f
 0001:0004f790       __imp_load__OleCreateMenuDescriptor@8 5f850790 f
 0001:0004f79c       __imp_load__OleDestroyMenuDescriptor@4 5f85079c f
 0001:0004f7a8       __imp_load__WriteClassStg@8 5f8507a8 f
 0001:0004f7b4       __imp_load__OleDuplicateData@12 5f8507b4 f
 0001:0004f7c0       __imp_load__SetConvertStg@8 5f8507c0 f
 0001:0004f7cc       __imp_load__WriteFmtUserTypeStg@12 5f8507cc f
 0001:0004f7d8       __imp_load__CoTreatAsClass@8 5f8507d8 f
 0001:0004f7e4       __imp_load__OleRegEnumVerbs@8 5f8507e4 f
 0001:0004f7f0       __imp_load__OleRegGetMiscStatus@12 5f8507f0 f
 0001:0004f7fc       __imp_load__CreateOleAdviseHolder@4 5f8507fc f
 0001:0004f808       __imp_load__CreateDataAdviseHolder@4 5f850808 f
 0001:0004f814       __imp_load__CoGetClassObject@20 5f850814 f
 0001:0004f820       __imp_load__CoGetMalloc@8  5f850820 f
 0001:0004f82c       __imp_load__CreateDataCache@16 5f85082c f
 0001:0004f838       __imp_load__ReadClassStm@8 5f850838 f
 0001:0004f844       __imp_load__OleLoadFromStream@12 5f850844 f
 0001:0004f850       __imp_load__StringFromGUID2@12 5f850850 f
 0001:0004f85c       __imp_load__CoInitialize@4 5f85085c f
 0001:0004f868       __imp_load__CoUninitialize@0 5f850868 f
 0001:0004f874       __imp_load__SysStringLen@4 5f850874 f
 0001:0004f880       __imp_load__VariantCopy@8  5f850880 f
 0001:0004f88c       __imp_load__SysAllocStringLen@8 5f85088c f
 0001:0004f898       __imp_load__SysReAllocStringLen@12 5f850898 f
 0001:0004f8a4       __imp_load__SysFreeString@4 5f8508a4 f
 0001:0004f8b0       __imp_load__SafeArrayUnaccessData@4 5f8508b0 f
 0001:0004f8bc       __imp_load__SafeArrayAccessData@8 5f8508bc f
 0001:0004f8c8       __imp_load__SafeArrayGetUBound@12 5f8508c8 f
 0001:0004f8d4       __imp_load__SafeArrayGetLBound@12 5f8508d4 f
 0001:0004f8e0       __imp_load__SafeArrayGetElemsize@4 5f8508e0 f
 0001:0004f8ec       __imp_load__SafeArrayGetDim@4 5f8508ec f
 0001:0004f8f8       __imp_load__SafeArrayCreate@12 5f8508f8 f
 0001:0004f904       __imp_load__SafeArrayRedim@8 5f850904 f
 0001:0004f910       __imp_load__SysStringByteLen@4 5f850910 f
 0001:0004f91c       __imp_load__SysAllocStringByteLen@8 5f85091c f
 0001:0004f928       __imp_load__VarCyFromStr@16 5f850928 f
 0001:0004f934       __imp_load__VarBstrFromCy@20 5f850934 f
 0001:0004f940       __imp_load__VarDateFromStr@16 5f850940 f
 0001:0004f94c       __imp_load__VarBstrFromDate@20 5f85094c f
 0001:0004f958       __imp_load__SafeArrayCopy@8 5f850958 f
 0001:0004f964       __imp_load__SafeArrayAllocData@4 5f850964 f
 0001:0004f970       __imp_load__SafeArrayAllocDescriptor@8 5f850970 f
 0001:0004f97c       __imp_load__SafeArrayGetElement@12 5f85097c f
 0001:0004f988       __imp_load__SafeArrayPtrOfIndex@12 5f850988 f
 0001:0004f994       __imp_load__SafeArrayPutElement@12 5f850994 f
 0001:0004f9a0       __imp_load__SafeArrayLock@4 5f8509a0 f
 0001:0004f9ac       __imp_load__SafeArrayUnlock@4 5f8509ac f
 0001:0004f9b8       __imp_load__SafeArrayDestroy@4 5f8509b8 f
 0001:0004f9c4       __imp_load__SafeArrayDestroyData@4 5f8509c4 f
 0001:0004f9d0       __imp_load__SafeArrayDestroyDescriptor@4 5f8509d0 f
 0001:0004f9dc       __imp_load__SafeArrayCreateVector@12 5f8509dc f
 0001:0004f9e8       __imp_load__LoadTypeLib@8  5f8509e8 f
 0001:0004f9f4       __imp_load__VariantTimeToSystemTime@12 5f8509f4 f
 0001:0004fa00       __imp_load__RegisterTypeLib@12 5f850a00 f
 0001:0004fa0c       __imp_load__LoadRegTypeLib@20 5f850a0c f
 0001:0004fa18       __imp_load__InitCommonControls@0 5f850a18 f
 0001:0004fa24       __imp_load__MakeDragList@4 5f850a24 f
 0001:0004fa30       __imp_load__LBItemFromPt@16 5f850a30 f
 0001:0004fa3c       __imp_load__ImageList_Destroy@4 5f850a3c f
 0001:0004fa48       __imp_load__ImageList_Create@20 5f850a48 f
 0001:0004fa54       __imp_load__ImageList_LoadImageW@28 5f850a54 f
 0001:0004fa60       __imp_load__ImageList_Merge@24 5f850a60 f
 0001:0004fa6c       __imp_load__ImageList_Read@4 5f850a6c f
 0001:0004fa78       _ImageList_Read@4          5f850a78 f
 0001:0004fa7e       __imp_load__ImageList_Write@8 5f850a7e f
 0001:0004fa8a       _ImageList_Write@8         5f850a8a f
 0001:0004fa90       __imp_load__PropertySheetW@4 5f850a90 f
 0001:0004fa9c       __imp_load__DestroyPropertySheetPage@4 5f850a9c f
 0001:0004faa8       __imp_load__CreatePropertySheetPageW@4 5f850aa8 f
 0001:0004fab4       __imp_load__ImageList_DrawIndirect@4 5f850ab4 f
 0001:0004fac0       __imp_load__ImageList_Duplicate@4 5f850ac0 f
 0001:0004facc       __imp_load__DragFinish@4   5f850acc f
 0001:0004fad8       __imp_load__DragQueryFileW@16 5f850ad8 f
 0001:0004fae4       __imp_load__GetSaveFileNameW@4 5f850ae4 f
 0001:0004faf0       _GetSaveFileNameW@4        5f850af0 f
 0001:0004faf6       __imp_load__GetOpenFileNameW@4 5f850af6 f
 0001:0004fb02       _GetOpenFileNameW@4        5f850b02 f
 0001:0004fb08       __imp_load__PageSetupDlgW@4 5f850b08 f
 0001:0004fb14       _PageSetupDlgW@4           5f850b14 f
 0001:0004fb1a       __imp_load__ChooseColorW@4 5f850b1a f
 0001:0004fb26       _ChooseColorW@4            5f850b26 f
 0001:0004fb2c       __imp_load__ChooseFontW@4  5f850b2c f
 0001:0004fb38       _ChooseFontW@4             5f850b38 f
 0001:0004fb3e       __imp_load__ReplaceTextW@4 5f850b3e f
 0001:0004fb4a       _ReplaceTextW@4            5f850b4a f
 0001:0004fb50       __imp_load__FindTextW@4    5f850b50 f
 0001:0004fb5c       _FindTextW@4               5f850b5c f
 0001:0004fb62       __imp_load__CommDlgExtendedError@0 5f850b62 f
 0001:0004fb6e       _CommDlgExtendedError@0    5f850b6e f
 0001:0004fb74       __imp_load__ClosePrinter@4 5f850b74 f
 0001:0004fb7b       __tailMerge_WINSPOOL       5f850b7b f
 0001:0004fb89       _ClosePrinter@4            5f850b89 f
 0001:0004fb8f       __imp_load__DocumentPropertiesW@24 5f850b8f f
 0001:0004fb98       _DocumentPropertiesW@24    5f850b98 f
 0001:0004fb9e       __imp_load__OpenPrinterW@12 5f850b9e f
 0001:0004fba7       _OpenPrinterW@12           5f850ba7 f
 0001:0004fbad       __imp_load__InternetCrackUrlW@16 5f850bad f
 0001:0004fbb4       __tailMerge_WININET        5f850bb4 f
 0001:0004fbc2       __imp_load__InternetCanonicalizeUrlW@16 5f850bc2 f
 0001:0004fbcb       __imp_load__InternetQueryOptionW@16 5f850bcb f
 0001:0004fbd4       __imp_load__InternetOpenW@20 5f850bd4 f
 0001:0004fbdd       __imp_load__InternetCloseHandle@4 5f850bdd f
 0001:0004fbe6       __imp_load__InternetOpenUrlW@24 5f850be6 f
 0001:0004fbef       __imp_load__InternetSetOptionExW@20 5f850bef f
 0001:0004fbf8       __imp_load__InternetSetStatusCallback@8 5f850bf8 f
 0001:0004fc01       __imp_load__InternetSetCookieW@12 5f850c01 f
 0001:0004fc0a       __imp_load__InternetGetCookieW@16 5f850c0a f
 0001:0004fc13       __imp_load__InternetSetFilePointer@20 5f850c13 f
 0001:0004fc1c       __imp_load__InternetWriteFile@16 5f850c1c f
 0001:0004fc25       __imp_load__InternetReadFile@16 5f850c25 f
 0001:0004fc2e       __imp_load__InternetQueryDataAvailable@16 5f850c2e f
 0001:0004fc3a       __imp_load__InternetConnectW@32 5f850c3a f
 0001:0004fc46       __imp_load__FtpDeleteFileW@8 5f850c46 f
 0001:0004fc52       __imp_load__FtpRenameFileW@12 5f850c52 f
 0001:0004fc5e       __imp_load__FtpCreateDirectoryW@8 5f850c5e f
 0001:0004fc6a       __imp_load__FtpRemoveDirectoryW@8 5f850c6a f
 0001:0004fc76       __imp_load__FtpSetCurrentDirectoryW@8 5f850c76 f
 0001:0004fc82       __imp_load__FtpGetCurrentDirectoryW@12 5f850c82 f
 0001:0004fc8e       __imp_load__FtpOpenFileW@20 5f850c8e f
 0001:0004fc9a       __imp_load__FtpPutFileW@20 5f850c9a f
 0001:0004fca6       __imp_load__FtpGetFileW@28 5f850ca6 f
 0001:0004fcb2       __imp_load__GopherCreateLocatorW@28 5f850cb2 f
 0001:0004fcbe       __imp_load__GopherGetAttributeW@32 5f850cbe f
 0001:0004fcca       __imp_load__GopherOpenFileW@20 5f850cca f
 0001:0004fcd6       __imp_load__HttpOpenRequestW@32 5f850cd6 f
 0001:0004fce2       __imp_load__InternetErrorDlg@20 5f850ce2 f
 0001:0004fcee       __imp_load__HttpAddRequestHeadersW@16 5f850cee f
 0001:0004fcfa       __imp_load__HttpSendRequestW@20 5f850cfa f
 0001:0004fd06       __imp_load__HttpEndRequestW@16 5f850d06 f
 0001:0004fd12       __imp_load__HttpSendRequestExW@20 5f850d12 f
 0001:0004fd1e       __imp_load__HttpQueryInfoW@20 5f850d1e f
 0001:0004fd2a       __imp_load__FtpFindFirstFileW@20 5f850d2a f
 0001:0004fd36       __imp_load__InternetFindNextFileW@8 5f850d36 f
 0001:0004fd42       __imp_load__GopherFindFirstFileW@24 5f850d42 f
 0001:0004fd4e       __imp_load__InternetGetLastResponseInfoW@12 5f850d4e f
 0001:0004fd5a       __imp_load__WSACleanup@0   5f850d5a f
 0001:0004fd61       __tailMerge_WSOCK32        5f850d61 f
 0001:0004fd6f       _WSACleanup@0              5f850d6f f
 0001:0004fd75       __imp_load__WSAStartup@8   5f850d75 f
 0001:0004fd7e       _WSAStartup@8              5f850d7e f
 0001:0004fd84       __imp_load__WSASetLastError@4 5f850d84 f
 0001:0004fd8d       _WSASetLastError@4         5f850d8d f
 0001:0004fd93       __imp_load__WSAGetLastError@0 5f850d93 f
 0001:0004fd9c       _WSAGetLastError@0         5f850d9c f
 0001:0004fda2       __imp_load__inet_ntoa@4    5f850da2 f
 0001:0004fdab       _inet_ntoa@4               5f850dab f
 0001:0004fdb1       __imp_load__ntohs@4        5f850db1 f
 0001:0004fdba       _ntohs@4                   5f850dba f
 0001:0004fdc0       __imp_load__getpeername@12 5f850dc0 f
 0001:0004fdc9       _getpeername@12            5f850dc9 f
 0001:0004fdcf       __imp_load__getsockname@12 5f850dcf f
 0001:0004fdd8       _getsockname@12            5f850dd8 f
 0001:0004fdde       __imp_load__accept@12      5f850dde f
 0001:0004fdea       _accept@12                 5f850dea f
 0001:0004fdf0       __imp_load__inet_addr@4    5f850df0 f
 0001:0004fdfc       _inet_addr@4               5f850dfc f
 0001:0004fe02       __imp_load__bind@12        5f850e02 f
 0001:0004fe0e       _bind@12                   5f850e0e f
 0001:0004fe14       __imp_load__htons@4        5f850e14 f
 0001:0004fe20       _htons@4                   5f850e20 f
 0001:0004fe26       __imp_load__htonl@4        5f850e26 f
 0001:0004fe32       _htonl@4                   5f850e32 f
 0001:0004fe38       __imp_load__closesocket@4  5f850e38 f
 0001:0004fe44       _closesocket@4             5f850e44 f
 0001:0004fe4a       __imp_load__gethostbyname@4 5f850e4a f
 0001:0004fe56       _gethostbyname@4           5f850e56 f
 0001:0004fe5c       __imp_load__recv@16        5f850e5c f
 0001:0004fe68       _recv@16                   5f850e68 f
 0001:0004fe6e       __imp_load__send@16        5f850e6e f
 0001:0004fe7a       _send@16                   5f850e7a f
 0001:0004fe80       __imp_load__WSAAsyncSelect@16 5f850e80 f
 0001:0004fe8c       _WSAAsyncSelect@16         5f850e8c f
 0001:0004fe92       __imp_load__ioctlsocket@12 5f850e92 f
 0001:0004fe9e       _ioctlsocket@12            5f850e9e f
 0001:0004fea4       __imp_load__socket@12      5f850ea4 f
 0001:0004feb0       _socket@12                 5f850eb0 f
 0001:0004feb6       __imp_load__recvfrom@24    5f850eb6 f
 0001:0004fec2       _recvfrom@24               5f850ec2 f
 0001:0004fec8       __imp_load__sendto@24      5f850ec8 f
 0001:0004fed4       _sendto@24                 5f850ed4 f
 0001:0004feda       __imp_load__connect@12     5f850eda f
 0001:0004fee6       _connect@12                5f850ee6 f
 0001:0004feec       __imp_load__OleUIInsertObjectW@4 5f850eec f
 0001:0004fef3       __tailMerge_oledlg         5f850ef3 f
 0001:0004ff01       _OleUIInsertObjectW@4      5f850f01 f
 0001:0004ff07       __imp_load__OleUIConvertW@4 5f850f07 f
 0001:0004ff10       _OleUIConvertW@4           5f850f10 f
 0001:0004ff16       __imp_load__OleUIChangeIconW@4 5f850f16 f
 0001:0004ff1f       _OleUIChangeIconW@4        5f850f1f f
 0001:0004ff25       __imp_load__OleUIEditLinksW@4 5f850f25 f
 0001:0004ff2e       _OleUIEditLinksW@4         5f850f2e f
 0001:0004ff34       __imp_load__OleUIUpdateLinksW@16 5f850f34 f
 0001:0004ff3d       _OleUIUpdateLinksW@16      5f850f3d f
 0001:0004ff43       __imp_load__OleUIPasteSpecialW@4 5f850f43 f
 0001:0004ff4c       _OleUIPasteSpecialW@4      5f850f4c f
 0001:0004ff52       __imp_load__OleUIBusyW@4   5f850f52 f
 0001:0004ff5b       _OleUIBusyW@4              5f850f5b f
 0001:0004ff61       __imp_load__OleUIObjectPropertiesW@4 5f850f61 f
 0001:0004ff6a       _OleUIObjectPropertiesW@4  5f850f6a f
 0001:0004ff70       __imp_load__OleUIChangeSourceW@4 5f850f70 f
 0001:0004ff7c       _OleUIChangeSourceW@4      5f850f7c f
 0001:0004ff82       __imp_load__OleUIAddVerbMenuW@36 5f850f82 f
 0001:0004ff8e       _OleUIAddVerbMenuW@36      5f850f8e f
 0001:0004ff94       __imp_load__CreateURLMoniker@12 5f850f94 f
 0001:0004ff9b       __tailMerge_urlmon         5f850f9b f
 0001:0004ffa9       _CreateURLMoniker@12       5f850fa9 f
 0001:0004ffaf       __imp_load__CreateAsyncBindCtx@16 5f850faf f
 0001:0004ffb8       _CreateAsyncBindCtx@16     5f850fb8 f
 0001:0004ffbe       __imp_load__RegisterBindStatusCallback@16 5f850fbe f
 0001:0004ffc7       _RegisterBindStatusCallback@16 5f850fc7 f
 0001:0004ffcd       __imp_load__IsAsyncMoniker@4 5f850fcd f
 0001:0004ffd6       _IsAsyncMoniker@4          5f850fd6 f
 0001:0004ffdc       __imp_load__SQLError@32    5f850fdc f
 0001:0004ffe3       __tailMerge_ODBC32         5f850fe3 f
 0001:0004fff1       _SQLError@32               5f850ff1 f
 0001:0004fff7       __imp_load__SQLCancel@4    5f850ff7 f
 0001:00050000       _SQLCancel@4               5f851000 f
 0001:00050006       __imp_load__SQLFreeStmt@8  5f851006 f
 0001:0005000f       _SQLFreeStmt@8             5f85100f f
 0001:00050015       __imp_load__SQLMoreResults@4 5f851015 f
 0001:0005001e       _SQLMoreResults@4          5f85101e f
 0001:00050024       __imp_load__SQLFetch@4     5f851024 f
 0001:0005002d       _SQLFetch@4                5f85102d f
 0001:00050033       __imp_load__SQLNumResultCols@8 5f851033 f
 0001:0005003c       _SQLNumResultCols@8        5f85103c f
 0001:00050042       __imp_load__SQLExecDirect@12 5f851042 f
 0001:0005004b       _SQLExecDirect@12          5f85104b f
 0001:00050051       __imp_load__SQLAllocStmt@8 5f851051 f
 0001:0005005a       _SQLAllocStmt@8            5f85105a f
 0001:00050060       __imp_load__SQLFreeConnect@4 5f851060 f
 0001:0005006c       _SQLFreeConnect@4          5f85106c f
 0001:00050072       __imp_load__SQLDisconnect@4 5f851072 f
 0001:0005007e       _SQLDisconnect@4           5f85107e f
 0001:00050084       __imp_load__SQLFreeEnv@4   5f851084 f
 0001:00050090       _SQLFreeEnv@4              5f851090 f
 0001:00050096       __imp_load__SQLSetStmtOption@12 5f851096 f
 0001:000500a2       _SQLSetStmtOption@12       5f8510a2 f
 0001:000500a8       __imp_load__SQLGetInfo@20  5f8510a8 f
 0001:000500b4       _SQLGetInfo@20             5f8510b4 f
 0001:000500ba       __imp_load__SQLSetConnectOption@12 5f8510ba f
 0001:000500c6       _SQLSetConnectOption@12    5f8510c6 f
 0001:000500cc       __imp_load__SQLTransact@12 5f8510cc f
 0001:000500d8       _SQLTransact@12            5f8510d8 f
 0001:000500de       __imp_load__SQLAllocConnect@8 5f8510de f
 0001:000500ea       _SQLAllocConnect@8         5f8510ea f
 0001:000500f0       __imp_load__SQLAllocEnv@4  5f8510f0 f
 0001:000500fc       _SQLAllocEnv@4             5f8510fc f
 0001:00050102       __imp_load__SQLDriverConnect@32 5f851102 f
 0001:0005010e       _SQLDriverConnect@32       5f85110e f
 0001:00050114       __imp_load__SQLGetData@24  5f851114 f
 0001:00050120       _SQLGetData@24             5f851120 f
 0001:00050126       __imp_load__SQLSetPos@16   5f851126 f
 0001:00050132       _SQLSetPos@16              5f851132 f
 0001:00050138       __imp_load__SQLExecute@4   5f851138 f
 0001:00050144       _SQLExecute@4              5f851144 f
 0001:0005014a       __imp_load__SQLGetStmtOption@12 5f85114a f
 0001:00050156       _SQLGetStmtOption@12       5f851156 f
 0001:0005015c       __imp_load__SQLPrepare@12  5f85115c f
 0001:00050168       _SQLPrepare@12             5f851168 f
 0001:0005016e       __imp_load__SQLGetFunctions@12 5f85116e f
 0001:0005017a       _SQLGetFunctions@12        5f85117a f
 0001:00050180       __imp_load__SQLDescribeCol@36 5f851180 f
 0001:0005018c       _SQLDescribeCol@36         5f85118c f
 0001:00050192       __imp_load__SQLExtendedFetch@20 5f851192 f
 0001:0005019e       _SQLExtendedFetch@20       5f85119e f
 0001:000501a4       __imp_load__SQLGetCursorName@16 5f8511a4 f
 0001:000501b0       _SQLGetCursorName@16       5f8511b0 f
 0001:000501b6       __imp_load__SQLRowCount@8  5f8511b6 f
 0001:000501c2       _SQLRowCount@8             5f8511c2 f
 0001:000501c8       __imp_load__SQLPutData@12  5f8511c8 f
 0001:000501d4       _SQLPutData@12             5f8511d4 f
 0001:000501da       __imp_load__SQLParamData@8 5f8511da f
 0001:000501e6       _SQLParamData@8            5f8511e6 f
 0001:000501ec       __imp_load__SQLBindCol@24  5f8511ec f
 0001:000501f8       _SQLBindCol@24             5f8511f8 f
 0001:000501fe       __imp_load__SQLBindParameter@40 5f8511fe f
 0001:0005020a       _SQLBindParameter@40       5f85120a f
 0001:0005037b       ?InitString@CSimpleException@@QAEXXZ 5f85137b f
 0001:000503a4       ?GetErrorMessage@CSimpleException@@UAEHPAGIPAI@Z 5f8513a4 f
 0001:000503e8       ?AfxThrowMemoryException@@YGXXZ 5f8513e8 f
 0001:00050401       ?AfxThrowNotSupportedException@@YGXXZ 5f851401 f
 0001:0005041a       ?AfxIsValidString@@YGHPBGH@Z 5f85141a f
 0001:00050446       ?AfxIsValidString@@YGHPBDH@Z 5f851446 f
 0001:00050467       ?AfxIsValidAddress@@YGHPBXIH@Z 5f851467 f
 0001:000504a0       ?AfxAbort@@YGXXZ           5f8514a0 f
 0001:000504ab       ??0CString@@QAE@GH@Z       5f8514ab f
 0001:000504e6       ??0CString@@QAE@PBGH@Z     5f8514e6 f
 0001:0005051c       ??0CString@@QAE@PBDH@Z     5f85151c f
 0001:00050564       ??4CString@@QAEABV0@G@Z    5f851564 f
 0001:00050579       ??H@YG?AVCString@@ABV0@G@Z 5f851579 f
 0001:000505db       ??H@YG?AVCString@@GABV0@@Z 5f8515db f
 0001:0005063d       ?Delete@CString@@QAEHHH@Z  5f85163d f
 0001:000506a0       ?Insert@CString@@QAEHHG@Z  5f8516a0 f
 0001:00050738       ?Insert@CString@@QAEHHPBG@Z 5f851738 f
 0001:00050807       ?Replace@CString@@QAEHGG@Z 5f851807 f
 0001:0005084b       ?Replace@CString@@QAEHPBG0@Z 5f85184b f
 0001:000509d4       ?Remove@CString@@QAEHG@Z   5f8519d4 f
 0001:00050a10       ?Mid@CString@@QBE?AV1@H@Z  5f851a10 f
 0001:00050a33       ?Mid@CString@@QBE?AV1@HH@Z 5f851a33 f
 0001:00050ad4       ?Right@CString@@QBE?AV1@H@Z 5f851ad4 f
 0001:00050b59       ?Left@CString@@QBE?AV1@H@Z 5f851b59 f
 0001:00050bd9       ?SpanIncluding@CString@@QBE?AV1@PBG@Z 5f851bd9 f
 0001:00050c04       ?SpanExcluding@CString@@QBE?AV1@PBG@Z 5f851c04 f
 0001:00050c2f       ?ReverseFind@CString@@QBEHG@Z 5f851c2f f
 0001:00050c52       ?Find@CString@@QBEHPBG@Z   5f851c52 f
 0001:00050c60       ?Find@CString@@QBEHPBGH@Z  5f851c60 f
 0001:00050e26       ?Format@CString@@QAAXIZZ   5f851e26 f
 0001:00050e6f       ?FormatMessageW@CString@@QAAXPBGZZ 5f851e6f f
 0001:00050ebb       ?FormatMessageW@CString@@QAAXIZZ 5f851ebb f
 0001:00050f3e       ?TrimRight@CString@@QAEXPBG@Z 5f851f3e f
 0001:00050f8f       ?TrimRight@CString@@QAEXG@Z 5f851f8f f
 0001:00050fd2       ?TrimRight@CString@@QAEXXZ 5f851fd2 f
 0001:0005101c       ?TrimLeft@CString@@QAEXPBG@Z 5f85201c f
 0001:00051083       ?TrimLeft@CString@@QAEXG@Z 5f852083 f
 0001:000510c7       ?TrimLeft@CString@@QAEXXZ  5f8520c7 f
 0001:00051116       ?ConstructElements@@YGXPAVCString@@H@Z 5f852116 f
 0001:00051145       ?DestructElements@@YGXPAVCString@@H@Z 5f852145 f
 0001:00051169       ?CopyElements@@YGXPAVCString@@PBV1@H@Z 5f852169 f
 0001:00051195       ?HashKey@@YGIPBG@Z         5f852195 f
 0001:000511b2       ?HashKey@@YGIPBD@Z         5f8521b2 f
 0001:000511cc       ??0CTime@@QAE@GGH@Z        5f8521cc f
 0001:00051246       ?GetTickCount@CTime@@SG?AV1@XZ 5f852246 f
 0001:0005125a       ?GetGmtTm@CTime@@QBEPAUtm@@PAU2@@Z 5f85225a f
 0001:00051288       ?GetLocalTm@CTime@@QBEPAUtm@@PAU2@@Z 5f852288 f
 0001:000512b9       ?GetAsSystemTime@CTime@@QBEHAAU_SYSTEMTIME@@@Z 5f8522b9 f
 0001:00051310       ??5@YGAAVCArchive@@AAV0@AAVCTime@@@Z 5f852310 f
 0001:00051320       ??6@YGAAVCArchive@@AAV0@VCTimeSpan@@@Z 5f852320 f
 0001:00051330       ?Format@CTimeSpan@@QBE?AVCString@@PBG@Z 5f852330 f
 0001:00051467       ?Format@CTimeSpan@@QBE?AVCString@@I@Z 5f852467 f
 0001:000514c3       ?Format@CTime@@QBE?AVCString@@PBG@Z 5f8524c3 f
 0001:00051517       ?FormatGmt@CTime@@QBE?AVCString@@PBG@Z 5f852517 f
 0001:0005156b       ?Format@CTime@@QBE?AVCString@@I@Z 5f85256b f
 0001:000515c7       ?FormatGmt@CTime@@QBE?AVCString@@I@Z 5f8525c7 f
 0001:00051623       ?Format@CTime@@QBE?AVCString@@PBD@Z 5f852623 f
 0001:00051676       ?FormatGmt@CTime@@QBE?AVCString@@PBD@Z 5f852676 f
 0001:000516c9       ?Format@CTimeSpan@@QBE?AVCString@@PBD@Z 5f8526c9 f
 0001:0005171c       ??0CTime@@QAE@ABV0@@Z      5f85271c f
 0001:00051729       ?LoadBitmaps@CBitmapButton@@QAEHPBG000@Z 5f852729 f
 0001:000517f9       ?SizeToContent@CBitmapButton@@QAEXXZ 5f8527f9 f
 0001:00051829       ?AutoLoad@CBitmapButton@@QAEHIPAVCWnd@@@Z 5f852829 f
 0001:00051938       ?DrawItem@CBitmapButton@@MAEXPAUtagDRAWITEMSTRUCT@@@Z 5f852938 f
 0001:00051b2b       ?OnHelpInfo@CCommonDialog@@IAEHPAUtagHELPINFO@@@Z 5f852b2b f
 0001:00051b33       ??0CFileDialog@@QAE@HPBG0K0PAVCWnd@@@Z 5f852b33 f
 0001:00051c8b       ??_ECFileDialog@@UAEPAXI@Z 5f852c8b f
 0001:00051c8b       ??_GCFileDialog@@UAEPAXI@Z 5f852c8b f
 0001:00051ca7       ?DoModal@CFileDialog@@UAEHXZ 5f852ca7 f
 0001:00051d92       ?GetPathName@CFileDialog@@QBE?AVCString@@XZ 5f852d92 f
 0001:00051ea0       ?GetFileName@CFileDialog@@QBE?AVCString@@XZ 5f852ea0 f
 0001:00051f5b       ?GetFileExt@CFileDialog@@QBE?AVCString@@XZ 5f852f5b f
 0001:0005206b       ?GetFileTitle@CFileDialog@@QBE?AVCString@@XZ 5f85306b f
 0001:000520d7       ?GetNextPathName@CFileDialog@@QBE?AVCString@@AAPAU__POSITION@@@Z 5f8530d7 f
 0001:000522ba       ?SetTemplate@CFileDialog@@QAEXPBG0@Z 5f8532ba f
 0001:000522e0       ?GetFolderPath@CFileDialog@@QBE?AVCString@@XZ 5f8532e0 f
 0001:00052379       ?SetControlText@CFileDialog@@QAEXHPBD@Z 5f853379 f
 0001:000523a1       ?HideControl@CFileDialog@@QAEXH@Z 5f8533a1 f
 0001:000523c7       ?SetDefExt@CFileDialog@@QAEXPBD@Z 5f8533c7 f
 0001:000523ed       ?OnShareViolation@CFileDialog@@MAEIPBG@Z 5f8533ed f
 0001:000523f2       ?OnLBSelChangedNotify@CFileDialog@@MAEXIII@Z 5f8533f2 f
 0001:000523f5       ?OnInitDone@CFileDialog@@MAEXXZ 5f8533f5 f
 0001:0005240e       ?OnFileNameChange@CFileDialog@@MAEXXZ 5f85340e f
 0001:0005240f       ?OnNotify@CFileDialog@@MAEHIJPAJ@Z 5f85340f f
 0001:000524e9       ??0CPageSetupDialog@@QAE@KPAVCWnd@@@Z 5f8534e9 f
 0001:0005256c       ?DoModal@CPageSetupDialog@@UAEHXZ 5f85356c f
 0001:00052598       ?GetDevMode@CPageSetupDialog@@QBEPAU_devicemodeW@@XZ 5f853598 f
 0001:000525a8       ?GetDriverName@CPageSetupDialog@@QBE?AVCString@@XZ 5f8535a8 f
 0001:000525e4       ?GetDeviceName@CPageSetupDialog@@QBE?AVCString@@XZ 5f8535e4 f
 0001:00052621       ?GetPortName@CPageSetupDialog@@QBE?AVCString@@XZ 5f853621 f
 0001:0005265e       ?CreatePrinterDC@CPageSetupDialog@@QAEPAUHDC__@@XZ 5f85365e f
 0001:0005266a       ?GetMargins@CPageSetupDialog@@QBEXPAUtagRECT@@0@Z 5f85366a f
 0001:000526a6       ?PreDrawPage@CPageSetupDialog@@UAEIGGPAUtagPSDW@@@Z 5f8536a6 f
 0001:000526ab       ?PaintHookProc@CPageSetupDialog@@KGIPAUHWND__@@IIJ@Z 5f8536ab f
 0001:00052741       ??0CPrintDialog@@IAE@AAUtagPDW@@@Z 5f853741 f
 0001:00052760       ?AttachOnSetup@CPrintDialog@@MAEPAV1@XZ 5f853760 f
 0001:000527b0       ?OnPrintSetup@CPrintDialog@@IAEXXZ 5f8537b0 f
 0001:000527e0       ?CreatePrinterDC@CPrintDialog@@QAEPAUHDC__@@XZ 5f8537e0 f
 0001:000527ff       ?GetCopies@CPrintDialog@@QBEHXZ 5f8537ff f
 0001:00052817       ?GetDevMode@CPrintDialog@@QBEPAU_devicemodeW@@XZ 5f853817 f
 0001:00052871       ??0_AFX_COLOR_STATE@@QAE@XZ 5f853871 f
 0001:0005288b       ??_E_AFX_COLOR_STATE@@UAEPAXI@Z 5f85388b f
 0001:0005288b       ??_G_AFX_COLOR_STATE@@UAEPAXI@Z 5f85388b f
 0001:000528a6       ??1_AFX_COLOR_STATE@@UAE@XZ 5f8538a6 f
 0001:000528a7       ?GetMessageMap@CColorDialog@@MBEPBUAFX_MSGMAP@@XZ 5f8538a7 f
 0001:000528ad       ??0CColorDialog@@QAE@KKPAVCWnd@@@Z 5f8538ad f
 0001:0005293d       ?DoModal@CColorDialog@@UAEHXZ 5f85393d f
 0001:00052969       ?OnColorOK@CColorDialog@@MAEHXZ 5f853969 f
 0001:0005296c       ?SetCurrentColor@CColorDialog@@QAEXK@Z 5f85396c f
 0001:00052984       ?GetSavedCustomColors@CColorDialog@@SGPAKXZ 5f853984 f
 0001:00052997       ?OnCtlColor@CColorDialog@@IAEPAUHBRUSH__@@PAVCDC@@PAVCWnd@@I@Z 5f853997 f
 0001:0005299f       ??0CFontDialog@@QAE@PAUtagLOGFONTW@@KPAVCDC@@PAVCWnd@@@Z 5f85399f f
 0001:00052a81       ??0CFontDialog@@QAE@ABU_charformat@@KPAVCDC@@PAVCWnd@@@Z 5f853a81 f
 0001:00052b5b       ?DoModal@CFontDialog@@UAEHXZ 5f853b5b f
 0001:00052ba3       ?GetCurrentFont@CFontDialog@@QAEXPAUtagLOGFONTW@@@Z 5f853ba3 f
 0001:00052bd4       ?FillInLogFont@CFontDialog@@QAEKABU_charformat@@@Z 5f853bd4 f
 0001:00052da5       ?GetCharFormat@CFontDialog@@QBEXAAU_charformat@@@Z 5f853da5 f
 0001:00052ec9       ??0CFindReplaceDialog@@QAE@XZ 5f853ec9 f
 0001:00052f4e       ??1CFindReplaceDialog@@UAE@XZ 5f853f4e f
 0001:00052f53       ?PostNcDestroy@CFindReplaceDialog@@MAEXXZ 5f853f53 f
 0001:00052f5f       ?Create@CFindReplaceDialog@@QAEHHPBG0KPAVCWnd@@@Z 5f853f5f f
 0001:00053013       ?GetNotifier@CFindReplaceDialog@@SGPAV1@J@Z 5f854013 f
 0001:0005301d       ??0CArchiveStream@@QAE@PAVCArchive@@@Z 5f85401d f
 0001:0005302f       ?AddRef@CArchiveStream@@UAGKXZ 5f85402f f
 0001:00053035       ?Release@CArchiveStream@@UAGKXZ 5f854035 f
 0001:0005303a       ?QueryInterface@CArchiveStream@@UAGJABU_GUID@@PAPAX@Z 5f85403a f
 0001:0005307e       ?Read@CArchiveStream@@UAGJPAXKPAK@Z 5f85407e f
 0001:000530d6       ?Write@CArchiveStream@@UAGJPBXKPAK@Z 5f8540d6 f
 0001:0005312f       ?Seek@CArchiveStream@@UAGJT_LARGE_INTEGER@@KPAT_ULARGE_INTEGER@@@Z 5f85412f f
 0001:000531af       ?SetSize@CArchiveStream@@UAGJT_ULARGE_INTEGER@@@Z 5f8541af f
 0001:000531b7       ?Revert@CArchiveStream@@UAGJXZ 5f8541b7 f
 0001:000531bf       ?LockRegion@CArchiveStream@@UAGJT_ULARGE_INTEGER@@0K@Z 5f8541bf f
 0001:000531c7       ?Clone@CArchiveStream@@UAGJPAPAUIStream@@@Z 5f8541c7 f
 0001:000531cf       ?GetMessageMap@CToolTipCtrl@@MBEPBUAFX_MSGMAP@@XZ 5f8541cf f
 0001:000531d5       ??0CToolTipCtrl@@QAE@XZ    5f8541d5 f
 0001:0005320e       ?Create@CToolTipCtrl@@QAEHPAVCWnd@@K@Z 5f85420e f
 0001:00053263       ??1CToolTipCtrl@@UAE@XZ    5f854263 f
 0001:000532aa       ?DestroyToolTipCtrl@CToolTipCtrl@@QAEHXZ 5f8542aa f
 0001:000532d8       ?OnAddTool@CToolTipCtrl@@IAEJIJ@Z 5f8542d8 f
 0001:0005334c       ?OnDisableModal@CToolTipCtrl@@IAEJIJ@Z 5f85434c f
 0001:00053363       ?OnEnable@CToolTipCtrl@@IAEXH@Z 5f854363 f
 0001:0005337a       ?OnWindowFromPoint@CToolTipCtrl@@IAEJIJ@Z 5f85437a f
 0001:000533f2       ?AddTool@CToolTipCtrl@@QAEHPAVCWnd@@PBGPBUtagRECT@@I@Z 5f8543f2 f
 0001:00053440       ?AddTool@CToolTipCtrl@@QAEHPAVCWnd@@IPBUtagRECT@@I@Z 5f854440 f
 0001:000534a4       ?DelTool@CToolTipCtrl@@QAEXPAVCWnd@@I@Z 5f8544a4 f
 0001:000534d5       ?GetText@CToolTipCtrl@@QBEXAAVCString@@PAVCWnd@@I@Z 5f8544d5 f
 0001:00053520       ?GetToolInfo@CToolTipCtrl@@QBEHAAVCToolInfo@@PAVCWnd@@I@Z 5f854520 f
 0001:00053552       ?HitTest@CToolTipCtrl@@QBEHPAVCWnd@@VCPoint@@PAUtagTOOLINFOW@@@Z 5f854552 f
 0001:000535c5       ?SetToolRect@CToolTipCtrl@@QAEXPAVCWnd@@IPBUtagRECT@@@Z 5f8545c5 f
 0001:00053607       ?UpdateTipText@CToolTipCtrl@@QAEXPBGPAVCWnd@@I@Z 5f854607 f
 0001:0005363e       ?UpdateTipText@CToolTipCtrl@@QAEXIPAVCWnd@@I@Z 5f85463e f
 0001:0005368e       ?FillInToolInfo@CToolTipCtrl@@QBEXAAUtagTOOLINFOW@@PAVCWnd@@I@Z 5f85468e f
 0001:0005373f       ?EnableTrackingToolTips@CWnd@@QAEHH@Z 5f85473f f
 0001:00053750       ?_AfxRelayToolTipMessage@@YGXPAVCToolTipCtrl@@PAUtagMSG@@@Z 5f854750 f
 0001:00053b7a       ??1CDragListBox@@UAE@XZ    5f854b7a f
 0001:00053bb2       ?PreSubclassWindow@CDragListBox@@UAEXXZ 5f854bb2 f
 0001:00053bbc       ?BeginDrag@CDragListBox@@UAEHVCPoint@@@Z 5f854bbc f
 0001:00053be8       ?CancelDrag@CDragListBox@@UAEXVCPoint@@@Z 5f854be8 f
 0001:00053bf5       ?Dragging@CDragListBox@@UAEIVCPoint@@@Z 5f854bf5 f
 0001:00053c3f       ?Dropped@CDragListBox@@UAEXHVCPoint@@@Z 5f854c3f f
 0001:00053d1e       ?DrawInsert@CDragListBox@@UAEXH@Z 5f854d1e f
 0001:00053d43       ?DrawSingle@CDragListBox@@QAEXH@Z 5f854d43 f
 0001:00053e3a       ?OnChildNotify@CDragListBox@@MAEHIIJPAJ@Z 5f854e3a f
 0001:00053ef3       ?GetMessageMap@CToolBarCtrl@@MBEPBUAFX_MSGMAP@@XZ 5f854ef3 f
 0001:00053ef9       ?Create@CToolBarCtrl@@QAEHKABUtagRECT@@PAVCWnd@@I@Z 5f854ef9 f
 0001:00053f2a       ??1CToolBarCtrl@@UAE@XZ    5f854f2a f
 0001:00053f62       ?AddBitmap@CToolBarCtrl@@QAEHHPAVCBitmap@@@Z 5f854f62 f
 0001:00053f96       ?AddBitmap@CToolBarCtrl@@QAEHHI@Z 5f854f96 f
 0001:00053fcb       ?SaveState@CToolBarCtrl@@QAEXPAUHKEY__@@PBG1@Z 5f854fcb f
 0001:00053ffb       ?RestoreState@CToolBarCtrl@@QAEXPAUHKEY__@@PBG1@Z 5f854ffb f
 0001:0005402b       ?AddString@CToolBarCtrl@@QAEHI@Z 5f85502b f
 0001:00054058       ?OnCreate@CToolBarCtrl@@IAEHPAUtagCREATESTRUCTW@@@Z 5f855058 f
 0001:00054081       ?GetDropTarget@CToolBarCtrl@@QBEJPAPAUIDropTarget@@@Z 5f855081 f
 0001:0005409b       ?Create@CStatusBarCtrl@@QAEHKABUtagRECT@@PAVCWnd@@I@Z 5f85509b f
 0001:000540cc       ??1CStatusBarCtrl@@UAE@XZ  5f8550cc f
 0001:00054104       ?GetText@CStatusBarCtrl@@QBEHPBGHPAH@Z 5f855104 f
 0001:0005412f       ?GetText@CStatusBarCtrl@@QBE?AVCString@@HPAH@Z 5f85512f f
 0001:000541ce       ?GetTextLength@CStatusBarCtrl@@QBEHHPAH@Z 5f8551ce f
 0001:000541f7       ?GetTipText@CStatusBarCtrl@@QBE?AVCString@@H@Z 5f8551f7 f
 0001:00054239       ?GetBorders@CStatusBarCtrl@@QBEHAAH00@Z 5f855239 f
 0001:00054273       ?GetMessageMap@CListCtrl@@MBEPBUAFX_MSGMAP@@XZ 5f855273 f
 0001:00054279       ?Create@CListCtrl@@QAEHKABUtagRECT@@PAVCWnd@@I@Z 5f855279 f
 0001:000542aa       ??1CListCtrl@@UAE@XZ       5f8552aa f
 0001:000542e2       ?GetItemRect@CListCtrl@@QBEHHPAUtagRECT@@I@Z 5f8552e2 f
 0001:00054302       ?SetItemCountEx@CListCtrl@@QAEHHK@Z 5f855302 f
 0001:0005431b       ?SetIconSpacing@CListCtrl@@QAE?AVCSize@@HH@Z 5f85531b f
 0001:00054352       ?GetSubItemRect@CListCtrl@@QAEHHHHAAVCRect@@@Z 5f855352 f
 0001:00054394       ?InsertColumn@CListCtrl@@QAEHHPBGHHH@Z 5f855394 f
 0001:000543e7       ?InsertItem@CListCtrl@@QAEHIHPBGIIHJ@Z 5f8553e7 f
 0001:00054433       ?HitTest@CListCtrl@@QBEHVCPoint@@PAI@Z 5f855433 f
 0001:00054469       ?SetItem@CListCtrl@@QAEHHHIPBGHIIJ@Z 5f855469 f
 0001:000544b7       ?SetItemState@CListCtrl@@QAEHHII@Z 5f8554b7 f
 0001:000544e2       ?SetItemText@CListCtrl@@QAEHHHPBG@Z 5f8554e2 f
 0001:0005450d       ?GetItemText@CListCtrl@@QBE?AVCString@@HH@Z 5f85550d f
 0001:000545b2       ?GetItemText@CListCtrl@@QBEHHHPAGH@Z 5f8555b2 f
 0001:000545f7       ?GetItemData@CListCtrl@@QBEKH@Z 5f8555f7 f
 0001:00054639       ?DrawItem@CListCtrl@@UAEXPAUtagDRAWITEMSTRUCT@@@Z 5f855639 f
 0001:0005463c       ?OnChildNotify@CListCtrl@@MAEHIIJPAJ@Z 5f85563c f
 0001:0005466a       ?RemoveImageList@CListCtrl@@IAEXH@Z 5f85566a f
 0001:000546a3       ?OnNcDestroy@CListCtrl@@IAEXXZ 5f8556a3 f
 0001:000546c8       ?CreateDragImage@CListCtrl@@QAEPAVCImageList@@HPAUtagPOINT@@@Z 5f8556c8 f
 0001:0005472d       ?_GetBaseMessageMap@CTreeCtrl@@KGPBUAFX_MSGMAP@@XZ 5f85572d f
 0001:00054733       ?GetMessageMap@CTreeCtrl@@MBEPBUAFX_MSGMAP@@XZ 5f855733 f
 0001:00054739       ?Create@CTreeCtrl@@QAEHKABUtagRECT@@PAVCWnd@@I@Z 5f855739 f
 0001:0005476a       ??1CTreeCtrl@@UAE@XZ       5f85576a f
 0001:000547a2       ?GetItemRect@CTreeCtrl@@QBEHPAU_TREEITEM@@PAUtagRECT@@H@Z 5f8557a2 f
 0001:000547c2       ?GetItemText@CTreeCtrl@@QBE?AVCString@@PAU_TREEITEM@@@Z 5f8557c2 f
 0001:00054862       ?GetItemImage@CTreeCtrl@@QBEHPAU_TREEITEM@@AAH1@Z 5f855862 f
 0001:000548a1       ?GetItemState@CTreeCtrl@@QBEIPAU_TREEITEM@@I@Z 5f8558a1 f
 0001:000548d9       ?GetItemData@CTreeCtrl@@QBEKPAU_TREEITEM@@@Z 5f8558d9 f
 0001:00054907       ?ItemHasChildren@CTreeCtrl@@QBEHPAU_TREEITEM@@@Z 5f855907 f
 0001:00054935       ?SetItem@CTreeCtrl@@QAEHPAU_TREEITEM@@IPBGHHIIJ@Z 5f855935 f
 0001:00054983       ?InsertItem@CTreeCtrl@@QAEPAU_TREEITEM@@IPBGHHIIJPAU2@1@Z 5f855983 f
 0001:000549d7       ?HitTest@CTreeCtrl@@QBEPAU_TREEITEM@@VCPoint@@PAI@Z 5f8559d7 f
 0001:00054a0d       ?RemoveImageList@CTreeCtrl@@IAEXH@Z 5f855a0d f
 0001:00054a46       ?OnDestroy@CTreeCtrl@@QAEXXZ 5f855a46 f
 0001:00054a62       ?CreateDragImage@CTreeCtrl@@QAEPAVCImageList@@PAU_TREEITEM@@@Z 5f855a62 f
 0001:00054ac5       ?GetCheck@CTreeCtrl@@QBEHPAU_TREEITEM@@@Z 5f855ac5 f
 0001:00054afe       ?SetCheck@CTreeCtrl@@QAEHPAU_TREEITEM@@H@Z 5f855afe f
 0001:00054b3f       ?Create@CSpinButtonCtrl@@QAEHKABUtagRECT@@PAVCWnd@@I@Z 5f855b3f f
 0001:00054b6d       ??1CSpinButtonCtrl@@UAE@XZ 5f855b6d f
 0001:00054ba5       ?GetRange@CSpinButtonCtrl@@QBEXAAH0@Z 5f855ba5 f
 0001:00054bd1       ?Create@CSliderCtrl@@QAEHKABUtagRECT@@PAVCWnd@@I@Z 5f855bd1 f
 0001:00054c02       ??1CSliderCtrl@@UAE@XZ     5f855c02 f
 0001:00054c3a       ?GetRange@CSliderCtrl@@QBEXAAH0@Z 5f855c3a f
 0001:00054c71       ?SetRange@CSliderCtrl@@QAEXHHH@Z 5f855c71 f
 0001:00054ca4       ?GetSelection@CSliderCtrl@@QBEXAAH0@Z 5f855ca4 f
 0001:00054cdb       ?SetSelection@CSliderCtrl@@QAEXHH@Z 5f855cdb f
 0001:00054d0a       ?Create@CProgressCtrl@@QAEHKABUtagRECT@@PAVCWnd@@I@Z 5f855d0a f
 0001:00054d3b       ??1CProgressCtrl@@UAE@XZ   5f855d3b f
 0001:00054d73       ?Create@CHeaderCtrl@@QAEHKABUtagRECT@@PAVCWnd@@I@Z 5f855d73 f
 0001:00054da4       ??1CHeaderCtrl@@UAE@XZ     5f855da4 f
 0001:00054ddc       ?Create@CHotKeyCtrl@@QAEHKABUtagRECT@@PAVCWnd@@I@Z 5f855ddc f
 0001:00054e0d       ??1CHotKeyCtrl@@UAE@XZ     5f855e0d f
 0001:00054e45       ?GetHotKey@CHotKeyCtrl@@QBEXAAG0@Z 5f855e45 f
 0001:00054e74       ?GetMessageMap@CTabCtrl@@MBEPBUAFX_MSGMAP@@XZ 5f855e74 f
 0001:00054e7a       ?Create@CTabCtrl@@QAEHKABUtagRECT@@PAVCWnd@@I@Z 5f855e7a f
 0001:00054eab       ??1CTabCtrl@@UAE@XZ        5f855eab f
 0001:00054ee3       ?OnDestroy@CTabCtrl@@IAEXXZ 5f855ee3 f
 0001:00054f1d       ?GetItemState@CTabCtrl@@QBEKHK@Z 5f855f1d f
 0001:00054f4c       ?SetItemState@CTabCtrl@@QAEHHKK@Z 5f855f4c f
 0001:00054f7e       ?InsertItem@CTabCtrl@@QAEHIHPBGHJ@Z 5f855f7e f
 0001:00054fb5       ?InsertItem@CTabCtrl@@QAEHIHPBGHJKK@Z 5f855fb5 f
 0001:00054ff8       ?Create@CAnimateCtrl@@QAEHKABUtagRECT@@PAVCWnd@@I@Z 5f855ff8 f
 0001:00055029       ??1CAnimateCtrl@@UAE@XZ    5f856029 f
 0001:00055061       ??1CRichEditCtrl@@UAE@XZ   5f856061 f
 0001:00055099       ?afxMapHIMAGELIST@@YGPAVCHandleMap@@H@Z 5f856099 f
 0001:0005510b       ??0CImageList@@QAE@XZ      5f85610b f
 0001:00055118       ?Detach@CImageList@@QAEPAU_IMAGELIST@@XZ 5f856118 f
 0001:00055141       ?DeleteImageList@CImageList@@QAEHXZ 5f856141 f
 0001:00055157       ?FromHandle@CImageList@@SGPAV1@PAU_IMAGELIST@@@Z 5f856157 f
 0001:0005516c       ?FromHandlePermanent@CImageList@@SGPAV1@PAU_IMAGELIST@@@Z 5f85616c f
 0001:00055187       ?Create@CImageList@@QAEHHHIHH@Z 5f856187 f
 0001:000551af       ?Create@CImageList@@QAEHIHHK@Z 5f8561af f
 0001:000551e3       ?Create@CImageList@@QAEHAAV1@H0HHH@Z 5f8561e3 f
 0001:00055214       ?Attach@CImageList@@QAEHPAU_IMAGELIST@@@Z 5f856214 f
 0001:00055240       ?Read@CImageList@@QAEHPAVCArchive@@@Z 5f856240 f
 0001:0005526d       ?Write@CImageList@@QAEHPAVCArchive@@@Z 5f85626d f
 0001:00055291       ?AfxGetRichEditState@@YAPAV_AFX_RICHEDIT_STATE@@XZ 5f856291 f
 0001:000552a1       ?Create@CRichEditCtrl@@QAEHKABUtagRECT@@PAVCWnd@@I@Z 5f8562a1 f
 0001:000552d1       ?GetLine@CRichEditCtrl@@QBEHHPAG@Z 5f8562d1 f
 0001:000552ea       ?LineIndex@CRichEditCtrl@@QBEHH@Z 5f8562ea f
 0001:00055301       ?LineLength@CRichEditCtrl@@QBEHH@Z 5f856301 f
 0001:00055318       ?LineScroll@CRichEditCtrl@@QAEXHH@Z 5f856318 f
 0001:00055331       ?CanPaste@CRichEditCtrl@@QBEHI@Z 5f856331 f
 0001:00055370       ?PasteSpecial@CRichEditCtrl@@QAEXIKPAUHMETAFILE__@@@Z 5f856370 f
 0001:0005539a       ?GetLine@CRichEditCtrl@@QBEHHPAGH@Z 5f85639a f
 0001:000553ba       ?GetSelText@CRichEditCtrl@@QBE?AVCString@@XZ 5f8563ba f
 0001:00055420       ?SetWordCharFormat@CRichEditCtrl@@QAEHAAU_charformat@@@Z 5f856420 f
 0001:0005543e       ?GetDefaultCharFormat@CRichEditCtrl@@QBEKAAU_charformat@@@Z 5f85643e f
 0001:0005545c       ?Create@CComboBoxEx@@QAEHKABUtagRECT@@PAVCWnd@@I@Z 5f85645c f
 0001:0005548d       ?DeleteItem@CComboBoxEx@@QAEHH@Z 5f85648d f
 0001:000554a4       ?GetItem@CComboBoxEx@@QAEHPAUtagCOMBOBOXEXITEMW@@@Z 5f8564a4 f
 0001:000554bb       ?InsertItem@CComboBoxEx@@QAEHPBUtagCOMBOBOXEXITEMW@@@Z 5f8564bb f
 0001:000554d2       ?SetItem@CComboBoxEx@@QAEHPBUtagCOMBOBOXEXITEMW@@@Z 5f8564d2 f
 0001:000554e9       ??1CComboBoxEx@@UAE@XZ     5f8564e9 f
 0001:00055521       ?Create@CReBarCtrl@@QAEHKABUtagRECT@@PAVCWnd@@I@Z 5f856521 f
 0001:00055552       ?GetImageList@CReBarCtrl@@QBEPAVCImageList@@XZ 5f856552 f
 0001:0005558c       ?SetImageList@CReBarCtrl@@QAEHPAVCImageList@@@Z 5f85658c f
 0001:000555ca       ?GetColorScheme@CReBarCtrl@@QAEHPAUtagCOLORSCHEME@@@Z 5f8565ca f
 0001:000555e8       ?SetColorScheme@CReBarCtrl@@QAEXPBUtagCOLORSCHEME@@@Z 5f8565e8 f
 0001:00055606       ?SetColumnOrderArray@CListCtrl@@QAEHHPAH@Z 5f856606 f
 0001:0005561f       ?GetColumnOrderArray@CListCtrl@@QAEHPAHH@Z 5f85661f f
 0001:00055666       ?SetBkImage@CListCtrl@@QAEHPAUHBITMAP__@@HHH@Z 5f856666 f
 0001:000556aa       ?SetBkImage@CListCtrl@@QAEHPAGHHH@Z 5f8566aa f
 0001:000556ee       ?GetCheck@CListCtrl@@QBEHH@Z 5f8566ee f
 0001:0005570c       ?SetCheck@CListCtrl@@QAEHHH@Z 5f85670c f
 0001:00055741       ?GetHeaderCtrl@CListCtrl@@QAEPAVCHeaderCtrl@@XZ 5f856741 f
 0001:0005575f       ?SetOrderArray@CHeaderCtrl@@QAEHHPAH@Z 5f85675f f
 0001:00055778       ?GetOrderArray@CHeaderCtrl@@QAEHPAHH@Z 5f856778 f
 0001:000557b7       ?GetRange@CProgressCtrl@@QAEXAAH0@Z 5f8567b7 f
 0001:000557e4       ?DrawIndirect@CImageList@@QAEHPAU_IMAGELISTDRAWPARAMS@@@Z 5f8567e4 f
 0001:000557fe       ?DrawIndirect@CImageList@@QAEHPAVCDC@@HUtagPOINT@@UtagSIZE@@1IKKK@Z 5f8567fe f
 0001:0005585c       ?Create@CImageList@@QAEHPAV1@@Z 5f85685c f
 0001:00055878       ??0CByteArray@@QAE@XZ      5f856878 f
 0001:0005588f       ?SetSize@CByteArray@@QAEXHH@Z 5f85688f f
 0001:00055983       ?Append@CByteArray@@QAEHABV1@@Z 5f856983 f
 0001:000559b8       ?Copy@CByteArray@@QAEXABV1@@Z 5f8569b8 f
 0001:000559e0       ?FreeExtra@CByteArray@@QAEXXZ 5f8569e0 f
 0001:00055a1e       ?SetAtGrow@CByteArray@@QAEXHE@Z 5f856a1e f
 0001:00055a45       ?InsertAt@CByteArray@@QAEXHEH@Z 5f856a45 f
 0001:00055ab7       ?RemoveAt@CByteArray@@QAEXHH@Z 5f856ab7 f
 0001:00055ae8       ?InsertAt@CByteArray@@QAEXHPAV1@@Z 5f856ae8 f
 0001:00055b2a       ?Serialize@CByteArray@@UAEXAAVCArchive@@@Z 5f856b2a f
 0001:00055b77       ?Append@CDWordArray@@QAEHABV1@@Z 5f856b77 f
 0001:00055bb1       ?Copy@CDWordArray@@QAEXABV1@@Z 5f856bb1 f
 0001:00055bdd       ?Serialize@CDWordArray@@UAEXAAVCArchive@@@Z 5f856bdd f
 0001:00055c32       ??0CObArray@@QAE@XZ        5f856c32 f
 0001:00055c49       ??1CObArray@@UAE@XZ        5f856c49 f
 0001:00055c97       ?Serialize@CObArray@@UAEXAAVCArchive@@@Z 5f856c97 f
 0001:00055d07       ??0CStringArray@@QAE@XZ    5f856d07 f
 0001:00055d40       ?SetSize@CStringArray@@QAEXHH@Z 5f856d40 f
 0001:00055e87       ?Append@CStringArray@@QAEHABV1@@Z 5f856e87 f
 0001:00055ee7       ?Copy@CStringArray@@QAEXABV1@@Z 5f856ee7 f
 0001:00055f0f       ?SetAtGrow@CStringArray@@QAEXHPBG@Z 5f856f0f f
 0001:00055f3b       ?SetAtGrow@CStringArray@@QAEXHABVCString@@@Z 5f856f3b f
 0001:00055f67       ?InsertEmpty@CStringArray@@IAEXHH@Z 5f856f67 f
 0001:00055fde       ?InsertAt@CStringArray@@QAEXHPBGH@Z 5f856fde f
 0001:00056045       ?InsertAt@CStringArray@@QAEXHABVCString@@H@Z 5f857045 f
 0001:0005607e       ?RemoveAt@CStringArray@@QAEXHH@Z 5f85707e f
 0001:000560db       ?InsertAt@CStringArray@@QAEXHPAV1@@Z 5f8570db f
 0001:00056174       ?Serialize@CStringArray@@UAEXAAVCArchive@@@Z 5f857174 f
 0001:000561dd       ??0CUIntArray@@QAE@XZ      5f8571dd f
 0001:000561f4       ?FreeExtra@CUIntArray@@QAEXXZ 5f8571f4 f
 0001:00056239       ?InsertAt@CUIntArray@@QAEXHPAV1@@Z 5f857239 f
 0001:00056280       ??0CWordArray@@QAE@XZ      5f857280 f
 0001:00056297       ??1CWordArray@@UAE@XZ      5f857297 f
 0001:000562ce       ?SetSize@CWordArray@@QAEXHH@Z 5f8572ce f
 0001:000563de       ?Append@CWordArray@@QAEHABV1@@Z 5f8573de f
 0001:00056417       ?Copy@CWordArray@@QAEXABV1@@Z 5f857417 f
 0001:00056442       ?FreeExtra@CWordArray@@QAEXXZ 5f857442 f
 0001:00056485       ?SetAtGrow@CWordArray@@QAEXHG@Z 5f857485 f
 0001:000564ae       ?InsertAt@CWordArray@@QAEXHGH@Z 5f8574ae f
 0001:0005653b       ?RemoveAt@CWordArray@@QAEXHH@Z 5f85753b f
 0001:00056572       ?InsertAt@CWordArray@@QAEXHPAV1@@Z 5f857572 f
 0001:000565ba       ?Serialize@CWordArray@@UAEXAAVCArchive@@@Z 5f8575ba f
 0001:0005660d       ?AddHead@CObList@@QAEPAU__POSITION@@PAVCObject@@@Z 5f85760d f
 0001:00056637       ?AddTail@CObList@@QAEXPAV1@@Z 5f857637 f
 0001:0005665b       ?RemoveHead@CObList@@QAEPAVCObject@@XZ 5f85765b f
 0001:0005667f       ?RemoveTail@CObList@@QAEPAVCObject@@XZ 5f85767f f
 0001:000566a3       ?InsertBefore@CObList@@QAEPAU__POSITION@@PAU2@PAVCObject@@@Z 5f8576a3 f
 0001:000566e9       ?Serialize@CObList@@UAEXAAVCArchive@@@Z 5f8576e9 f
 0001:00056745       ?AddHead@CPtrList@@QAEXPAV1@@Z 5f857745 f
 0001:0005676a       ?InsertAfter@CPtrList@@QAEPAU__POSITION@@PAU2@PAX@Z 5f85776a f
 0001:000567a7       ??0CStringList@@QAE@H@Z    5f8577a7 f
 0001:000567ca       ?RemoveAll@CStringList@@QAEXXZ 5f8577ca f
 0001:000567ff       ??1CStringList@@UAE@XZ     5f8577ff f
 0001:00056832       ?NewNode@CStringList@@IAEPAUCNode@1@PAU21@0@Z 5f857832 f
 0001:0005689e       ?FreeNode@CStringList@@IAEXPAUCNode@1@@Z 5f85789e f
 0001:000568c7       ?AddHead@CStringList@@QAEPAU__POSITION@@PBG@Z 5f8578c7 f
 0001:0005690a       ?AddHead@CStringList@@QAEPAU__POSITION@@ABVCString@@@Z 5f85790a f
 0001:0005693f       ?AddTail@CStringList@@QAEPAU__POSITION@@PBG@Z 5f85793f f
 0001:00056982       ?AddTail@CStringList@@QAEPAU__POSITION@@ABVCString@@@Z 5f857982 f
 0001:000569b6       ?AddHead@CStringList@@QAEXPAV1@@Z 5f8579b6 f
 0001:000569dc       ?AddTail@CStringList@@QAEXPAV1@@Z 5f8579dc f
 0001:00056a01       ?RemoveHead@CStringList@@QAE?AVCString@@XZ 5f857a01 f
 0001:00056a75       ?RemoveTail@CStringList@@QAE?AVCString@@XZ 5f857a75 f
 0001:00056ae9       ?InsertBefore@CStringList@@QAEPAU__POSITION@@PAU2@PBG@Z 5f857ae9 f
 0001:00056b2f       ?InsertBefore@CStringList@@QAEPAU__POSITION@@PAU2@ABVCString@@@Z 5f857b2f f
 0001:00056b79       ?InsertAfter@CStringList@@QAEPAU__POSITION@@PAU2@PBG@Z 5f857b79 f
 0001:00056bbf       ?InsertAfter@CStringList@@QAEPAU__POSITION@@PAU2@ABVCString@@@Z 5f857bbf f
 0001:00056c07       ?RemoveAt@CStringList@@QAEXPAU__POSITION@@@Z 5f857c07 f
 0001:00056c3e       ?FindIndex@CStringList@@QBEPAU__POSITION@@H@Z 5f857c3e f
 0001:00056c64       ?Find@CStringList@@QBEPAU__POSITION@@PBGPAU2@@Z 5f857c64 f
 0001:00056c99       ?Serialize@CStringList@@UAEXAAVCArchive@@@Z 5f857c99 f
 0001:00056d25       ?Lookup@CMapPtrToPtr@@QBEHPAXAAPAX@Z 5f857d25 f
 0001:00056d47       ??0CMapPtrToWord@@QAE@H@Z  5f857d47 f
 0001:00056d6e       ??1CMapPtrToWord@@UAE@XZ   5f857d6e f
 0001:00056da1       ?NewAssoc@CMapPtrToWord@@IAEPAUCAssoc@1@XZ 5f857da1 f
 0001:00056def       ?Lookup@CMapPtrToWord@@QBEHPAXAAG@Z 5f857def f
 0001:00056e13       ??ACMapPtrToWord@@QAEAAGPAX@Z 5f857e13 f
 0001:00056e63       ?GetNextAssoc@CMapPtrToWord@@QBEXAAPAU__POSITION@@AAPAXAAG@Z 5f857e63 f
 0001:00056ed7       ??0CMapStringToOb@@QAE@H@Z 5f857ed7 f
 0001:00056efe       ??1CMapStringToOb@@UAE@XZ  5f857efe f
 0001:00056f3d       ?Serialize@CMapStringToOb@@UAEXAAVCArchive@@@Z 5f857f3d f
 0001:00056fff       ?LookupKey@CMapStringToPtr@@QBEHPBGAAPBG@Z 5f857fff f
 0001:00057028       ?GetNextAssoc@CMapStringToPtr@@QBEXAAPAU__POSITION@@AAVCString@@AAPAX@Z 5f858028 f
 0001:00057093       ??0CMapStringToString@@QAE@H@Z 5f858093 f
 0001:000570ca       ?RemoveAll@CMapStringToString@@QAEXXZ 5f8580ca f
 0001:00057124       ??1CMapStringToString@@UAE@XZ 5f858124 f
 0001:00057157       ?NewAssoc@CMapStringToString@@IAEPAUCAssoc@1@XZ 5f858157 f
 0001:000571ca       ?FreeAssoc@CMapStringToString@@IAEXPAUCAssoc@1@@Z 5f8581ca f
 0001:000571fb       ?Lookup@CMapStringToString@@QBEHPBGAAVCString@@@Z 5f8581fb f
 0001:00057221       ??ACMapStringToString@@QAEAAVCString@@PBG@Z 5f858221 f
 0001:00057283       ?RemoveKey@CMapStringToString@@QAEHPBG@Z 5f858283 f
 0001:000572ea       ?GetNextAssoc@CMapStringToString@@QBEXAAPAU__POSITION@@AAVCString@@1@Z 5f8582ea f
 0001:00057359       ?Serialize@CMapStringToString@@UAEXAAVCArchive@@@Z 5f858359 f
 0001:00057436       ??0CMapWordToOb@@QAE@H@Z   5f858436 f
 0001:0005745d       ??1CMapWordToOb@@UAE@XZ    5f85845d f
 0001:00057490       ?NewAssoc@CMapWordToOb@@IAEPAUCAssoc@1@XZ 5f858490 f
 0001:000574de       ??ACMapWordToOb@@QAEAAPAVCObject@@G@Z 5f8584de f
 0001:0005752f       ?RemoveKey@CMapWordToOb@@QAEHG@Z 5f85852f f
 0001:00057574       ?GetNextAssoc@CMapWordToOb@@QBEXAAPAU__POSITION@@AAGAAPAVCObject@@@Z 5f858574 f
 0001:000575e9       ?Serialize@CMapWordToOb@@UAEXAAVCArchive@@@Z 5f8585e9 f
 0001:00057682       ??0CMapWordToPtr@@QAE@H@Z  5f858682 f
 0001:000576a9       ??1CMapWordToPtr@@UAE@XZ   5f8586a9 f
 0001:000576dc       ?GetAssocAt@CMapWordToPtr@@IBEPAUCAssoc@1@GAAI@Z 5f8586dc f
 0001:00057711       ?Lookup@CMapWordToPtr@@QBEHGAAPAX@Z 5f858711 f
 0001:00057733       ?GetRuntimeClass@CObject@@UBEPAUCRuntimeClass@@XZ 5f858733 f
 0001:0005774a       ?IsSerializable@CObject@@QBEHXZ 5f85874a f
 0001:0005775d       ??0AFX_CLASSINIT_COMPAT@@QAE@PAUCRuntimeClass@@@Z 5f85875d f
 0001:00057789       ?Delete@CException@@QAEXXZ 5f858789 f
 0001:0005779b       ?GetErrorMessage@CException@@UAEHPAGIPAI@Z 5f85879b f
 0001:000577bd       ?ReportError@CException@@UAEHII@Z 5f8587bd f
 0001:0005781c       ?AfxThrowLastCleanup@@YGXXZ 5f85881c f
 0001:0005782c       ?AfxNewHandler@@YAHI@Z     5f85882c f
 0001:00057834       ?AfxGetNewHandler@@YGP6AHI@ZXZ 5f858834 f
 0001:00057867       ?IsDirSep@@YAHG@Z          5f858867 f
 0001:0005787e       ??0CFile@@QAE@H@Z          5f85887e f
 0001:000578c2       ??0CFile@@QAE@PBGI@Z       5f8588c2 f
 0001:0005796c       ?Duplicate@CFile@@UBEPAV1@XZ 5f85896c f
 0001:00057a90       ?Write@CFile@@UAEXPBXI@Z   5f858a90 f
 0001:00057b01       ?Flush@CFile@@UAEXXZ       5f858b01 f
 0001:00057b35       ?Abort@CFile@@UAEXXZ       5f858b35 f
 0001:00057b55       ?LockRange@CFile@@UAEXKK@Z 5f858b55 f
 0001:00057b7e       ?UnlockRange@CFile@@UAEXKK@Z 5f858b7e f
 0001:00057ba7       ?SetLength@CFile@@UAEXK@Z  5f858ba7 f
 0001:00057bd3       ?Rename@CFile@@SGXPBG0@Z   5f858bd3 f
 0001:00057bf5       ?Remove@CFile@@SGXPBG@Z    5f858bf5 f
 0001:00057c13       ?CreateInstance@AFX_COM@@QAEJABU_GUID@@PAUIUnknown@@0PAPAX@Z 5f858c13 f
 0001:00057c55       ?GetClassObject@AFX_COM@@QAEJABU_GUID@@0PAPAX@Z 5f858c55 f
 0001:00057cf2       ?AfxStringFromCLSID@@YG?AVCString@@ABU_GUID@@@Z 5f858cf2 f
 0001:00057d61       ?AfxGetInProcServer@@YGHPBGAAVCString@@@Z 5f858d61 f
 0001:0005801f       ??0CStdioFile@@QAE@XZ      5f85901f f
 0001:00058035       ??0CStdioFile@@QAE@PAU_iobuf@@@Z 5f859035 f
 0001:0005805f       ??0CStdioFile@@QAE@PBGI@Z  5f85905f f
 0001:000580fc       ?Open@CStdioFile@@UAEHPBGIPAVCFileException@@@Z 5f8590fc f
 0001:000581ee       ?Read@CStdioFile@@UAEIPAXI@Z 5f8591ee f
 0001:0005825e       ?Write@CStdioFile@@UAEXPBXI@Z 5f85925e f
 0001:00058293       ?WriteString@CStdioFile@@UAEXPBG@Z 5f859293 f
 0001:000582c2       ?ReadString@CStdioFile@@UAEPAGPAGI@Z 5f8592c2 f
 0001:0005830a       ?ReadString@CStdioFile@@UAEHAAVCString@@@Z 5f85930a f
 0001:000583d6       ?Seek@CStdioFile@@UAEJJI@Z 5f8593d6 f
 0001:00058411       ?GetPosition@CStdioFile@@UBEKXZ 5f859411 f
 0001:0005843d       ?Flush@CStdioFile@@UAEXXZ  5f85943d f
 0001:00058467       ?Close@CStdioFile@@UAEXXZ  5f859467 f
 0001:0005849f       ?Abort@CStdioFile@@UAEXXZ  5f85949f f
 0001:000584c5       ?Duplicate@CStdioFile@@UBEPAVCFile@@XZ 5f8594c5 f
 0001:000584cd       ?UnlockRange@CStdioFile@@UAEXKK@Z 5f8594cd f
 0001:000584d5       ?ThrowOsError@CFileException@@SGXJPBG@Z 5f8594d5 f
 0001:000584f6       ?ThrowErrno@CFileException@@SGXHPBG@Z 5f8594f6 f
 0001:0005851b       ?GetErrorMessage@CFileException@@UAEHPAGIPAI@Z 5f85951b f
 0001:000585bb       ?AfxThrowFileException@@YGXHJPBG@Z 5f8595bb f
 0001:0005862a       ?ErrnoToException@CFileException@@SGHH@Z 5f85962a f
 0001:00058682       ?OsErrorToException@CFileException@@SGHJ@Z 5f859682 f
 0001:000588fd       ?GetFileName@CFile@@UBE?AVCString@@XZ 5f8598fd f
 0001:0005898e       ?GetFileTitle@CFile@@UBE?AVCString@@XZ 5f85998e f
 0001:00058a41       ?GetStatus@CFile@@SGHPBGAAUCFileStatus@@@Z 5f859a41 f
 0001:00058af5       ?AfxTimeToFileTime@@YAXABVCTime@@PAU_FILETIME@@@Z 5f859af5 f
 0001:00058ba8       ?SetStatus@CFile@@SGXPBGABUCFileStatus@@@Z 5f859ba8 f
 0001:00058cd5       ?GetStatus@CMemFile@@QBEHAAUCFileStatus@@@Z 5f859cd5 f
 0001:00058d51       ?AllocCopy@CString@@IBEXAAV1@HHH@Z 5f859d51 f
 0001:00058dca       ??H@YG?AVCString@@ABV0@PBG@Z 5f859dca f
 0001:00058e3e       ??H@YG?AVCString@@PBGABV0@@Z 5f859e3e f
 0001:00058eb9       ??YCString@@QAEABV0@G@Z    5f859eb9 f
 0001:00058ed5       ?FreeExtra@CString@@QAEXXZ 5f859ed5 f
 0001:00058f0b       ?LockBuffer@CString@@QAEPAGXZ 5f859f0b f
 0001:00058f1d       ?UnlockBuffer@CString@@QAEXXZ 5f859f1d f
 0001:00058f53       ?FindOneOf@CString@@QBEHPBG@Z 5f859f53 f
 0001:00058f76       ?MakeUpper@CString@@QAEXXZ 5f859f76 f
 0001:00058f89       ?MakeLower@CString@@QAEXXZ 5f859f89 f
 0001:00058f9c       ?MakeReverse@CString@@QAEXXZ 5f859f9c f
 0001:00058faf       ?SetAt@CString@@QAEXHG@Z   5f859faf f
 0001:00058fca       ?_wcstombsz@@YAHPADPBGI@Z  5f859fca f
 0001:000591c8       ?_AfxGrayBackgroundWndProc@@YGJPAUHWND__@@IIJ@Z 5f85a1c8 f
 0001:000592c5       ?CreateEx@CWnd@@QAEHKPBG0KABUtagRECT@@PAV1@IPAX@Z 5f85a2c5 f
 0001:00059457       ?OnToolHitTest@CWnd@@UBEHVCPoint@@PAUtagTOOLINFOW@@@Z 5f85a457 f
 0001:000594d9       ?GetDlgItemTextW@CWnd@@QBEHHAAVCString@@@Z 5f85a4d9 f
 0001:00059549       ?SetWindowPlacement@CWnd@@QAEHPBUtagWINDOWPLACEMENT@@@Z 5f85a549 f
 0001:00059585       ?OnCompareItem@CWnd@@IAEHHPAUtagCOMPAREITEMSTRUCT@@@Z 5f85a585 f
 0001:000595af       ?OnVKeyToItem@CWnd@@IAEHIPAVCListBox@@I@Z 5f85a5af f
 0001:000595da       ?TrackPopupMenu@CMenu@@QAEHIHHPAVCWnd@@PBUtagRECT@@@Z 5f85a5da f
 0001:0005962e       ?_AfxFindPopupMenuFromID@@YGPAVCMenu@@PAV1@I@Z 5f85a62e f
 0001:00059765       ?WinHelpW@CWnd@@UAEXKI@Z   5f85a765 f
 0001:000599d5       ?GetTopLevelOwner@CWnd@@QBEPAV1@XZ 5f85a9d5 f
 0001:00059a05       ?GetParentOwner@CWnd@@QBEPAV1@XZ 5f85aa05 f
 0001:00059a49       ?ActivateTopParent@CWnd@@QAEXXZ 5f85aa49 f
 0001:00059a8a       ?GetSafeOwner@CWnd@@SGPAV1@PAV1@PAPAUHWND__@@@Z 5f85aa8a f
 0001:00059aa8       ?MessageBoxW@CWnd@@QAEHPBG0I@Z 5f85aaa8 f
 0001:00059ae4       ?SetScrollRange@CWnd@@QAEXHHHH@Z 5f85aae4 f
 0001:00059b17       ?GetScrollRange@CWnd@@QBEXHPAH0@Z 5f85ab17 f
 0001:00059b61       ?GetScrollInfo@CWnd@@QAEHHPAUtagSCROLLINFO@@I@Z 5f85ab61 f
 0001:00059bae       ?GetScrollLimit@CWnd@@QAEHH@Z 5f85abae f
 0001:00059cc7       ?HandleFloatingSysCommand@CWnd@@QAEHIJ@Z 5f85acc7 f
 0001:00059e2b       ?OnSysColorChange@CWnd@@IAEXXZ 5f85ae2b f
 0001:00059ea8       ?OnSettingChange@CWnd@@IAEXIPBG@Z 5f85aea8 f
 0001:00059efb       ?OnWinIniChange@CWnd@@IAEXPBG@Z 5f85aefb f
 0001:00059f47       ?OnDevModeChange@CWnd@@IAEXPAG@Z 5f85af47 f
 0001:00059f92       ?OnHelpInfo@CWnd@@IAEHPAUtagHELPINFO@@@Z 5f85af92 f
 0001:00059ff6       ?OnDisplayChange@CWnd@@IAEJIJ@Z 5f85aff6 f
 0001:0005a03f       ?OnDragList@CWnd@@IAEJIJ@Z 5f85b03f f
 0001:0005a069       ?OnHScroll@CWnd@@IAEXIIPAVCScrollBar@@@Z 5f85b069 f
 0001:0005a11f       ?OnQuery3dControls@CWnd@@IAEJIJ@Z 5f85b11f f
 0001:0005a4a4       ?SubclassCtl3d@CWnd@@QAEHH@Z 5f85b4a4 f
 0001:0005a4ee       ?SubclassDlg3d@CWnd@@QAEHK@Z 5f85b4ee f
 0001:0005a568       ?UnsubclassWindow@CWnd@@QAEPAUHWND__@@XZ 5f85b568 f
 0001:0005a590       ??3CTempWnd@@SAXPAX@Z      5f85b590 f
 0001:0005a5ef       ?DeleteTempMap@CWnd@@SGXXZ 5f85b5ef f
 0001:0005a5fc       ?DeleteTempMap@CImageList@@SGXXZ 5f85b5fc f
 0001:0005a609       ?DeleteTempMap@CDC@@SGXXZ  5f85b609 f
 0001:0005a616       ?DeleteTempMap@CGdiObject@@SGXXZ 5f85b616 f
 0001:0005a623       ?DeleteTempMap@CMenu@@SGXXZ 5f85b623 f
 0001:0005a71a       ?CreateIndirect@CDialog@@QAEHPAXPAVCWnd@@@Z 5f85b71a f
 0001:0005a72c       ?CreateIndirect@CDialog@@QAEHPBUDLGTEMPLATE@@PAVCWnd@@PAX@Z 5f85b72c f
 0001:0005a742       ?CreateDlg@CWnd@@IAEHPBGPAV1@@Z 5f85b742 f
 0001:0005a78b       ?CreateDlgIndirect@CWnd@@IAEHPBUDLGTEMPLATE@@PAV1@@Z 5f85b78b f
 0001:0005a8e0       ?SetOccDialogInfo@CDialog@@MAEHPAU_AFX_OCC_DIALOG_INFO@@@Z 5f85b8e0 f
 0001:0005a8ed       ??0CDialog@@QAE@PBGPAVCWnd@@@Z 5f85b8ed f
 0001:0005a92f       ?InitModalIndirect@CDialog@@QAEHPAXPAVCWnd@@@Z 5f85b92f f
 0001:0005a949       ?InitModalIndirect@CDialog@@QAEHPBUDLGTEMPLATE@@PAVCWnd@@PAX@Z 5f85b949 f
 0001:0005aa6c       ?AfxHelpEnabled@@YGHXZ     5f85ba6c f
 0001:0005aaf3       ?OnCancel@CDialog@@MAEXXZ  5f85baf3 f
 0001:0005ab1c       ?OnCommandHelp@CDialog@@IAEJIJ@Z 5f85bb1c f
 0001:0005ab5a       ?OnHelpHitTest@CDialog@@IAEJIJ@Z 5f85bb5a f
 0001:0005ab6d       ?_AfxConvertDialogUnitsToPixels@@YGXPBGGHHPAUtagSIZE@@@Z 5f85bb6d f
 0001:0005ac7d       ?IsDialogEx@@YAHPBUDLGTEMPLATE@@@Z 5f85bc7d f
 0001:0005ac8d       ?HasFont@@YAHPBUDLGTEMPLATE@@@Z 5f85bc8d f
 0001:0005aca4       ?FontAttrSize@@YAHH@Z      5f85bca4 f
 0001:0005acb3       ??0CDialogTemplate@@QAE@PBUDLGTEMPLATE@@@Z 5f85bcb3 f
 0001:0005ace2       ??0CDialogTemplate@@QAE@PAX@Z 5f85bce2 f
 0001:0005ad23       ?SetTemplate@CDialogTemplate@@IAEHPBUDLGTEMPLATE@@I@Z 5f85bd23 f
 0001:0005ad83       ?Load@CDialogTemplate@@QAEHPBG@Z 5f85bd83 f
 0001:0005addd       ?Detach@CDialogTemplate@@QAEPAXXZ 5f85bddd f
 0001:0005ade3       ?HasFont@CDialogTemplate@@QBEHXZ 5f85bde3 f
 0001:0005ae36       ?GetTemplateSize@CDialogTemplate@@KAIPBUDLGTEMPLATE@@@Z 5f85be36 f
 0001:0005aef9       ?GetFont@CDialogTemplate@@QBEHAAVCString@@AAG@Z 5f85bef9 f
 0001:0005af27       ?SetFont@CDialogTemplate@@QAEHPBGG@Z 5f85bf27 f
 0001:0005b048       ?SetSystemFont@CDialogTemplate@@QAEHG@Z 5f85c048 f
 0001:0005b0d9       ?GetSizeInDialogUnits@CDialogTemplate@@QBEXPAUtagSIZE@@@Z 5f85c0d9 f
 0001:0005b119       ?GetSizeInPixels@CDialogTemplate@@QBEXPAUtagSIZE@@@Z 5f85c119 f
 0001:0005b20c       ?FromHandlePermanent@CMenu@@SGPAV1@PAUHMENU__@@@Z 5f85c20c f
 0001:0005b227       ?Attach@CMenu@@QAEHPAUHMENU__@@@Z 5f85c227 f
 0001:0005b253       ?Detach@CMenu@@QAEPAUHMENU__@@XZ 5f85c253 f
 0001:0005b293       ?OnAmbientProperty@CWnd@@UAEHPAVCOleControlSite@@JPAUtagVARIANT@@@Z 5f85c293 f
 0001:0005b2aa       ?GetControlUnknown@CWnd@@QAEPAUIUnknown@@XZ 5f85c2aa f
 0001:0005b2b6       ?CheckDlgButton@CWnd@@QAEXHI@Z 5f85c2b6 f
 0001:0005b2e2       ?CheckRadioButton@CWnd@@QAEXHHH@Z 5f85c2e2 f
 0001:0005b338       ?GetDlgItemInt@CWnd@@QBEIHPAHH@Z 5f85c338 f
 0001:0005b36a       ?GetDlgItemTextW@CWnd@@QBEHHPAGH@Z 5f85c36a f
 0001:0005b39f       ?SendDlgItemMessageW@CWnd@@QAEJHIIJ@Z 5f85c39f f
 0001:0005b3da       ?SetDlgItemInt@CWnd@@QAEXHIH@Z 5f85c3da f
 0001:0005b426       ?IsDlgButtonChecked@CWnd@@QBEIH@Z 5f85c426 f
 0001:0005b44d       ?ScrollWindowEx@CWnd@@QAEHHHPBUtagRECT@@0PAVCRgn@@PAU2@I@Z 5f85c44d f
 0001:0005b520       ?GetWindowTextLengthW@CWnd@@QBEHXZ 5f85c520 f
 0001:0005b545       ?SetDlgCtrlID@CWnd@@QAEHH@Z 5f85c545 f
 0001:0005b56e       ?MoveWindow@CWnd@@QAEXHHHHH@Z 5f85c56e f
 0001:0005b60a       ?InvokeHelper@CWnd@@QAAXJGGPAXPBEZZ 5f85c60a f
 0001:0005b631       ?GetProperty@CWnd@@QBEXJGPAX@Z 5f85c631 f
 0001:0005b653       ?SetProperty@CWnd@@QAAXJGZZ 5f85c653 f
 0001:0005b671       ?GetDSCCursor@CWnd@@QAEPAUIUnknown@@XZ 5f85c671 f
 0001:0005b696       ?BindDefaultProperty@CWnd@@QAEXJGPBGPAV1@@Z 5f85c696 f
 0001:0005b6b4       ?BindProperty@CWnd@@QAEXJPAV1@@Z 5f85c6b4 f
 0001:0005b6d7       ?AttachControlSite@CWnd@@QAEXPAV1@@Z 5f85c6d7 f
 0001:0005b6f3       ?AttachControlSite@COleControlContainer@@QAEXPAVCWnd@@@Z 5f85c6f3 f
 0001:0005b84e       ?GetTypeLib@CCmdTarget@@UAEJKPAPAUITypeLib@@@Z 5f85c84e f
 0001:0005b856       ?RestoreWaitCursor@CCmdTarget@@QAEXXZ 5f85c856 f
 0001:0005b86b       ?GetDispatchMap@CCmdTarget@@MBEPBUAFX_DISPMAP@@XZ 5f85c86b f
 0001:0005b871       ?GetEventSinkMap@CCmdTarget@@MBEPBUAFX_EVENTSINKMAP@@XZ 5f85c871 f
 0001:0005b877       ?OnFinalRelease@CCmdTarget@@UAEXXZ 5f85c877 f
 0001:0005b8a9       ?GetConnectionMap@CCmdTarget@@MBEPBUAFX_CONNECTIONMAP@@XZ 5f85c8a9 f
 0001:0005b8af       ?GetCommandMap@CCmdTarget@@MBEPBUAFX_OLECMDMAP@@XZ 5f85c8af f
 0001:0005b8b5       ?GetRoutingView@CCmdTarget@@IAEPAVCView@@XZ 5f85c8b5 f
 0001:0005b8b5       ?GetRoutingView_@CCmdTarget@@KGPAVCView@@XZ 5f85c8b5 f
 0001:0005b8c1       ?GetRoutingFrame@CCmdTarget@@IAEPAVCFrameWnd@@XZ 5f85c8c1 f
 0001:0005b920       ?SetCheck@CCmdUI@@UAEXH@Z  5f85c920 f
 0001:0005b982       ?SetRadio@CCmdUI@@UAEXH@Z  5f85c982 f
 0001:0005ba7d       ?AfxBeginThread@@YGPAVCWinThread@@PAUCRuntimeClass@@HIKPAU_SECURITY_ATTRIBUTES@@@Z 5f85ca7d f
 0001:0005bb5a       ?ExitInstance@CWinThread@@UAEHXZ 5f85cb5a f
 0001:0005bb89       ?DispatchThreadMessage@CWinThread@@IAEXPAUtagMSG@@@Z 5f85cb89 f
 0001:0005bb95       ?DispatchThreadMessageEx@CWinThread@@IAEHPAUtagMSG@@@Z 5f85cb95 f
 0001:0005bc23       ?ProcessWndProcException@CWinThread@@UAEJPAVCException@@PBUtagMSG@@@Z 5f85cc23 f
 0001:0005bc7a       ?IsHelpKey@@YGHPAUtagMSG@@@Z 5f85cc7a f
 0001:0005bcc5       ?IsEnterKey@@YAHPAUtagMSG@@@Z 5f85ccc5 f
 0001:0005bcdf       ?IsButtonUp@@YAHPAUtagMSG@@@Z 5f85ccdf f
 0001:0005bde9       ?GetMessageMap@CWinApp@@MBEPBUAFX_MSGMAP@@XZ 5f85cde9 f
 0001:0005bdfb       ?WinHelpW@CWinApp@@UAEXKI@Z 5f85cdfb f
 0001:0005be32       ?ProcessWndProcException@CWinApp@@UAEJPAVCException@@PBUtagMSG@@@Z 5f85ce32 f
 0001:0005bea9       ?DevModeChange@CWinApp@@QAEXPAG@Z 5f85cea9 f
 0001:0005c02b       ?Remove@CRecentFileList@@UAEXH@Z 5f85d02b f
 0001:0005c070       ?_GetBaseClass@COleControlModule@@KGPAUCRuntimeClass@@XZ 5f85d070 f
 0001:0005c076       ?GetRuntimeClass@COleControlModule@@UBEPAUCRuntimeClass@@XZ 5f85d076 f
 0001:0005c07c       ?InitInstance@COleControlModule@@UAEHXZ 5f85d07c f
 0001:0005c085       ?ExitInstance@COleControlModule@@UAEHXZ 5f85d085 f
 0001:0005c096       ??6@YGAAVCArchive@@AAV0@ABVCString@@@Z 5f85d096 f
 0001:0005c124       ?_AfxReadStringLength@@YGIAAVCArchive@@@Z 5f85d124 f
 0001:0005c17b       ??5@YGAAVCArchive@@AAV0@AAVCString@@@Z 5f85d17b f
 0001:0005c20b       ?SerializeElements@@YGXAAVCArchive@@PAVCString@@H@Z 5f85d20b f
 0001:0005c259       ?Load@CRuntimeClass@@SGPAU1@AAVCArchive@@PAI@Z 5f85d259 f
 0001:0005c322       ?Store@CRuntimeClass@@QBEXAAVCArchive@@@Z 5f85d322 f
 0001:0005c568       ?WriteCount@CArchive@@QAEXK@Z 5f85d568 f
 0001:0005c596       ?ReadCount@CArchive@@QAEKXZ 5f85d596 f
 0001:0005c5c6       ?WriteString@CArchive@@QAEXPBG@Z 5f85d5c6 f
 0001:0005c5e5       ?ReadString@CArchive@@QAEPAGPAGI@Z 5f85d5e5 f
 0001:0005c6a0       ?ReadString@CArchive@@QAEHAAVCString@@@Z 5f85d6a0 f
 0001:0005c73c       ?CheckCount@CArchive@@QAEXXZ 5f85d73c f
 0001:0005c750       ?WriteObject@CArchive@@QAEXPBVCObject@@@Z 5f85d750 f
 0001:0005c7cf       ?ReadObject@CArchive@@QAEPAVCObject@@PBUCRuntimeClass@@@Z 5f85d7cf f
 0001:0005c87e       ?GetObjectSchema@CArchive@@QAEIXZ 5f85d87e f
 0001:0005c886       ?MapObject@CArchive@@QAEXPBVCObject@@@Z 5f85d886 f
 0001:0005c97e       ?WriteClass@CArchive@@QAEXPBUCRuntimeClass@@@Z 5f85d97e f
 0001:0005ca0f       ?ReadClass@CArchive@@QAEPAUCRuntimeClass@@PBU2@PAIPAK@Z 5f85da0f f
 0001:0005cbea       ?SerializeClass@CArchive@@QAEXPBUCRuntimeClass@@@Z 5f85dbea f
 0001:0005cc0e       ?GetErrorMessage@CArchiveException@@UAEHPAGIPAI@Z 5f85dc0e f
 0001:0005ccae       ?AfxThrowArchiveException@@YGXHPBG@Z 5f85dcae f
 0001:0005cd3b       ?SetOutputDC@CDC@@UAEXPAUHDC__@@@Z 5f85dd3b f
 0001:0005cd45       ?ReleaseOutputDC@CDC@@UAEXXZ 5f85dd45 f
 0001:0005cd4a       ?StartDocW@CDC@@QAEHPBG@Z  5f85dd4a f
 0001:0005cda8       ?SelectStockObject@CDC@@UAEPAVCGdiObject@@H@Z 5f85dda8 f
 0001:0005cdfb       ?SelectObject@CDC@@QAEHPAVCRgn@@@Z 5f85ddfb f
 0001:0005ce58       ?SetPolyFillMode@CDC@@QAEHH@Z 5f85de58 f
 0001:0005ce86       ?SetROP2@CDC@@QAEHH@Z      5f85de86 f
 0001:0005ceb4       ?SetStretchBltMode@CDC@@QAEHH@Z 5f85deb4 f
 0001:0005cf0c       ?OffsetViewportOrg@CDC@@UAE?AVCPoint@@HH@Z 5f85df0c f
 0001:0005cf6a       ?ScaleViewportExt@CDC@@UAE?AVCSize@@HHHH@Z 5f85df6a f
 0001:0005cfc2       ?SetWindowOrg@CDC@@QAE?AVCPoint@@HH@Z 5f85dfc2 f
 0001:0005d00e       ?OffsetWindowOrg@CDC@@QAE?AVCPoint@@HH@Z 5f85e00e f
 0001:0005d06c       ?ScaleWindowExt@CDC@@UAE?AVCSize@@HHHH@Z 5f85e06c f
 0001:0005d0c4       ?GetClipBox@CDC@@UBEHPAUtagRECT@@@Z 5f85e0c4 f
 0001:0005d0d4       ?SelectClipRgn@CDC@@QAEHPAVCRgn@@@Z 5f85e0d4 f
 0001:0005d114       ?ExcludeClipRect@CDC@@QAEHHHHH@Z 5f85e114 f
 0001:0005d190       ?OffsetClipRgn@CDC@@QAEHUtagSIZE@@@Z 5f85e190 f
 0001:0005d1ee       ?SetTextAlign@CDC@@QAEII@Z 5f85e1ee f
 0001:0005d223       ?SetTextJustification@CDC@@QAEHHH@Z 5f85e223 f
 0001:0005d259       ?SetTextCharacterExtra@CDC@@QAEHH@Z 5f85e259 f
 0001:0005d28a       ?SetMapperFlags@CDC@@QAEKK@Z 5f85e28a f
 0001:0005d2b9       ?GetLayout@CDC@@QBEKXZ     5f85e2b9 f
 0001:0005d2ef       ?SetLayout@CDC@@QAEKK@Z    5f85e2ef f
 0001:0005d34f       ?ArcTo@CDC@@QAEHHHHHHHHH@Z 5f85e34f f
 0001:0005d3a7       ?SetArcDirection@CDC@@QAEHH@Z 5f85e3a7 f
 0001:0005d3d5       ?PolyDraw@CDC@@QAEHPBUtagPOINT@@PBEH@Z 5f85e3d5 f
 0001:0005d41e       ?PolylineTo@CDC@@QAEHPBUtagPOINT@@H@Z 5f85e41e f
 0001:0005d464       ?SetColorAdjustment@CDC@@QAEHPBUtagCOLORADJUSTMENT@@@Z 5f85e464 f
 0001:0005d492       ?PolyBezierTo@CDC@@QAEHPBUtagPOINT@@H@Z 5f85e492 f
 0001:0005d4d8       ?SelectClipPath@CDC@@QAEHH@Z 5f85e4d8 f
 0001:0005d536       ?SelectClipRgn@CDC@@QAEHPAVCRgn@@H@Z 5f85e536 f
 0001:0005d57e       ?AfxEnumMetaFileProc@@YGHPAUHDC__@@PAUtagHANDLETABLE@@PAUtagMETARECORD@@HJ@Z 5f85e57e f
 0001:0005d7be       ?PlayMetaFile@CDC@@QAEHPAUHMETAFILE__@@@Z 5f85e7be f
 0001:0005d7f7       ?DPtoLP@CDC@@QBEXPAUtagSIZE@@@Z 5f85e7f7 f
 0001:0005d86a       ??_GCClientDC@@UAEPAXI@Z   5f85e86a f
 0001:0005d86a       ??_ECClientDC@@UAEPAXI@Z   5f85e86a f
 0001:0005d890       ??_GCWindowDC@@UAEPAXI@Z   5f85e890 f
 0001:0005d890       ??_ECWindowDC@@UAEPAXI@Z   5f85e890 f
 0001:0005d8b6       ??_ECPaintDC@@UAEPAXI@Z    5f85e8b6 f
 0001:0005d8b6       ??_GCPaintDC@@UAEPAXI@Z    5f85e8b6 f
 0001:0005d8e0       ??0CPen@@QAE@HHK@Z         5f85e8e0 f
 0001:0005d930       ??0CPen@@QAE@HHPBUtagLOGBRUSH@@HPBK@Z 5f85e930 f
 0001:0005d986       ??0CBrush@@QAE@K@Z         5f85e986 f
 0001:0005d9d0       ??0CBrush@@QAE@HK@Z        5f85e9d0 f
 0001:0005da1d       ??0CBrush@@QAE@PAVCBitmap@@@Z 5f85ea1d f
 0001:0005da6a       ?CreateDIBPatternBrush@CBrush@@QAEHPAXI@Z 5f85ea6a f
 0001:0005da9c       ?AfxThrowResourceException@@YGXXZ 5f85ea9c f
 0001:0005dab5       ?AfxThrowUserException@@YGXXZ 5f85eab5 f
 0001:0005dace       ?AfxCustomLogFont@@YGHIPAUtagLOGFONTW@@@Z 5f85eace f
 0001:0005db71       ?_AfxCompareClassName@@YGHPAUHWND__@@PBG@Z 5f85eb71 f
 0001:0005db9c       ?_AfxChildWindowFromPoint@@YGPAUHWND__@@PAU1@UtagPOINT@@@Z 5f85eb9c f
 0001:0005dc4d       ?AfxCriticalNewHandler@@YAHI@Z 5f85ec4d f
 0001:0005dca2       ?GetMessageMap@CDocument@@MBEPBUAFX_MSGMAP@@XZ 5f85eca2 f
 0001:0005dca8       ??_ECDocument@@UAEPAXI@Z   5f85eca8 f
 0001:0005dca8       ??_GCDocument@@UAEPAXI@Z   5f85eca8 f
 0001:0005dcc4       ?OnFinalRelease@CDocument@@UAEXXZ 5f85ecc4 f
 0001:0005dcf7       ?OnFileClose@CDocument@@IAEXXZ 5f85ecf7 f
 0001:0005dd12       ?OnFileSave@CDocument@@IAEXXZ 5f85ed12 f
 0001:0005dd1a       ?OnFileSaveAs@CDocument@@IAEXXZ 5f85ed1a f
 0001:0005dd27       ?DoFileSave@CDocument@@UAEHXZ 5f85ed27 f
 0001:0005dd62       ?DoSave@CDocument@@UAEHPBGH@Z 5f85ed62 f
 0001:0005dfc7       ?ReportSaveLoadException@CDocument@@UAEXPBGPAVCException@@HI@Z 5f85efc7 f
 0001:0005e12c       ?GetTempName@CMirrorFile@@SA?AVCString@@PBGH@Z 5f85f12c f
 0001:0005e1d3       ?Open@CMirrorFile@@UAEHPBGIPAVCFileException@@@Z 5f85f1d3 f
 0001:0005e385       ?Abort@CMirrorFile@@UAEXXZ 5f85f385 f
 0001:0005e39e       ?Close@CMirrorFile@@UAEXXZ 5f85f39e f
 0001:0005e4af       ?GetFile@CDocument@@UAEPAVCFile@@PBGIPAVCFileException@@@Z 5f85f4af f
 0001:0005e525       ??1CMirrorFile@@UAE@XZ     5f85f525 f
 0001:0005e601       ?OnSaveDocument@CDocument@@UAEHPBG@Z 5f85f601 f
 0001:0005e7c0       ?OnIdle@CDocument@@UAEXXZ  5f85f7c0 f
 0001:0005e7c1       ?UpdateAllViews@CDocument@@QAEXPAVCView@@JPAVCObject@@@Z 5f85f7c1 f
 0001:0005e802       ?SendInitialUpdate@CDocument@@QAEXXZ 5f85f802 f
 0001:0005e841       ??_ECDocTemplate@@UAEPAXI@Z 5f85f841 f
 0001:0005e841       ??_GCDocTemplate@@UAEPAXI@Z 5f85f841 f
 0001:0005e87c       ?CreateOleFrame@CDocTemplate@@QAEPAVCFrameWnd@@PAVCWnd@@PAVCDocument@@H@Z 5f85f87c f
 0001:0005e916       ??_ECSingleDocTemplate@@UAEPAXI@Z 5f85f916 f
 0001:0005e916       ??_GCSingleDocTemplate@@UAEPAXI@Z 5f85f916 f
 0001:0005eb12       ?GetOpenDocumentCount@CDocManager@@UAEHXZ 5f85fb12 f
 0001:0005eb58       ??_GCView@@UAEPAXI@Z       5f85fb58 f
 0001:0005eb58       ??_ECView@@UAEPAXI@Z       5f85fb58 f
 0001:0005ebe5       ?OnPrint@CView@@MAEXPAVCDC@@PAUCPrintInfo@@@Z 5f85fbe5 f
 0001:0005ebf4       ?IsSelected@CView@@UBEHPBVCObject@@@Z 5f85fbf4 f
 0001:0005ebf9       ?OnMouseActivate@CView@@IAEHPAVCWnd@@II@Z 5f85fbf9 f
 0001:0005ec6a       ?OnScrollBy@CView@@UAEHVCSize@@H@Z 5f85fc6a f
 0001:0005ec6f       ?OnDragScroll@CView@@UAEKKVCPoint@@@Z 5f85fc6f f
 0001:0005ec77       ?OnDragOver@CView@@UAEKPAVCOleDataObject@@KVCPoint@@@Z 5f85fc77 f
 0001:0005ec7c       ?OnDropEx@CView@@UAEKPAVCOleDataObject@@KKVCPoint@@@Z 5f85fc7c f
 0001:0005ecaa       ?OnUpdateSplitCmd@CView@@IAEXPAVCCmdUI@@@Z 5f85fcaa f
 0001:0005ecd2       ?OnSplitCmd@CView@@IAEHI@Z 5f85fcd2 f
 0001:0005ecee       ?OnUpdateNextPaneMenu@CView@@IAEXPAVCCmdUI@@@Z 5f85fcee f
 0001:0005ed2c       ?OnNextPaneCmd@CView@@IAEHI@Z 5f85fd2c f
 0001:0005ed75       ?OnPreparePrinting@CView@@MAEHPAUCPrintInfo@@@Z 5f85fd75 f
 0001:0005ed7b       ?OnEndPrintPreview@CView@@MAEXPAVCDC@@PAUCPrintInfo@@UtagPOINT@@PAVCPreviewView@@@Z 5f85fd7b f
 0001:0005ee1e       ?GetMessageMap@CCtrlView@@MBEPBUAFX_MSGMAP@@XZ 5f85fe1e f
 0001:0005ee24       ??_ECCtrlView@@UAEPAXI@Z   5f85fe24 f
 0001:0005ee24       ??_GCCtrlView@@UAEPAXI@Z   5f85fe24 f
 0001:0005ee40       ?_AfxGetMouseScrollLines@@YGIXZ 5f85fe40 f
 0001:0005ef7a       ??_ECScrollView@@UAEPAXI@Z 5f85ff7a f
 0001:0005ef7a       ??_GCScrollView@@UAEPAXI@Z 5f85ff7a f
 0001:0005f019       ?SetScaleToFitSize@CScrollView@@QAEXUtagSIZE@@@Z 5f860019 f
 0001:0005f0c2       ?GetScrollPosition@CScrollView@@QBE?AVCPoint@@XZ 5f8600c2 f
 0001:0005f146       ?ScrollToPosition@CScrollView@@QAEXUtagPOINT@@@Z 5f860146 f
 0001:0005f235       ?GetDeviceScrollSizes@CScrollView@@QBEXAAHAAUtagSIZE@@11@Z 5f860235 f
 0001:0005f26e       ?FillOutsideRect@CScrollView@@QAEXPAVCDC@@PAVCBrush@@@Z 5f86026e f
 0001:0005f2f1       ?ResizeParentToFit@CScrollView@@QAEXH@Z 5f8602f1 f
 0001:0005f41d       ?CenterOnPoint@CScrollView@@IAEXVCPoint@@@Z 5f86041d f
 0001:0005f5be       ?OnHScroll@CScrollView@@QAEXIIPAVCScrollBar@@@Z 5f8605be f
 0001:0005f602       ?OnVScroll@CScrollView@@QAEXIIPAVCScrollBar@@@Z 5f860602 f
 0001:0005f64a       ?OnMouseWheel@CScrollView@@QAEHIFVCPoint@@@Z 5f86064a f
 0001:0005f67e       ?DoMouseWheel@CScrollView@@QAEHIFVCPoint@@@Z 5f86067e f
 0001:0005f7a6       ?OnScroll@CScrollView@@UAEHIIH@Z 5f8607a6 f
 0001:0005f889       ?OnScrollBy@CScrollView@@UAEHVCSize@@H@Z 5f860889 f
 0001:0005f985       ?_GetBaseMessageMap@CFormView@@KGPBUAFX_MSGMAP@@XZ 5f860985 f
 0001:0005f98b       ?GetMessageMap@CFormView@@MBEPBUAFX_MSGMAP@@XZ 5f86098b f
 0001:0005f991       ??0CFormView@@IAE@PBG@Z    5f860991 f
 0001:0005f9b4       ??_ECFormView@@UAEPAXI@Z   5f8609b4 f
 0001:0005f9b4       ??_GCFormView@@UAEPAXI@Z   5f8609b4 f
 0001:0005f9d0       ??1CFormView@@UAE@XZ       5f8609d0 f
 0001:0005f9d5       ??0CFormView@@IAE@I@Z      5f8609d5 f
 0001:0005f9f9       ?Create@CFormView@@MAEHPBG0KABUtagRECT@@PAVCWnd@@IPAUCCreateContext@@@Z 5f8609f9 f
 0001:0005fb0d       ?OnCreate@CFormView@@IAEHPAUtagCREATESTRUCTW@@@Z 5f860b0d f
 0001:0005fb1f       ?OnActivateView@CFormView@@MAEXHPAVCView@@0@Z 5f860b1f f
 0001:0005fb42       ?OnActivateFrame@CFormView@@MAEXIPAVCFrameWnd@@@Z 5f860b42 f
 0001:0005fb51       ?SaveFocusControl@CFormView@@IAEHXZ 5f860b51 f
 0001:0005fb7c       ?OnSetFocus@CFormView@@IAEXPAVCWnd@@@Z 5f860b7c f
 0001:0005fbb6       ?PreTranslateMessage@CFormView@@MAEHPAUtagMSG@@@Z 5f860bb6 f
 0001:0005fc20       ?OnDraw@CFormView@@MAEXPAVCDC@@@Z 5f860c20 f
 0001:0005fc23       ?HandleInitDialog@CFormView@@IAEJIJ@Z 5f860c23 f
 0001:0005fc53       ?SetOccDialogInfo@CFormView@@MAEHPAU_AFX_OCC_DIALOG_INFO@@@Z 5f860c53 f
 0001:0005fc60       ?GetOpenDocumentCount@CWinApp@@QAEHXZ 5f860c60 f
 0001:0005fc6b       ?GetMessageMap@COleDBRecordView@@MBEPBUAFX_MSGMAP@@XZ 5f860c6b f
 0001:0005fc71       ?OnInitialUpdate@COleDBRecordView@@UAEXXZ 5f860c71 f
 0001:0005fc71       ?OnInitialUpdate@CFormView@@UAEXXZ 5f860c71 f
 0001:0005fc84       ?OnMove@COleDBRecordView@@UAEHI@Z 5f860c84 f
 0001:0005fd3b       ?OnUpdateRecordFirst@COleDBRecordView@@IAEXPAVCCmdUI@@@Z 5f860d3b f
 0001:0005fd56       ?OnUpdateRecordLast@COleDBRecordView@@IAEXPAVCCmdUI@@@Z 5f860d56 f
 0001:0005fe3c       ??0CMemFile@@QAE@PAEII@Z   5f860e3c f
 0001:0005fe78       ?Attach@CMemFile@@QAEXPAEII@Z 5f860e78 f
 0001:0005fea3       ?Detach@CMemFile@@QAEPAEXZ 5f860ea3 f
 0001:0005feb5       ?GetPosition@CMemFile@@UBEKXZ 5f860eb5 f
 0001:0005fecd       ?SetLength@CMemFile@@UAEXK@Z 5f860ecd f
 0001:0005ff18       ?Flush@CMemFile@@UAEXXZ    5f860f18 f
 0001:0005ff19       ?Abort@CMemFile@@UAEXXZ    5f860f19 f
 0001:0005ff1e       ?LockRange@CMemFile@@UAEXKK@Z 5f860f1e f
 0001:0005ff26       ?Duplicate@CMemFile@@UBEPAVCFile@@XZ 5f860f26 f
 0001:0005ff40       ?OnHelp@CWnd@@QAEXXZ       5f860f40 f
 0001:0005ffe2       ?OnHelp@CFrameWnd@@IAEXXZ  5f860fe2 f
 0001:00060015       ?OnHelpIndex@CWnd@@QAEXXZ  5f861015 f
 0001:0006002c       ?OnHelpFinder@CWnd@@QAEXXZ 5f86102c f
 0001:00060043       ?OnHelpUsing@CWnd@@QAEXXZ  5f861043 f
 0001:0006005a       ?CanEnterHelpMode@CFrameWnd@@QAEHXZ 5f86105a f
 0001:000600b7       ?OnContextHelp@CFrameWnd@@QAEXXZ 5f8610b7 f
 0001:00060259       ?SetHelpCapture@CFrameWnd@@IAEPAUHWND__@@UtagPOINT@@PAH@Z 5f861259 f
 0001:0006037a       ?_AfxMapClientArea@@YGKPAUHWND__@@UtagPOINT@@@Z 5f86137a f
 0001:00060413       ?_AfxMapNonClientArea@@YGKH@Z 5f861413 f
 0001:0006042d       ?ProcessHelpMsg@CFrameWnd@@IAEHAAUtagMSG@@PAK@Z 5f86142d f
 0001:00060662       ?ResetTimer@CControlBar@@QAEXII@Z 5f861662 f
 0001:00060698       ?OnTimer@CControlBar@@QAEXI@Z 5f861698 f
 0001:0006081d       ?SetStatusText@CControlBar@@UAEHH@Z 5f86181d f
 0001:00060abf       ?OnHelpHitTest@CControlBar@@QAEJIJ@Z 5f861abf f
 0001:00060bcc       ?OnMouseActivate@CControlBar@@QAEHPAVCWnd@@II@Z 5f861bcc f
 0001:00060bff       ?OnLButtonDown@CControlBar@@QAEXIVCPoint@@@Z 5f861bff f
 0001:00060c45       ?OnLButtonDblClk@CControlBar@@QAEXIVCPoint@@@Z 5f861c45 f
 0001:00060d14       ?DelayShow@CControlBar@@UAEXH@Z 5f861d14 f
 0001:00060dea       ?CommandToIndex@CToolBar@@QBEHI@Z 5f861dea f
 0001:00060e00       ?GetItemID@CToolBar@@QBEIH@Z 5f861e00 f
 0001:00060fd6       ?GetButtonInfo@CToolBar@@QBEXHAAI0AAH@Z 5f861fd6 f
 0001:0006100e       ?OnToolHitTest@CToolBar@@UBEHVCPoint@@PAUtagTOOLINFOW@@@Z 5f86200e f
 0001:000610d9       ?SetButtonText@CToolBar@@QAEHHPBG@Z 5f8620d9 f
 0001:000611d7       ?GetButtonText@CToolBar@@QBE?AVCString@@H@Z 5f8621d7 f
 0001:00061235       ?GetButtonText@CToolBar@@QBEXHAAVCString@@@Z 5f862235 f
 0001:000612dc       ?OnNcHitTest@CToolBar@@IAEIVCPoint@@@Z 5f8622dc f
 0001:0006130f       ?OnPreserveZeroBorderHelper@CToolBar@@IAEJIJ@Z 5f86230f f
 0001:0006135e       ?OnSysColorChange@CToolBar@@IAEXXZ 5f86235e f
 0001:00061397       ??0CDialogBar@@QAE@XZ      5f862397 f
 0001:000613b7       ??1CDialogBar@@UAE@XZ      5f8623b7 f
 0001:000613ef       ?Create@CDialogBar@@QAEHPAVCWnd@@PBGII@Z 5f8623ef f
 0001:000614f2       ?CalcFixedLayout@CDialogBar@@UAE?AVCSize@@HH@Z 5f8624f2 f
 0001:0006153c       ?OnUpdateCmdUI@CDialogBar@@UAEXPAVCFrameWnd@@H@Z 5f86253c f
 0001:0006154c       ?GetMessageMap@CDialogBar@@MBEPBUAFX_MSGMAP@@XZ 5f86254c f
 0001:00061552       ?HandleInitDialog@CDialogBar@@IAEJIJ@Z 5f862552 f
 0001:0006158d       ?SetOccDialogInfo@CDialogBar@@MAEHPAU_AFX_OCC_DIALOG_INFO@@@Z 5f86258d f
 0001:000615b1       ?GetItemID@CStatusBar@@QBEIH@Z 5f8625b1 f
 0001:000615c1       ?GetItemRect@CStatusBar@@QBEXHPAUtagRECT@@@Z 5f8625c1 f
 0001:000615f8       ?GetPaneInfo@CStatusBar@@QBEXHAAI0AAH@Z 5f8625f8 f
 0001:00061622       ?SetPaneInfo@CStatusBar@@QAEXHIIH@Z 5f862622 f
 0001:0006169e       ?GetPaneText@CStatusBar@@QBEXHAAVCString@@@Z 5f86269e f
 0001:000616b9       ?GetPaneText@CStatusBar@@QBE?AVCString@@H@Z 5f8626b9 f
 0001:000616f2       ?OnNcHitTest@CStatusBar@@IAEIVCPoint@@@Z 5f8626f2 f
 0001:00061706       ?OnBarStyleChange@CStatusBar@@UAEXKK@Z 5f862706 f
 0001:00061744       ?OnGetText@CStatusBar@@IAEJIJ@Z 5f862744 f
 0001:0006179c       ?OnGetTextLength@CStatusBar@@IAEJIJ@Z 5f86279c f
 0001:000617c0       ?OnSetMinHeight@CStatusBar@@IAEJIJ@Z 5f8627c0 f
 0001:000617d3       ?SetCheck@CStatusCmdUI@@UAEXH@Z 5f8627d3 f
 0001:00061801       ?SetText@CStatusCmdUI@@UAEXPBG@Z 5f862801 f
 0001:00061815       ?GetDockedCount@CDockBar@@QBEHXZ 5f862815 f
 0001:0006195b       ?ReDockControlBar@CDockBar@@QAEXPAVCControlBar@@PBUtagRECT@@@Z 5f86295b f
 0001:00061e8f       ?ShowAll@CDockBar@@QAEXH@Z 5f862e8f f
 0001:00061ed0       ?Insert@CDockBar@@IAEHPAVCControlBar@@VCRect@@VCPoint@@@Z 5f862ed0 f
 0001:00062026       ?_GetBaseMessageMap@CMiniDockFrameWnd@@KGPBUAFX_MSGMAP@@XZ 5f863026 f
 0001:0006202c       ?GetMessageMap@CMiniDockFrameWnd@@MBEPBUAFX_MSGMAP@@XZ 5f86302c f
 0001:00062032       ?OnMouseActivate@CMiniDockFrameWnd@@QAEHPAVCWnd@@II@Z 5f863032 f
 0001:0006204d       ??0CMiniDockFrameWnd@@QAE@XZ 5f86304d f
 0001:00062090       ??_GCMiniDockFrameWnd@@UAEPAXI@Z 5f863090 f
 0001:00062090       ??_ECMiniDockFrameWnd@@UAEPAXI@Z 5f863090 f
 0001:000620ac       ??1CMiniDockFrameWnd@@UAE@XZ 5f8630ac f
 0001:000620e4       ?Create@CMiniDockFrameWnd@@UAEHPAVCWnd@@K@Z 5f8630e4 f
 0001:00062249       ?RecalcLayout@CMiniDockFrameWnd@@UAEXH@Z 5f863249 f
 0001:00062291       ?OnClose@CMiniDockFrameWnd@@QAEXXZ 5f863291 f
 0001:0006229f       ?OnNcLButtonDown@CMiniDockFrameWnd@@QAEXIVCPoint@@@Z 5f86329f f
 0001:00062345       ?OnNcLButtonDblClk@CMiniDockFrameWnd@@QAEXIVCPoint@@@Z 5f863345 f
 0001:00062396       ?_AfxAdjustRectangle@@YGXAAVCRect@@VCPoint@@@Z 5f863396 f
 0001:000623f1       ?StartDrag@CDockContext@@UAEXVCPoint@@@Z 5f8633f1 f
 0001:0006273d       ?Move@CDockContext@@QAEXVCPoint@@@Z 5f86373d f
 0001:000627b9       ?OnKey@CDockContext@@QAEXHH@Z 5f8637b9 f
 0001:000627ed       ?EndDrag@CDockContext@@QAEXXZ 5f8637ed f
 0001:000628f8       ?StartResize@CDockContext@@UAEXHVCPoint@@@Z 5f8638f8 f
 0001:00062a3a       ?Stretch@CDockContext@@QAEXVCPoint@@@Z 5f863a3a f
 0001:00062bb4       ?EndResize@CDockContext@@QAEXXZ 5f863bb4 f
 0001:00062bf7       ?ToggleDocking@CDockContext@@UAEXXZ 5f863bf7 f
 0001:00062ccc       ?InitLoop@CDockContext@@QAEXXZ 5f863ccc f
 0001:00062d89       ?CancelLoop@CDockContext@@QAEXXZ 5f863d89 f
 0001:00062dd2       ?DrawFocusRect@CDockContext@@QAEXH@Z 5f863dd2 f
 0001:00062ef2       ?UpdateState@CDockContext@@QAEXPAHH@Z 5f863ef2 f
 0001:00062f44       ?CanDock@CDockContext@@QAEKXZ 5f863f44 f
 0001:0006306a       ?GetDockBar@CDockContext@@QAEPAVCDockBar@@K@Z 5f86406a f
 0001:000630b2       ?Track@CDockContext@@QAEHXZ 5f8640b2 f
 0001:000631d0       ?LoadState@CControlBarInfo@@QAEHPBGHPAVCDockState@@@Z 5f8641d0 f
 0001:0006343d       ?SaveState@CControlBarInfo@@QAEHPBGH@Z 5f86443d f
 0001:0006368f       ?LoadState@CDockState@@QAEXPBG@Z 5f86468f f
 0001:00063776       ?SaveState@CDockState@@QAEXPBG@Z 5f864776 f
 0001:000638c6       ?LoadBarState@CFrameWnd@@QAEXPBG@Z 5f8648c6 f
 0001:00063913       ?SaveBarState@CFrameWnd@@QBEXPBG@Z 5f864913 f
 0001:00063ac0       ?GetMessageMap@CReBar@@MBEPBUAFX_MSGMAP@@XZ 5f864ac0 f
 0001:00063ac6       ??0CReBar@@QAE@XZ          5f864ac6 f
 0001:00063b01       ??_ECReBar@@UAEPAXI@Z      5f864b01 f
 0001:00063b01       ??_GCReBar@@UAEPAXI@Z      5f864b01 f
 0001:00063b1d       ??1CReBar@@UAE@XZ          5f864b1d f
 0001:00063b22       ?OnRecalcParent@CReBar@@IAEXXZ 5f864b22 f
 0001:00063b34       ?OnHeightChange@CReBar@@IAEXPAUtagNMHDR@@PAJ@Z 5f864b34 f
 0001:00063b74       ?OnShowBand@CReBar@@IAEJIJ@Z 5f864b74 f
 0001:00063c0b       ?_AddBar@CReBar@@IAEHPAVCWnd@@PAUtagREBARBANDINFOW@@@Z 5f864c0b f
 0001:00063cc8       ?AddBar@CReBar@@QAEHPAVCWnd@@PBGPAVCBitmap@@K@Z 5f864cc8 f
 0001:00063d0d       ?AddBar@CReBar@@QAEHPAVCWnd@@KKPBGK@Z 5f864d0d f
 0001:00063d4d       ?CalcFixedLayout@CReBar@@UAE?AVCSize@@HH@Z 5f864d4d f
 0001:00063ede       ?Create@CReBar@@QAEHPAVCWnd@@KKI@Z 5f864ede f
 0001:00063f51       ?OnNcCreate@CReBar@@IAEHPAUtagCREATESTRUCTW@@@Z 5f864f51 f
 0001:00063f7d       ?OnNcCalcSize@CReBar@@IAEXHPAUtagNCCALCSIZE_PARAMS@@@Z 5f864f7d f
 0001:00063fc9       ?OnPaint@CReBar@@IAEXXZ    5f864fc9 f
 0001:00063fce       ?OnToolHitTest@CReBar@@UBEHVCPoint@@PAUtagTOOLINFOW@@@Z 5f864fce f
 0001:00064013       ?WindowProc@CReBar@@MAEJIIJ@Z 5f865013 f
 0001:00064050       ?PrepareEditCtrl@CDataExchange@@QAEPAUHWND__@@H@Z 5f865050 f
 0001:00064071       ?Fail@CDataExchange@@QAEXXZ 5f865071 f
 0001:000640a6       ?_AfxSimpleScanf@@YGHPBG0PAD@Z 5f8650a6 f
 0001:0006415f       ?_Afx_DDX_TextWithFormat@@YAXPAVCDataExchange@@HPBGIZZ 5f86515f f
 0001:000641cf       ?DDX_Text@@YGXPAVCDataExchange@@HAAE@Z 5f8651cf f
 0001:00064240       ?DDX_Text@@YGXPAVCDataExchange@@HAAF@Z 5f865240 f
 0001:0006427b       ?DDX_Text@@YGXPAVCDataExchange@@HAAH@Z 5f86527b f
 0001:000642aa       ?DDX_Text@@YGXPAVCDataExchange@@HAAI@Z 5f8652aa f
 0001:000642d9       ?DDX_Text@@YGXPAVCDataExchange@@HAAJ@Z 5f8652d9 f
 0001:00064308       ?DDX_Text@@YGXPAVCDataExchange@@HAAK@Z 5f865308 f
 0001:00064337       ?DDX_Text@@YGXPAVCDataExchange@@HAAVCString@@@Z 5f865337 f
 0001:00064389       ?DDX_Text@@YGXPAVCDataExchange@@HPAGH@Z 5f865389 f
 0001:000643c7       ?DDX_Check@@YGXPAVCDataExchange@@HAAH@Z 5f8653c7 f
 0001:00064419       ?DDX_Radio@@YGXPAVCDataExchange@@HAAH@Z 5f865419 f
 0001:000644aa       ?DDX_LBString@@YGXPAVCDataExchange@@HAAVCString@@@Z 5f8654aa f
 0001:0006452a       ?DDX_LBStringExact@@YGXPAVCDataExchange@@HAAVCString@@@Z 5f86552a f
 0001:0006457b       ?DDX_CBString@@YGXPAVCDataExchange@@HAAVCString@@@Z 5f86557b f
 0001:000645fa       ?DDX_CBStringExact@@YGXPAVCDataExchange@@HAAVCString@@@Z 5f8655fa f
 0001:00064657       ?DDX_LBIndex@@YGXPAVCDataExchange@@HAAH@Z 5f865657 f
 0001:00064699       ?DDX_CBIndex@@YGXPAVCDataExchange@@HAAH@Z 5f865699 f
 0001:000646db       ?DDX_Scroll@@YGXPAVCDataExchange@@HAAH@Z 5f8656db f
 0001:00064716       ?DDX_Slider@@YGXPAVCDataExchange@@HAAH@Z 5f865716 f
 0001:0006475a       ?_AfxFailMinMaxWithFormat@@YGXPAVCDataExchange@@JJPBGI@Z 5f86575a f
 0001:000647f3       ?DDV_MinMaxByte@@YGXPAVCDataExchange@@EEE@Z 5f8657f3 f
 0001:00064823       ?DDV_MinMaxShort@@YGXPAVCDataExchange@@FFF@Z 5f865823 f
 0001:00064856       ?DDV_MinMaxLong@@YGXPAVCDataExchange@@JJJ@Z 5f865856 f
 0001:00064882       ?DDV_MinMaxDWord@@YGXPAVCDataExchange@@KKK@Z 5f865882 f
 0001:000648ae       ?DDV_MinMaxSlider@@YGXPAVCDataExchange@@KKK@Z 5f8658ae f
 0001:000648f1       ?DDV_MaxChars@@YGXPAVCDataExchange@@ABVCString@@H@Z 5f8658f1 f
 0001:000649b4       ?AfxFailMaxChars@@YGXPAVCDataExchange@@H@Z 5f8659b4 f
 0001:00064a2c       ?AfxFailRadio@@YGXPAVCDataExchange@@@Z 5f865a2c f
 0001:00064a8c       ?_AfxSimpleFloatParse@@YGHPBGAAN@Z 5f865a8c f
 0001:00064afb       ?AfxTextFloatFormat@@YGXPAVCDataExchange@@HPAXNH@Z 5f865afb f
 0001:00064b90       ?DDX_Text@@YGXPAVCDataExchange@@HAAM@Z 5f865b90 f
 0001:00064bae       ?DDX_Text@@YGXPAVCDataExchange@@HAAN@Z 5f865bae f
 0001:00064bcc       ?_AfxFailMinMaxReal@@YGXPAVCDataExchange@@NNHI@Z 5f865bcc f
 0001:00064c7d       ?DDV_MinMaxFloat@@YGXPAVCDataExchange@@ABMMM@Z 5f865c7d f
 0001:00064cba       ?DDV_MinMaxDouble@@YGXPAVCDataExchange@@ABNNN@Z 5f865cba f
 0001:00064cf7       ?_AfxAppendFilterSuffix@@YGXAAVCString@@AAUtagOFNW@@PAVCDocTemplate@@PAV1@@Z 5f865cf7 f
 0001:00064dd5       ?_GetBaseMessageMap@CNewTypeDlg@@KGPBUAFX_MSGMAP@@XZ 5f865dd5 f
 0001:00064ddb       ?GetMessageMap@CNewTypeDlg@@MBEPBUAFX_MSGMAP@@XZ 5f865ddb f
 0001:00064de1       ?OnInitDialog@CNewTypeDlg@@MAEHXZ 5f865de1 f
 0001:00064ef6       ?OnOK@CNewTypeDlg@@MAEXXZ  5f865ef6 f
 0001:00064f40       ?DoPromptFileName@CDocManager@@UAEHAAVCString@@IKHPAVCDocTemplate@@@Z 5f865f40 f
 0001:000650eb       ?GetDocumentCount@CDocManager@@IAEHXZ 5f8660eb f
 0001:0006512d       ?OnDDECommand@CDocManager@@UAEHPAG@Z 5f86612d f
 0001:00065792       ??_ECNewTypeDlg@@UAEPAXI@Z 5f866792 f
 0001:00065792       ??_GCNewTypeDlg@@UAEPAXI@Z 5f866792 f
 0001:000657ae       ?OnFileOpen@CDocManager@@UAEXXZ 5f8667ae f
 0001:00065841       ?CreateStatic@CSplitterWnd@@QAEHPAVCWnd@@HHKI@Z 5f866841 f
 0001:00065900       ?IsChildPane@CSplitterWnd@@QAEHPAVCWnd@@PAH1@Z 5f866900 f
 0001:0006597c       ?GetRowInfo@CSplitterWnd@@QBEXHAAH0@Z 5f86697c f
 0001:000659ac       ?SetRowInfo@CSplitterWnd@@QAEXHHH@Z 5f8669ac f
 0001:000659d8       ?GetColumnInfo@CSplitterWnd@@QBEXHAAH0@Z 5f8669d8 f
 0001:00065a00       ?SetColumnInfo@CSplitterWnd@@QAEXHHH@Z 5f866a00 f
 0001:00065a76       ?DeleteView@CSplitterWnd@@UAEXHH@Z 5f866a76 f
 0001:00065ae9       ?_AfxCanSplitRowCol@@YGHPAUCRowColInfo@CSplitterWnd@@HH@Z 5f866ae9 f
 0001:00065b09       ?SplitRow@CSplitterWnd@@UAEHH@Z 5f866b09 f
 0001:00065c11       ?SplitColumn@CSplitterWnd@@UAEHH@Z 5f866c11 f
 0001:00065d13       ?DeleteRow@CSplitterWnd@@UAEXH@Z 5f866d13 f
 0001:00065e2c       ?DeleteColumn@CSplitterWnd@@UAEXH@Z 5f866e2c f
 0001:00065f45       ?StartTracking@CSplitterWnd@@MAEXH@Z 5f866f45 f
 0001:00066111       ?TrackRowSize@CSplitterWnd@@MAEXHH@Z 5f867111 f
 0001:000661a6       ?TrackColumnSize@CSplitterWnd@@MAEXHH@Z 5f8671a6 f
 0001:00066232       ?StopTracking@CSplitterWnd@@MAEXH@Z 5f867232 f
 0001:000663d5       ?GetHitRect@CSplitterWnd@@MAEXHAAVCRect@@@Z 5f8673d5 f
 0001:000665a0       ?HitTest@CSplitterWnd@@MBEHVCPoint@@@Z 5f8675a0 f
 0001:0006675a       ?OnInvertTracker@CSplitterWnd@@MAEXABVCRect@@@Z 5f86775a f
 0001:000667d0       ?DoKeyboardSplit@CSplitterWnd@@UAEHXZ 5f8677d0 f
 0001:000668d0       ?OnDisplayChange@CSplitterWnd@@IAEXXZ 5f8678d0 f
 0001:00066b4f       ?OnSetCursor@CSplitterWnd@@IAEHPAVCWnd@@II@Z 5f867b4f f
 0001:00066b6f       ?SetSplitCursor@CSplitterWnd@@MAEXH@Z 5f867b6f f
 0001:00066c5c       ?OnMouseMove@CSplitterWnd@@IAEXIVCPoint@@@Z 5f867c5c f
 0001:00066dd8       ?OnLButtonDown@CSplitterWnd@@IAEXIVCPoint@@@Z 5f867dd8 f
 0001:00066e03       ?OnLButtonDblClk@CSplitterWnd@@IAEXIVCPoint@@@Z 5f867e03 f
 0001:00066f4c       ?OnLButtonUp@CSplitterWnd@@IAEXIVCPoint@@@Z 5f867f4c f
 0001:00066f59       ?OnCancelMode@CSplitterWnd@@IAEXXZ 5f867f59 f
 0001:00066f64       ?OnKeyDown@CSplitterWnd@@IAEXIII@Z 5f867f64 f
 0001:00067099       ?OnSysCommand@CSplitterWnd@@IAEXIJ@Z 5f868099 f
 0001:000670d8       ?OnCommand@CSplitterWnd@@MAEHIJ@Z 5f8680d8 f
 0001:00067112       ?OnNotify@CSplitterWnd@@MAEHIJPAJ@Z 5f868112 f
 0001:0006714f       ?OnMouseWheel@CSplitterWnd@@IAEHIFVCPoint@@@Z 5f86814f f
 0001:00067215       ?OnHScroll@CSplitterWnd@@IAEXIIPAVCScrollBar@@@Z 5f868215 f
 0001:000672ab       ?OnVScroll@CSplitterWnd@@IAEXIIPAVCScrollBar@@@Z 5f8682ab f
 0001:00067341       ?DoScroll@CSplitterWnd@@UAEHPAVCView@@IH@Z 5f868341 f
 0001:00067498       ?DoScrollBy@CSplitterWnd@@UAEHPAVCView@@VCSize@@H@Z 5f868498 f
 0001:000675ef       ?CanActivateNext@CSplitterWnd@@UAEHH@Z 5f8685ef f
 0001:00067615       ?ActivateNext@CSplitterWnd@@UAEXH@Z 5f868615 f
 0001:00067686       ?SetActivePane@CSplitterWnd@@UAEXHHPAVCWnd@@@Z 5f868686 f
 0001:000676d0       ?GetActivePane@CSplitterWnd@@UAEPAVCWnd@@PAH0@Z 5f8686d0 f
 0001:00067728       ?OnDDECommand@CWinApp@@UAEHPAG@Z 5f868728 f
 0001:00067742       ?OnOpenRecentFile@CWinApp@@IAEHI@Z 5f868742 f
 0001:00067786       ?DoMessageBox@CWinApp@@UAEHPBGII@Z 5f868786 f
 0001:0006787c       ?AfxMessageBox@@YGHPBGII@Z 5f86887c f
 0001:000678b4       ?AfxMessageBox@@YGHIII@Z   5f8688b4 f
 0001:000679f7       ?OnFileOpen@CWinApp@@IAEXXZ 5f8689f7 f
 0001:00067a02       ?DoPromptFileName@CWinApp@@QAEHAAVCString@@IKHPAVCDocTemplate@@@Z 5f868a02 f
 0001:00067a81       ?AfxFormatString2@@YGXAAVCString@@IPBG1@Z 5f868a81 f
 0001:00067aa7       ?OnHelp@CWinApp@@IAEXXZ    5f868aa7 f
 0001:00067aeb       ?OnHelpIndex@CWinApp@@IAEXXZ 5f868aeb f
 0001:00067af8       ?OnHelpFinder@CWinApp@@IAEXXZ 5f868af8 f
 0001:00067b05       ?OnHelpUsing@CWinApp@@IAEXXZ 5f868b05 f
 0001:00067b12       ?OnContextHelp@CWinApp@@IAEXXZ 5f868b12 f
 0001:00067b48       ??0CSharedFile@@QAE@II@Z   5f868b48 f
 0001:00067b72       ?SetHandle@CSharedFile@@QAEXPAXH@Z 5f868b72 f
 0001:00067ba0       ?Alloc@CSharedFile@@MAEPAEK@Z 5f868ba0 f
 0001:00067bc2       ?Realloc@CSharedFile@@MAEPAEPAEK@Z 5f868bc2 f
 0001:00067bfa       ?Free@CSharedFile@@MAEXPAE@Z 5f868bfa f
 0001:00067c13       ?Detach@CSharedFile@@QAEPAXXZ 5f868c13 f
 0001:00067d05       ?OnCommandHelp@CFrameWnd@@IAEJIJ@Z 5f868d05 f
 0001:00067d5d       ?OnHelpHitTest@CFrameWnd@@IAEJIJ@Z 5f868d5d f
 0001:00067eda       ?ShowOwnedWindows@CFrameWnd@@QAEXH@Z 5f868eda f
 0001:00067ffc       ?OnUpdateFrameMenu@CFrameWnd@@UAEXPAUHMENU__@@@Z 5f868ffc f
 0001:000680af       ?OnHScroll@CFrameWnd@@IAEXIIPAVCScrollBar@@@Z 5f8690af f
 0001:000680d8       ?OnVScroll@CFrameWnd@@IAEXIIPAVCScrollBar@@@Z 5f8690d8 f
 0001:000681a2       ?OnDropFiles@CFrameWnd@@IAEXPAUHDROP__@@@Z 5f8691a2 f
 0001:00068217       ?OnQueryEndSession@CFrameWnd@@IAEHXZ 5f869217 f
 0001:0006823c       ?OnEndSession@CFrameWnd@@IAEXH@Z 5f86923c f
 0001:00068274       ?OnDDEInitiate@CFrameWnd@@IAEJIJ@Z 5f869274 f
 0001:00068337       ?OnDDEExecute@CFrameWnd@@IAEJIJ@Z 5f869337 f
 0001:000683d2       ?OnDDETerminate@CFrameWnd@@IAEJIJ@Z 5f8693d2 f
 0001:00068400       ?ShowControlBar@CFrameWnd@@QAEXPAVCControlBar@@HH@Z 5f869400 f
 0001:0006864e       ?OnPopMessageString@CFrameWnd@@IAEJIJ@Z 5f86964e f
 0001:00068688       ?OnHelpPromptAddr@CFrameWnd@@IAEJIJ@Z 5f869688 f
 0001:0006869f       ?OnUpdateControlBarMenu@CFrameWnd@@QAEXPAVCCmdUI@@@Z 5f86969f f
 0001:000686d4       ?OnBarCheck@CFrameWnd@@QAEHI@Z 5f8696d4 f
 0001:0006870d       ?OnToolTipText@CFrameWnd@@IAEHIPAUtagNMHDR@@PAJ@Z 5f86970d f
 0001:00068876       ?OnSetPreviewMode@CFrameWnd@@UAEXHPAUCPrintPreviewState@@@Z 5f869876 f
 0001:00068a8d       ?DelayUpdateFrameMenu@CFrameWnd@@UAEXPAUHMENU__@@@Z 5f869a8d f
 0001:00068aee       ?GetActiveFrame@CFrameWnd@@UAEPAV1@XZ 5f869aee f
 0001:00068b6e       ?NegotiateBorderSpace@CFrameWnd@@UAEHIPAUtagRECT@@@Z 5f869b6e f
 0001:00068be8       ?OnRegisteredMouseWheel@CFrameWnd@@IAEJIJ@Z 5f869be8 f
 0001:00068cc1       ?CreateFloatingFrame@CFrameWnd@@QAEPAVCMiniDockFrameWnd@@K@Z 5f869cc1 f
 0001:00068d2d       ?ReDockControlBar@CFrameWnd@@QAEXPAVCControlBar@@PAVCDockBar@@PBUtagRECT@@@Z 5f869d2d f
 0001:00068db2       ?FloatControlBar@CFrameWnd@@QAEXPAVCControlBar@@VCPoint@@K@Z 5f869db2 f
 0001:00068eaf       ?CanDock@CFrameWnd@@QAEKVCRect@@KPAPAVCDockBar@@@Z 5f869eaf f
 0001:00068f5b       ?GetMessageMap@CMDIFrameWnd@@MBEPBUAFX_MSGMAP@@XZ 5f869f5b f
 0001:00068fa1       ?OnCommandHelp@CMDIFrameWnd@@IAEJIJ@Z 5f869fa1 f
 0001:00069066       ?DelayUpdateFrameMenu@CMDIFrameWnd@@UAEXPAUHMENU__@@@Z 5f86a066 f
 0001:000690b1       ?OnMenuChar@CMDIFrameWnd@@IAEJIIPAVCMenu@@@Z 5f86a0b1 f
 0001:00069102       ?CreateNewChild@CMDIFrameWnd@@QAEPAVCMDIChildWnd@@PAUCRuntimeClass@@IPAUHMENU__@@PAUHACCEL__@@@Z 5f86a102 f
 0001:000691e6       ??1CMDIChildWnd@@UAE@XZ    5f86a1e6 f
 0001:0006933e       ?OnMouseActivate@CMDIChildWnd@@IAEHPAVCWnd@@II@Z 5f86a33e f
 0001:00069375       ?OnToolTipText@CMDIChildWnd@@IAEHIPAUtagNMHDR@@PAJ@Z 5f86a375 f
 0001:00069416       ?SetHandles@CMDIChildWnd@@QAEXPAUHMENU__@@PAUHACCEL__@@@Z 5f86a416 f
 0001:00069431       ?OnUpdateFrameMenu@CMDIFrameWnd@@UAEXPAUHMENU__@@@Z 5f86a431 f
 0001:0006952b       ?OnUpdateMDIWindowCmd@CMDIFrameWnd@@IAEXPAVCCmdUI@@@Z 5f86a52b f
 0001:0006954a       ?OnMDIWindowCmd@CMDIFrameWnd@@IAEHI@Z 5f86a54a f
 0001:00069590       ?OnWindowNew@CMDIFrameWnd@@IAEXXZ 5f86a590 f
 0001:000695df       ?GetMessageMap@CMiniFrameWnd@@MBEPBUAFX_MSGMAP@@XZ 5f86a5df f
 0001:000695e5       ??0CMiniFrameWnd@@QAE@XZ   5f86a5e5 f
 0001:0006962f       ??_GCMiniFrameWnd@@UAEPAXI@Z 5f86a62f f
 0001:0006962f       ??_ECMiniFrameWnd@@UAEPAXI@Z 5f86a62f f
 0001:0006964b       ?Initialize@CMiniFrameWnd@@SAXXZ 5f86a64b f
 0001:000697d5       ?Create@CMiniFrameWnd@@QAEHPBG0KABUtagRECT@@PAVCWnd@@I@Z 5f86a7d5 f
 0001:000697f5       ?CreateEx@CMiniFrameWnd@@QAEHKPBG0KABUtagRECT@@PAVCWnd@@I@Z 5f86a7f5 f
 0001:00069868       ?OnNcCreate@CMiniFrameWnd@@QAEHPAUtagCREATESTRUCTW@@@Z 5f86a868 f
 0001:000698f0       ?PreCreateWindow@CMiniFrameWnd@@MAEHAAUtagCREATESTRUCTW@@@Z 5f86a8f0 f
 0001:00069929       ?OnGetMinMaxInfo@CMiniFrameWnd@@QAEXPAUtagMINMAXINFO@@@Z 5f86a929 f
 0001:00069971       ?OnNcActivate@CMiniFrameWnd@@QAEHH@Z 5f86a971 f
 0001:000699c2       ?OnNcCalcSize@CMiniFrameWnd@@QAEXHPAUtagNCCALCSIZE_PARAMS@@@Z 5f86a9c2 f
 0001:00069a28       ?OnNcHitTest@CMiniFrameWnd@@QAEIVCPoint@@@Z 5f86aa28 f
 0001:00069d37       ?OnNcLButtonDown@CMiniFrameWnd@@QAEXIVCPoint@@@Z 5f86ad37 f
 0001:00069d7c       ?OnMouseMove@CMiniFrameWnd@@QAEXIVCPoint@@@Z 5f86ad7c f
 0001:00069e03       ?OnLButtonUp@CMiniFrameWnd@@QAEXIVCPoint@@@Z 5f86ae03 f
 0001:00069e63       ?InvertSysMenu@CMiniFrameWnd@@IAEXXZ 5f86ae63 f
 0001:00069efb       ?_AfxDrawFrame@@YGXPAVCDC@@PBUtagRECT@@HHAAVCBrush@@@Z 5f86aefb f
 0001:00069fb8       ?OnNcPaint@CMiniFrameWnd@@QAEXXZ 5f86afb8 f
 0001:0006a535       ?OnSysCommand@CMiniFrameWnd@@QAEXIJ@Z 5f86b535 f
 0001:0006a59d       ?CalcWindowRect@CMiniFrameWnd@@UAEXPAUtagRECT@@I@Z 5f86b59d f
 0001:0006a605       ?CalcBorders@CMiniFrameWnd@@SGXPAUtagRECT@@KK@Z 5f86b605 f
 0001:0006a671       ?OnGetText@CMiniFrameWnd@@QAEJIJ@Z 5f86b671 f
 0001:0006a6ac       ?OnGetTextLength@CMiniFrameWnd@@QAEJIJ@Z 5f86b6ac f
 0001:0006a6c8       ?OnSetText@CMiniFrameWnd@@QAEJIJ@Z 5f86b6c8 f
 0001:0006a74f       ?OnFloatStatus@CMiniFrameWnd@@QAEJIJ@Z 5f86b74f f
 0001:0006a7f9       ?OnQueryCenterWnd@CMiniFrameWnd@@QAEJIJ@Z 5f86b7f9 f
 0001:0006a81f       ??0CRectTracker@@QAE@PBUtagRECT@@I@Z 5f86b81f f
 0001:0006a848       ?Construct@CRectTracker@@IAEXXZ 5f86b848 f
 0001:0006a9d6       ?Draw@CRectTracker@@QBEXPAVCDC@@@Z 5f86b9d6 f
 0001:0006ac43       ?SetCursor@CRectTracker@@QBEHPAVCWnd@@I@Z 5f86bc43 f
 0001:0006acc3       ?HitTest@CRectTracker@@QBEHVCPoint@@@Z 5f86bcc3 f
 0001:0006ad0f       ?NormalizeHit@CRectTracker@@QBEHH@Z 5f86bd0f f
 0001:0006ad4d       ?Track@CRectTracker@@QAEHPAVCWnd@@VCPoint@@H0@Z 5f86bd4d f
 0001:0006ad85       ?TrackRubberBand@CRectTracker@@QAEHPAVCWnd@@VCPoint@@H@Z 5f86bd85 f
 0001:0006adc0       ?DrawTrackerRect@CRectTracker@@UAEXPBUtagRECT@@PAVCWnd@@PAVCDC@@1@Z 5f86bdc0 f
 0001:0006ae93       ?AdjustRect@CRectTracker@@UAEXHPAUtagRECT@@@Z 5f86be93 f
 0001:0006af86       ?GetTrueRect@CRectTracker@@QBEXPAUtagRECT@@@Z 5f86bf86 f
 0001:0006afd8       ?GetHandleRect@CRectTracker@@IBEXHPAVCRect@@@Z 5f86bfd8 f
 0001:0006b0a4       ?GetHandleSize@CRectTracker@@MBEHPBUtagRECT@@@Z 5f86c0a4 f
 0001:0006b104       ?HitTestHandles@CRectTracker@@IBEHVCPoint@@@Z 5f86c104 f
 0001:0006b1c3       ?TrackHandle@CRectTracker@@IAEHHPAVCWnd@@VCPoint@@0@Z 5f86c1c3 f
 0001:0006b44d       ?GetModifyPointers@CRectTracker@@IAEXHPAPAH0PAH1@Z 5f86c44d f
 0001:0006b4f3       ?GetHandleMask@CRectTracker@@UBEIXZ 5f86c4f3 f
 0001:0006b535       ?Create@CStatic@@QAEHPBGKABUtagRECT@@PAVCWnd@@I@Z 5f86c535 f
 0001:0006b557       ?Create@CButton@@QAEHPBGKABUtagRECT@@PAVCWnd@@I@Z 5f86c557 f
 0001:0006b579       ?GetCheckedRadioButton@CWnd@@QAEHHH@Z 5f86c579 f
 0001:0006b5a1       ?Create@CListBox@@QAEHKABUtagRECT@@PAVCWnd@@I@Z 5f86c5a1 f
 0001:0006b5c2       ?VKeyToItem@CListBox@@UAEHII@Z 5f86c5c2 f
 0001:0006b5ca       ?OnChildNotify@CListBox@@MAEHIIJPAJ@Z 5f86c5ca f
 0001:0006b667       ?GetText@CListBox@@QBEXHAAVCString@@@Z 5f86c667 f
 0001:0006b6aa       ?ItemFromPoint@CListBox@@QBEIVCPoint@@AAH@Z 5f86c6aa f
 0001:0006b707       ?Create@CEdit@@QAEHKABUtagRECT@@PAVCWnd@@I@Z 5f86c707 f
 0001:0006b728       ?Create@CScrollBar@@QAEHKABUtagRECT@@PAVCWnd@@I@Z 5f86c728 f
 0001:0006b749       ??1CScrollBar@@UAE@XZ      5f86c749 f
 0001:0006b781       ??0_AFX_CHECKLIST_STATE@@QAE@XZ 5f86c781 f
 0001:0006b823       ??_G_AFX_CHECKLIST_STATE@@UAEPAXI@Z 5f86c823 f
 0001:0006b823       ??_E_AFX_CHECKLIST_STATE@@UAEPAXI@Z 5f86c823 f
 0001:0006b83e       ??1_AFX_CHECKLIST_STATE@@UAE@XZ 5f86c83e f
 0001:0006b853       ?GetMessageMap@CCheckListBox@@MBEPBUAFX_MSGMAP@@XZ 5f86c853 f
 0001:0006b859       ?Create@CCheckListBox@@QAEHKABUtagRECT@@PAVCWnd@@I@Z 5f86c859 f
 0001:0006b87b       ?SetCheckStyle@CCheckListBox@@QAEXI@Z 5f86c87b f
 0001:0006b885       ?SetCheck@CCheckListBox@@QAEXHH@Z 5f86c885 f
 0001:0006b900       ?GetCheck@CCheckListBox@@QAEHH@Z 5f86c900 f
 0001:0006b925       ?Enable@CCheckListBox@@QAEXHH@Z 5f86c925 f
 0001:0006b98c       ?IsEnabled@CCheckListBox@@QAEHH@Z 5f86c98c f
 0001:0006b9b3       ?OnGetCheckPosition@CCheckListBox@@UAE?AVCRect@@V2@0@Z 5f86c9b3 f
 0001:0006b9c8       ?DrawItem@CCheckListBox@@UAEXPAUtagDRAWITEMSTRUCT@@@Z 5f86c9c8 f
 0001:0006bb41       ?PreDrawItem@CCheckListBox@@IAEXPAUtagDRAWITEMSTRUCT@@@Z 5f86cb41 f
 0001:0006bdbb       ?PreMeasureItem@CCheckListBox@@IAEXPAUtagMEASUREITEMSTRUCT@@@Z 5f86cdbb f
 0001:0006be46       ?PreCompareItem@CCheckListBox@@IAEHPAUtagCOMPAREITEMSTRUCT@@@Z 5f86ce46 f
 0001:0006be97       ?PreDeleteItem@CCheckListBox@@IAEXPAUtagDELETEITEMSTRUCT@@@Z 5f86ce97 f
 0001:0006bf00       ?OnChildNotify@CCheckListBox@@MAEHIIJPAJ@Z 5f86cf00 f
 0001:0006bf5b       ?CalcMinimumItemHeight@CCheckListBox@@IAEHXZ 5f86cf5b f
 0001:0006bff6       ?InvalidateCheck@CCheckListBox@@IAEXH@Z 5f86cff6 f
 0001:0006c048       ?InvalidateItem@CCheckListBox@@IAEXH@Z 5f86d048 f
 0001:0006c07a       ?CheckFromPoint@CCheckListBox@@IAEHVCPoint@@AAH@Z 5f86d07a f
 0001:0006c176       ?SetSelectionCheck@CCheckListBox@@IAEXH@Z 5f86d176 f
 0001:0006c1ee       ?OnLButtonDown@CCheckListBox@@IAEXIVCPoint@@@Z 5f86d1ee f
 0001:0006c2eb       ?OnLButtonDblClk@CCheckListBox@@IAEXIVCPoint@@@Z 5f86d2eb f
 0001:0006c325       ?OnKeyDown@CCheckListBox@@IAEXIII@Z 5f86d325 f
 0001:0006c495       ?OnCreate@CCheckListBox@@IAEHPAUtagCREATESTRUCTW@@@Z 5f86d495 f
 0001:0006c4d5       ?OnSetFont@CCheckListBox@@IAEJIJ@Z 5f86d4d5 f
 0001:0006c50c       ?OnLBAddString@CCheckListBox@@IAEJIJ@Z 5f86d50c f
 0001:0006c574       ?OnLBFindString@CCheckListBox@@IAEJIJ@Z 5f86d574 f
 0001:0006c5f5       ?OnLBFindStringExact@CCheckListBox@@IAEJIJ@Z 5f86d5f5 f
 0001:0006c676       ?OnLBGetItemData@CCheckListBox@@IAEJIJ@Z 5f86d676 f
 0001:0006c69a       ?OnLBGetText@CCheckListBox@@IAEJIJ@Z 5f86d69a f
 0001:0006c6c3       ?OnLBInsertString@CCheckListBox@@IAEJIJ@Z 5f86d6c3 f
 0001:0006c72b       ?OnLBSelectString@CCheckListBox@@IAEJIJ@Z 5f86d72b f
 0001:0006c7bb       ?OnLBSetItemData@CCheckListBox@@IAEJIJ@Z 5f86d7bb f
 0001:0006c82f       ?OnLBSetItemHeight@CCheckListBox@@IAEJIJ@Z 5f86d82f f
 0001:0006c868       ?AfxPropPageCallback@@YGIPAUHWND__@@IPAU_PROPSHEETPAGEW@@@Z 5f86d868 f
 0001:0006c8b6       ?_GetBaseMessageMap@CPropertyPage@@KGPBUAFX_MSGMAP@@XZ 5f86d8b6 f
 0001:0006c8bc       ?GetMessageMap@CPropertyPage@@MBEPBUAFX_MSGMAP@@XZ 5f86d8bc f
 0001:0006c8c2       ??0CPropertyPage@@QAE@II@Z 5f86d8c2 f
 0001:0006c911       ??_ECPropertyPage@@UAEPAXI@Z 5f86d911 f
 0001:0006c911       ??_GCPropertyPage@@UAEPAXI@Z 5f86d911 f
 0001:0006c92d       ??0CPropertyPage@@QAE@PBGI@Z 5f86d92d f
 0001:0006c97a       ?Construct@CPropertyPage@@QAEXII@Z 5f86d97a f
 0001:0006c98c       ?Construct@CPropertyPage@@QAEXPBGI@Z 5f86d98c f
 0001:0006c99c       ??0CPropertyPage@@QAE@XZ   5f86d99c f
 0001:0006c9e5       ?CommonConstruct@CPropertyPage@@IAEXPBGI@Z 5f86d9e5 f
 0001:0006ca83       ?Cleanup@CPropertyPage@@IAEXXZ 5f86da83 f
 0001:0006cab4       ?_AfxChangePropPageFont@@YGPAUDLGTEMPLATE@@PBU1@H@Z 5f86dab4 f
 0001:0006cb99       ?InitDialogInfo@CPropertyPage@@IAEPBUDLGTEMPLATE@@PBU2@@Z 5f86db99 f
 0001:0006cbca       ?PreProcessPageTemplate@CPropertyPage@@IAEXAAU_PROPSHEETPAGEW@@H@Z 5f86dbca f
 0001:0006cc51       ?CancelToClose@CPropertyPage@@QAEXXZ 5f86dc51 f
 0001:0006cc73       ?SetModified@CPropertyPage@@QAEXH@Z 5f86dc73 f
 0001:0006ccaf       ?QuerySiblings@CPropertyPage@@QAEJIJ@Z 5f86dcaf f
 0001:0006ccd7       ?OnApply@CPropertyPage@@UAEHXZ 5f86dcd7 f
 0001:0006cce3       ?OnReset@CPropertyPage@@UAEXXZ 5f86dce3 f
 0001:0006cceb       ?OnSetActive@CPropertyPage@@UAEHXZ 5f86dceb f
 0001:0006cd05       ?OnKillActive@CPropertyPage@@UAEHXZ 5f86dd05 f
 0001:0006cd13       ?OnQueryCancel@CPropertyPage@@UAEHXZ 5f86dd13 f
 0001:0006cd17       ?MapWizardResult@CPropertyPage@@IAEJJ@Z 5f86dd17 f
 0001:0006cd91       ?IsButtonEnabled@CPropertyPage@@IAEHH@Z 5f86dd91 f
 0001:0006cdb3       ?OnNotify@CPropertyPage@@MAEHIJPAJ@Z 5f86ddb3 f
 0001:0006cf2b       ?PreTranslateMessage@CPropertyPage@@MAEHPAUtagMSG@@@Z 5f86df2b f
 0001:0006cf39       ?OnCtlColor@CPropertyPage@@IAEPAUHBRUSH__@@PAVCDC@@PAVCWnd@@I@Z 5f86df39 f
 0001:0006cfaa       ?EndDialog@CPropertyPage@@QAEXH@Z 5f86dfaa f
 0001:0006cfd8       ?GetMessageMap@CPropertySheet@@MBEPBUAFX_MSGMAP@@XZ 5f86dfd8 f
 0001:0006cfde       ?GetPropSheetHeader@CPropertySheet@@QAEPAU_AFX_OLDPROPSHEETHEADER@@XZ 5f86dfde f
 0001:0006cffe       ?OnSetDefID@CPropertySheet@@IAEJIJ@Z 5f86dffe f
 0001:0006d0cc       ??0CPropertySheet@@QAE@XZ  5f86e0cc f
 0001:0006d11e       ??_GCPropertySheet@@UAEPAXI@Z 5f86e11e f
 0001:0006d11e       ??_ECPropertySheet@@UAEPAXI@Z 5f86e11e f
 0001:0006d13a       ??0CPropertySheet@@QAE@IPAVCWnd@@I@Z 5f86e13a f
 0001:0006d19e       ??0CPropertySheet@@QAE@PBGPAVCWnd@@I@Z 5f86e19e f
 0001:0006d202       ?Construct@CPropertySheet@@QAEXIPAVCWnd@@I@Z 5f86e202 f
 0001:0006d224       ?Construct@CPropertySheet@@QAEXPBGPAVCWnd@@I@Z 5f86e224 f
 0001:0006d246       ?CommonConstruct@CPropertySheet@@QAEXPAVCWnd@@I@Z 5f86e246 f
 0001:0006d2a1       ?EnableStackedTabs@CPropertySheet@@QAEXH@Z 5f86e2a1 f
 0001:0006d2ae       ?SetTitle@CPropertySheet@@QAEXPBGI@Z 5f86e2ae f
 0001:0006d2fa       ?PreTranslateMessage@CPropertySheet@@UAEHPAUtagMSG@@@Z 5f86e2fa f
 0001:0006d35b       ?OnCmdMsg@CPropertySheet@@UAEHIHPAXPAUAFX_CMDHANDLERINFO@@@Z 5f86e35b f
 0001:0006d3e0       ?GetActivePage@CPropertySheet@@QBEPAVCPropertyPage@@XZ 5f86e3e0 f
 0001:0006d411       ?ContinueModal@CPropertySheet@@UAEHXZ 5f86e411 f
 0001:0006d433       ?DoModal@CPropertySheet@@UAEHXZ 5f86e433 f
 0001:0006d5a7       ?AfxPropSheetCallback@@YGHPAUHWND__@@IJ@Z 5f86e5a7 f
 0001:0006d5fe       ?Create@CPropertySheet@@QAEHPAVCWnd@@KK@Z 5f86e5fe f
 0001:0006d6bd       ?BuildPropPageArray@CPropertySheet@@UAEXXZ 5f86e6bd f
 0001:0006d734       ?GetPageCount@CPropertySheet@@QBEHXZ 5f86e734 f
 0001:0006d756       ?GetActiveIndex@CPropertySheet@@QBEHXZ 5f86e756 f
 0001:0006d77d       ?SetActivePage@CPropertySheet@@QAEHH@Z 5f86e77d f
 0001:0006d7aa       ?GetPageIndex@CPropertySheet@@QAEHPAVCPropertyPage@@@Z 5f86e7aa f
 0001:0006d7dd       ?SetActivePage@CPropertySheet@@QAEHPAVCPropertyPage@@@Z 5f86e7dd f
 0001:0006d7f5       ?AddPage@CPropertySheet@@QAEXPAVCPropertyPage@@@Z 5f86e7f5 f
 0001:0006d8b7       ?RemovePage@CPropertySheet@@QAEXPAVCPropertyPage@@@Z 5f86e8b7 f
 0001:0006d8cf       ?RemovePage@CPropertySheet@@QAEXH@Z 5f86e8cf f
 0001:0006d8fd       ?EndDialog@CPropertySheet@@QAEXH@Z 5f86e8fd f
 0001:0006d931       ?OnClose@CPropertySheet@@IAEXXZ 5f86e931 f
 0001:0006d94a       ?OnSysCommand@CPropertySheet@@IAEXIJ@Z 5f86e94a f
 0001:0006d982       ?OnInitDialog@CPropertySheet@@UAEHXZ 5f86e982 f
 0001:0006db5d       ?OnNcCreate@CPropertySheet@@IAEHPAUtagCREATESTRUCTW@@@Z 5f86eb5d f
 0001:0006db79       ?HandleInitDialog@CPropertySheet@@IAEJIJ@Z 5f86eb79 f
 0001:0006db84       ?OnCommand@CPropertySheet@@UAEHIJ@Z 5f86eb84 f
 0001:0006dbf5       ?OnCommandHelp@CPropertySheet@@IAEJIJ@Z 5f86ebf5 f
 0001:0006dc13       ?OnCtlColor@CPropertySheet@@IAEPAUHBRUSH__@@PAVCDC@@PAVCWnd@@I@Z 5f86ec13 f
 0001:0006dc84       ??0CPropertyPageEx@@QAE@IIII@Z 5f86ec84 f
 0001:0006dce8       ??_ECPropertyPageEx@@UAEPAXI@Z 5f86ece8 f
 0001:0006dce8       ??_GCPropertyPageEx@@UAEPAXI@Z 5f86ece8 f
 0001:0006dd04       ??1CPropertyPageEx@@UAE@XZ 5f86ed04 f
 0001:0006dd4e       ??0CPropertyPageEx@@QAE@PBGIII@Z 5f86ed4e f
 0001:0006ddb0       ?Construct@CPropertyPageEx@@QAEXIIII@Z 5f86edb0 f
 0001:0006ddca       ?Construct@CPropertyPageEx@@QAEXPBGIII@Z 5f86edca f
 0001:0006dde2       ??0CPropertyPageEx@@QAE@XZ 5f86ede2 f
 0001:0006de3d       ?CommonConstruct@CPropertyPageEx@@IAEXPBGIII@Z 5f86ee3d f
 0001:0006df04       ??0CPropertySheetEx@@QAE@XZ 5f86ef04 f
 0001:0006df40       ??_GCPropertySheetEx@@UAEPAXI@Z 5f86ef40 f
 0001:0006df40       ??_ECPropertySheetEx@@UAEPAXI@Z 5f86ef40 f
 0001:0006df5c       ??0CPropertySheetEx@@QAE@IPAVCWnd@@IPAUHBITMAP__@@PAUHPALETTE__@@1@Z 5f86ef5c f
 0001:0006dfae       ??0CPropertySheetEx@@QAE@PBGPAVCWnd@@IPAUHBITMAP__@@PAUHPALETTE__@@2@Z 5f86efae f
 0001:0006e000       ?Construct@CPropertySheetEx@@QAEXIPAVCWnd@@IPAUHBITMAP__@@PAUHPALETTE__@@1@Z 5f86f000 f
 0001:0006e02c       ?Construct@CPropertySheetEx@@QAEXPBGPAVCWnd@@IPAUHBITMAP__@@PAUHPALETTE__@@2@Z 5f86f02c f
 0001:0006e058       ?CommonConstruct@CPropertySheetEx@@QAEXPAVCWnd@@IPAUHBITMAP__@@PAUHPALETTE__@@1@Z 5f86f058 f
 0001:0006e103       ?BuildPropPageArray@CPropertySheetEx@@UAEXXZ 5f86f103 f
 0001:0006e1d3       ??1CPropertySheetEx@@UAE@XZ 5f86f1d3 f
 0001:0006e212       ?AddPage@CPropertySheetEx@@QAEXPAVCPropertyPageEx@@@Z 5f86f212 f
 0001:0006e305       ?DPtoHIMETRIC@CDC@@QBEXPAUtagSIZE@@@Z 5f86f305 f
 0001:0006e393       ?HIMETRICtoDP@CDC@@QBEXPAUtagSIZE@@@Z 5f86f393 f
 0001:0006e421       ?LPtoHIMETRIC@CDC@@QBEXPAUtagSIZE@@@Z 5f86f421 f
 0001:0006e43c       ?HIMETRICtoLP@CDC@@QBEXPAUtagSIZE@@@Z 5f86f43c f
 0001:0006e457       ?GetHalftoneBrush@CDC@@SGPAVCBrush@@XZ 5f86f457 f
 0001:0006e4ca       ?DrawDragRect@CDC@@QAEXPBUtagRECT@@UtagSIZE@@01PAVCBrush@@2@Z 5f86f4ca f
 0001:0006e7df       ?CreatePointFont@CFont@@QAEHHPBGPAVCDC@@@Z 5f86f7df f
 0001:0006e824       ?CreatePointFontIndirect@CFont@@QAEHPBUtagLOGFONTW@@PAVCDC@@@Z 5f86f824 f
 0001:0006e8c9       ?NormalizeRect@CRect@@QAEXXZ 5f86f8c9 f
 0001:0006e8e8       ?InflateRect@CRect@@QAEXPBUtagRECT@@@Z 5f86f8e8 f
 0001:0006e905       ?InflateRect@CRect@@QAEXHHHH@Z 5f86f905 f
 0001:0006e923       ?DeflateRect@CRect@@QAEXPBUtagRECT@@@Z 5f86f923 f
 0001:0006e940       ?DeflateRect@CRect@@QAEXHHHH@Z 5f86f940 f
 0001:0006e95e       ?MulDiv@CRect@@QBE?AV1@HH@Z 5f86f95e f
 0001:0006e9bd       ?GetMessageMap@CEditView@@MBEPBUAFX_MSGMAP@@XZ 5f86f9bd f
 0001:0006e9c3       ??_E_AFX_EDIT_STATE@@UAEPAXI@Z 5f86f9c3 f
 0001:0006e9c3       ??_G_AFX_EDIT_STATE@@UAEPAXI@Z 5f86f9c3 f
 0001:0006e9de       ??0CEditView@@QAE@XZ       5f86f9de f
 0001:0006ea31       ??_ECEditView@@UAEPAXI@Z   5f86fa31 f
 0001:0006ea31       ??_GCEditView@@UAEPAXI@Z   5f86fa31 f
 0001:0006ea4d       ??1CEditView@@UAE@XZ       5f86fa4d f
 0001:0006eaa7       ?PreCreateWindow@CEditView@@MAEHAAUtagCREATESTRUCTW@@@Z 5f86faa7 f
 0001:0006eaba       ?OnCreate@CEditView@@IAEHPAUtagCREATESTRUCTW@@@Z 5f86faba f
 0001:0006eb9e       ?OnDestroy@CEditView@@IAEXXZ 5f86fb9e f
 0001:0006ebbd       ?CalcWindowRect@CEditView@@MAEXPAUtagRECT@@I@Z 5f86fbbd f
 0001:0006ec19       ?DeleteContents@CEditView@@UAEXXZ 5f86fc19 f
 0001:0006ec21       ?Serialize@CEditView@@UAEXAAVCArchive@@@Z 5f86fc21 f
 0001:0006ec79       ?ReadFromArchive@CEditView@@QAEXAAVCArchive@@I@Z 5f86fc79 f
 0001:0006ed12       ?WriteToArchive@CEditView@@QAEXAAVCArchive@@@Z 5f86fd12 f
 0001:0006ed75       ?SerializeRaw@CEditView@@QAEXAAVCArchive@@@Z 5f86fd75 f
 0001:0006edc6       ?_AfxEndOfLine@@YGIPBGII@Z 5f86fdc6 f
 0001:0006eded       ?_AfxNextLine@@YGIPBGII@Z  5f86fded f
 0001:0006ee22       ?_AfxClipLine@@YGIPAVCDC@@QAHHHPBGII@Z 5f86fe22 f
 0001:0006ef1b       ?OnPreparePrinting@CEditView@@MAEHPAUCPrintInfo@@@Z 5f86ff1b f
 0001:0006ef27       ?OnBeginPrinting@CEditView@@MAEXPAVCDC@@PAUCPrintInfo@@@Z 5f86ff27 f
 0001:0006f00a       ?PaginateTo@CEditView@@IAEHPAVCDC@@PAUCPrintInfo@@@Z 5f87000a f
 0001:0006f0dd       ?OnPrepareDC@CEditView@@UAEXPAVCDC@@PAUCPrintInfo@@@Z 5f8700dd f
 0001:0006f0ff       ?PrintInsideRect@CEditView@@QAEIPAVCDC@@AAUtagRECT@@II@Z 5f8700ff f
 0001:0006f3e6       ?OnPrint@CEditView@@MAEXPAVCDC@@PAUCPrintInfo@@@Z 5f8703e6 f
 0001:0006f47b       ?OnEndPrinting@CEditView@@MAEXPAVCDC@@PAUCPrintInfo@@@Z 5f87047b f
 0001:0006f4a7       ?OnUpdateNeedSel@CEditView@@IAEXPAVCCmdUI@@@Z 5f8704a7 f
 0001:0006f4db       ?OnUpdateNeedClip@CEditView@@IAEXPAVCCmdUI@@@Z 5f8704db f
 0001:0006f4f5       ?OnUpdateNeedText@CEditView@@IAEXPAVCCmdUI@@@Z 5f8704f5 f
 0001:0006f512       ?OnUpdateNeedFind@CEditView@@IAEXPAVCCmdUI@@@Z 5f870512 f
 0001:0006f550       ?OnEditChange@CEditView@@IAEHXZ 5f870550 f
 0001:0006f55d       ?OnEditPaste@CEditView@@IAEXXZ 5f87055d f
 0001:0006f570       ?OnEditUndo@CEditView@@IAEXXZ 5f870570 f
 0001:0006f583       ?OnEditSelectAll@CEditView@@IAEXXZ 5f870583 f
 0001:0006f5ac       ?OnSetFont@CEditView@@IAEJIJ@Z 5f8705ac f
 0001:0006f5ce       ?SetPrinterFont@CEditView@@QAEXPAVCFont@@@Z 5f8705ce f
 0001:0006f5df       ?GetPrinterFont@CEditView@@QBEPAVCFont@@XZ 5f8705df f
 0001:0006f5e8       ?LockBuffer@CEditView@@QBEPBGXZ 5f8705e8 f
 0001:0006f602       ?UnlockBuffer@CEditView@@QBEXXZ 5f870602 f
 0001:0006f61c       ?GetBufferLength@CEditView@@QBEIXZ 5f87061c f
 0001:0006f63a       ?GetSelectedText@CEditView@@QBEXAAVCString@@@Z 5f87063a f
 0001:0006f6a7       ?OnEditFind@CEditView@@IAEXXZ 5f8706a7 f
 0001:0006f6af       ?OnEditReplace@CEditView@@IAEXXZ 5f8706af f
 0001:0006f6b7       ?OnEditRepeat@CEditView@@IAEXXZ 5f8706b7 f
 0001:0006f6f1       ?OnEditFindReplace@CEditView@@IAEXH@Z 5f8706f1 f
 0001:0006f829       ?OnFindNext@CEditView@@MAEXPBGHH@Z 5f870829 f
 0001:0006f87d       ?OnReplaceSel@CEditView@@MAEXPBGHH0@Z 5f87087d f
 0001:0006f8f4       ?OnReplaceAll@CEditView@@MAEXPBG0H@Z 5f8708f4 f
 0001:0006f97e       ?InitializeReplace@CEditView@@IAEHXZ 5f87097e f
 0001:0006f9fa       ?OnFindReplaceCmd@CEditView@@IAEJIJ@Z 5f8709fa f
 0001:0006fb3a       ?SameAsSelected@CEditView@@IAEHPBGH@Z 5f870b3a f
 0001:0006fbd4       ?FindTextW@CEditView@@QAEHPBGHH@Z 5f870bd4 f
 0001:0006fd91       ?OnTextNotFound@CEditView@@MAEXPBG@Z 5f870d91 f
 0001:0006fd9c       ?SetTabStops@CEditView@@QAEXH@Z 5f870d9c f
 0001:0006fdca       ?GetMessageMap@CListView@@MBEPBUAFX_MSGMAP@@XZ 5f870dca f
 0001:0006fdd0       ?OnChildNotify@CListView@@MAEHIIJPAJ@Z 5f870dd0 f
 0001:0006fdfe       ?RemoveImageList@CListView@@IAEXH@Z 5f870dfe f
 0001:0006fe37       ?OnNcDestroy@CListView@@QAEXXZ 5f870e37 f
 0001:0006fe5c       ?GetMessageMap@CTreeView@@MBEPBUAFX_MSGMAP@@XZ 5f870e5c f
 0001:0006fe62       ?PreCreateWindow@CTreeView@@UAEHAAUtagCREATESTRUCTW@@@Z 5f870e62 f
 0001:0006fe6e       ?RemoveImageList@CTreeView@@IAEXH@Z 5f870e6e f
 0001:0006fea7       ?OnDestroy@CTreeView@@QAEXXZ 5f870ea7 f
 0001:0006ff10       ??0CReObject@@QAE@XZ       5f870f10 f
 0001:0006ff2d       ??0CReObject@@QAE@PAVCRichEditCntrItem@@@Z 5f870f2d f
 0001:0006ff92       ?GetMessageMap@CRichEditView@@MBEPBUAFX_MSGMAP@@XZ 5f870f92 f
 0001:0006ff98       ??1CRichEditView@@UAE@XZ   5f870f98 f
 0001:000700d6       ?PrintInsideRect@CRichEditView@@QAEJPAVCDC@@AAUtagRECT@@JJH@Z 5f8710d6 f
 0001:000701ab       ?_GetBaseInterfaceMap@CRichEditView@@KGPBUAFX_INTERFACEMAP@@XZ 5f8711ab f
 0001:000701b1       ?GetInterfaceMap@CRichEditView@@MBEPBUAFX_INTERFACEMAP@@XZ 5f8711b1 f
 0001:000701b7       ?QueryInterface@XRichEditOleCallback@CRichEditView@@UAGJABU_GUID@@PAPAX@Z 5f8711b7 f
 0001:000701d1       ?GetNewStorage@XRichEditOleCallback@CRichEditView@@UAGJPAPAUIStorage@@@Z 5f8711d1 f
 0001:00070245       ?GetInPlaceContext@XRichEditOleCallback@CRichEditView@@UAGJPAPAUIOleInPlaceFrame@@PAPAUIOleInPlaceUIWindow@@PAUtagOIFI@@@Z 5f871245 f
 0001:00070295       ?ShowContainerUI@XRichEditOleCallback@CRichEditView@@UAGJH@Z 5f871295 f
 0001:000702df       ?QueryInsertObject@XRichEditOleCallback@CRichEditView@@UAGJPAU_GUID@@PAUIStorage@@J@Z 5f8712df f
 0001:00070316       ?DeleteObject@XRichEditOleCallback@CRichEditView@@UAGJPAUIOleObject@@@Z 5f871316 f
 0001:0007032f       ?QueryAcceptData@XRichEditOleCallback@CRichEditView@@UAGJPAUIDataObject@@PAGKHPAX@Z 5f87132f f
 0001:00070388       ?ContextSensitiveHelp@XRichEditOleCallback@CRichEditView@@UAGJH@Z 5f871388 f
 0001:00070390       ?GetClipboardData@XRichEditOleCallback@CRichEditView@@UAGJPAU_charrange@@KPAPAUIDataObject@@@Z 5f871390 f
 0001:00070426       ?GetDragDropEffect@XRichEditOleCallback@CRichEditView@@UAGJHKPAK@Z 5f871426 f
 0001:0007045d       ?GetContextMenu@XRichEditOleCallback@CRichEditView@@UAGJGPAUIOleObject@@PAU_charrange@@PAPAUHMENU__@@@Z 5f87145d f
 0001:000704c2       ?OnCharEffect@CRichEditView@@QAEXKK@Z 5f8714c2 f
 0001:00070515       ?OnParaAlign@CRichEditView@@QAEXG@Z 5f871515 f
 0001:0007054d       ?OnUpdateNeedFind@CRichEditView@@IAEXPAVCCmdUI@@@Z 5f87154d f
 0001:00070593       ?OnEditCut@CRichEditView@@IAEXXZ 5f871593 f
 0001:000705a6       ?OnEditCopy@CRichEditView@@IAEXXZ 5f8715a6 f
 0001:000705b9       ?OnEditPaste@CRichEditView@@IAEXXZ 5f8715b9 f
 0001:000705cf       ?OnEditClear@CRichEditView@@IAEXXZ 5f8715cf f
 0001:000705e2       ?OnEditUndo@CRichEditView@@IAEXXZ 5f8715e2 f
 0001:00070608       ?OnEditSelectAll@CRichEditView@@IAEXXZ 5f871608 f
 0001:00070612       ?OnEditFind@CRichEditView@@IAEXXZ 5f871612 f
 0001:0007061a       ?OnEditReplace@CRichEditView@@IAEXXZ 5f87161a f
 0001:00070622       ?OnEditRepeat@CRichEditView@@IAEXXZ 5f871622 f
 0001:00070650       ?OnInsertObject@CRichEditView@@IAEXXZ 5f871650 f
 0001:0007076d       ?OnEditProperties@CRichEditView@@IAEXXZ 5f87176d f
 0001:000707fd       ?OnUpdateEditProperties@CRichEditView@@IAEXPAVCCmdUI@@@Z 5f8717fd f
 0001:0007081a       ?OnCharBold@CRichEditView@@IAEXXZ 5f87181a f
 0001:00070824       ?OnCharItalic@CRichEditView@@IAEXXZ 5f871824 f
 0001:0007082e       ?OnCharUnderline@CRichEditView@@IAEXXZ 5f87182e f
 0001:00070838       ?OnParaCenter@CRichEditView@@IAEXXZ 5f871838 f
 0001:00070840       ?OnParaLeft@CRichEditView@@IAEXXZ 5f871840 f
 0001:00070848       ?OnParaRight@CRichEditView@@IAEXXZ 5f871848 f
 0001:00070850       ?OnBullet@CRichEditView@@IAEXXZ 5f871850 f
 0001:000708cb       ?OnFormatFont@CRichEditView@@IAEXXZ 5f8718cb f
 0001:0007094e       ?OnColorPick@CRichEditView@@IAEXK@Z 5f87194e f
 0001:00070990       ?OnColorDefault@CRichEditView@@IAEXXZ 5f871990 f
 0001:000709c6       ?OnEditPasteSpecial@CRichEditView@@IAEXXZ 5f8719c6 f
 0001:00070b2e       ?OnDropFiles@CRichEditView@@IAEXPAUHDROP__@@@Z 5f871b2e f
 0001:00070bf7       ?OnDevModeChange@CRichEditView@@IAEXPAG@Z 5f871bf7 f
 0001:00070c4f       ?IsRichEditFormat@CRichEditView@@SAHG@Z 5f871c4f f
 0001:00070cfe       ?SetCharFormat@CRichEditView@@QAEXU_charformat@@@Z 5f871cfe f
 0001:00070d51       ?SetParaFormat@CRichEditView@@QAEHAAU_paraformat@@@Z 5f871d51 f
 0001:00070da9       ?GetSelectedItem@CRichEditView@@QBEPAVCRichEditCntrItem@@XZ 5f871da9 f
 0001:00070e1d       ?GetInPlaceActiveItem@CRichEditView@@QBEPAVCRichEditCntrItem@@XZ 5f871e1d f
 0001:00070e97       ?InsertItem@CRichEditView@@QAEJPAVCRichEditCntrItem@@@Z 5f871e97 f
 0001:00070f17       ?InsertFileAsObject@CRichEditView@@QAEXPBG@Z 5f871f17 f
 0001:00070fe7       ?DoPaste@CRichEditView@@QAEXAAVCOleDataObject@@GPAX@Z 5f871fe7 f
 0001:000711e4       ?GetContextMenu@CRichEditView@@MAEPAUHMENU__@@GPAUIOleObject@@PAU_charrange@@@Z 5f8721e4 f
 0001:000711e9       ?GetClipboardData@CRichEditView@@MAEJPAU_charrange@@KPAUIDataObject@@PAPAU3@@Z 5f8721e9 f
 0001:000711f1       ?QueryAcceptData@CRichEditView@@MAEJPAUIDataObject@@PAGKHPAX@Z 5f8721f1 f
 0001:000712bd       ?GetWindowContext@CRichEditView@@QAEJPAPAUIOleInPlaceFrame@@PAPAUIOleInPlaceUIWindow@@PAUtagOIFI@@@Z 5f8722bd f
 0001:000712f2       ?ShowContainerUI@CRichEditView@@QAEJH@Z 5f8722f2 f
 0001:0007132e       ?AdjustDialogPosition@CRichEditView@@QAEXPAVCDialog@@@Z 5f87232e f
 0001:000713f8       ?OnEditFindReplace@CRichEditView@@IAEXH@Z 5f8723f8 f
 0001:0007154a       ?OnFindNext@CRichEditView@@MAEXPBGHHH@Z 5f87254a f
 0001:000715aa       ?OnReplaceSel@CRichEditView@@MAEXPBGHHH0@Z 5f8725aa f
 0001:0007165b       ?OnReplaceAll@CRichEditView@@MAEXPBG0HH@Z 5f87265b f
 0001:00071750       ?OnFindReplaceCmd@CRichEditView@@IAEJIJ@Z 5f872750 f
 0001:000718b0       ?SameAsSelected@CRichEditView@@IAEHPBGHH@Z 5f8728b0 f
 0001:0007191f       ?FindTextW@CRichEditView@@QAEHPAV_AFX_RICHEDIT_STATE@@@Z 5f87291f f
 0001:00071935       ?FindTextW@CRichEditView@@QAEHPBGHH@Z 5f872935 f
 0001:00071987       ?FindTextSimple@CRichEditView@@QAEHPAV_AFX_RICHEDIT_STATE@@@Z 5f872987 f
 0001:0007199d       ?FindTextSimple@CRichEditView@@QAEHPBGHH@Z 5f87299d f
 0001:00071ab3       ?FindAndSelect@CRichEditView@@QAEJKAAU_findtextexa@@@Z 5f872ab3 f
 0001:00071af4       ?TextNotFound@CRichEditView@@QAEXPBG@Z 5f872af4 f
 0001:00071b0a       ?OnTextNotFound@CRichEditView@@MAEXPBG@Z 5f872b0a f
 0001:00071b15       ?IsSelected@CRichEditView@@MBEHPBVCObject@@@Z 5f872b15 f
 0001:00071b28       ??_GCRichEditDoc@@UAEPAXI@Z 5f872b28 f
 0001:00071b28       ??_ECRichEditDoc@@UAEPAXI@Z 5f872b28 f
 0001:00071b44       ??1CRichEditDoc@@UAE@XZ    5f872b44 f
 0001:00071b57       ?GetInPlaceActiveItem@CRichEditDoc@@UAEPAVCOleClientItem@@PAVCWnd@@@Z 5f872b57 f
 0001:00071b72       ?LookupItem@CRichEditDoc@@QBEPAVCRichEditCntrItem@@PAUIOleObject@@@Z 5f872b72 f
 0001:00071bbd       ?CreateClientItem@CRichEditDoc@@UBEPAVCRichEditCntrItem@@PAU_reobject@@@Z 5f872bbd f
 0001:00071bfc       ?MarkItemsClear@CRichEditDoc@@IBEXXZ 5f872bfc f
 0001:00071c42       ?DeleteUnmarkedItems@CRichEditDoc@@IBEXXZ 5f872c42 f
 0001:00071ca3       ?UpdateObjectCache@CRichEditDoc@@IAEXXZ 5f872ca3 f
 0001:00071d66       ?GetPrimarySelectedItem@CRichEditDoc@@UAEPAVCOleClientItem@@PAVCView@@@Z 5f872d66 f
 0001:00071dc1       ?OnGetEmbeddedItem@CRichEditDoc@@MAEPAVCOleServerItem@@XZ 5f872dc1 f
 0001:00071dc4       ??0CRichEditCntrItem@@QAE@PAU_reobject@@PAVCRichEditDoc@@@Z 5f872dc4 f
 0001:00071e41       ??1CRichEditCntrItem@@UAE@XZ 5f872e41 f
 0001:00071e81       ?OnDeactivateUI@CRichEditCntrItem@@UAEXH@Z 5f872e81 f
 0001:00071eb4       ?ShowContainerUI@CRichEditCntrItem@@QAEJH@Z 5f872eb4 f
 0001:00071f01       ?OnChangeItemPosition@CRichEditCntrItem@@MAEHABVCRect@@@Z 5f872f01 f
 0001:00071f06       ?CanActivate@CRichEditCntrItem@@UAEHXZ 5f872f06 f
 0001:00071f32       ?GetWindowContext@CRichEditCntrItem@@QAEJPAPAUIOleInPlaceFrame@@PAPAUIOleInPlaceUIWindow@@PAUtagOIFI@@@Z 5f872f32 f
 0001:00071f6e       ?ConvertTo@CRichEditCntrItem@@UAEHABU_GUID@@@Z 5f872f6e f
 0001:00071ff8       ?ActivateAs@CRichEditCntrItem@@UAEHPBGABU_GUID@@1@Z 5f872ff8 f
 0001:00072020       ?SetDrawAspect@CRichEditCntrItem@@UAEXW4tagDVASPECT@@@Z 5f873020 f
 0001:0007204c       ?SyncToRichEditObject@CRichEditCntrItem@@QAEXAAU_reobject@@@Z 5f87304c f
 0001:0007205b       ?GetClientSite@CRichEditCntrItem@@UAEPAUIOleClientSite@@XZ 5f87305b f
 0001:000720a3       ?OutputString@CDumpContext@@IAEXPBG@Z 5f8730a3 f
 0001:000720d8       ??0CDumpContext@@QAE@PAVCFile@@@Z 5f8730d8 f
 0001:000720e7       ?Flush@CDumpContext@@QAEXXZ 5f8730e7 f
 0001:000720f4       ??6CDumpContext@@QAEAAV0@PBG@Z 5f8730f4 f
 0001:0007218a       ??6CDumpContext@@QAEAAV0@E@Z 5f87318a f
 0001:000721bc       ??6CDumpContext@@QAEAAV0@G@Z 5f8731bc f
 0001:000721ee       ??6CDumpContext@@QAEAAV0@I@Z 5f8731ee f
 0001:0007221e       ??6CDumpContext@@QAEAAV0@J@Z 5f87321e f
 0001:0007224e       ??6CDumpContext@@QAEAAV0@K@Z 5f87324e f
 0001:0007227e       ??6CDumpContext@@QAEAAV0@H@Z 5f87327e f
 0001:000722ae       ??6CDumpContext@@QAEAAV0@PBVCObject@@@Z 5f8732ae f
 0001:000722d3       ??6CDumpContext@@QAEAAV0@ABVCObject@@@Z 5f8732d3 f
 0001:000722df       ??6CDumpContext@@QAEAAV0@PBX@Z 5f8732df f
 0001:0007230f       ?HexDump@CDumpContext@@QAEXPBGPAEHH@Z 5f87330f f
 0001:000723a2       ??6CDumpContext@@QAEAAV0@PBD@Z 5f8733a2 f
 0001:000723ec       ??1CIPAddressCtrl@@UAE@XZ  5f8733ec f
 0001:00072424       ?Create@CIPAddressCtrl@@QAEHKABUtagRECT@@PAVCWnd@@I@Z 5f873424 f
 0001:00072455       ?GetAddress@CIPAddressCtrl@@QAEHAAE000@Z 5f873455 f
 0001:00072499       ?_AfxParseURLWorker@@YGHPBGPAUURL_COMPONENTSW@@AAKAAGK@Z 5f873499 f
 0001:000725d1       ?AfxParseURLEx@@YGHPBGAAKAAVCString@@2AAG22K@Z 5f8735d1 f
 0001:0007269e       ?AfxParseURL@@YGHPBGAAKAAVCString@@2AAG@Z 5f87369e f
 0001:0007272c       ?AfxGetInternetHandleType@@YGKPAX@Z 5f87372c f
 0001:00072760       ?_AfxQueryCStringInternetOption@@YGHPAXKAAVCString@@@Z 5f873760 f
 0001:000727c8       ?AfxInternetStatusCallback@@YGXPAXKK0K@Z 5f8737c8 f
 0001:000727f8       ?Lookup@CSessionMapPtrToPtr@@QAEHPAXAAPAVCInternetSession@@@Z 5f8737f8 f
 0001:00072826       ??1CInternetSession@@UAE@XZ 5f873826 f
 0001:00072859       ??0CInternetSession@@QAE@PBGKK00K@Z 5f873859 f
 0001:000728d3       ?SetAt@CSessionMapPtrToPtr@@QAEXPAXPAVCInternetSession@@@Z 5f8738d3 f
 0001:000728fe       ?Close@CInternetSession@@UAEXXZ 5f8738fe f
 0001:0007292f       ?RemoveKey@CSessionMapPtrToPtr@@QAEXPAX@Z 5f87392f f
 0001:00072954       ?GetGopherConnection@CInternetSession@@QAEPAVCGopherConnection@@PBG00G@Z 5f873954 f
 0001:0007299c       ?GetFtpConnection@CInternetSession@@QAEPAVCFtpConnection@@PBG00GH@Z 5f87399c f
 0001:000729e7       ?GetHttpConnection@CInternetSession@@QAEPAVCHttpConnection@@PBGG00@Z 5f8739e7 f
 0001:00072a2f       ?GetHttpConnection@CInternetSession@@QAEPAVCHttpConnection@@PBGKG00@Z 5f873a2f f
 0001:00072a7a       ?OpenURL@CInternetSession@@QAEPAVCStdioFile@@PBGKK0K@Z 5f873a7a f
 0001:00072c40       ?SetOption@CInternetSession@@QAEHKPAXKK@Z 5f873c40 f
 0001:00072c5c       ?QueryOption@CInternetSession@@QBEHKPAXPAK@Z 5f873c5c f
 0001:00072c74       ?QueryOption@CInternetSession@@QBEHKAAK@Z 5f873c74 f
 0001:00072c96       ?QueryOption@CInternetSession@@QBEHKAAVCString@@@Z 5f873c96 f
 0001:00072ca9       ?OnStatusCallback@CInternetSession@@UAEXKKPAXK@Z 5f873ca9 f
 0001:00072cc8       ?EnableStatusCallback@CInternetSession@@QAEHH@Z 5f873cc8 f
 0001:00072d24       ?SetCookie@CInternetSession@@SAHPBDPBG1@Z 5f873d24 f
 0001:00072d37       ?GetCookie@CInternetSession@@SAHPBDPBGPAGK@Z 5f873d37 f
 0001:00072d4f       ?GetCookieLength@CInternetSession@@SAKPBDPBG@Z 5f873d4f f
 0001:00072d70       ?GetCookie@CInternetSession@@SAHPBDPBGAAVCString@@@Z 5f873d70 f
 0001:00072dbe       ??0CInternetFile@@IAE@PAX0PBG1KH@Z 5f873dbe f
 0001:00072e3e       ??_GCInternetFile@@UAEPAXI@Z 5f873e3e f
 0001:00072e3e       ??_ECInternetFile@@UAEPAXI@Z 5f873e3e f
 0001:00072e5a       ??0CInternetFile@@IAE@PAXPBGPAVCInternetConnection@@H@Z 5f873e5a f
 0001:00072f05       ?QueryOption@CInternetFile@@QBEHKPAXPAK@Z 5f873f05 f
 0001:00072f1d       ?QueryOption@CInternetFile@@QBEHKAAK@Z 5f873f1d f
 0001:00072f3f       ?QueryOption@CInternetFile@@QBEHKAAVCString@@@Z 5f873f3f f
 0001:00072f52       ?SetOption@CInternetFile@@QAEHKPAXKK@Z 5f873f52 f
 0001:00072f6e       ?SetReadBufferSize@CInternetFile@@QAEHI@Z 5f873f6e f
 0001:0007300e       ?SetWriteBufferSize@CInternetFile@@QAEHI@Z 5f87400e f
 0001:00073076       ?Seek@CInternetFile@@UAEJJI@Z 5f874076 f
 0001:000730e2       ?Abort@CInternetFile@@UAEXXZ 5f8740e2 f
 0001:000730fa       ?Flush@CInternetFile@@UAEXXZ 5f8740fa f
 0001:00073144       ?Read@CInternetFile@@UAEIPAXI@Z 5f874144 f
 0001:0007326b       ?Write@CInternetFile@@UAEXPBXI@Z 5f87426b f
 0001:00073328       ?WriteString@CInternetFile@@UAEXPBG@Z 5f874328 f
 0001:00073357       ?ReadString@CInternetFile@@UAEPAGPAGI@Z 5f874357 f
 0001:00073422       ?ReadString@CInternetFile@@UAEHAAVCString@@@Z 5f874422 f
 0001:000734cc       ?GetLength@CInternetFile@@UBEKXZ 5f8744cc f
 0001:000734f6       ?Duplicate@CInternetFile@@UBEPAVCFile@@XZ 5f8744f6 f
 0001:000734fe       ??0CInternetConnection@@QAE@PAVCInternetSession@@PBGGK@Z 5f8744fe f
 0001:0007355b       ??_GCInternetConnection@@UAEPAXI@Z 5f87455b f
 0001:0007355b       ??_ECInternetConnection@@UAEPAXI@Z 5f87455b f
 0001:00073577       ?SetOption@CInternetConnection@@QAEHKPAXKK@Z 5f874577 f
 0001:00073593       ?QueryOption@CInternetConnection@@QBEHKPAXPAK@Z 5f874593 f
 0001:000735ab       ?QueryOption@CInternetConnection@@QBEHKAAK@Z 5f8745ab f
 0001:000735cd       ?QueryOption@CInternetConnection@@QBEHKAAVCString@@@Z 5f8745cd f
 0001:000735e0       ??1CFtpConnection@@UAE@XZ  5f8745e0 f
 0001:0007361b       ??_GCFtpConnection@@UAEPAXI@Z 5f87461b f
 0001:0007361b       ??_ECFtpConnection@@UAEPAXI@Z 5f87461b f
 0001:00073637       ??0CFtpConnection@@QAE@PAVCInternetSession@@PAXPBGK@Z 5f874637 f
 0001:000736ce       ??0CFtpConnection@@QAE@PAVCInternetSession@@PBG11KGH@Z 5f8746ce f
 0001:00073776       ?Close@CFtpConnection@@UAEXXZ 5f874776 f
 0001:00073776       ?Close@CInternetConnection@@MAEXXZ 5f874776 f
 0001:0007379a       ?Remove@CFtpConnection@@QAEHPBG@Z 5f87479a f
 0001:000737aa       ?Rename@CFtpConnection@@QAEHPBG0@Z 5f8747aa f
 0001:000737be       ?CreateDirectoryW@CFtpConnection@@QAEHPBG@Z 5f8747be f
 0001:000737ce       ?RemoveDirectoryW@CFtpConnection@@QAEHPBG@Z 5f8747ce f
 0001:000737de       ?SetCurrentDirectoryW@CFtpConnection@@QAEHPBG@Z 5f8747de f
 0001:000737ee       ?GetCurrentDirectoryW@CFtpConnection@@QBEHPAGPAK@Z 5f8747ee f
 0001:00073802       ?GetCurrentDirectoryAsURL@CFtpConnection@@QBEHAAVCString@@@Z 5f874802 f
 0001:000738a3       ?GetCurrentDirectoryAsURL@CFtpConnection@@QBEHPAGPAK@Z 5f8748a3 f
 0001:00073919       ?GetCurrentDirectoryW@CFtpConnection@@QBEHAAVCString@@@Z 5f874919 f
 0001:0007395b       ?OpenFile@CFtpConnection@@QAEPAVCInternetFile@@PBGKKK@Z 5f87495b f
 0001:000739d6       ?PutFile@CFtpConnection@@QAEHPBG0KK@Z 5f8749d6 f
 0001:000739fb       ?GetFile@CFtpConnection@@QAEHPBG0HKKK@Z 5f8749fb f
 0001:00073a26       ??1CGopherConnection@@UAE@XZ 5f874a26 f
 0001:00073a2c       ??1CInternetConnection@@UAE@XZ 5f874a2c f
 0001:00073a74       ??_ECGopherConnection@@UAEPAXI@Z 5f874a74 f
 0001:00073a74       ??_GCGopherConnection@@UAEPAXI@Z 5f874a74 f
 0001:00073a90       ??0CGopherConnection@@QAE@PAVCInternetSession@@PBG11KG@Z 5f874a90 f
 0001:00073b0d       ??0CGopherConnection@@QAE@PAVCInternetSession@@PAXPBGK@Z 5f874b0d f
 0001:00073b8a       ?CreateLocator@CGopherConnection@@SA?AVCGopherLocator@@PBG@Z 5f874b8a f
 0001:00073be2       ?CreateLocator@CGopherConnection@@SA?AVCGopherLocator@@PBG00KG@Z 5f874be2 f
 0001:00073c6c       ?CreateLocator@CGopherConnection@@QAE?AVCGopherLocator@@PBG0K@Z 5f874c6c f
 0001:00073cff       ?GetAttribute@CGopherConnection@@QAEHAAVCGopherLocator@@VCString@@AAV3@@Z 5f874cff f
 0001:00073d75       ?OpenFile@CGopherConnection@@QAEPAVCGopherFile@@AAVCGopherLocator@@KPBGK@Z 5f874d75 f
 0001:00073de8       ??1CHttpConnection@@UAE@XZ 5f874de8 f
 0001:00073e23       ??_ECHttpConnection@@UAEPAXI@Z 5f874e23 f
 0001:00073e23       ??_GCHttpConnection@@UAEPAXI@Z 5f874e23 f
 0001:00073e3f       ??0CHttpConnection@@QAE@PAVCInternetSession@@PAXPBGK@Z 5f874e3f f
 0001:00073ec1       ??0CHttpConnection@@QAE@PAVCInternetSession@@PBGG11K@Z 5f874ec1 f
 0001:00073f4a       ??0CHttpConnection@@QAE@PAVCInternetSession@@PBGKG11K@Z 5f874f4a f
 0001:00073fd4       ?OpenRequest@CHttpConnection@@QAEPAVCHttpFile@@PBG00KPAPBG0K@Z 5f874fd4 f
 0001:00074050       ?OpenRequest@CHttpConnection@@QAEPAVCHttpFile@@HPBG0KPAPBG0K@Z 5f875050 f
 0001:00074089       ??0CHttpFile@@IAE@PAX0PBG11K@Z 5f875089 f
 0001:000740e5       ??_GCHttpFile@@UAEPAXI@Z   5f8750e5 f
 0001:000740e5       ??_ECHttpFile@@UAEPAXI@Z   5f8750e5 f
 0001:00074101       ??0CHttpFile@@IAE@PAXPBG1PAVCHttpConnection@@@Z 5f875101 f
 0001:00074157       ??1CHttpFile@@UAE@XZ       5f875157 f
 0001:000741a1       ?ErrorDlg@CHttpFile@@QAEKPAVCWnd@@KKPAPAX@Z 5f8751a1 f
 0001:000741e0       ?GetVerb@CHttpFile@@QBE?AVCString@@XZ 5f8751e0 f
 0001:000741fb       ?GetObjectW@CHttpFile@@QBE?AVCString@@XZ 5f8751fb f
 0001:00074216       ?GetFileURL@CHttpFile@@UBE?AVCString@@XZ 5f875216 f
 0001:000742ab       ?AddRequestHeaders@CHttpFile@@QAEHPBGKH@Z 5f8752ab f
 0001:000742de       ?AddRequestHeaders@CHttpFile@@QAEHAAVCString@@K@Z 5f8752de f
 0001:000742f4       ?SendRequest@CHttpFile@@QAEHPBGKPAXK@Z 5f8752f4 f
 0001:00074327       ?EndRequest@CHttpFile@@QAEHKPAU_INTERNET_BUFFERSW@@K@Z 5f875327 f
 0001:0007435f       ?SendRequestEx@CHttpFile@@QAEHKKK@Z 5f87535f f
 0001:000743a6       ?SendRequestEx@CHttpFile@@QAEHPAU_INTERNET_BUFFERSW@@0KK@Z 5f8753a6 f
 0001:000743e6       ?SendRequest@CHttpFile@@QAEHAAVCString@@PAXK@Z 5f8753e6 f
 0001:00074401       ?QueryInfo@CHttpFile@@QBEHKPAXPAK1@Z 5f875401 f
 0001:0007441d       ?QueryInfo@CHttpFile@@QBEHKAAKPAK@Z 5f87541d f
 0001:00074444       ?QueryInfo@CHttpFile@@QBEHKPAU_SYSTEMTIME@@PAK@Z 5f875444 f
 0001:0007446b       ?QueryInfoStatusCode@CHttpFile@@QBEHAAK@Z 5f87546b f
 0001:000744b4       ?QueryInfo@CHttpFile@@QBEHKAAVCString@@PAK@Z 5f8754b4 f
 0001:0007451f       ??0CGopherFile@@IAE@PAXAAVCGopherLocator@@PAVCGopherConnection@@@Z 5f87551f f
 0001:00074568       ??_GCGopherFile@@UAEPAXI@Z 5f875568 f
 0001:00074568       ??_ECGopherFile@@UAEPAXI@Z 5f875568 f
 0001:00074584       ??0CGopherFile@@IAE@PAX0PBGKK@Z 5f875584 f
 0001:000745d5       ??1CGopherFile@@UAE@XZ     5f8755d5 f
 0001:00074610       ?Close@CGopherFile@@UAEXXZ 5f875610 f
 0001:00074610       ?Close@CInternetFile@@UAEXXZ 5f875610 f
 0001:0007465e       ?Write@CGopherFile@@UAEXPBXI@Z 5f87565e f
 0001:00074666       ?WriteString@CGopherFile@@UAEXPBG@Z 5f875666 f
 0001:0007466e       ??0CFtpFileFind@@QAE@PAVCFtpConnection@@K@Z 5f87566e f
 0001:0007469e       ??_ECFtpFileFind@@UAEPAXI@Z 5f87569e f
 0001:0007469e       ??_GCFtpFileFind@@UAEPAXI@Z 5f87569e f
 0001:000746ba       ??1CFtpFileFind@@UAE@XZ    5f8756ba f
 0001:000746c0       ??1CFileFind@@UAE@XZ       5f8756c0 f
 0001:00074702       ?FindFile@CFtpFileFind@@UAEHPBGK@Z 5f875702 f
 0001:00074862       ?FindNextFileW@CFtpFileFind@@UAEHXZ 5f875862 f
 0001:0007489d       ?GetFileURL@CFtpFileFind@@UBE?AVCString@@XZ 5f87589d f
 0001:00074948       ??0CGopherFileFind@@QAE@PAVCGopherConnection@@K@Z 5f875948 f
 0001:00074972       ??_GCGopherFileFind@@UAEPAXI@Z 5f875972 f
 0001:00074972       ??_ECGopherFileFind@@UAEPAXI@Z 5f875972 f
 0001:0007498e       ??1CGopherFileFind@@UAE@XZ 5f87598e f
 0001:00074999       ?FindFile@CGopherFileFind@@UAEHPBGK@Z 5f875999 f
 0001:000749e8       ?FindFile@CGopherFileFind@@UAEHAAVCGopherLocator@@PBGK@Z 5f8759e8 f
 0001:00074a4c       ?FindNextFileW@CGopherFileFind@@UAEHXZ 5f875a4c f
 0001:00074a87       ?CloseContext@CGopherFileFind@@MAEXXZ 5f875a87 f
 0001:00074aa3       ?GetFileName@CGopherFileFind@@UBE?AVCString@@XZ 5f875aa3 f
 0001:00074abf       ?IsDots@CGopherFileFind@@UBEHXZ 5f875abf f
 0001:00074ac2       ?GetLastWriteTime@CGopherFileFind@@UBEHPAU_FILETIME@@@Z 5f875ac2 f
 0001:00074aec       ?GetCreationTime@CGopherFileFind@@UBEHPAU_FILETIME@@@Z 5f875aec f
 0001:00074af8       ?GetLastWriteTime@CGopherFileFind@@UBEHAAVCTime@@@Z 5f875af8 f
 0001:00074b25       ?GetCreationTime@CGopherFileFind@@UBEHAAVCTime@@@Z 5f875b25 f
 0001:00074b31       ?GetLocator@CGopherFileFind@@QBE?AVCGopherLocator@@XZ 5f875b31 f
 0001:00074b53       ?GetScreenName@CGopherFileFind@@QBE?AVCString@@XZ 5f875b53 f
 0001:00074bb3       ?GetLength@CGopherFileFind@@UBEKXZ 5f875bb3 f
 0001:00074bc4       ?GetLength64@CGopherFileFind@@UBE_JXZ 5f875bc4 f
 0001:00074bd8       ??0CGopherLocator@@AAE@PBGK@Z 5f875bd8 f
 0001:00074c3f       ?AfxThrowInternetException@@YGXKK@Z 5f875c3f f
 0001:00074c95       ?GetErrorMessage@CInternetException@@UAEHPAGIPAI@Z 5f875c95 f
 0001:00074d82       ??0CInternetException@@QAE@K@Z 5f875d82 f
 0001:00074d9d       ??_ECInternetException@@UAEPAXI@Z 5f875d9d f
 0001:00074d9d       ??_GCInternetException@@UAEPAXI@Z 5f875d9d f
 0001:00074db9       ??1CInternetException@@UAE@XZ 5f875db9 f
 0001:00074dc0       ??_GCSessionMapPtrToPtr@@UAEPAXI@Z 5f875dc0 f
 0001:00074dc0       ??_ECSessionMapPtrToPtr@@UAEPAXI@Z 5f875dc0 f
 0001:00074ddc       ?GetRuntimeClass@CMemoryException@@UBEPAUCRuntimeClass@@XZ 5f875ddc f
 0001:00074de2       ?GetRuntimeClass@CNotSupportedException@@UBEPAUCRuntimeClass@@XZ 5f875de2 f
 0001:00074de8       ?_GetBaseClass@CArchiveException@@KGPAUCRuntimeClass@@XZ 5f875de8 f
 0001:00074dee       ?GetRuntimeClass@CArchiveException@@UBEPAUCRuntimeClass@@XZ 5f875dee f
 0001:00074df4       ?_GetBaseClass@CStdioFile@@KGPAUCRuntimeClass@@XZ 5f875df4 f
 0001:00074dfa       ?GetRuntimeClass@CStdioFile@@UBEPAUCRuntimeClass@@XZ 5f875dfa f
 0001:00074e00       ?_GetBaseClass@CSharedFile@@KGPAUCRuntimeClass@@XZ 5f875e00 f
 0001:00074e06       ?GetRuntimeClass@CSharedFile@@UBEPAUCRuntimeClass@@XZ 5f875e06 f
 0001:00074e0c       ?GetRuntimeClass@CFileException@@UBEPAUCRuntimeClass@@XZ 5f875e0c f
 0001:00074e12       ?CreateObject@CByteArray@@SGPAVCObject@@XZ 5f875e12 f
 0001:00074e29       ?GetRuntimeClass@CByteArray@@UBEPAUCRuntimeClass@@XZ 5f875e29 f
 0001:00074e2f       ??5@YGAAVCArchive@@AAV0@AAPAVCByteArray@@@Z 5f875e2f f
 0001:00074e4a       ?CreateObject@CDWordArray@@SGPAVCObject@@XZ 5f875e4a f
 0001:00074e61       ?GetRuntimeClass@CDWordArray@@UBEPAUCRuntimeClass@@XZ 5f875e61 f
 0001:00074e67       ??5@YGAAVCArchive@@AAV0@AAPAVCDWordArray@@@Z 5f875e67 f
 0001:00074e82       ?GetRuntimeClass@CPtrArray@@UBEPAUCRuntimeClass@@XZ 5f875e82 f
 0001:00074e88       ?CreateObject@CObArray@@SGPAVCObject@@XZ 5f875e88 f
 0001:00074e9f       ?GetRuntimeClass@CObArray@@UBEPAUCRuntimeClass@@XZ 5f875e9f f
 0001:00074ea5       ??5@YGAAVCArchive@@AAV0@AAPAVCObArray@@@Z 5f875ea5 f
 0001:00074ec0       ?CreateObject@CStringArray@@SGPAVCObject@@XZ 5f875ec0 f
 0001:00074ed7       ?GetRuntimeClass@CStringArray@@UBEPAUCRuntimeClass@@XZ 5f875ed7 f
 0001:00074edd       ??5@YGAAVCArchive@@AAV0@AAPAVCStringArray@@@Z 5f875edd f
 0001:00074ef8       ?GetRuntimeClass@CUIntArray@@UBEPAUCRuntimeClass@@XZ 5f875ef8 f
 0001:00074efe       ?CreateObject@CWordArray@@SGPAVCObject@@XZ 5f875efe f
 0001:00074f15       ?GetRuntimeClass@CWordArray@@UBEPAUCRuntimeClass@@XZ 5f875f15 f
 0001:00074f1b       ??5@YGAAVCArchive@@AAV0@AAPAVCWordArray@@@Z 5f875f1b f
 0001:00074f36       ?CreateObject@CObList@@SGPAVCObject@@XZ 5f875f36 f
 0001:00074f4f       ?GetRuntimeClass@CObList@@UBEPAUCRuntimeClass@@XZ 5f875f4f f
 0001:00074f55       ??5@YGAAVCArchive@@AAV0@AAPAVCObList@@@Z 5f875f55 f
 0001:00074f70       ?GetRuntimeClass@CPtrList@@UBEPAUCRuntimeClass@@XZ 5f875f70 f
 0001:00074f76       ?CreateObject@CStringList@@SGPAVCObject@@XZ 5f875f76 f
 0001:00074f8f       ?GetRuntimeClass@CStringList@@UBEPAUCRuntimeClass@@XZ 5f875f8f f
 0001:00074f95       ??5@YGAAVCArchive@@AAV0@AAPAVCStringList@@@Z 5f875f95 f
 0001:00074fb0       ?GetRuntimeClass@CMapPtrToPtr@@UBEPAUCRuntimeClass@@XZ 5f875fb0 f
 0001:00074fb6       ?GetRuntimeClass@CMapPtrToWord@@UBEPAUCRuntimeClass@@XZ 5f875fb6 f
 0001:00074fbc       ?CreateObject@CMapStringToOb@@SGPAVCObject@@XZ 5f875fbc f
 0001:00074fd5       ?GetRuntimeClass@CMapStringToOb@@UBEPAUCRuntimeClass@@XZ 5f875fd5 f
 0001:00074fdb       ??5@YGAAVCArchive@@AAV0@AAPAVCMapStringToOb@@@Z 5f875fdb f
 0001:00074ff6       ?GetRuntimeClass@CMapStringToPtr@@UBEPAUCRuntimeClass@@XZ 5f875ff6 f
 0001:00074ffc       ?CreateObject@CMapStringToString@@SGPAVCObject@@XZ 5f875ffc f
 0001:00075015       ?GetRuntimeClass@CMapStringToString@@UBEPAUCRuntimeClass@@XZ 5f876015 f
 0001:0007501b       ??5@YGAAVCArchive@@AAV0@AAPAVCMapStringToString@@@Z 5f87601b f
 0001:00075036       ?CreateObject@CMapWordToOb@@SGPAVCObject@@XZ 5f876036 f
 0001:0007504f       ?GetRuntimeClass@CMapWordToOb@@UBEPAUCRuntimeClass@@XZ 5f87604f f
 0001:00075055       ??5@YGAAVCArchive@@AAV0@AAPAVCMapWordToOb@@@Z 5f876055 f
 0001:00075070       ?GetRuntimeClass@CMapWordToPtr@@UBEPAUCRuntimeClass@@XZ 5f876070 f
 0001:00075076       ??1AFX_MAINTAIN_STATE@@QAE@XZ 5f876076 f
 0001:000750b2       ??_GAFX_MODULE_STATE@@UAEPAXI@Z 5f8760b2 f
 0001:000750b2       ??_EAFX_MODULE_STATE@@UAEPAXI@Z 5f8760b2 f
 0001:000750fa       ?RemoveAll@CTypeLibCacheMap@@UAEXPAX@Z 5f8760fa f
 0001:0007513e       ??1?$CEmbeddedButActsLikePtr@VCMapPtrToPtr@@@@QAE@XZ 5f87613e f
 0001:00075169       ??1?$CEmbeddedButActsLikePtr@VCPtrList@@@@QAE@XZ 5f876169 f
 0001:0007516e       ?AfxGetAppModuleState@@YGPAVAFX_MODULE_STATE@@XZ 5f87616e f
 0001:0007517e       ?Unlock@CTypeLibCache@@QAEXXZ 5f87617e f
 0001:00075277       ?AssignInstance@CThreadSlotData@@QAEXPAUHINSTANCE__@@@Z 5f876277 f
 0001:000752d4       ?AfxInitLocalData@@YGXPAUHINSTANCE__@@@Z 5f8762d4 f
 0001:000752ea       ?_GetBaseClass@CCriticalSection@@KGPAUCRuntimeClass@@XZ 5f8762ea f
 0001:000752f0       ?GetRuntimeClass@CCriticalSection@@UBEPAUCRuntimeClass@@XZ 5f8762f0 f
 0001:000752f6       ?GetRuntimeClass@CEvent@@UBEPAUCRuntimeClass@@XZ 5f8762f6 f
 0001:000752fc       ?GetRuntimeClass@CSemaphore@@UBEPAUCRuntimeClass@@XZ 5f8762fc f
 0001:00075302       ?GetRuntimeClass@CMutex@@UBEPAUCRuntimeClass@@XZ 5f876302 f
 0001:00075308       ?CreateObject@CWnd@@SGPAVCObject@@XZ 5f876308 f
 0001:0007533a       ??1CTempWnd@@UAE@XZ        5f87633a f
 0001:00075343       ?CreateObject@CFrameWnd@@SGPAVCObject@@XZ 5f876343 f
 0001:00075378       ?CreateObject@CMDIFrameWnd@@SGPAVCObject@@XZ 5f876378 f
 0001:000753ad       ?GetRuntimeClass@CMDIFrameWnd@@UBEPAUCRuntimeClass@@XZ 5f8763ad f
 0001:000753b3       ?GetRuntimeClass@CToolTipCtrl@@UBEPAUCRuntimeClass@@XZ 5f8763b3 f
 0001:000753b9       ?CreateObject@CMiniFrameWnd@@SGPAVCObject@@XZ 5f8763b9 f
 0001:000753ee       ??_ECControlBar@@UAEPAXI@Z 5f8763ee f
 0001:000753ee       ??_GCControlBar@@UAEPAXI@Z 5f8763ee f
 0001:0007540a       ?OnBarStyleChange@CControlBar@@UAEXKK@Z 5f87640a f
 0001:00075430       ?SetOwner@CToolBar@@QAEXPAVCWnd@@@Z 5f876430 f
 0001:00075497       ?SetHeight@CToolBar@@QAEXH@Z 5f876497 f
 0001:000754fa       ?LoadToolBar@CToolBar@@QAEHPBG@Z 5f8764fa f
 0001:000755cc       ?SetBitmap@CToolBar@@QAEHPAUHBITMAP__@@@Z 5f8765cc f
 0001:0007567b       ?GetRuntimeClass@CToolBar@@UBEPAUCRuntimeClass@@XZ 5f87667b f
 0001:00075681       ?GetRuntimeClass@CDialogBar@@UBEPAUCRuntimeClass@@XZ 5f876681 f
 0001:000756a1       ?GetRuntimeClass@CStatusBar@@UBEPAUCRuntimeClass@@XZ 5f8766a1 f
 0001:000756a7       ?GetRuntimeClass@CDockBar@@UBEPAUCRuntimeClass@@XZ 5f8766a7 f
 0001:000756ad       ?CreateObject@CMiniDockFrameWnd@@SGPAVCObject@@XZ 5f8766ad f
 0001:000756e2       ?_GetBaseClass@CMiniDockFrameWnd@@KGPAUCRuntimeClass@@XZ 5f8766e2 f
 0001:000756e8       ?GetRuntimeClass@CMiniDockFrameWnd@@UBEPAUCRuntimeClass@@XZ 5f8766e8 f
 0001:000756ee       ?CreateObject@CDockState@@SGPAVCObject@@XZ 5f8766ee f
 0001:00075720       ?GetRuntimeClass@CDockState@@UBEPAUCRuntimeClass@@XZ 5f876720 f
 0001:00075726       ??5@YGAAVCArchive@@AAV0@AAPAVCDockState@@@Z 5f876726 f
 0001:00075741       ?GetRuntimeClass@CPreviewDC@@UBEPAUCRuntimeClass@@XZ 5f876741 f
 0001:00075747       ?GetRuntimeClass@CMetaFileDC@@UBEPAUCRuntimeClass@@XZ 5f876747 f
 0001:0007574d       ?GetRuntimeClass@CReBar@@UBEPAUCRuntimeClass@@XZ 5f87674d f
 0001:00075753       ?GetRuntimeClass@CStatic@@UBEPAUCRuntimeClass@@XZ 5f876753 f
 0001:00075759       ?GetRuntimeClass@CButton@@UBEPAUCRuntimeClass@@XZ 5f876759 f
 0001:0007575f       ?GetRuntimeClass@CComboBox@@UBEPAUCRuntimeClass@@XZ 5f87675f f
 0001:00075765       ?GetRuntimeClass@CEdit@@UBEPAUCRuntimeClass@@XZ 5f876765 f
 0001:0007576b       ?GetRuntimeClass@CScrollBar@@UBEPAUCRuntimeClass@@XZ 5f87676b f
 0001:00075771       ?GetRuntimeClass@CDragListBox@@UBEPAUCRuntimeClass@@XZ 5f876771 f
 0001:00075777       ?GetRuntimeClass@CSpinButtonCtrl@@UBEPAUCRuntimeClass@@XZ 5f876777 f
 0001:0007577d       ?GetRuntimeClass@CSliderCtrl@@UBEPAUCRuntimeClass@@XZ 5f87677d f
 0001:00075783       ?GetRuntimeClass@CProgressCtrl@@UBEPAUCRuntimeClass@@XZ 5f876783 f
 0001:00075789       ?GetRuntimeClass@CComboBoxEx@@UBEPAUCRuntimeClass@@XZ 5f876789 f
 0001:0007578f       ?GetRuntimeClass@CHeaderCtrl@@UBEPAUCRuntimeClass@@XZ 5f87678f f
 0001:00075795       ?GetRuntimeClass@CHotKeyCtrl@@UBEPAUCRuntimeClass@@XZ 5f876795 f
 0001:0007579b       ?GetRuntimeClass@CAnimateCtrl@@UBEPAUCRuntimeClass@@XZ 5f87679b f
 0001:000757a1       ?GetRuntimeClass@CTabCtrl@@UBEPAUCRuntimeClass@@XZ 5f8767a1 f
 0001:000757a7       ?GetRuntimeClass@CTreeCtrl@@UBEPAUCRuntimeClass@@XZ 5f8767a7 f
 0001:000757ad       ?GetRuntimeClass@CListCtrl@@UBEPAUCRuntimeClass@@XZ 5f8767ad f
 0001:000757b3       ?GetRuntimeClass@CToolBarCtrl@@UBEPAUCRuntimeClass@@XZ 5f8767b3 f
 0001:000757b9       ?GetRuntimeClass@CStatusBarCtrl@@UBEPAUCRuntimeClass@@XZ 5f8767b9 f
 0001:000757bf       ?CreateObject@CImageList@@SGPAVCObject@@XZ 5f8767bf f
 0001:000757d6       ?CreateObject@CTempImageList@@SGPAVCObject@@XZ 5f8767d6 f
 0001:000757fc       ??_ECTempImageList@@UAEPAXI@Z 5f8767fc f
 0001:000757fc       ??_GCTempImageList@@UAEPAXI@Z 5f8767fc f
 0001:0007581c       ??1CImageList@@UAE@XZ      5f87681c f
 0001:0007581c       ??1CTempImageList@@UAE@XZ  5f87681c f
 0001:0007584f       ?_GetBaseClass@CTempImageList@@KGPAUCRuntimeClass@@XZ 5f87684f f
 0001:00075855       ?GetRuntimeClass@CTempImageList@@UBEPAUCRuntimeClass@@XZ 5f876855 f
 0001:0007585b       ?GetRuntimeClass@CRichEditCtrl@@UBEPAUCRuntimeClass@@XZ 5f87685b f
 0001:00075862       ?_GetBaseClass@CCheckListBox@@KGPAUCRuntimeClass@@XZ 5f876862 f
 0001:00075868       ?GetRuntimeClass@CCheckListBox@@UBEPAUCRuntimeClass@@XZ 5f876868 f
 0001:0007586e       ?CreateObject@?$CProcessLocal@V_AFX_CHECKLIST_STATE@@@@SGPAVCNoTrackObject@@XZ 5f87686e f
 0001:0007589f       ?GetRuntimeClass@CBitmapButton@@UBEPAUCRuntimeClass@@XZ 5f87689f f
 0001:000758a5       ?GetRuntimeClass@CPropertySheet@@UBEPAUCRuntimeClass@@XZ 5f8768a5 f
 0001:000758ab       ?_GetBaseClass@CPropertyPageEx@@KGPAUCRuntimeClass@@XZ 5f8768ab f
 0001:000758b1       ?GetRuntimeClass@CPropertyPageEx@@UBEPAUCRuntimeClass@@XZ 5f8768b1 f
 0001:000758b7       ?GetRuntimeClass@CPropertySheetEx@@UBEPAUCRuntimeClass@@XZ 5f8768b7 f
 0001:000758bd       ?GetRuntimeClass@CFileDialog@@UBEPAUCRuntimeClass@@XZ 5f8768bd f
 0001:000758c3       ?GetRuntimeClass@CPageSetupDialog@@UBEPAUCRuntimeClass@@XZ 5f8768c3 f
 0001:000758c9       ?GetRuntimeClass@CColorDialog@@UBEPAUCRuntimeClass@@XZ 5f8768c9 f
 0001:000758cf       ?CreateObject@?$CProcessLocal@V_AFX_COLOR_STATE@@@@SGPAVCNoTrackObject@@XZ 5f8768cf f
 0001:000758e5       ?GetRuntimeClass@CFontDialog@@UBEPAUCRuntimeClass@@XZ 5f8768e5 f
 0001:000758eb       ?GetRuntimeClass@CFindReplaceDialog@@UBEPAUCRuntimeClass@@XZ 5f8768eb f
 0001:000758f1       ?AfxGetPropSheetFont@@YGHAAVCString@@AAGH@Z 5f8768f1 f
 0001:00075a80       ?CreateObject@?$CProcessLocal@U_AFX_PROPPAGEFONTINFO@@@@SGPAVCNoTrackObject@@XZ 5f876a80 f
 0001:00075a9e       ??_G_AFX_PROPPAGEFONTINFO@@UAEPAXI@Z 5f876a9e f
 0001:00075a9e       ??_E_AFX_PROPPAGEFONTINFO@@UAEPAXI@Z 5f876a9e f
 0001:00075ab9       ??1_AFX_PROPPAGEFONTINFO@@UAE@XZ 5f876ab9 f
 0001:00075ac9       ?GetRuntimeClass@CIPAddressCtrl@@UBEPAUCRuntimeClass@@XZ 5f876ac9 f
 0001:00075acf       ?GetRuntimeClass@CReBarCtrl@@UBEPAUCRuntimeClass@@XZ 5f876acf f
 0001:00075ad5       ?GetRuntimeClass@CResourceException@@UBEPAUCRuntimeClass@@XZ 5f876ad5 f
 0001:00075adb       ?GetRuntimeClass@CUserException@@UBEPAUCRuntimeClass@@XZ 5f876adb f
 0001:00075ae1       ?CreateObject@CDC@@SGPAVCObject@@XZ 5f876ae1 f
 0001:00075af8       ?GetRuntimeClass@CClientDC@@UBEPAUCRuntimeClass@@XZ 5f876af8 f
 0001:00075afe       ?GetRuntimeClass@CWindowDC@@UBEPAUCRuntimeClass@@XZ 5f876afe f
 0001:00075b04       ?GetRuntimeClass@CPaintDC@@UBEPAUCRuntimeClass@@XZ 5f876b04 f
 0001:00075b0a       ?CreateObject@CGdiObject@@SGPAVCObject@@XZ 5f876b0a f
 0001:00075b24       ?GetRuntimeClass@CPen@@UBEPAUCRuntimeClass@@XZ 5f876b24 f
 0001:00075b2a       ?GetRuntimeClass@CBrush@@UBEPAUCRuntimeClass@@XZ 5f876b2a f
 0001:00075b30       ?GetRuntimeClass@CFont@@UBEPAUCRuntimeClass@@XZ 5f876b30 f
 0001:00075b36       ?GetRuntimeClass@CBitmap@@UBEPAUCRuntimeClass@@XZ 5f876b36 f
 0001:00075b3c       ?GetRuntimeClass@CPalette@@UBEPAUCRuntimeClass@@XZ 5f876b3c f
 0001:00075b42       ?GetRuntimeClass@CRgn@@UBEPAUCRuntimeClass@@XZ 5f876b42 f
 0001:00075b4c       ??1CTempDC@@UAE@XZ         5f876b4c f
 0001:00075b51       ?_GetBaseClass@CTempDC@@KGPAUCRuntimeClass@@XZ 5f876b51 f
 0001:00075b57       ?GetRuntimeClass@CTempDC@@UBEPAUCRuntimeClass@@XZ 5f876b57 f
 0001:00075b60       ?_GetBaseClass@CTempGdiObject@@KGPAUCRuntimeClass@@XZ 5f876b60 f
 0001:00075b66       ?GetRuntimeClass@CTempGdiObject@@UBEPAUCRuntimeClass@@XZ 5f876b66 f
 0001:00075b6e       ?CreateObject@CMenu@@SGPAVCObject@@XZ 5f876b6e f
 0001:00075b8b       ?_GetBaseClass@CTempMenu@@KGPAUCRuntimeClass@@XZ 5f876b8b f
 0001:00075b91       ?GetRuntimeClass@CTempMenu@@UBEPAUCRuntimeClass@@XZ 5f876b91 f
 0001:00075b98       ?AfxEnableWin31Compatibility@@YGXXZ 5f876b98 f
 0001:00075bda       ?_AfxLoadDotBitmap@@YGXXZ  5f876bda f
 0001:00075cba       ?_GetBaseClass@CSingleDocTemplate@@KGPAUCRuntimeClass@@XZ 5f876cba f
 0001:00075cc0       ?GetRuntimeClass@CSingleDocTemplate@@UBEPAUCRuntimeClass@@XZ 5f876cc0 f
 0001:00075cc6       ?GetRuntimeClass@CMultiDocTemplate@@UBEPAUCRuntimeClass@@XZ 5f876cc6 f
 0001:00075ccc       ?_AfxDeleteRegKey@@YGHPBG@Z 5f876ccc f
 0001:00075dd1       ?GetRuntimeClass@CDocManager@@UBEPAUCRuntimeClass@@XZ 5f876dd1 f
 0001:00075dd7       ?GetRuntimeClass@CScrollView@@UBEPAUCRuntimeClass@@XZ 5f876dd7 f
 0001:00075ddd       ?CreateObject@CEditView@@SGPAVCObject@@XZ 5f876ddd f
 0001:00075e0f       ?GetRuntimeClass@CEditView@@UBEPAUCRuntimeClass@@XZ 5f876e0f f
 0001:00075e15       ?CreateObject@?$CProcessLocal@V_AFX_EDIT_STATE@@@@SGPAVCNoTrackObject@@XZ 5f876e15 f
 0001:00075e46       ?CreateObject@CPreviewView@@SGPAVCObject@@XZ 5f876e46 f
 0001:00075e7b       ?GetRuntimeClass@CPreviewView@@UBEPAUCRuntimeClass@@XZ 5f876e7b f
 0001:00075e81       ?CreateObject@CListView@@SGPAVCObject@@XZ 5f876e81 f
 0001:00075ec9       ?GetRuntimeClass@CListView@@UBEPAUCRuntimeClass@@XZ 5f876ec9 f
 0001:00075ecf       ?CreateObject@CTreeView@@SGPAVCObject@@XZ 5f876ecf f
 0001:00075f17       ?GetRuntimeClass@CTreeView@@UBEPAUCRuntimeClass@@XZ 5f876f17 f
 0001:00075f1d       ?CreateObject@?$CProcessLocal@V_AFX_MAIL_STATE@@@@SGPAVCNoTrackObject@@XZ 5f876f1d f
 0001:00075f47       ??_GCWinApp@@UAEPAXI@Z     5f876f47 f
 0001:00075f47       ??_ECWinApp@@UAEPAXI@Z     5f876f47 f
 0001:00075f63       ?InitInstance@CWinApp@@UAEHXZ 5f876f63 f
 0001:00075fbd       ?ParseParam@CCommandLineInfo@@UAEXPBDHH@Z 5f876fbd f
 0001:00075fe6       ?ParseParamFlag@CCommandLineInfo@@IAEXPBD@Z 5f876fe6 f
 0001:000760f5       ?ParseParamNotFlag@CCommandLineInfo@@IAEXPBD@Z 5f8770f5 f
 0001:000761a2       ?_GetBaseClass@CWinApp@@KGPAUCRuntimeClass@@XZ 5f8771a2 f
 0001:000761a8       ?GetRuntimeClass@CWinApp@@UBEPAUCRuntimeClass@@XZ 5f8771a8 f
 0001:00076294       ?Unregister@CWinApp@@QAEHXZ 5f877294 f
 0001:000763cb       ?DelRegTree@CWinApp@@QAEJPAUHKEY__@@ABVCString@@@Z 5f8773cb f
 0001:000763db       ?AfxDelRegTreeHelper@@YGJPAUHKEY__@@ABVCString@@@Z 5f8773db f
 0001:000764ad       ?RegisterShellFileTypesCompat@CWinApp@@IAEXXZ 5f8774ad f
 0001:000764bb       ?UnregisterShellFileTypes@CWinApp@@IAEXXZ 5f8774bb f
 0001:000764c1       ?UnregisterShellFileTypes@CDocManager@@QAEXXZ 5f8774c1 f
 0001:00076740       ?SetRegistryKey@CWinApp@@IAEXI@Z 5f877740 f
 0001:0007681b       ?SetDialogBkColor@CWinApp@@IAEXKK@Z 5f87781b f
 0001:000769b1       ?AfxGetCtl3dState@@YGPAV_AFX_CTL3D_STATE@@XZ 5f8779b1 f
 0001:000769c1       ??1?$CThreadLocal@V_AFX_CTL3D_THREAD@@@@QAE@XZ 5f8779c1 f
 0001:000769c6       ?GetRuntimeClass@CInternetException@@UBEPAUCRuntimeClass@@XZ 5f8779c6 f
 0001:000769cc       ?GetRuntimeClass@CInternetFile@@UBEPAUCRuntimeClass@@XZ 5f8779cc f
 0001:000769d2       ?GetRuntimeClass@CHttpFile@@UBEPAUCRuntimeClass@@XZ 5f8779d2 f
 0001:000769d8       ?GetRuntimeClass@CGopherFile@@UBEPAUCRuntimeClass@@XZ 5f8779d8 f
 0001:000769de       ?GetRuntimeClass@CInternetSession@@UBEPAUCRuntimeClass@@XZ 5f8779de f
 0001:000769e4       ?GetRuntimeClass@CFtpConnection@@UBEPAUCRuntimeClass@@XZ 5f8779e4 f
 0001:000769ea       ?GetRuntimeClass@CHttpConnection@@UBEPAUCRuntimeClass@@XZ 5f8779ea f
 0001:000769f0       ?_GetBaseClass@CGopherConnection@@KGPAUCRuntimeClass@@XZ 5f8779f0 f
 0001:000769f6       ?GetRuntimeClass@CGopherConnection@@UBEPAUCRuntimeClass@@XZ 5f8779f6 f
 0001:000769fc       ?_GetBaseClass@CFtpFileFind@@KGPAUCRuntimeClass@@XZ 5f8779fc f
 0001:00076a02       ?GetRuntimeClass@CFtpFileFind@@UBEPAUCRuntimeClass@@XZ 5f877a02 f
 0001:00076a08       ?GetRuntimeClass@CGopherFileFind@@UBEPAUCRuntimeClass@@XZ 5f877a08 f
 0001:00076a0e       ?_GetBaseClass@CSocket@@KGPAUCRuntimeClass@@XZ 5f877a0e f
 0001:00076a14       ?GetRuntimeClass@CSocket@@UBEPAUCRuntimeClass@@XZ 5f877a14 f
 0001:00076a1a       ?GetRuntimeClass@CSocketFile@@UBEPAUCRuntimeClass@@XZ 5f877a1a f
 0001:00076a20       ?CreateObject@?$CProcessLocal@V_AFX_SOCK_STATE@@@@SGPAVCNoTrackObject@@XZ 5f877a20 f
 0001:00076a91       ?AfxBSTR2CString@@YGXPAVCString@@PAG@Z 5f877a91 f
 0001:00076abd       ?AfxAllocTaskWideString@@YGPAGPBG@Z 5f877abd f
 0001:00076af8       ?AfxAllocTaskWideString@@YGPAGPBD@Z 5f877af8 f
 0001:00076b38       ?AfxAllocTaskAnsiString@@YGPADPBG@Z 5f877b38 f
 0001:00076b7b       ?AfxAllocTaskAnsiString@@YGPADPBD@Z 5f877b7b f
 0001:00076bb4       ?GetRuntimeClass@COleDispatchException@@UBEPAUCRuntimeClass@@XZ 5f877bb4 f
 0001:00076bba       ?GetRuntimeClass@COleInsertDialog@@UBEPAUCRuntimeClass@@XZ 5f877bba f
 0001:00076bc0       ?GetRuntimeClass@COleConvertDialog@@UBEPAUCRuntimeClass@@XZ 5f877bc0 f
 0001:00076bc6       ?GetRuntimeClass@COleChangeIconDialog@@UBEPAUCRuntimeClass@@XZ 5f877bc6 f
 0001:00076bcc       ?_GetBaseClass@COleUpdateDialog@@KGPAUCRuntimeClass@@XZ 5f877bcc f
 0001:00076bd2       ?GetRuntimeClass@COleUpdateDialog@@UBEPAUCRuntimeClass@@XZ 5f877bd2 f
 0001:00076bd8       ?GetRuntimeClass@COlePasteSpecialDialog@@UBEPAUCRuntimeClass@@XZ 5f877bd8 f
 0001:00076bde       ?GetRuntimeClass@COleBusyDialog@@UBEPAUCRuntimeClass@@XZ 5f877bde f
 0001:00076be4       ?GetRuntimeClass@COlePropertiesDialog@@UBEPAUCRuntimeClass@@XZ 5f877be4 f
 0001:00076bea       ?_GetBaseClass@COleChangeSourceDialog@@KGPAUCRuntimeClass@@XZ 5f877bea f
 0001:00076bf0       ?GetRuntimeClass@COleChangeSourceDialog@@UBEPAUCRuntimeClass@@XZ 5f877bf0 f
 0001:00076bf6       ?CreateObject@CDocItem@@SGPAVCObject@@XZ 5f877bf6 f
 0001:00076c28       ??5@YGAAVCArchive@@AAV0@AAPAVCDocItem@@@Z 5f877c28 f
 0001:00076c43       ?_GetBaseClass@COleDocument@@KGPAUCRuntimeClass@@XZ 5f877c43 f
 0001:00076c49       ?GetRuntimeClass@COleDocument@@UBEPAUCRuntimeClass@@XZ 5f877c49 f
 0001:00076c4f       ?_GetBaseClass@COleClientItem@@KGPAUCRuntimeClass@@XZ 5f877c4f f
 0001:00076c55       ?GetRuntimeClass@COleClientItem@@UBEPAUCRuntimeClass@@XZ 5f877c55 f
 0001:00076c5b       ?GetRuntimeClass@COleServerItem@@UBEPAUCRuntimeClass@@XZ 5f877c5b f
 0001:00076c65       ??_ECOleObjectFactory@@UAEPAXI@Z 5f877c65 f
 0001:00076c65       ??_GCOleObjectFactory@@UAEPAXI@Z 5f877c65 f
 0001:00076c85       ?UnregisterAll@COleObjectFactory@@SGHXZ 5f877c85 f
 0001:00076d06       ?CreateObject@COleIPFrameWnd@@SGPAVCObject@@XZ 5f877d06 f
 0001:00076d3b       ?GetRuntimeClass@COleIPFrameWnd@@UBEPAUCRuntimeClass@@XZ 5f877d3b f
 0001:00076d41       ?GetRuntimeClass@COleException@@UBEPAUCRuntimeClass@@XZ 5f877d41 f
 0001:00076d47       ?GetRuntimeClass@COleStreamFile@@UBEPAUCRuntimeClass@@XZ 5f877d47 f
 0001:00076d4d       ?_GetBaseClass@COleServerDoc@@KGPAUCRuntimeClass@@XZ 5f877d4d f
 0001:00076d53       ?GetRuntimeClass@COleServerDoc@@UBEPAUCRuntimeClass@@XZ 5f877d53 f
 0001:00076d59       ?CreateObject@CRichEditCntrItem@@SGPAVCObject@@XZ 5f877d59 f
 0001:00076d90       ?GetRuntimeClass@CRichEditCntrItem@@UBEPAUCRuntimeClass@@XZ 5f877d90 f
 0001:00076d96       ??5@YGAAVCArchive@@AAV0@AAPAVCRichEditCntrItem@@@Z 5f877d96 f
 0001:00076db1       ?GetRuntimeClass@CRichEditDoc@@UBEPAUCRuntimeClass@@XZ 5f877db1 f
 0001:00076db7       ?CreateObject@CRichEditView@@SGPAVCObject@@XZ 5f877db7 f
 0001:00076dec       ?GetRuntimeClass@CRichEditView@@UBEPAUCRuntimeClass@@XZ 5f877dec f
 0001:00076df2       ??4?$CIP@UIMoniker@@$1?IID_IMoniker@@3U_GUID@@B@@QAEAAV0@PAUIMoniker@@@Z 5f877df2 f
 0001:00076e04       ??B?$_CIP@UIMoniker@@$1?IID_IMoniker@@3U_GUID@@B@@QBEPAUIMoniker@@XZ 5f877e04 f
 0001:00076e07       ??0?$CIP@UIBindCtx@@$1?IID_IBindCtx@@3U_GUID@@B@@QAE@XZ 5f877e07 f
 0001:00076e13       ??7?$_CIP@UIBindCtx@@$1?IID_IBindCtx@@3U_GUID@@B@@QAEHXZ 5f877e13 f
 0001:00076e1b       ??0?$CIP@UIBindHost@@$1?IID_IBindHost@@3U_GUID@@B@@QAE@PAUIBindHost@@H@Z 5f877e1b f
 0001:00076e31       ?Detach@?$_CIP@UIStream@@$1?IID_IStream@@3U_GUID@@B@@QAEXXZ 5f877e31 f
 0001:00076e35       ??I?$_CIP@UIStream@@$1?IID_IStream@@3U_GUID@@B@@QAEPAPAUIStream@@XZ 5f877e35 f
 0001:00076e44       ??0?$_CIP@UIBindHost@@$1?IID_IBindHost@@3U_GUID@@B@@QAE@PAUIBindHost@@H@Z 5f877e44 f
 0001:00076e5f       ??0?$_CIP@UIMoniker@@$1?IID_IMoniker@@3U_GUID@@B@@QAE@XZ 5f877e5f f
 0001:00076e65       ?_Release@?$_CIP@UIBindStatusCallback@@$1?IID_IBindStatusCallback@@3U_GUID@@B@@AAEXXZ 5f877e65 f
 0001:00076e65       ??1?$CIP@UIBindCtx@@$1?IID_IBindCtx@@3U_GUID@@B@@QAE@XZ 5f877e65 f
 0001:00076e72       ??1?$_CIP@UIBindCtx@@$1?IID_IBindCtx@@3U_GUID@@B@@QAE@XZ 5f877e72 f
 0001:00076e74       ?GetRuntimeClass@CDateTimeCtrl@@UBEPAUCRuntimeClass@@XZ 5f877e74 f
 0001:00076e7a       ?GetRuntimeClass@CMonthCalCtrl@@UBEPAUCRuntimeClass@@XZ 5f877e7a f
 0001:00076e80       ?CreateObject@CHtmlView@@SGPAVCObject@@XZ 5f877e80 f
 0001:00076eb5       ?GetRuntimeClass@CHtmlView@@UBEPAUCRuntimeClass@@XZ 5f877eb5 f
 0001:00076ebb       ?_GetBaseClass@CAsyncMonikerFile@@KGPAUCRuntimeClass@@XZ 5f877ebb f
 0001:00076ec1       ?GetRuntimeClass@CAsyncMonikerFile@@UBEPAUCRuntimeClass@@XZ 5f877ec1 f
 0001:00076ec7       ?Release@?$_CIP@UIBinding@@$1?IID_IBinding@@3U_GUID@@B@@QAEXXZ 5f877ec7 f
 0001:00076ed7       ?QueryInterface@?$_CIP@UIBindHost@@$1?IID_IBindHost@@3U_GUID@@B@@QAEJPAUIUnknown@@@Z 5f877ed7 f
 0001:00076f1f       ?QueryInterface@?$_CIP@UIBindStatusCallback@@$1?IID_IBindStatusCallback@@3U_GUID@@B@@QAEJPAUIUnknown@@@Z 5f877f1f f
 0001:00076f67       ?QueryInterface@?$_CIP@UIServiceProvider@@$1?IID_IServiceProvider@@3U_GUID@@B@@QAEJPAUIUnknown@@@Z 5f877f67 f
 0001:00076faf       ?GetIID@?$_CIP@UIBindHost@@$1?IID_IBindHost@@3U_GUID@@B@@SAABU_GUID@@XZ 5f877faf f
 0001:00076fb5       ??4?$_CIP@UIBindHost@@$1?IID_IBindHost@@3U_GUID@@B@@QAEAAV0@PAUIBindHost@@@Z 5f877fb5 f
 0001:00076fdb       ?Attach@?$_CIP@UIBindHost@@$1?IID_IBindHost@@3U_GUID@@B@@QAEXPAUIBindHost@@@Z 5f877fdb f
 0001:00076fed       ?GetIID@?$_CIP@UIBindStatusCallback@@$1?IID_IBindStatusCallback@@3U_GUID@@B@@SAABU_GUID@@XZ 5f877fed f
 0001:00076ff3       ?GetIID@?$_CIP@UIServiceProvider@@$1?IID_IServiceProvider@@3U_GUID@@B@@SAABU_GUID@@XZ 5f877ff3 f
 0001:00076ff9       ?_AddRef@?$_CIP@UIUnknown@@$1?IID_IUnknown@@3U_GUID@@B@@AAEXXZ 5f877ff9 f
 0001:00077006       ?_GetBaseClass@COleResizeBar@@KGPAUCRuntimeClass@@XZ 5f878006 f
 0001:0007700c       ?GetRuntimeClass@COleResizeBar@@UBEPAUCRuntimeClass@@XZ 5f87800c f
 0001:00077012       ?GetRuntimeClass@COleControl@@UBEPAUCRuntimeClass@@XZ 5f878012 f
 0001:00077018       ?CreateObject@?$CThreadLocal@V_AFXCTL_AMBIENT_CACHE@@@@SGPAVCNoTrackObject@@XZ 5f878018 f
 0001:00077049       ?GetRuntimeClass@CDataPathProperty@@UBEPAUCRuntimeClass@@XZ 5f878049 f
 0001:0007704f       ?GetRuntimeClass@CCachedDataPathProperty@@UBEPAUCRuntimeClass@@XZ 5f87804f f
 0001:00077055       ?CreateObject@CColorPropPage@@SGPAVCObject@@XZ 5f878055 f
 0001:0007708a       ?GetRuntimeClass@CColorPropPage@@UBEPAUCRuntimeClass@@XZ 5f87808a f
 0001:00077090       ?CreateObject@CFontPropPage@@SGPAVCObject@@XZ 5f878090 f
 0001:000770c5       ?GetRuntimeClass@CFontPropPage@@UBEPAUCRuntimeClass@@XZ 5f8780c5 f
 0001:000770cb       ?CreateObject@CPicturePropPage@@SGPAVCObject@@XZ 5f8780cb f
 0001:00077100       ?GetRuntimeClass@CPicturePropPage@@UBEPAUCRuntimeClass@@XZ 5f878100 f
 0001:00077106       ?_GetBaseClass@CStockPropPage@@KGPAUCRuntimeClass@@XZ 5f878106 f
 0001:0007710c       ?GetRuntimeClass@CStockPropPage@@UBEPAUCRuntimeClass@@XZ 5f87810c f
 0001:00077112       ?GetRuntimeClass@CDBException@@UBEPAUCRuntimeClass@@XZ 5f878112 f
 0001:00077118       ?GetRuntimeClass@CDatabase@@UBEPAUCRuntimeClass@@XZ 5f878118 f
 0001:0007711e       ?GetRuntimeClass@CRecordset@@UBEPAUCRuntimeClass@@XZ 5f87811e f
 0001:00077124       ?CreateObject@?$CProcessLocal@V_AFX_DB_STATE@@@@SGPAVCNoTrackObject@@XZ 5f878124 f
 0001:00077139       ?GetRuntimeClass@CRecordView@@UBEPAUCRuntimeClass@@XZ 5f878139 f
 0001:0007713f       ?GetRuntimeClass@CLongBinary@@UBEPAUCRuntimeClass@@XZ 5f87813f f
 0001:00077145       ?_GetBaseClass@COleDBRecordView@@KGPAUCRuntimeClass@@XZ 5f878145 f
 0001:0007714b       ?GetRuntimeClass@COleDBRecordView@@UBEPAUCRuntimeClass@@XZ 5f87814b f
 0001:00077151       ?GetRuntimeClass@CDynLinkLibrary@@UBEPAUCRuntimeClass@@XZ 5f878151 f
 0001:00077157       ??0CDynLinkLibrary@@QAE@PAUHINSTANCE__@@0@Z 5f878157 f
 0001:00077225       ?AfxCoreInitModule@@YGXXZ  5f878225 f
 0001:0007728e       _DllGetClassObject@12      5f87828e f
 0001:000772bc       _DllCanUnloadNow@0         5f8782bc f
 0001:000772df       _DllRegisterServer@0       5f8782df f
 0001:00077311       _DllUnregisterServer@0     5f878311 f
 0001:00077343       ?AfxWndProcDllOle@@YGJPAUHWND__@@IIJ@Z 5f878343 f
 0001:00077389       ??1_AFX_MAIL_STATE@@UAE@XZ 5f878389 f
 0001:0007739e       ??_G_AFX_MAIL_STATE@@UAEPAXI@Z 5f87839e f
 0001:0007739e       ??_E_AFX_MAIL_STATE@@UAEPAXI@Z 5f87839e f
 0001:000773b9       ?OnFileSendMail@CDocument@@IAEXXZ 5f8783b9 f
 0001:0007773f       ?OnFileSendMail@COleDocument@@IAEXXZ 5f87873f f
 0001:000777a6       ??0COleClientItem@@QAE@PAVCOleDocument@@@Z 5f8787a6 f
 0001:00077842       ??_ECOleClientItem@@UAEPAXI@Z 5f878842 f
 0001:00077842       ??_GCOleClientItem@@UAEPAXI@Z 5f878842 f
 0001:0007785e       ?Delete@COleClientItem@@QAEXH@Z 5f87885e f
 0001:000778bc       ?Release@COleClientItem@@UAEXW4tagOLECLOSE@@@Z 5f8788bc f
 0001:0007796e       ?Close@COleClientItem@@QAEXW4tagOLECLOSE@@@Z 5f87896e f
 0001:000779e7       ?GetNewItemNumber@COleClientItem@@QAEKXZ 5f8789e7 f
 0001:00077a36       ?GetItemName@COleClientItem@@QBEXPAG@Z 5f878a36 f
 0001:00077a4e       ?GetIconFromRegistry@COleClientItem@@QBEPAUHICON__@@XZ 5f878a4e f
 0001:00077a82       ?GetIconFromRegistry@COleClientItem@@SAPAUHICON__@@AAU_GUID@@@Z 5f878a82 f
 0001:00077c85       ?UpdateItemType@COleClientItem@@QAEXXZ 5f878c85 f
 0001:00077cd8       ?FinishCreate@COleClientItem@@MAEHJ@Z 5f878cd8 f
 0001:00077de8       ?CreateFromClipboard@COleClientItem@@QAEHW4tagOLERENDER@@GPAUtagFORMATETC@@@Z 5f878de8 f
 0001:00077e47       ?CreateLinkFromClipboard@COleClientItem@@QAEHW4tagOLERENDER@@GPAUtagFORMATETC@@@Z 5f878e47 f
 0001:00077ea6       ?CreateStaticFromClipboard@COleClientItem@@QAEHW4tagOLERENDER@@GPAUtagFORMATETC@@@Z 5f878ea6 f
 0001:00077f05       ?CreateFromData@COleClientItem@@QAEHPAVCOleDataObject@@W4tagOLERENDER@@GPAUtagFORMATETC@@@Z 5f878f05 f
 0001:00077f73       ?CreateLinkFromData@COleClientItem@@QAEHPAVCOleDataObject@@W4tagOLERENDER@@GPAUtagFORMATETC@@@Z 5f878f73 f
 0001:00077fe1       ?CreateStaticFromData@COleClientItem@@QAEHPAVCOleDataObject@@W4tagOLERENDER@@GPAUtagFORMATETC@@@Z 5f878fe1 f
 0001:0007804f       ?CreateFromFile@COleClientItem@@QAEHPBGABU_GUID@@W4tagOLERENDER@@GPAUtagFORMATETC@@@Z 5f87904f f
 0001:000780b4       ?CreateLinkFromFile@COleClientItem@@QAEHPBGW4tagOLERENDER@@GPAUtagFORMATETC@@@Z 5f8790b4 f
 0001:00078116       ?CreateNewItem@COleClientItem@@QAEHABU_GUID@@W4tagOLERENDER@@GPAUtagFORMATETC@@@Z 5f879116 f
 0001:00078178       ?CreateCloneFrom@COleClientItem@@QAEHPBV1@@Z 5f879178 f
 0001:00078225       ?IsModified@COleClientItem@@QBEHXZ 5f879225 f
 0001:00078296       ?GetItemStorageFlat@COleClientItem@@QAEXXZ 5f879296 f
 0001:000782df       ?ReadItemFlat@COleClientItem@@QAEXAAVCArchive@@@Z 5f8792df f
 0001:000783ea       ?WriteItemFlat@COleClientItem@@QAEXAAVCArchive@@@Z 5f8793ea f
 0001:000784a3       ?ReadItemCompound@COleClientItem@@QAEXAAVCArchive@@@Z 5f8794a3 f
 0001:000785bd       ?WriteItemCompound@COleClientItem@@QAEXAAVCArchive@@@Z 5f8795bd f
 0001:000786c0       ?GetItemStorage@COleClientItem@@UAEXXZ 5f8796c0 f
 0001:000786cd       ?GetItemStorageCompound@COleClientItem@@QAEXXZ 5f8796cd f
 0001:0007872d       ?ReadItem@COleClientItem@@UAEXAAVCArchive@@@Z 5f87972d f
 0001:00078749       ?WriteItem@COleClientItem@@UAEXAAVCArchive@@@Z 5f879749 f
 0001:00078765       ?CommitItem@COleClientItem@@UAEXH@Z 5f879765 f
 0001:000787c3       ?Serialize@COleClientItem@@UAEXAAVCArchive@@@Z 5f8797c3 f
 0001:00078903       ?OnChange@COleClientItem@@UAEXW4OLE_NOTIFICATION@@K@Z 5f879903 f
 0001:0007891e       ?OnDataChange@COleClientItem@@MAEXPAUtagFORMATETC@@PAUtagSTGMEDIUM@@@Z 5f87991e f
 0001:00078921       ?OnGetClipRect@COleClientItem@@MAEXAAVCRect@@@Z 5f879921 f
 0001:00078934       ?OnShowItem@COleClientItem@@MAEXXZ 5f879934 f
 0001:000789bf       ?GetClassID@COleClientItem@@QBEXPAU_GUID@@@Z 5f8799bf f
 0001:000789e1       ?GetExtent@COleClientItem@@QAEHPAUtagSIZE@@W4tagDVASPECT@@@Z 5f8799e1 f
 0001:00078a0e       ?GetCachedExtent@COleClientItem@@QAEHPAUtagSIZE@@W4tagDVASPECT@@@Z 5f879a0e f
 0001:00078a48       ?SetIconicMetafile@COleClientItem@@QAEHPAX@Z 5f879a48 f
 0001:00078ad3       ?GetIconicMetafile@COleClientItem@@QAEPAXXZ 5f879ad3 f
 0001:00078bee       ?SetDrawAspect@COleClientItem@@UAEXW4tagDVASPECT@@@Z 5f879bee f
 0001:00078c21       ?GetPrintDeviceInfo@COleClientItem@@IAEHPAPAUIOleCache@@PAPAUtagDVTARGETDEVICE@@PAK@Z 5f879c21 f
 0001:00078cb2       ?AttachDataObject@COleClientItem@@QBEXAAVCOleDataObject@@@Z 5f879cb2 f
 0001:00078cce       ?Draw@COleClientItem@@QAEHPAVCDC@@PBUtagRECT@@W4tagDVASPECT@@@Z 5f879cce f
 0001:00078de7       ?GetEmbeddedItemData@COleClientItem@@IAEXPAUtagSTGMEDIUM@@@Z 5f879de7 f
 0001:00078e90       ?AddCachedData@COleClientItem@@IAEXPAVCOleDataSource@@@Z 5f879e90 f
 0001:00078f5d       ?GetLinkSourceData@COleClientItem@@IAEHPAUtagSTGMEDIUM@@@Z 5f879f5d f
 0001:00079063       ?GetObjectDescriptorData@COleClientItem@@IAEXPAUtagPOINT@@PAUtagSIZE@@PAUtagSTGMEDIUM@@@Z 5f87a063 f
 0001:0007910d       ?SetHostNames@COleClientItem@@QAEXPBG0@Z 5f87a10d f
 0001:00079132       ?SetExtent@COleClientItem@@QAEXABVCSize@@W4tagDVASPECT@@@Z 5f87a132 f
 0001:00079157       ?_GetBaseInterfaceMap@COleClientItem@@KGPBUAFX_INTERFACEMAP@@XZ 5f87a157 f
 0001:0007915d       ?GetInterfaceMap@COleClientItem@@MBEPBUAFX_INTERFACEMAP@@XZ 5f87a15d f
 0001:00079163       ?AddRef@XOleClientSite@COleClientItem@@UAGKXZ 5f87a163 f
 0001:00079172       ?Release@XOleClientSite@COleClientItem@@UAGKXZ 5f87a172 f
 0001:00079181       ?QueryInterface@XOleClientSite@COleClientItem@@UAGJABU_GUID@@PAPAX@Z 5f87a181 f
 0001:00079198       ?SaveObject@XOleClientSite@COleClientItem@@UAGJXZ 5f87a198 f
 0001:0007921a       ?GetMoniker@XOleClientSite@COleClientItem@@UAGJKKPAPAUIMoniker@@@Z 5f87a21a f
 0001:00079393       ?GetContainer@XOleClientSite@COleClientItem@@UAGJPAPAUIOleContainer@@@Z 5f87a393 f
 0001:000793b9       ?ShowObject@XOleClientSite@COleClientItem@@UAGJXZ 5f87a3b9 f
 0001:00079419       ?OnShowWindow@XOleClientSite@COleClientItem@@UAGJH@Z 5f87a419 f
 0001:00079499       ?RequestNewObjectLayout@XOleClientSite@COleClientItem@@UAGJXZ 5f87a499 f
 0001:000794a1       ?AddRef@XAdviseSink@COleClientItem@@UAGKXZ 5f87a4a1 f
 0001:000794b0       ?Release@XAdviseSink@COleClientItem@@UAGKXZ 5f87a4b0 f
 0001:000794bf       ?QueryInterface@XAdviseSink@COleClientItem@@UAGJABU_GUID@@PAPAX@Z 5f87a4bf f
 0001:000794d6       ?OnDataChange@XAdviseSink@COleClientItem@@UAGXPAUtagFORMATETC@@PAUtagSTGMEDIUM@@@Z 5f87a4d6 f
 0001:00079520       ?OnViewChange@XAdviseSink@COleClientItem@@UAGXKJ@Z 5f87a520 f
 0001:00079566       ?OnSave@XAdviseSink@COleClientItem@@UAGXXZ 5f87a566 f
 0001:000795ab       ?OnClose@XAdviseSink@COleClientItem@@UAGXXZ 5f87a5ab f
 0001:000795f0       ?GetClientSite@COleClientItem@@MAEPAUIOleClientSite@@XZ 5f87a5f0 f
 0001:000795fb       ?Activate@COleClientItem@@QAEXJPAVCView@@PAUtagMSG@@@Z 5f87a5fb f
 0001:000796c9       ?CheckGeneral@COleClientItem@@MAEXJ@Z 5f87a6c9 f
 0001:000796e3       ?CopyToClipboard@COleClientItem@@QAEXH@Z 5f87a6e3 f
 0001:00079736       ?OnGetClipboardData@COleClientItem@@UAEPAVCOleDataSource@@HPAUtagPOINT@@PAUtagSIZE@@@Z 5f87a736 f
 0001:000797b3       ?DoDragDrop@COleClientItem@@QAEKPBUtagRECT@@VCPoint@@HK0@Z 5f87a7b3 f
 0001:0007988c       ?GetClipboardData@COleClientItem@@QAEXPAVCOleDataSource@@HPAUtagPOINT@@PAUtagSIZE@@@Z 5f87a88c f
 0001:0007994b       ?CanPasteLink@COleClientItem@@SGHXZ 5f87a94b f
 0001:000799b5       ?CanCreateLinkFromData@COleClientItem@@SGHPBVCOleDataObject@@@Z 5f87a9b5 f
 0001:000799ef       ?ConvertTo@COleClientItem@@UAEHABU_GUID@@@Z 5f87a9ef f
 0001:00079a91       ?Reload@COleClientItem@@QAEHXZ 5f87aa91 f
 0001:00079acf       ?ActivateAs@COleClientItem@@UAEHPBGABU_GUID@@1@Z 5f87aacf f
 0001:00079b1e       ?SetPrintDevice@COleClientItem@@QAEHPBUtagDVTARGETDEVICE@@@Z 5f87ab1e f
 0001:00079c0e       ?SetPrintDevice@COleClientItem@@QAEHPBUtagPDW@@@Z 5f87ac0e f
 0001:00079c3d       ?GetUserType@COleClientItem@@QAEXW4tagUSERCLASSTYPE@@AAVCString@@@Z 5f87ac3d f
 0001:00079c79       ?Run@COleClientItem@@QAEXXZ 5f87ac79 f
 0001:00079c9f       ?UpdateLink@COleClientItem@@QAEHXZ 5f87ac9f f
 0001:00079cd3       ?FreezeLink@COleClientItem@@UAEHXZ 5f87acd3 f
 0001:00079e1e       ?GetLinkUpdateOptions@COleClientItem@@QAE?AW4tagOLEUPDATE@@XZ 5f87ae1e f
 0001:00079e5b       ?SetLinkUpdateOptions@COleClientItem@@QAEXW4tagOLEUPDATE@@@Z 5f87ae5b f
 0001:00079e92       ??_GCOleDocument@@UAEPAXI@Z 5f87ae92 f
 0001:00079e92       ??_ECOleDocument@@UAEPAXI@Z 5f87ae92 f
 0001:00079ed2       ?AddItem@COleDocument@@UAEXPAVCDocItem@@@Z 5f87aed2 f
 0001:00079eeb       ?RemoveItem@COleDocument@@UAEXPAVCDocItem@@@Z 5f87aeeb f
 0001:00079f0f       ?GetNextItem@COleDocument@@UBEPAVCDocItem@@AAPAU__POSITION@@@Z 5f87af0f f
 0001:00079f74       ?SetPathName@COleDocument@@UAEXPBGH@Z 5f87af74 f
 0001:00079fd3       ?Serialize@COleDocument@@UAEXAAVCArchive@@@Z 5f87afd3 f
 0001:0007a083       ?CommitItems@COleDocument@@QAEXH@Z 5f87b083 f
 0001:0007a0b8       ?HasBlankItems@COleDocument@@QBEHXZ 5f87b0b8 f
 0001:0007a1d5       ?OnShowViews@COleDocument@@UAEXH@Z 5f87b1d5 f
 0001:0007a1e6       ?GetFirstFrame@COleDocument@@QAEPAVCFrameWnd@@XZ 5f87b1e6 f
 0001:0007a210       ?GetMoniker@COleDocument@@UAEPAUIMoniker@@W4tagOLEGETMONIKER@@@Z 5f87b210 f
 0001:0007a364       ?OnSaveDocument@COleDocument@@UAEHPBG@Z 5f87b364 f
 0001:0007a500       ?SaveToStorage@COleDocument@@MAEXPAVCObject@@@Z 5f87b500 f
 0001:0007a66b       ?LoadFromStorage@COleDocument@@MAEXXZ 5f87b66b f
 0001:0007a7c9       ??0CDocItem@@IAE@XZ        5f87b7c9 f
 0001:0007a7df       ??_ECDocItem@@UAEPAXI@Z    5f87b7df f
 0001:0007a7df       ??_GCDocItem@@UAEPAXI@Z    5f87b7df f
 0001:0007a7fb       ?Serialize@CDocItem@@UAEXAAVCArchive@@@Z 5f87b7fb f
 0001:0007a81f       ?IsBlank@CDocItem@@UBEHXZ  5f87b81f f
 0001:0007a822       ?ApplyPrintDevice@COleDocument@@QAEHPBUtagDVTARGETDEVICE@@@Z 5f87b822 f
 0001:0007a888       ?ApplyPrintDevice@COleDocument@@QAEHPBUtagPDW@@@Z 5f87b888 f
 0001:0007a8b7       ?AfxThrowOleException@@YGXJ@Z 5f87b8b7 f
 0001:0007a905       ?GetErrorMessage@COleException@@UAEHPAGIPAI@Z 5f87b905 f
 0001:0007a960       ?Process@COleException@@SGJPBVCException@@@Z 5f87b960 f
 0001:0007a9ae       ?AfxMergeMenus@@YGPAUHMENU__@@PAU1@0PAJHH@Z 5f87b9ae f
 0001:0007ab81       ?AfxUnmergeMenus@@YGXPAUHMENU__@@00@Z 5f87bb81 f
 0001:0007ac29       ?_AfxFillFormatEtc@@YGPAUtagFORMATETC@@PAU1@G0@Z 5f87bc29 f
 0001:0007ac58       ?_AfxCopyGlobalMemory@@YGPAXPAX0@Z 5f87bc58 f
 0001:0007acc4       ?_AfxCopyStgMedium@@YGHGPAUtagSTGMEDIUM@@0@Z 5f87bcc4 f
 0001:0007af03       ?_AfxOleGetObjectDescriptorData@@YGPAXU_GUID@@KUtagSIZE@@U_POINTL@@KPBG3@Z 5f87bf03 f
 0001:0007aff2       ?_AfxOleGetObjectDescriptorData@@YGPAXPAUIOleObject@@PBGKU_POINTL@@PAUtagSIZE@@@Z 5f87bff2 f
 0001:0007b1f0       ?_AfxOleDoConvert@@YGJPAUIStorage@@ABU_GUID@@@Z 5f87c1f0 f
 0001:0007b2ad       ?_AfxOleDoTreatAsClass@@YGJPBGABU_GUID@@1@Z 5f87c2ad f
 0001:0007b333       ?_AfxOleCreateTargetDevice@@YGPAUtagDVTARGETDEVICE@@PAUtagDEVNAMES@@PAU_devicemodeW@@@Z 5f87c333 f
 0001:0007b494       ?_AfxOleCreateTargetDevice@@YGPAUtagDVTARGETDEVICE@@PAUtagPDW@@@Z 5f87c494 f
 0001:0007b4e3       ?_AfxOleGetFirstMoniker@@YGPAUIMoniker@@PAU1@@Z 5f87c4e3 f
 0001:0007b54b       ?_AfxOleGetLenFilePrefixOfMoniker@@YGKPAUIMoniker@@@Z 5f87c54b f
 0001:0007b5df       ?_AfxOleCopyTargetDevice@@YGPAUtagDVTARGETDEVICE@@PAU1@@Z 5f87c5df f
 0001:0007b60e       ?_AfxOleCopyFormatEtc@@YGXPAUtagFORMATETC@@0@Z 5f87c60e f
 0001:0007b640       ?_AfxOleCreateDC@@YGPAUHDC__@@PAUtagDVTARGETDEVICE@@@Z 5f87c640 f
 0001:0007b68b       ?_AfxDeleteMetafilePict@@YGXPAX@Z 5f87c68b f
 0001:0007b6b4       ?_AfxXformSizeInPixelsToHimetric@@YGXPAUHDC__@@PAUtagSIZE@@1@Z 5f87c6b4 f
 0001:0007b71b       ?_AfxXformSizeInHimetricToPixels@@YGXPAUHDC__@@PAUtagSIZE@@1@Z 5f87c71b f
 0001:0007b788       ??0COleStreamFile@@QAE@PAUIStream@@@Z 5f87c788 f
 0001:0007b81d       ?Detach@COleStreamFile@@QAEPAUIStream@@XZ 5f87c81d f
 0001:0007b825       ?Attach@COleStreamFile@@QAEXPAUIStream@@@Z 5f87c825 f
 0001:0007b833       ?_AfxReadFromStream@@YGJPAUIStream@@PAXIAAK@Z 5f87c833 f
 0001:0007b85c       ?_AfxFillOleFileException@@YGXPAVCFileException@@J@Z 5f87c85c f
 0001:0007b8c5       ?_AfxThrowOleFileException@@YGXJ@Z 5f87c8c5 f
 0001:0007b94b       ?GetStatus@COleStreamFile@@QBEHAAUCFileStatus@@@Z 5f87c94b f
 0001:0007b9dc       ?GetStorageName@COleStreamFile@@UBE?BVCString@@XZ 5f87c9dc f
 0001:0007b9f7       ?GetPosition@COleStreamFile@@UBEKXZ 5f87c9f7 f
 0001:0007ba24       ?OpenStream@COleStreamFile@@QAEHPAUIStorage@@PBGKPAVCFileException@@@Z 5f87ca24 f
 0001:0007ba60       ?CreateStream@COleStreamFile@@QAEHPAUIStorage@@PBGKPAVCFileException@@@Z 5f87ca60 f
 0001:0007bae2       ?CreateMemoryStream@COleStreamFile@@QAEHPAVCFileException@@@Z 5f87cae2 f
 0001:0007bb13       ?Duplicate@COleStreamFile@@UBEPAVCFile@@XZ 5f87cb13 f
 0001:0007bb8b       ?Seek@COleStreamFile@@UAEJJI@Z 5f87cb8b f
 0001:0007bbc0       ?SetLength@COleStreamFile@@UAEXK@Z 5f87cbc0 f
 0001:0007bbe0       ?GetLength@COleStreamFile@@UBEKXZ 5f87cbe0 f
 0001:0007bc04       ?Read@COleStreamFile@@UAEIPAXI@Z 5f87cc04 f
 0001:0007bc2a       ?Write@COleStreamFile@@UAEXPBXI@Z 5f87cc2a f
 0001:0007bc54       ?LockRange@COleStreamFile@@UAEXKK@Z 5f87cc54 f
 0001:0007bc82       ?UnlockRange@COleStreamFile@@UAEXKK@Z 5f87cc82 f
 0001:0007bcb0       ?Abort@COleStreamFile@@UAEXXZ 5f87ccb0 f
 0001:0007bcd5       ?Flush@COleStreamFile@@UAEXXZ 5f87ccd5 f
 0001:0007bceb       ?Close@COleStreamFile@@UAEXXZ 5f87cceb f
 0001:0007bd0e       ?GetStream@COleStreamFile@@QBEPAUIStream@@XZ 5f87cd0e f
 0001:0007bd12       ?EnableAggregation@CCmdTarget@@QAEXXZ 5f87cd12 f
 0001:0007bd8b       ?AddRef@CInnerUnknown@@UAGKXZ 5f87cd8b f
 0001:0007bd9c       ?Release@CInnerUnknown@@UAGKXZ 5f87cd9c f
 0001:0007bddd       ?QueryInterface@CInnerUnknown@@UAGJABU_GUID@@PAPAX@Z 5f87cddd f
 0001:0007be24       ?GetControllingUnknown@CCmdTarget@@QAEPAUIUnknown@@XZ 5f87ce24 f
 0001:0007be36       ?Flush@CMonikerFile@@UAEXXZ 5f87ce36 f
 0001:0007be44       ?Open@CMonikerFile@@MAEHPBGPAUIBindHost@@PAUIBindStatusCallback@@PAUIBindCtx@@PAVCFileException@@@Z 5f87ce44 f
 0001:0007be6a       ?Attach@CMonikerFile@@IAEHPBGPAUIBindHost@@PAUIBindStatusCallback@@PAUIBindCtx@@PAVCFileException@@@Z 5f87ce6a f
 0001:0007bf2d       ?Open@CMonikerFile@@UAEHPBGPAVCFileException@@@Z 5f87cf2d f
 0001:0007bfb6       ?Open@CMonikerFile@@UAEHPAUIMoniker@@PAVCFileException@@@Z 5f87cfb6 f
 0001:0007c042       ?Open@CMonikerFile@@MAEHPAUIMoniker@@PAUIBindHost@@PAUIBindStatusCallback@@PAUIBindCtx@@PAVCFileException@@@Z 5f87d042 f
 0001:0007c068       ?Attach@CMonikerFile@@IAEHPAUIMoniker@@PAUIBindHost@@PAUIBindStatusCallback@@PAUIBindCtx@@PAVCFileException@@@Z 5f87d068 f
 0001:0007c120       ?Close@CMonikerFile@@UAEXXZ 5f87d120 f
 0001:0007c143       ?Detach@CMonikerFile@@QAEHPAVCFileException@@@Z 5f87d143 f
 0001:0007c1a5       ?CreateBindHost@CMonikerFile@@KAPAUIBindHost@@XZ 5f87d1a5 f
 0001:0007c1e7       ??0_AfxBindHost@@QAE@XZ    5f87d1e7 f
 0001:0007c1fd       ?AddRef@_AfxBindHost@@UAGKXZ 5f87d1fd f
 0001:0007c20e       ?Release@_AfxBindHost@@UAGKXZ 5f87d20e f
 0001:0007c238       ?QueryInterface@_AfxBindHost@@UAGJABU_GUID@@PAPAX@Z 5f87d238 f
 0001:0007c28d       ?CreateMoniker@_AfxBindHost@@UAGJPAGPAUIBindCtx@@PAPAUIMoniker@@K@Z 5f87d28d f
 0001:0007c2d0       ?MonikerBindToStorage@_AfxBindHost@@UAGJPAUIMoniker@@PAUIBindCtx@@PAUIBindStatusCallback@@ABU_GUID@@PAPAX@Z 5f87d2d0 f
 0001:0007c3b5       ?MonikerBindToObject@_AfxBindHost@@EAGJPAUIMoniker@@PAUIBindCtx@@PAUIBindStatusCallback@@ABU_GUID@@PAPAX@Z 5f87d3b5 f
 0001:0007c3bd       ??0IBindHost@@QAE@XZ       5f87d3bd f
 0001:0007c3cf       ??_G_AfxBindHost@@QAEPAXI@Z 5f87d3cf f
 0001:0007c3eb       ??1_AfxBindHost@@QAE@XZ    5f87d3eb f
 0001:0007c3f2       ??0IUnknown@@QAE@XZ        5f87d3f2 f
 0001:0007c3f5       ?CreateBindContext@CMonikerFile@@IAEPAUIBindCtx@@PAVCFileException@@@Z 5f87d3f5 f
 0001:0007c3fa       ?PostBindToStream@CMonikerFile@@MAEHPAVCFileException@@@Z 5f87d3fa f
 0001:0007c459       ?_AfxTrySPForBindHost@@YGPAUIBindHost@@PAUIServiceProvider@@@Z 5f87d459 f
 0001:0007c47f       ?_AfxTryQIForBindHost@@YGPAUIBindHost@@PAUIUnknown@@@Z 5f87d47f f
 0001:0007c4ce       ??0CAsyncMonikerFile@@QAE@XZ 5f87d4ce f
 0001:0007c50d       ?EndCallbacks@CAsyncMonikerFile@@IAEXXZ 5f87d50d f
 0001:0007c530       ?Orphan@_AfxBindStatusCallback@@QAEXXZ 5f87d530 f
 0001:0007c535       ?GetInnerUnknown@_AfxBindStatusCallback@@QAEPAUIUnknown@@XZ 5f87d535 f
 0001:0007c539       ?Read@CAsyncMonikerFile@@UAEIPAXI@Z 5f87d539 f
 0001:0007c56d       ?Close@CAsyncMonikerFile@@UAEXXZ 5f87d56d f
 0001:0007c5aa       ?Open@CAsyncMonikerFile@@UAEHPAUIMoniker@@PAUIBindHost@@PAVCFileException@@@Z 5f87d5aa f
 0001:0007c690       ??1?$CIP@UIUnknown@@$1?IID_IUnknown@@3U_GUID@@B@@QAE@XZ 5f87d690 f
 0001:0007c695       ?Open@CAsyncMonikerFile@@UAEHPBGPAUIBindHost@@PAVCFileException@@@Z 5f87d695 f
 0001:0007c77b       ?Open@CAsyncMonikerFile@@UAEHPBGPAVCFileException@@@Z 5f87d77b f
 0001:0007c7d7       ?Open@CAsyncMonikerFile@@UAEHPAUIMoniker@@PAVCFileException@@@Z 5f87d7d7 f
 0001:0007c833       ?Open@CAsyncMonikerFile@@UAEHPBGPAUIServiceProvider@@PAVCFileException@@@Z 5f87d833 f
 0001:0007c8e8       ?Open@CAsyncMonikerFile@@UAEHPBGPAUIUnknown@@PAVCFileException@@@Z 5f87d8e8 f
 0001:0007c9d7       ?Open@CAsyncMonikerFile@@UAEHPAUIMoniker@@PAUIServiceProvider@@PAVCFileException@@@Z 5f87d9d7 f
 0001:0007ca8c       ?Open@CAsyncMonikerFile@@UAEHPAUIMoniker@@PAUIUnknown@@PAVCFileException@@@Z 5f87da8c f
 0001:0007cb81       ?PostBindToStream@CAsyncMonikerFile@@MAEHPAVCFileException@@@Z 5f87db81 f
 0001:0007cba7       ?CreateBindStatusCallback@CAsyncMonikerFile@@MAEPAUIUnknown@@PAU2@@Z 5f87dba7 f
 0001:0007cc01       ??0_AfxBindStatusCallback@@QAE@PAVCAsyncMonikerFile@@PAUIUnknown@@@Z 5f87dc01 f
 0001:0007cc4f       ??0CInnerUnknown@_AfxBindStatusCallback@@QAE@XZ 5f87dc4f f
 0001:0007cc61       ?SetpThis@CInnerUnknown@_AfxBindStatusCallback@@QAEXPAV2@@Z 5f87dc61 f
 0001:0007cc6b       ?AddRef@CInnerUnknown@_AfxBindStatusCallback@@UAGKXZ 5f87dc6b f
 0001:0007cc7f       ?Release@CInnerUnknown@_AfxBindStatusCallback@@UAGKXZ 5f87dc7f f
 0001:0007ccad       ?QueryInterface@CInnerUnknown@_AfxBindStatusCallback@@UAGJABU_GUID@@PAPAX@Z 5f87dcad f
 0001:0007cd0b       ?AddRef@_AfxBindStatusCallback@@UAGKXZ 5f87dd0b f
 0001:0007cd1b       ?Release@_AfxBindStatusCallback@@UAGKXZ 5f87dd1b f
 0001:0007cd2b       ?QueryInterface@_AfxBindStatusCallback@@UAGJABU_GUID@@PAPAX@Z 5f87dd2b f
 0001:0007cd42       ?GetBindInfo@_AfxBindStatusCallback@@EAGJPAKPAU_tagBINDINFO@@@Z 5f87dd42 f
 0001:0007cdeb       ?OnStartBinding@_AfxBindStatusCallback@@EAGJKPAUIBinding@@@Z 5f87ddeb f
 0001:0007ce82       ?GetPriority@_AfxBindStatusCallback@@EAGJPAJ@Z 5f87de82 f
 0001:0007cf12       ?OnProgress@_AfxBindStatusCallback@@EAGJKKKPBG@Z 5f87df12 f
 0001:0007cfa5       ?OnDataAvailable@_AfxBindStatusCallback@@EAGJKKPAUtagFORMATETC@@PAUtagSTGMEDIUM@@@Z 5f87dfa5 f
 0001:0007d0ae       ?OnLowResource@_AfxBindStatusCallback@@EAGJK@Z 5f87e0ae f
 0001:0007d12e       ?OnStopBinding@_AfxBindStatusCallback@@EAGJJPBG@Z 5f87e12e f
 0001:0007d1d1       ?OnObjectAvailable@_AfxBindStatusCallback@@EAGJABU_GUID@@PAUIUnknown@@@Z 5f87e1d1 f
 0001:0007d1d9       ??_G_AfxBindStatusCallback@@QAEPAXI@Z 5f87e1d9 f
 0001:0007d1f5       ??1_AfxBindStatusCallback@@QAE@XZ 5f87e1f5 f
 0001:0007d233       ??0IBindStatusCallback@@QAE@XZ 5f87e233 f
 0001:0007d245       ?GetBindInfo@CAsyncMonikerFile@@MBEKXZ 5f87e245 f
 0001:0007d249       ?OnLowResource@CAsyncMonikerFile@@MAEXXZ 5f87e249 f
 0001:0007d24a       ?OnProgress@CAsyncMonikerFile@@MAEXKKKPBG@Z 5f87e24a f
 0001:0007d24d       ??0COleFrameHook@@QAE@PAVCFrameWnd@@PAVCOleClientItem@@@Z 5f87e24d f
 0001:0007d2bb       ??_GCOleFrameHook@@UAEPAXI@Z 5f87e2bb f
 0001:0007d2bb       ??_ECOleFrameHook@@UAEPAXI@Z 5f87e2bb f
 0001:0007d2d7       ??1COleFrameHook@@UAE@XZ   5f87e2d7 f
 0001:0007d322       ?OnRecalcLayout@COleFrameHook@@UAEXXZ 5f87e322 f
 0001:0007d364       ?OnDocActivate@COleFrameHook@@UAEHH@Z 5f87e364 f
 0001:0007d3e0       ?OnContextHelp@COleFrameHook@@UAEHH@Z 5f87e3e0 f
 0001:0007d404       ?OnMenuSelect@COleFrameHook@@UAEHIIPAUHMENU__@@@Z 5f87e404 f
 0001:0007d483       ?OnInitMenu@COleFrameHook@@UAEXPAVCMenu@@@Z 5f87e483 f
 0001:0007d4a0       ?OnInitMenuPopup@COleFrameHook@@UAEHPAVCMenu@@HH@Z 5f87e4a0 f
 0001:0007d4f3       ?OnPreTranslateMessage@COleFrameHook@@UAEHPAUtagMSG@@@Z 5f87e4f3 f
 0001:0007d579       ?OnActivate@COleFrameHook@@UAEXH@Z 5f87e579 f
 0001:0007d5a7       ?OnEnableModeless@COleFrameHook@@UAEXH@Z 5f87e5a7 f
 0001:0007d5c6       ?OnUpdateFrameTitle@COleFrameHook@@UAEHXZ 5f87e5c6 f
 0001:0007d5e1       ?OnPaletteChanged@COleFrameHook@@UAEXPAVCWnd@@@Z 5f87e5e1 f
 0001:0007d60c       ?OnQueryNewPalette@COleFrameHook@@UAEHXZ 5f87e60c f
 0001:0007d62e       ?NotifyAllInPlace@COleFrameHook@@QAEHHP81@AEHH@Z@Z 5f87e62e f
 0001:0007d717       ?DoContextSensitiveHelp@COleFrameHook@@QAEHH@Z 5f87e717 f
 0001:0007d730       ?DoEnableModeless@COleFrameHook@@QAEHH@Z 5f87e730 f
 0001:0007d76a       ?CanActivate@COleClientItem@@MAEHXZ 5f87e76a f
 0001:0007d811       ?OnActivate@COleClientItem@@UAEXXZ 5f87e811 f
 0001:0007d845       ?OnActivateUI@COleClientItem@@UAEXXZ 5f87e845 f
 0001:0007d8c6       ?OnShowControlBars@COleClientItem@@UAEHPAVCFrameWnd@@H@Z 5f87e8c6 f
 0001:0007d951       ?OnGetWindowContext@COleClientItem@@MAEHPAPAVCFrameWnd@@0PAUtagOIFI@@@Z 5f87e951 f
 0001:0007d9cd       ?OnScrollBy@COleClientItem@@MAEHVCSize@@@Z 5f87e9cd f
 0001:0007da10       ?OnDeactivateUI@COleClientItem@@UAEXH@Z 5f87ea10 f
 0001:0007db6a       ?OnDeactivate@COleClientItem@@UAEXXZ 5f87eb6a f
 0001:0007dbc3       ?OnDiscardUndoState@COleClientItem@@MAEXXZ 5f87ebc3 f
 0001:0007dbc4       ?OnDeactivateAndUndo@COleClientItem@@MAEXXZ 5f87ebc4 f
 0001:0007dbc4       ?DeactivateUI@COleClientItem@@QAEXXZ 5f87ebc4 f
 0001:0007dc00       ?OnChangeItemPosition@COleClientItem@@MAEHABVCRect@@@Z 5f87ec00 f
 0001:0007dc5a       ?OnInsertMenus@COleClientItem@@UAEXPAVCMenu@@PAUtagOleMenuGroupWidths@@@Z 5f87ec5a f
 0001:0007dc93       ?OnSetMenu@COleClientItem@@UAEXPAVCMenu@@PAXPAUHWND__@@@Z 5f87ec93 f
 0001:0007dd04       ?OnRemoveMenus@COleClientItem@@UAEXPAVCMenu@@@Z 5f87ed04 f
 0001:0007dd28       ?OnUpdateFrameTitle@COleClientItem@@UAEHXZ 5f87ed28 f
 0001:0007dd2b       ?Deactivate@COleClientItem@@QAEXXZ 5f87ed2b f
 0001:0007dd82       ?SetItemRects@COleClientItem@@QAEHPBUtagRECT@@0@Z 5f87ed82 f
 0001:0007dded       ?ReactivateAndUndo@COleClientItem@@QAEHXZ 5f87eded f
 0001:0007de2c       ?GetInPlaceWindow@COleClientItem@@QAEPAVCWnd@@XZ 5f87ee2c f
 0001:0007de5d       ?_GetBaseInterfaceMap@COleFrameHook@@KGPBUAFX_INTERFACEMAP@@XZ 5f87ee5d f
 0001:0007de63       ?GetInterfaceMap@COleFrameHook@@MBEPBUAFX_INTERFACEMAP@@XZ 5f87ee63 f
 0001:0007de69       ?GetInterfaceHook@COleFrameHook@@UAEPAUIUnknown@@PBX@Z 5f87ee69 f
 0001:0007de9d       ?AddRef@XOleCommandTarget@COleFrameHook@@UAGKXZ 5f87ee9d f
 0001:0007deac       ?Release@XOleCommandTarget@COleFrameHook@@UAGKXZ 5f87eeac f
 0001:0007debb       ?QueryInterface@XOleCommandTarget@COleFrameHook@@UAGJABU_GUID@@PAPAX@Z 5f87eebb f
 0001:0007ded2       ?Exec@XOleCommandTarget@COleFrameHook@@UAGJPBU_GUID@@KKPAUtagVARIANT@@1@Z 5f87eed2 f
 0001:0007df0f       ?QueryStatus@XOleCommandTarget@COleFrameHook@@UAGJPBU_GUID@@KQAU_tagOLECMD@@PAU_tagOLECMDTEXT@@@Z 5f87ef0f f
 0001:0007df49       ?AddRef@XOleInPlaceFrame@COleFrameHook@@UAGKXZ 5f87ef49 f
 0001:0007df58       ?Release@XOleInPlaceFrame@COleFrameHook@@UAGKXZ 5f87ef58 f
 0001:0007df67       ?QueryInterface@XOleInPlaceFrame@COleFrameHook@@UAGJABU_GUID@@PAPAX@Z 5f87ef67 f
 0001:0007df7e       ?GetWindow@XOleInPlaceFrame@COleFrameHook@@UAGJPAPAUHWND__@@@Z 5f87ef7e f
 0001:0007df9c       ?ContextSensitiveHelp@XOleInPlaceFrame@COleFrameHook@@UAGJH@Z 5f87ef9c f
 0001:0007e034       ?GetBorder@XOleInPlaceFrame@COleFrameHook@@UAGJPAUtagRECT@@@Z 5f87f034 f
 0001:0007e0d4       ?RequestBorderSpace@XOleInPlaceFrame@COleFrameHook@@UAGJPBUtagRECT@@@Z 5f87f0d4 f
 0001:0007e128       ?SetBorderSpace@XOleInPlaceFrame@COleFrameHook@@UAGJPBUtagRECT@@@Z 5f87f128 f
 0001:0007e1a7       ?SetActiveObject@XOleInPlaceFrame@COleFrameHook@@UAGJPAUIOleInPlaceActiveObject@@PBG@Z 5f87f1a7 f
 0001:0007e247       ?InsertMenus@XOleInPlaceFrame@COleFrameHook@@UAGJPAUHMENU__@@PAUtagOleMenuGroupWidths@@@Z 5f87f247 f
 0001:0007e2bf       ?SetMenu@XOleInPlaceFrame@COleFrameHook@@UAGJPAUHMENU__@@PAXPAUHWND__@@@Z 5f87f2bf f
 0001:0007e33a       ?RemoveMenus@XOleInPlaceFrame@COleFrameHook@@UAGJPAUHMENU__@@@Z 5f87f33a f
 0001:0007e3af       ?SetStatusText@XOleInPlaceFrame@COleFrameHook@@UAGJPBG@Z 5f87f3af f
 0001:0007e3cf       ?EnableModeless@XOleInPlaceFrame@COleFrameHook@@UAGJH@Z 5f87f3cf f
 0001:0007e446       ?TranslateAcceleratorW@XOleInPlaceFrame@COleFrameHook@@UAGJPAUtagMSG@@G@Z 5f87f446 f
 0001:0007e4e4       ?AddRef@XOleIPSite@COleClientItem@@UAGKXZ 5f87f4e4 f
 0001:0007e4f3       ?Release@XOleIPSite@COleClientItem@@UAGKXZ 5f87f4f3 f
 0001:0007e502       ?QueryInterface@XOleIPSite@COleClientItem@@UAGJABU_GUID@@PAPAX@Z 5f87f502 f
 0001:0007e519       ?GetWindow@XOleIPSite@COleClientItem@@UAGJPAPAUHWND__@@@Z 5f87f519 f
 0001:0007e53e       ?ContextSensitiveHelp@XOleIPSite@COleClientItem@@UAGJH@Z 5f87f53e f
 0001:0007e561       ?CanInPlaceActivate@XOleIPSite@COleClientItem@@UAGJXZ 5f87f561 f
 0001:0007e5aa       ?OnInPlaceActivate@XOleIPSite@COleClientItem@@UAGJXZ 5f87f5aa f
 0001:0007e616       ?OnUIActivate@XOleIPSite@COleClientItem@@UAGJXZ 5f87f616 f
 0001:0007e682       ?GetWindowContext@XOleIPSite@COleClientItem@@UAGJPAPAUIOleInPlaceFrame@@PAPAUIOleInPlaceUIWindow@@PAUtagRECT@@2PAUtagOIFI@@@Z 5f87f682 f
 0001:0007e7fd       ?Scroll@XOleIPSite@COleClientItem@@UAGJUtagSIZE@@@Z 5f87f7fd f
 0001:0007e872       ?OnUIDeactivate@XOleIPSite@COleClientItem@@UAGJH@Z 5f87f872 f
 0001:0007e8e1       ?OnInPlaceDeactivate@XOleIPSite@COleClientItem@@UAGJXZ 5f87f8e1 f
 0001:0007e94d       ?DiscardUndoState@XOleIPSite@COleClientItem@@UAGJXZ 5f87f94d f
 0001:0007e9b9       ?DeactivateAndUndo@XOleIPSite@COleClientItem@@UAGJXZ 5f87f9b9 f
 0001:0007ea25       ?OnPosRectChange@XOleIPSite@COleClientItem@@UAGJPBUtagRECT@@@Z 5f87fa25 f
 0001:0007eaa2       ?_AfxOlePropertiesEnabled@@YGHXZ 5f87faa2 f
 0001:0007eaea       ?_AfxParseDisplayName@@YAJPAUIMoniker@@PAUIBindCtx@@PAGPAKPAPAU1@@Z 5f87faea f
 0001:0007ebc8       ?SetLinkUpdateOptions@COleUILinkInfo@@UAGJKK@Z 5f87fbc8 f
 0001:0007ec1a       ?GetLinkUpdateOptions@COleUILinkInfo@@UAGJKPAK@Z 5f87fc1a f
 0001:0007ec7f       ?SetLinkSource@COleUILinkInfo@@UAGJKPAGKPAKH@Z 5f87fc7f f
 0001:0007ee44       ?GetLinkSource@COleUILinkInfo@@UAGJKPAPAGPAK00PAH2@Z 5f87fe44 f
 0001:0007ef8c       ?OpenLinkSource@COleUILinkInfo@@UAGJK@Z 5f87ff8c f
 0001:0007efdf       ?UpdateLink@COleUILinkInfo@@UAGJKHH@Z 5f87ffdf f
 0001:0007f051       ?CancelLink@COleUILinkInfo@@UAGJK@Z 5f880051 f
 0001:0007f0c7       ??0COleInsertDialog@@QAE@KPAVCWnd@@@Z 5f8800c7 f
 0001:0007f168       ??_GCOleInsertDialog@@UAEPAXI@Z 5f880168 f
 0001:0007f168       ??_ECOleInsertDialog@@UAEPAXI@Z 5f880168 f
 0001:0007f184       ?AddClassIDToList@COleInsertDialog@@IAEXAAPAU_GUID@@AAH1PAU2@@Z 5f880184 f
 0001:0007f1fa       ?DoModal@COleInsertDialog@@QAEHK@Z 5f8801fa f
 0001:0007f48d       ?DoModal@COleInsertDialog@@UAEHXZ 5f88048d f
 0001:0007f4b8       ?GetSelectionType@COleInsertDialog@@QBEIXZ 5f8804b8 f
 0001:0007f4cc       ?CreateItem@COleInsertDialog@@QAEHPAVCOleClientItem@@@Z 5f8804cc f
 0001:0007f558       ??0COleConvertDialog@@QAE@PAVCOleClientItem@@KPAU_GUID@@PAVCWnd@@@Z 5f880558 f
 0001:0007f6cc       ??_ECOleConvertDialog@@UAEPAXI@Z 5f8806cc f
 0001:0007f6cc       ??_GCOleConvertDialog@@UAEPAXI@Z 5f8806cc f
 0001:0007f6e8       ?DoModal@COleConvertDialog@@UAEHXZ 5f8806e8 f
 0001:0007f713       ?DoConvert@COleConvertDialog@@QAEHPAVCOleClientItem@@@Z 5f880713 f
 0001:0007f81d       ?GetSelectionType@COleConvertDialog@@QBEIXZ 5f88081d f
 0001:0007f854       ??0COleChangeIconDialog@@QAE@PAVCOleClientItem@@KPAVCWnd@@@Z 5f880854 f
 0001:0007f8f0       ??_GCOleChangeIconDialog@@UAEPAXI@Z 5f8808f0 f
 0001:0007f8f0       ??_ECOleChangeIconDialog@@UAEPAXI@Z 5f8808f0 f
 0001:0007f90c       ?DoModal@COleChangeIconDialog@@UAEHXZ 5f88090c f
 0001:0007f937       ?DoChangeIcon@COleChangeIconDialog@@QAEHPAVCOleClientItem@@@Z 5f880937 f
 0001:0007f994       ??_GCOleLinksDialog@@UAEPAXI@Z 5f880994 f
 0001:0007f994       ??_ECOleLinksDialog@@UAEPAXI@Z 5f880994 f
 0001:0007f9b0       ?DoModal@COleLinksDialog@@UAEHXZ 5f8809b0 f
 0001:0007f9e5       ??_ECOleUpdateDialog@@UAEPAXI@Z 5f8809e5 f
 0001:0007f9e5       ??_GCOleUpdateDialog@@UAEPAXI@Z 5f8809e5 f
 0001:0007fa4e       ??0COlePasteSpecialDialog@@QAE@KPAVCOleDataObject@@PAVCWnd@@@Z 5f880a4e f
 0001:0007fb2a       ??_ECOlePasteSpecialDialog@@UAEPAXI@Z 5f880b2a f
 0001:0007fb2a       ??_GCOlePasteSpecialDialog@@UAEPAXI@Z 5f880b2a f
 0001:0007fb46       ?DoModal@COlePasteSpecialDialog@@UAEHXZ 5f880b46 f
 0001:0007fb81       ?GetSelectionType@COlePasteSpecialDialog@@QBEIXZ 5f880b81 f
 0001:0007fbcf       ?AddLinkEntry@COlePasteSpecialDialog@@QAE?AW4tagOLEUIPASTEFLAG@@I@Z 5f880bcf f
 0001:0007fc22       ?AddFormat@COlePasteSpecialDialog@@QAEXIKIHH@Z 5f880c22 f
 0001:0007fd0e       ?AddFormat@COlePasteSpecialDialog@@QAEXABUtagFORMATETC@@PAG1K@Z 5f880d0e f
 0001:0007fd81       ?AddStandardFormats@COlePasteSpecialDialog@@QAEXH@Z 5f880d81 f
 0001:0007fdf5       ?CreateItem@COlePasteSpecialDialog@@QAEHPAVCOleClientItem@@@Z 5f880df5 f
 0001:0007fec8       ?AfxOleHookProc@@YGIPAUHWND__@@IIJ@Z 5f880ec8 f
 0001:0007ff13       ??_GCOleDialog@@UAEPAXI@Z  5f880f13 f
 0001:0007ff13       ??_ECOleDialog@@UAEPAXI@Z  5f880f13 f
 0001:0007ff2f       ?MapResult@COleDialog@@QAEHI@Z 5f880f2f f
 0001:0007ff4d       ??0COleBusyDialog@@QAE@PAUHTASK__@@HKPAVCWnd@@@Z 5f880f4d f
 0001:0007ffa1       ??_GCOleBusyDialog@@UAEPAXI@Z 5f880fa1 f
 0001:0007ffa1       ??_ECOleBusyDialog@@UAEPAXI@Z 5f880fa1 f
 0001:0007ffbd       ?DoModal@COleBusyDialog@@UAEHXZ 5f880fbd f
 0001:0008004d       ??0COlePropertiesDialog@@QAE@PAVCOleClientItem@@IIPAVCWnd@@@Z 5f88104d f
 0001:000801a7       ??1COlePropertiesDialog@@UAE@XZ 5f8811a7 f
 0001:000801ac       ?DoModal@COlePropertiesDialog@@UAEHXZ 5f8811ac f
 0001:000801f8       ?OnInitDialog@COlePropertiesDialog@@UAEHXZ 5f8811f8 f
 0001:0008021f       ?Release@XOleUIObjInfo@COlePropertiesDialog@@UAGKXZ 5f88121f f
 0001:00080224       ?QueryInterface@XOleUIObjInfo@COlePropertiesDialog@@UAGJABU_GUID@@PAPAX@Z 5f881224 f
 0001:0008022c       ?GetObjectInfo@XOleUIObjInfo@COlePropertiesDialog@@UAGJKPAKPAPAG111@Z 5f88122c f
 0001:0008040a       ?GetConvertInfo@XOleUIObjInfo@COlePropertiesDialog@@UAGJKPAU_GUID@@PAG0PAPAU3@PAI@Z 5f88140a f
 0001:00080465       ?ConvertObject@XOleUIObjInfo@COlePropertiesDialog@@UAGJKABU_GUID@@@Z 5f881465 f
 0001:00080490       ?GetViewInfo@XOleUIObjInfo@COlePropertiesDialog@@UAGJKPAPAXPAKPAH@Z 5f881490 f
 0001:000804c9       ?SetViewInfo@XOleUIObjInfo@COlePropertiesDialog@@UAGJKPAXKHH@Z 5f8814c9 f
 0001:0008055c       ?OnApplyScale@COlePropertiesDialog@@UAEHPAVCOleClientItem@@HH@Z 5f88155c f
 0001:00080561       ??0COleChangeSourceDialog@@QAE@PAVCOleClientItem@@PAVCWnd@@@Z 5f881561 f
 0001:000805ec       ??_GCOleChangeSourceDialog@@UAEPAXI@Z 5f8815ec f
 0001:000805ec       ??_ECOleChangeSourceDialog@@UAEPAXI@Z 5f8815ec f
 0001:00080608       ?DoModal@COleChangeSourceDialog@@UAEHXZ 5f881608 f
 0001:00080633       ?PreInitDialog@COleChangeSourceDialog@@UAEXXZ 5f881633 f
 0001:0008064d       ??1COleChangeSourceDialog@@UAE@XZ 5f88164d f
 0001:0008067f       ?ReportError@COleClientItem@@UBEHJ@Z 5f88167f f
 0001:000806cd       ?DoVerb@COleClientItem@@UAEHJPAVCView@@PAUtagMSG@@@Z 5f8816cd f
 0001:000807c9       ?GetPrimarySelectedItem@COleDocument@@UAEPAVCOleClientItem@@PAVCView@@@Z 5f8817c9 f
 0001:00080849       ?AfxOleSetEditMenu@@YGXPAVCOleClientItem@@PAVCMenu@@IIII@Z 5f881849 f
 0001:000808df       ?OnUpdatePasteMenu@COleDocument@@IAEXPAVCCmdUI@@@Z 5f8818df f
 0001:000808f6       ?OnUpdatePasteLinkMenu@COleDocument@@IAEXPAVCCmdUI@@@Z 5f8818f6 f
 0001:0008090d       ?OnUpdateEditLinksMenu@COleDocument@@IAEXPAVCCmdUI@@@Z 5f88190d f
 0001:0008094b       ?OnEditLinks@COleDocument@@IAEXXZ 5f88194b f
 0001:0008099f       ?OnEditConvert@COleDocument@@IAEXXZ 5f88199f f
 0001:00080a17       ?OnUpdateEditChangeIcon@COleDocument@@IAEXPAVCCmdUI@@@Z 5f881a17 f
 0001:00080a45       ?OnEditChangeIcon@COleDocument@@IAEXXZ 5f881a45 f
 0001:00080abc       ?OnUpdateObjectVerbMenu@COleDocument@@IAEXPAVCCmdUI@@@Z 5f881abc f
 0001:00080b4b       ?Attach@COleDataObject@@QAEXPAUIDataObject@@H@Z 5f881b4b f
 0001:00080b78       ?Detach@COleDataObject@@QAEPAUIDataObject@@XZ 5f881b78 f
 0001:00080b8b       ?GetIDataObject@COleDataObject@@QAEPAUIDataObject@@H@Z 5f881b8b f
 0001:00080bac       ?BeginEnumFormats@COleDataObject@@QAEXXZ 5f881bac f
 0001:00080bd0       ?GetNextFormat@COleDataObject@@QAEHPAUtagFORMATETC@@@Z 5f881bd0 f
 0001:00080bfe       ?GetFileData@COleDataObject@@QAEPAVCFile@@GPAUtagFORMATETC@@@Z 5f881bfe f
 0001:00080dc7       ?GetGlobalData@COleDataObject@@QAEPAXGPAUtagFORMATETC@@@Z 5f881dc7 f
 0001:00080e65       ?GetData@COleDataObject@@QAEHGPAUtagSTGMEDIUM@@PAUtagFORMATETC@@@Z 5f881e65 f
 0001:00080ec7       ?EnsureClipboardObject@COleDataObject@@QAEXXZ 5f881ec7 f
 0001:00080ef6       ??0COleDataSource@@QAE@XZ  5f881ef6 f
 0001:00080f21       ?Empty@COleDataSource@@QAEXXZ 5f881f21 f
 0001:00080f72       ?SetClipboard@COleDataSource@@QAEXXZ 5f881f72 f
 0001:00080fd4       ?GetCacheEntry@COleDataSource@@IAEPAUAFX_DATACACHE_ENTRY@@PAUtagFORMATETC@@W4tagDATADIR@@@Z 5f881fd4 f
 0001:00081077       ?CacheGlobalData@COleDataSource@@QAEXGPAXPAUtagFORMATETC@@@Z 5f882077 f
 0001:000810b2       ?CacheData@COleDataSource@@QAEXGPAUtagSTGMEDIUM@@PAUtagFORMATETC@@@Z 5f8820b2 f
 0001:000810e9       ?DelayRenderFileData@COleDataSource@@QAEXGPAUtagFORMATETC@@@Z 5f8820e9 f
 0001:0008111f       ?DelayRenderData@COleDataSource@@QAEXGPAUtagFORMATETC@@@Z 5f88211f f
 0001:0008116e       ?DelaySetData@COleDataSource@@QAEXGPAUtagFORMATETC@@@Z 5f88216e f
 0001:000811a0       ?Lookup@COleDataSource@@IBEPAUAFX_DATACACHE_ENTRY@@PAUtagFORMATETC@@W4tagDATADIR@@@Z 5f8821a0 f
 0001:0008122c       ?OnRenderData@COleDataSource@@UAEHPAUtagFORMATETC@@PAUtagSTGMEDIUM@@@Z 5f88222c f
 0001:00081380       ?OnSetData@COleDataSource@@UAEHPAUtagFORMATETC@@PAUtagSTGMEDIUM@@H@Z 5f882380 f
 0001:00081385       ?GetInterfaceMap@CEnumFormatEtc@@MBEPBUAFX_INTERFACEMAP@@XZ 5f882385 f
 0001:0008138b       ??0CEnumFormatEtc@@QAE@XZ  5f88238b f
 0001:000813a9       ??_GCEnumFormatEtc@@UAEPAXI@Z 5f8823a9 f
 0001:000813a9       ??_ECEnumFormatEtc@@UAEPAXI@Z 5f8823a9 f
 0001:000813c5       ??1CEnumFormatEtc@@UAE@XZ  5f8823c5 f
 0001:000813fe       ?OnNext@CEnumFormatEtc@@MAEHPAX@Z 5f8823fe f
 0001:0008142d       ?AddFormat@CEnumFormatEtc@@QAEXPBUtagFORMATETC@@@Z 5f88242d f
 0001:000814a3       ?GetInterfaceMap@COleDataSource@@MBEPBUAFX_INTERFACEMAP@@XZ 5f8824a3 f
 0001:000814a9       ?AddRef@XDataObject@COleDataSource@@UAGKXZ 5f8824a9 f
 0001:000814b8       ?Release@XDataObject@COleDataSource@@UAGKXZ 5f8824b8 f
 0001:000814c7       ?QueryInterface@XDataObject@COleDataSource@@UAGJABU_GUID@@PAPAX@Z 5f8824c7 f
 0001:000814de       ?GetData@XDataObject@COleDataSource@@UAGJPAUtagFORMATETC@@PAUtagSTGMEDIUM@@@Z 5f8824de f
 0001:000815a0       ?GetDataHere@XDataObject@COleDataSource@@UAGJPAUtagFORMATETC@@PAUtagSTGMEDIUM@@@Z 5f8825a0 f
 0001:00081655       ?QueryGetData@XDataObject@COleDataSource@@UAGJPAUtagFORMATETC@@@Z 5f882655 f
 0001:00081678       ?GetCanonicalFormatEtc@XDataObject@COleDataSource@@UAGJPAUtagFORMATETC@@0@Z 5f882678 f
 0001:00081680       ?SetData@XDataObject@COleDataSource@@UAGJPAUtagFORMATETC@@PAUtagSTGMEDIUM@@H@Z 5f882680 f
 0001:00081718       ?EnumFormatEtc@XDataObject@COleDataSource@@UAGJKPAPAUIEnumFORMATETC@@@Z 5f882718 f
 0001:000817bf       ?DAdvise@XDataObject@COleDataSource@@UAGJPAUtagFORMATETC@@KPAUIAdviseSink@@PAK@Z 5f8827bf f
 0001:000817ce       ?DUnadvise@XDataObject@COleDataSource@@UAGJK@Z 5f8827ce f
 0001:000817d6       ?EnumDAdvise@XDataObject@COleDataSource@@UAGJPAPAUIEnumSTATDATA@@@Z 5f8827d6 f
 0001:000817e5       ??0CEnumArray@@QAE@IPBXIH@Z 5f8827e5 f
 0001:00081824       ??_GCEnumArray@@UAEPAXI@Z  5f882824 f
 0001:00081824       ??_ECEnumArray@@UAEPAXI@Z  5f882824 f
 0001:00081840       ?OnNext@CEnumArray@@MAEHPAX@Z 5f882840 f
 0001:00081870       ?OnSkip@CEnumArray@@MAEHXZ 5f882870 f
 0001:00081888       ?OnReset@CEnumArray@@MAEXXZ 5f882888 f
 0001:0008188d       ?OnClone@CEnumArray@@MAEPAV1@XZ 5f88288d f
 0001:000818d3       ?AddRef@XEnumVOID@CEnumArray@@UAGKXZ 5f8828d3 f
 0001:000818e2       ?Release@XEnumVOID@CEnumArray@@UAGKXZ 5f8828e2 f
 0001:000818f1       ?QueryInterface@XEnumVOID@CEnumArray@@UAGJABU_GUID@@PAPAX@Z 5f8828f1 f
 0001:00081908       ?Next@XEnumVOID@CEnumArray@@UAGJKPAXPAK@Z 5f882908 f
 0001:000819aa       ?Skip@XEnumVOID@CEnumArray@@UAGJK@Z 5f8829aa f
 0001:00081a22       ?Reset@XEnumVOID@CEnumArray@@UAGJXZ 5f882a22 f
 0001:00081a65       ?Clone@XEnumVOID@CEnumArray@@UAGJPAPAUIEnumVOID@@@Z 5f882a65 f
 0001:00081b1f       ?GetLicenseKey@COleObjectFactory@@MAEHKPAPAG@Z 5f882b1f f
 0001:00081b24       ?VerifyLicenseKey@COleObjectFactory@@MAEHPAG@Z 5f882b24 f
 0001:00081b81       ?LockServer@XClassFactory@COleObjectFactory@@UAGJH@Z 5f882b81 f
 0001:00081bf1       ?GetLicInfo@XClassFactory@COleObjectFactory@@UAGJPAUtagLICINFO@@@Z 5f882bf1 f
 0001:00081c5f       ?RequestLicKey@XClassFactory@COleObjectFactory@@UAGJKPAPAG@Z 5f882c5f f
 0001:00081d37       ??0COleCntrFrameWnd@@QAE@PAVCOleIPFrameWnd@@@Z 5f882d37 f
 0001:00081d78       ??_ECOleCntrFrameWnd@@UAEPAXI@Z 5f882d78 f
 0001:00081d78       ??_GCOleCntrFrameWnd@@UAEPAXI@Z 5f882d78 f
 0001:00081d94       ??1COleCntrFrameWnd@@UAE@XZ 5f882d94 f
 0001:00081dd3       ?RecalcLayout@COleCntrFrameWnd@@UAEXH@Z 5f882dd3 f
 0001:00081e63       ?OnCmdMsg@COleCntrFrameWnd@@UAEHIHPAXPAUAFX_CMDHANDLERINFO@@@Z 5f882e63 f
 0001:00081ebf       ?PostNcDestroy@COleCntrFrameWnd@@MAEXXZ 5f882ebf f
 0001:00081ec0       ?_GetBaseMessageMap@COleIPFrameWnd@@KGPBUAFX_MSGMAP@@XZ 5f882ec0 f
 0001:00081ec6       ?GetMessageMap@COleIPFrameWnd@@MBEPBUAFX_MSGMAP@@XZ 5f882ec6 f
 0001:00081ecc       ??0COleIPFrameWnd@@QAE@XZ  5f882ecc f
 0001:00081f44       ?OnCreate@COleIPFrameWnd@@IAEHPAUtagCREATESTRUCTW@@@Z 5f882f44 f
 0001:00081f8b       ?OnDestroy@COleIPFrameWnd@@IAEXXZ 5f882f8b f
 0001:00081fd6       ?OnCreateControlBars@COleIPFrameWnd@@UAEHPAVCWnd@@0@Z 5f882fd6 f
 0001:00081fdc       ?OnCreateControlBars@COleIPFrameWnd@@UAEHPAVCFrameWnd@@0@Z 5f882fdc f
 0001:00081fef       ?OnIdleUpdateCmdUI@COleIPFrameWnd@@IAEXXZ 5f882fef f
 0001:0008200c       ?OnIdleUpdateCmdUI@COleCntrFrameWnd@@QAEXXZ 5f88300c f
 0001:0008204c       ?OnWindowPosChanging@COleIPFrameWnd@@IAEXPAUtagWINDOWPOS@@@Z 5f88304c f
 0001:0008208c       ?OnSetMessageString@COleIPFrameWnd@@UAEJIJ@Z 5f88308c f
 0001:00082115       ?LoadFrame@COleIPFrameWnd@@UAEHIKPAVCWnd@@PAUCCreateContext@@@Z 5f883115 f
 0001:00082165       ?OnSize@COleIPFrameWnd@@IAEXIHH@Z 5f883165 f
 0001:00082168       ?OnResizeChild@COleIPFrameWnd@@IAEJIJ@Z 5f883168 f
 0001:00082224       ?OnRequestPositionChange@COleIPFrameWnd@@MAEXPBUtagRECT@@@Z 5f883224 f
 0001:00082243       ?OnRecalcParent@COleIPFrameWnd@@IAEJIJ@Z 5f883243 f
 0001:0008226f       ?RecalcLayout@COleIPFrameWnd@@UAEXH@Z 5f88326f f
 0001:000823cd       ?RepositionFrame@COleIPFrameWnd@@UAEXPBUtagRECT@@0@Z 5f8833cd f
 0001:0008241c       ?PreTranslateMessage@COleIPFrameWnd@@UAEHPAUtagMSG@@@Z 5f88341c f
 0001:000824a1       ?OnUpdateControlBarMenu@COleIPFrameWnd@@IAEXPAVCCmdUI@@@Z 5f8834a1 f
 0001:0008250b       ?OnBarCheck@COleIPFrameWnd@@IAEHI@Z 5f88350b f
 0001:0008256a       ?OnContextHelp@COleIPFrameWnd@@IAEXXZ 5f88356a f
 0001:00082604       ?GetInPlaceMenu@COleIPFrameWnd@@MAEPAUHMENU__@@XZ 5f883604 f
 0001:00082613       ?BuildSharedMenu@COleIPFrameWnd@@MAEHXZ 5f883613 f
 0001:000826ad       ?DestroySharedMenu@COleIPFrameWnd@@MAEXXZ 5f8836ad f
 0001:00082714       ??_ECOleLinkingDoc@@UAEPAXI@Z 5f883714 f
 0001:00082714       ??_GCOleLinkingDoc@@UAEPAXI@Z 5f883714 f
 0001:00082730       ?GetMoniker@COleLinkingDoc@@UAEPAUIMoniker@@W4tagOLEGETMONIKER@@@Z 5f883730 f
 0001:000827c7       ?OnSaveDocument@COleLinkingDoc@@UAEHPBG@Z 5f8837c7 f
 0001:00082824       ?SaveToStorage@COleLinkingDoc@@MAEXPAVCObject@@@Z 5f883824 f
 0001:00082871       ?GetContainer@COleLinkingDoc@@UAEPAUIOleItemContainer@@XZ 5f883871 f
 0001:00082888       ?OnGetLinkedItem@COleLinkingDoc@@MAEPAVCOleServerItem@@PBG@Z 5f883888 f
 0001:0008288d       ?OnFindEmbeddedItem@COleLinkingDoc@@MAEPAVCOleClientItem@@PBG@Z 5f88388d f
 0001:000828db       ?ReportSaveLoadException@COleLinkingDoc@@UAEXPBGPAVCException@@HI@Z 5f8838db f
 0001:0008290a       ?EndDeferErrors@COleLinkingDoc@@QAEJJ@Z 5f88390a f
 0001:00082951       ?GetClassID@XPersistFile@COleLinkingDoc@@UAGJPAU_GUID@@@Z 5f883951 f
 0001:00082984       ?IsDirty@XPersistFile@COleLinkingDoc@@UAGJXZ 5f883984 f
 0001:000829d0       ?Load@XPersistFile@COleLinkingDoc@@UAGJPBGK@Z 5f8839d0 f
 0001:00082aae       ?Save@XPersistFile@COleLinkingDoc@@UAGJPBGH@Z 5f883aae f
 0001:00082b5d       ?SaveCompleted@XPersistFile@COleLinkingDoc@@UAGJPBG@Z 5f883b5d f
 0001:00082bc2       ?GetCurFile@XPersistFile@COleLinkingDoc@@UAGJPAPAG@Z 5f883bc2 f
 0001:00082bfa       ?AddRef@XOleItemContainer@COleLinkingDoc@@UAGKXZ 5f883bfa f
 0001:00082c0c       ?Release@XOleItemContainer@COleLinkingDoc@@UAGKXZ 5f883c0c f
 0001:00082c1e       ?QueryInterface@XOleItemContainer@COleLinkingDoc@@UAGJABU_GUID@@PAPAX@Z 5f883c1e f
 0001:00082c38       ?EnumObjects@XOleItemContainer@COleLinkingDoc@@UAGJKPAPAUIEnumUnknown@@@Z 5f883c38 f
 0001:00082c47       ?ParseDisplayName@XOleItemContainer@COleLinkingDoc@@UAGJPAUIBindCtx@@PAGPAKPAPAUIMoniker@@@Z 5f883c47 f
 0001:00082d18       ?LockContainer@XOleItemContainer@COleLinkingDoc@@UAGJH@Z 5f883d18 f
 0001:00082d32       ?GetObjectW@XOleItemContainer@COleLinkingDoc@@UAGJPAGKPAUIBindCtx@@ABU_GUID@@PAPAX@Z 5f883d32 f
 0001:00082e22       ?GetObjectStorage@XOleItemContainer@COleLinkingDoc@@UAGJPAGPAUIBindCtx@@ABU_GUID@@PAPAX@Z 5f883e22 f
 0001:00082eb3       ?IsRunning@XOleItemContainer@COleLinkingDoc@@UAGJPAG@Z 5f883eb3 f
 0001:00082f50       ??1COleTemplateServer@@UAE@XZ 5f883f50 f
 0001:00082f55       ?OnCmdMsg@COleTemplateServer@@MAEHIHPAXPAUAFX_CMDHANDLERINFO@@@Z 5f883f55 f
 0001:00082f7a       ?Unregister@COleTemplateServer@@QAEHXZ 5f883f7a f
 0001:000830ae       ?OnCreateObject@COleTemplateServer@@MAEPAVCCmdTarget@@XZ 5f8840ae f
 0001:000830e2       ?AfxDllGetClassObject@@YGJABU_GUID@@0PAPAX@Z 5f8840e2 f
 0001:000831a0       ?AfxDllCanUnloadNow@@YGJXZ 5f8841a0 f
 0001:0008320f       ??0COleDropSource@@QAE@XZ  5f88420f f
 0001:0008329f       ??1COleDropSource@@UAE@XZ  5f88429f f
 0001:000832a4       ?QueryContinueDrag@COleDropSource@@UAEJHK@Z 5f8842a4 f
 0001:000832d7       ?GiveFeedback@COleDropSource@@UAEJK@Z 5f8842d7 f
 0001:000832e6       ?OnBeginDrag@COleDropSource@@UAEHPAVCWnd@@@Z 5f8842e6 f
 0001:0008341c       ?GetInterfaceMap@COleDropSource@@MBEPBUAFX_INTERFACEMAP@@XZ 5f88441c f
 0001:00083422       ?AddRef@XDropSource@COleDropSource@@UAGKXZ 5f884422 f
 0001:00083431       ?Release@XDropSource@COleDropSource@@UAGKXZ 5f884431 f
 0001:00083440       ?QueryInterface@XDropSource@COleDropSource@@UAGJABU_GUID@@PAPAX@Z 5f884440 f
 0001:00083457       ?QueryContinueDrag@XDropSource@COleDropSource@@UAGJHK@Z 5f884457 f
 0001:0008346f       ?GiveFeedback@XDropSource@COleDropSource@@UAGJK@Z 5f88446f f
 0001:000834b3       ?DoDragDrop@COleDataSource@@QAEKKPBUtagRECT@@PAVCOleDropSource@@@Z 5f8844b3 f
 0001:000835c8       ?OnDragScroll@COleDropTarget@@UAEKPAVCWnd@@KVCPoint@@@Z 5f8845c8 f
 0001:0008380a       ?OnDragEnter@COleDropTarget@@UAEKPAVCWnd@@PAVCOleDataObject@@KVCPoint@@@Z 5f88480a f
 0001:0008383c       ?OnDragOver@COleDropTarget@@UAEKPAVCWnd@@PAVCOleDataObject@@KVCPoint@@@Z 5f88483c f
 0001:0008386e       ?OnDrop@COleDropTarget@@UAEHPAVCWnd@@PAVCOleDataObject@@KVCPoint@@@Z 5f88486e f
 0001:000838a0       ?OnDropEx@COleDropTarget@@UAEKPAVCWnd@@PAVCOleDataObject@@KKVCPoint@@@Z 5f8848a0 f
 0001:000838da       ?OnDragLeave@COleDropTarget@@UAEXPAVCWnd@@@Z 5f8848da f
 0001:000838fd       ?_AfxFilterDropEffect@@YGKKK@Z 5f8848fd f
 0001:00083931       ?DragEnter@XDropTarget@COleDropTarget@@UAGJPAUIDataObject@@KU_POINTL@@PAK@Z 5f884931 f
 0001:00083a2f       ?DragOver@XDropTarget@COleDropTarget@@UAGJKU_POINTL@@PAK@Z 5f884a2f f
 0001:00083b18       ?DragLeave@XDropTarget@COleDropTarget@@UAGJXZ 5f884b18 f
 0001:00083ba0       ?Drop@XDropTarget@COleDropTarget@@UAGJPAUIDataObject@@KU_POINTL@@PAK@Z 5f884ba0 f
 0001:00083cca       ?BeginBusyState@COleMessageFilter@@UAEXXZ 5f884cca f
 0001:00083cce       ?EndBusyState@COleMessageFilter@@UAEXXZ 5f884cce f
 0001:00083cda       ?IsSignificantMessage@COleMessageFilter@@UAEHPAUtagMSG@@@Z 5f884cda f
 0001:00083d30       ?OnBusyDialog@COleMessageFilter@@UAEHPAUHTASK__@@@Z 5f884d30 f
 0001:00083dab       ?OnNotRespondingDialog@COleMessageFilter@@UAEHPAUHTASK__@@@Z 5f884dab f
 0001:00083e27       ?GetInterfaceMap@COleMessageFilter@@MBEPBUAFX_INTERFACEMAP@@XZ 5f884e27 f
 0001:00083e2d       ?QueryInterface@XMessageFilter@COleMessageFilter@@UAGJABU_GUID@@PAPAX@Z 5f884e2d f
 0001:00083e6e       ?RetryRejectedCall@XMessageFilter@COleMessageFilter@@UAGKPAUHTASK__@@KK@Z 5f884e6e f
 0001:00083f75       ??_GCOleServerDoc@@UAEPAXI@Z 5f884f75 f
 0001:00083f75       ??_ECOleServerDoc@@UAEPAXI@Z 5f884f75 f
 0001:00083ff5       ?GetEmbeddedItem@COleServerDoc@@QAEPAVCOleServerItem@@XZ 5f884ff5 f
 0001:0008401a       ?GetDocObjectServer@COleServerDoc@@MAEPAVCDocObjectServer@@PAUIOleDocumentSite@@@Z 5f88501a f
 0001:0008401f       ?OnExecOleCmd@COleServerDoc@@MAEJPBU_GUID@@KKPAUtagVARIANT@@1@Z 5f88501f f
 0001:0008406c       ?NotifyRename@COleServerDoc@@QAEXPBG@Z 5f88506c f
 0001:0008410c       ?OnUpdate@COleServerItem@@UAEXPAV1@JPAVCObject@@W4tagDVASPECT@@@Z 5f88510c f
 0001:0008411a       ?GetZoomFactor@COleServerDoc@@QBEHPAUtagSIZE@@0PBUtagRECT@@@Z 5f88511a f
 0001:000841ff       ?GetItemPosition@COleServerDoc@@QBEXPAUtagRECT@@@Z 5f8851ff f
 0001:0008421a       ?GetItemClipRect@COleServerDoc@@QBEXPAUtagRECT@@@Z 5f88521a f
 0001:00084235       ?OnGetLinkedItem@COleServerDoc@@UAEPAVCOleServerItem@@PBG@Z 5f885235 f
 0001:00084276       ?OnClose@COleServerDoc@@MAEXW4tagOLECLOSE@@@Z 5f885276 f
 0001:00084337       ?SaveModifiedPrompt@COleServerDoc@@IAEHXZ 5f885337 f
 0001:000843d5       ?GetFileTypeString@COleServerDoc@@MAEHAAVCString@@@Z 5f8853d5 f
 0001:000843fd       ?OnSetHostNames@COleServerDoc@@MAEXPBG0@Z 5f8853fd f
 0001:000844a8       ?SaveEmbedding@COleServerDoc@@QAEXXZ 5f8854a8 f
 0001:000844d6       ?OnUpdateDocument@COleServerDoc@@UAEHXZ 5f8854d6 f
 0001:00084530       ?GetMoniker@COleServerDoc@@UAEPAUIMoniker@@W4tagOLEGETMONIKER@@@Z 5f885530 f
 0001:00084592       ?GetMessageMap@COleServerDoc@@MBEPBUAFX_MSGMAP@@XZ 5f885592 f
 0001:00084598       ?OnFileUpdate@COleServerDoc@@IAEXXZ 5f885598 f
 0001:000845af       ?OnFileSaveCopyAs@COleServerDoc@@IAEXXZ 5f8855af f
 0001:00084658       ?OnUpdateFileUpdate@COleServerDoc@@IAEXPAVCCmdUI@@@Z 5f885658 f
 0001:00084669       ?OnSaveDocument@COleServerDoc@@UAEHPBG@Z 5f885669 f
 0001:000846f8       ?OnShowDocument@COleServerDoc@@MAEXH@Z 5f8856f8 f
 0001:000849b7       ?OnNewEmbedding@COleServerDoc@@MAEXPAUIStorage@@@Z 5f8859b7 f
 0001:00084a4e       ?OnOpenEmbedding@COleServerDoc@@MAEXPAUIStorage@@@Z 5f885a4e f
 0001:00084ae9       ?OnSaveEmbedding@COleServerDoc@@MAEXPAUIStorage@@@Z 5f885ae9 f
 0001:00084b70       ?_AfxGetWindow32@@YGPAUHWND__@@PAU1@@Z 5f885b70 f
 0001:00084bb1       ?ActivateInPlace@COleServerDoc@@QAEHXZ 5f885bb1 f
 0001:00084faf       ?CreateInPlaceFrame@COleServerDoc@@MAEPAVCOleIPFrameWnd@@PAVCWnd@@@Z 5f885faf f
 0001:00085064       ?DestroyInPlaceFrame@COleServerDoc@@MAEXPAVCOleIPFrameWnd@@@Z 5f886064 f
 0001:0008514e       ?ConnectView@COleServerDoc@@IAEXPAVCWnd@@PAVCView@@@Z 5f88614e f
 0001:000851a5       ?OnFrameWindowActivate@COleServerDoc@@MAEXH@Z 5f8861a5 f
 0001:0008521c       ?OnDocWindowActivate@COleServerDoc@@MAEXH@Z 5f88621c f
 0001:0008535b       ?OnShowControlBars@COleServerDoc@@MAEXPAVCFrameWnd@@H@Z 5f88635b f
 0001:000853bd       ?OnResizeBorder@COleServerDoc@@UAEXPBUtagRECT@@PAUIOleInPlaceUIWindow@@H@Z 5f8863bd f
 0001:0008554b       ?OnDeactivate@COleServerDoc@@UAEXXZ 5f88654b f
 0001:000855d8       ?OnDeactivateUI@COleServerDoc@@UAEXH@Z 5f8865d8 f
 0001:000856db       ?OnSetItemRects@COleServerDoc@@MAEXPBUtagRECT@@0@Z 5f8866db f
 0001:000856f8       ?OnReactivateAndUndo@COleServerDoc@@MAEHXZ 5f8866f8 f
 0001:000856fb       ?RequestPositionChange@COleServerDoc@@QAEXPBUtagRECT@@@Z 5f8866fb f
 0001:00085726       ?ScrollContainerBy@COleServerDoc@@QAEHVCSize@@@Z 5f886726 f
 0001:00085760       ?DeactivateAndUndo@COleServerDoc@@QAEHXZ 5f886760 f
 0001:00085792       ?DiscardUndoState@COleServerDoc@@QAEHXZ 5f886792 f
 0001:000857c4       ?GetClassID@XPersistStorage@COleServerDoc@@UAGJPAU_GUID@@@Z 5f8867c4 f
 0001:000857e5       ?IsDirty@XPersistStorage@COleServerDoc@@UAGJXZ 5f8867e5 f
 0001:00085802       ?InitNew@XPersistStorage@COleServerDoc@@UAGJPAUIStorage@@@Z 5f886802 f
 0001:00085878       ?Load@XPersistStorage@COleServerDoc@@UAGJPAUIStorage@@@Z 5f886878 f
 0001:00085907       ?Save@XPersistStorage@COleServerDoc@@UAGJPAUIStorage@@H@Z 5f886907 f
 0001:000859d5       ?SaveCompleted@XPersistStorage@COleServerDoc@@UAGJPAUIStorage@@@Z 5f8869d5 f
 0001:00085a63       ?HandsOffStorage@XPersistStorage@COleServerDoc@@UAGJXZ 5f886a63 f
 0001:00085ad0       ?AddRef@XOleObject@COleServerDoc@@UAGKXZ 5f886ad0 f
 0001:00085ae2       ?Release@XOleObject@COleServerDoc@@UAGKXZ 5f886ae2 f
 0001:00085af4       ?QueryInterface@XOleObject@COleServerDoc@@UAGJABU_GUID@@PAPAX@Z 5f886af4 f
 0001:00085b0e       ?SetClientSite@XOleObject@COleServerDoc@@UAGJPAUIOleClientSite@@@Z 5f886b0e f
 0001:00085b8d       ?GetClientSite@XOleObject@COleServerDoc@@UAGJPAPAUIOleClientSite@@@Z 5f886b8d f
 0001:00085bba       ?SetHostNames@XOleObject@COleServerDoc@@UAGJPBG0@Z 5f886bba f
 0001:00085c23       ?Close@XOleObject@COleServerDoc@@UAGJK@Z 5f886c23 f
 0001:00085cb6       ?SetMoniker@XOleObject@COleServerDoc@@UAGJKPAUIMoniker@@@Z 5f886cb6 f
 0001:00085d3a       ?GetMoniker@XOleObject@COleServerDoc@@UAGJKKPAPAUIMoniker@@@Z 5f886d3a f
 0001:00085d6b       ?InitFromData@XOleObject@COleServerDoc@@UAGJPAUIDataObject@@HK@Z 5f886d6b f
 0001:00085e19       ?GetClipboardData@XOleObject@COleServerDoc@@UAGJKPAPAUIDataObject@@@Z 5f886e19 f
 0001:00085ea7       ?DoVerb@XOleObject@COleServerDoc@@UAGJJPAUtagMSG@@PAUIOleClientSite@@JPAUHWND__@@PBUtagRECT@@@Z 5f886ea7 f
 0001:00085f3e       ?EnumVerbs@XOleObject@COleServerDoc@@UAGJPAPAUIEnumOLEVERB@@@Z 5f886f3e f
 0001:00085f78       ?Update@XOleObject@COleServerDoc@@UAGJXZ 5f886f78 f
 0001:00085ff2       ?IsUpToDate@XOleObject@COleServerDoc@@UAGJXZ 5f886ff2 f
 0001:0008606f       ?GetUserClassID@XOleObject@COleServerDoc@@UAGJPAU_GUID@@@Z 5f88706f f
 0001:00086090       ?GetUserType@XOleObject@COleServerDoc@@UAGJKPAPAG@Z 5f887090 f
 0001:000860cd       ?SetExtent@XOleObject@COleServerDoc@@UAGJKPAUtagSIZE@@@Z 5f8870cd f
 0001:00086164       ?GetExtent@XOleObject@COleServerDoc@@UAGJKPAUtagSIZE@@@Z 5f887164 f
 0001:00086201       ?Advise@XOleObject@COleServerDoc@@UAGJPAUIAdviseSink@@PAK@Z 5f887201 f
 0001:0008628f       ?Unadvise@XOleObject@COleServerDoc@@UAGJK@Z 5f88728f f
 0001:0008631a       ?EnumAdvise@XOleObject@COleServerDoc@@UAGJPAPAUIEnumSTATDATA@@@Z 5f88731a f
 0001:000863a5       ?GetMiscStatus@XOleObject@COleServerDoc@@UAGJKPAK@Z 5f8873a5 f
 0001:000863e2       ?SetColorScheme@XOleObject@COleServerDoc@@UAGJPAUtagLOGPALETTE@@@Z 5f8873e2 f
 0001:0008645c       ?AddRef@XDataObject@COleServerDoc@@UAGKXZ 5f88745c f
 0001:0008646e       ?Release@XDataObject@COleServerDoc@@UAGKXZ 5f88746e f
 0001:00086480       ?QueryInterface@XDataObject@COleServerDoc@@UAGJABU_GUID@@PAPAX@Z 5f887480 f
 0001:0008649a       ?GetData@XDataObject@COleServerDoc@@UAGJPAUtagFORMATETC@@PAUtagSTGMEDIUM@@@Z 5f88749a f
 0001:00086528       ?GetDataHere@XDataObject@COleServerDoc@@UAGJPAUtagFORMATETC@@PAUtagSTGMEDIUM@@@Z 5f887528 f
 0001:000865b6       ?QueryGetData@XDataObject@COleServerDoc@@UAGJPAUtagFORMATETC@@@Z 5f8875b6 f
 0001:00086641       ?SetData@XDataObject@COleServerDoc@@UAGJPAUtagFORMATETC@@PAUtagSTGMEDIUM@@H@Z 5f887641 f
 0001:000866d2       ?EnumFormatEtc@XDataObject@COleServerDoc@@UAGJKPAPAUIEnumFORMATETC@@@Z 5f8876d2 f
 0001:00086760       ?DAdvise@XDataObject@COleServerDoc@@UAGJPAUtagFORMATETC@@KPAUIAdviseSink@@PAK@Z 5f887760 f
 0001:000867f4       ?DUnadvise@XDataObject@COleServerDoc@@UAGJK@Z 5f8877f4 f
 0001:0008687f       ?EnumDAdvise@XDataObject@COleServerDoc@@UAGJPAPAUIEnumSTATDATA@@@Z 5f88787f f
 0001:0008690a       ?AddRef@XOleInPlaceObject@COleServerDoc@@UAGKXZ 5f88790a f
 0001:0008691c       ?Release@XOleInPlaceObject@COleServerDoc@@UAGKXZ 5f88791c f
 0001:0008692e       ?QueryInterface@XOleInPlaceObject@COleServerDoc@@UAGJABU_GUID@@PAPAX@Z 5f88792e f
 0001:00086948       ?GetWindow@XOleInPlaceObject@COleServerDoc@@UAGJPAPAUHWND__@@@Z 5f887948 f
 0001:00086969       ?ContextSensitiveHelp@XOleInPlaceObject@COleServerDoc@@UAGJH@Z 5f887969 f
 0001:0008698a       ?InPlaceDeactivate@XOleInPlaceObject@COleServerDoc@@UAGJXZ 5f88798a f
 0001:00086a1e       ?UIDeactivate@XOleInPlaceObject@COleServerDoc@@UAGJXZ 5f887a1e f
 0001:00086abe       ?SetObjectRects@XOleInPlaceObject@COleServerDoc@@UAGJPBUtagRECT@@0@Z 5f887abe f
 0001:00086b33       ?ReactivateAndUndo@XOleInPlaceObject@COleServerDoc@@UAGJXZ 5f887b33 f
 0001:00086baf       ?AddRef@XOleInPlaceActiveObject@COleServerDoc@@UAGKXZ 5f887baf f
 0001:00086bc1       ?Release@XOleInPlaceActiveObject@COleServerDoc@@UAGKXZ 5f887bc1 f
 0001:00086bd3       ?QueryInterface@XOleInPlaceActiveObject@COleServerDoc@@UAGJABU_GUID@@PAPAX@Z 5f887bd3 f
 0001:00086bed       ?GetWindow@XOleInPlaceActiveObject@COleServerDoc@@UAGJPAPAUHWND__@@@Z 5f887bed f
 0001:00086c12       ?ContextSensitiveHelp@XOleInPlaceActiveObject@COleServerDoc@@UAGJH@Z 5f887c12 f
 0001:00086c93       ?TranslateAcceleratorW@XOleInPlaceActiveObject@COleServerDoc@@UAGJPAUtagMSG@@@Z 5f887c93 f
 0001:00086d45       ?OnFrameWindowActivate@XOleInPlaceActiveObject@COleServerDoc@@UAGJH@Z 5f887d45 f
 0001:00086db7       ?OnDocWindowActivate@XOleInPlaceActiveObject@COleServerDoc@@UAGJH@Z 5f887db7 f
 0001:00086e29       ?ResizeBorder@XOleInPlaceActiveObject@COleServerDoc@@UAGJPBUtagRECT@@PAUIOleInPlaceUIWindow@@H@Z 5f887e29 f
 0001:00086ea1       ?EnableModeless@XOleInPlaceActiveObject@COleServerDoc@@UAGJH@Z 5f887ea1 f
 0001:00086f4a       ??0COleServerItem@@IAE@PAVCOleServerDoc@@H@Z 5f887f4a f
 0001:00087009       ??_GCOleServerItem@@UAEPAXI@Z 5f888009 f
 0001:00087009       ??_ECOleServerItem@@UAEPAXI@Z 5f888009 f
 0001:00087025       ??1CItemDataSource@COleServerItem@@UAE@XZ 5f888025 f
 0001:0008702a       ??_ECItemDataSource@COleServerItem@@UAEPAXI@Z 5f88802a f
 0001:0008702a       ??_GCItemDataSource@COleServerItem@@UAEPAXI@Z 5f88802a f
 0001:00087046       ?IsBlank@COleServerItem@@MBEHXZ 5f888046 f
 0001:0008704a       ?IsConnected@COleServerItem@@QBEHXZ 5f88804a f
 0001:0008706b       ?NotifyClient@COleServerItem@@QAEXW4OLE_NOTIFICATION@@K@Z 5f88806b f
 0001:000870d4       ?GetDataObject@COleServerItem@@QAEPAUIDataObject@@XZ 5f8880d4 f
 0001:000870df       ?GetOleObject@COleServerItem@@QAEPAUIOleObject@@XZ 5f8880df f
 0001:000870ea       ?OnQueryUpdateItems@COleServerItem@@UAEHXZ 5f8880ea f
 0001:00087125       ?OnUpdateItems@COleServerItem@@UAEXXZ 5f888125 f
 0001:00087168       ?OnSetExtent@COleServerItem@@UAEHW4tagDVASPECT@@ABVCSize@@@Z 5f888168 f
 0001:00087188       ?OnGetExtent@COleServerItem@@UAEHW4tagDVASPECT@@AAVCSize@@@Z 5f888188 f
 0001:00087198       ?OnDoVerb@COleServerItem@@UAEXJ@Z 5f888198 f
 0001:00087202       ?OnDrawEx@COleServerItem@@UAEHPAVCDC@@W4tagDVASPECT@@AAVCSize@@@Z 5f888202 f
 0001:0008721d       ?OnShow@COleServerItem@@MAEXXZ 5f88821d f
 0001:00087238       ?OnOpen@COleServerItem@@MAEXXZ 5f888238 f
 0001:00087246       ?OnHide@COleServerItem@@MAEXXZ 5f888246 f
 0001:00087254       ?GetMetafileData@COleServerItem@@MAEHPAUtagFORMATETC@@PAUtagSTGMEDIUM@@@Z 5f888254 f
 0001:000873c8       ?OnInitFromData@COleServerItem@@UAEHPAVCOleDataObject@@H@Z 5f8883c8 f
 0001:000873d7       ?CopyToClipboard@COleServerItem@@QAEXH@Z 5f8883d7 f
 0001:000873ee       ?OnGetClipboardData@COleServerItem@@UAEPAVCOleDataSource@@HPAUtagPOINT@@PAUtagSIZE@@@Z 5f8883ee f
 0001:0008746b       ?DoDragDrop@COleServerItem@@QAEKPBUtagRECT@@VCPoint@@HK0@Z 5f88846b f
 0001:00087544       ?GetClipboardData@COleServerItem@@QAEXPAVCOleDataSource@@HPAUtagPOINT@@PAUtagSIZE@@@Z 5f888544 f
 0001:000875ee       ?GetEmbedSourceData@COleServerItem@@QAEXPAUtagSTGMEDIUM@@@Z 5f8885ee f
 0001:000876e0       ?AddOtherClipboardData@COleServerItem@@QAEXPAVCOleDataSource@@@Z 5f8886e0 f
 0001:0008777b       ?GetMoniker@COleServerItem@@QAEPAUIMoniker@@W4tagOLEGETMONIKER@@@Z 5f88877b f
 0001:0008779e       ?GetLinkSourceData@COleServerItem@@QAEHPAUtagSTGMEDIUM@@@Z 5f88879e f
 0001:00087856       ?GetObjectDescriptorData@COleServerItem@@QAEXPAUtagPOINT@@PAUtagSIZE@@PAUtagSTGMEDIUM@@@Z 5f888856 f
 0001:000878fa       ?OnSaveEmbedding@COleServerItem@@MAEXPAUIStorage@@@Z 5f8888fa f
 0001:00087954       ?OnRenderFileData@COleServerItem@@UAEHPAUtagFORMATETC@@PAVCFile@@@Z 5f888954 f
 0001:00087959       ?OnRenderData@COleServerItem@@UAEHPAUtagFORMATETC@@PAUtagSTGMEDIUM@@@Z 5f888959 f
 0001:0008797d       ?OnSetData@COleServerItem@@UAEHPAUtagFORMATETC@@PAUtagSTGMEDIUM@@H@Z 5f88897d f
 0001:00087982       ?GetInterfaceMap@COleServerItem@@MBEPBUAFX_INTERFACEMAP@@XZ 5f888982 f
 0001:00087988       ?AddRef@XOleObject@COleServerItem@@UAGKXZ 5f888988 f
 0001:00087997       ?Release@XOleObject@COleServerItem@@UAGKXZ 5f888997 f
 0001:000879a6       ?QueryInterface@XOleObject@COleServerItem@@UAGJABU_GUID@@PAPAX@Z 5f8889a6 f
 0001:000879bd       ?OnFinalRelease@COleServerItem@@UAEXXZ 5f8889bd f
 0001:00087a00       ?SetClientSite@XOleObject@COleServerItem@@UAGJPAUIOleClientSite@@@Z 5f888a00 f
 0001:00087a08       ?GetClientSite@XOleObject@COleServerItem@@UAGJPAPAUIOleClientSite@@@Z 5f888a08 f
 0001:00087a17       ?SetHostNames@XOleObject@COleServerItem@@UAGJPBG0@Z 5f888a17 f
 0001:00087a1f       ?GetMoniker@XOleObject@COleServerItem@@UAGJKKPAPAUIMoniker@@@Z 5f888a1f f
 0001:00087b1f       ?InitFromData@XOleObject@COleServerItem@@UAGJPAUIDataObject@@HK@Z 5f888b1f f
 0001:00087b27       ?GetClipboardData@XOleObject@COleServerItem@@UAGJKPAPAUIDataObject@@@Z 5f888b27 f
 0001:00087bab       ?DoVerb@XOleObject@COleServerItem@@UAGJJPAUtagMSG@@PAUIOleClientSite@@JPAUHWND__@@PBUtagRECT@@@Z 5f888bab f
 0001:00087c38       ?EnumVerbs@XOleObject@COleServerItem@@UAGJPAPAUIEnumOLEVERB@@@Z 5f888c38 f
 0001:00087c6a       ?Update@XOleObject@COleServerItem@@UAGJXZ 5f888c6a f
 0001:00087cda       ?IsUpToDate@XOleObject@COleServerItem@@UAGJXZ 5f888cda f
 0001:00087d4d       ?GetUserClassID@XOleObject@COleServerItem@@UAGJPAU_GUID@@@Z 5f888d4d f
 0001:00087d66       ?GetUserType@XOleObject@COleServerItem@@UAGJKPAPAG@Z 5f888d66 f
 0001:00087d9b       ?SetExtent@XOleObject@COleServerItem@@UAGJKPAUtagSIZE@@@Z 5f888d9b f
 0001:00087da3       ?GetExtent@XOleObject@COleServerItem@@UAGJKPAUtagSIZE@@@Z 5f888da3 f
 0001:00087e36       ?Advise@XOleObject@COleServerItem@@UAGJPAUIAdviseSink@@PAK@Z 5f888e36 f
 0001:00087e6f       ?EnumAdvise@XOleObject@COleServerItem@@UAGJPAPAUIEnumSTATDATA@@@Z 5f888e6f f
 0001:00087e92       ?GetMiscStatus@XOleObject@COleServerItem@@UAGJKPAK@Z 5f888e92 f
 0001:00087ec7       ?SetColorScheme@XOleObject@COleServerItem@@UAGJPAUtagLOGPALETTE@@@Z 5f888ec7 f
 0001:00087f37       ?AddRef@XDataObject@COleServerItem@@UAGKXZ 5f888f37 f
 0001:00087f46       ?Release@XDataObject@COleServerItem@@UAGKXZ 5f888f46 f
 0001:00087f55       ?QueryInterface@XDataObject@COleServerItem@@UAGJABU_GUID@@PAPAX@Z 5f888f55 f
 0001:00087f6c       ?GetData@XDataObject@COleServerItem@@UAGJPAUtagFORMATETC@@PAUtagSTGMEDIUM@@@Z 5f888f6c f
 0001:00087f84       ?GetDataHere@XDataObject@COleServerItem@@UAGJPAUtagFORMATETC@@PAUtagSTGMEDIUM@@@Z 5f888f84 f
 0001:00087f9c       ?QueryGetData@XDataObject@COleServerItem@@UAGJPAUtagFORMATETC@@@Z 5f888f9c f
 0001:00087fb0       ?GetCanonicalFormatEtc@XDataObject@COleServerItem@@UAGJPAUtagFORMATETC@@0@Z 5f888fb0 f
 0001:00087fb8       ?SetData@XDataObject@COleServerItem@@UAGJPAUtagFORMATETC@@PAUtagSTGMEDIUM@@H@Z 5f888fb8 f
 0001:00087fd4       ?EnumFormatEtc@XDataObject@COleServerItem@@UAGJKPAPAUIEnumFORMATETC@@@Z 5f888fd4 f
 0001:00087fec       ?DAdvise@XDataObject@COleServerItem@@UAGJPAUtagFORMATETC@@KPAUIAdviseSink@@PAK@Z 5f888fec f
 0001:00088097       ?DUnadvise@XDataObject@COleServerItem@@UAGJK@Z 5f889097 f
 0001:000880b6       ?OnRenderGlobalData@CItemDataSource@COleServerItem@@MAEHPAUtagFORMATETC@@PAPAX@Z 5f8890b6 f
 0001:000880cd       ?OnRenderFileData@CItemDataSource@COleServerItem@@MAEHPAUtagFORMATETC@@PAVCFile@@@Z 5f8890cd f
 0001:000880e4       ?OnRenderData@CItemDataSource@COleServerItem@@MAEHPAUtagFORMATETC@@PAUtagSTGMEDIUM@@@Z 5f8890e4 f
 0001:00088117       ?OnSetData@CItemDataSource@COleServerItem@@MAEHPAUtagFORMATETC@@PAUtagSTGMEDIUM@@H@Z 5f889117 f
 0001:00088132       ?AfxOleRegisterServerClassCompat@@YGHABU_GUID@@PBG11W4OLE_APPTYPE@@PAPBG3@Z 5f889132 f
 0001:0008820d       ?AfxOleUnregisterServerClass@@YGHABU_GUID@@PBG11W4OLE_APPTYPE@@PAPBG3@Z 5f88920d f
 0001:000882c0       ?AfxOleUnregisterHelper@@YGHPBQBG0HPAUHKEY__@@@Z 5f8892c0 f
 0001:0008838b       ??0COleResizeBar@@QAE@XZ   5f88938b f
 0001:000883d2       ??1COleResizeBar@@UAE@XZ   5f8893d2 f
 0001:0008840d       ?Create@COleResizeBar@@QAEHPAVCWnd@@KI@Z 5f88940d f
 0001:0008844f       ?_GetBaseMessageMap@COleResizeBar@@KGPBUAFX_MSGMAP@@XZ 5f88944f f
 0001:00088455       ?GetMessageMap@COleResizeBar@@MBEPBUAFX_MSGMAP@@XZ 5f889455 f
 0001:0008845b       ?OnEraseBkgnd@COleResizeBar@@IAEHPAVCDC@@@Z 5f88945b f
 0001:00088461       ?OnPaint@COleResizeBar@@IAEXXZ 5f889461 f
 0001:000884d9       ?OnSize@COleResizeBar@@IAEXIHH@Z 5f8894d9 f
 0001:00088503       ?OnSetCursor@COleResizeBar@@IAEHPAVCWnd@@II@Z 5f889503 f
 0001:00088553       ?OnLButtonDown@COleResizeBar@@IAEXIVCPoint@@@Z 5f889553 f
 0001:0008863e       ?OnSizeParent@COleResizeBar@@IAEJIJ@Z 5f88963e f
 0001:00088673       ?OnUpdateCmdUI@COleResizeBar@@UAEXPAVCFrameWnd@@H@Z 5f889673 f
 0001:00088676       ?GetStandardProp@CCmdTarget@@IAEXPBUAFX_DISPMAP_ENTRY@@PAUtagVARIANT@@PAI@Z 5f889676 f
 0001:00088744       ?SetStandardProp@CCmdTarget@@IAEJPBUAFX_DISPMAP_ENTRY@@PAUtagDISPPARAMS@@PAI@Z 5f889744 f
 0001:000888b8       ?MemberIDFromName@CCmdTarget@@KGJPBUAFX_DISPMAP@@PBG@Z 5f8898b8 f
 0001:000889b0       ?GetNotSupported@CCmdTarget@@QAEXXZ 5f8899b0 f
 0001:000889bf       ?SetNotSupported@CCmdTarget@@QAEXXZ 5f8899bf f
 0001:000889ce       ?GetIDispatch@CCmdTarget@@QAEPAUIDispatch@@H@Z 5f8899ce f
 0001:000889ed       ?FromIDispatch@CCmdTarget@@SGPAV1@PAUIDispatch@@@Z 5f8899ed f
 0001:00088a03       ?IsResultExpected@CCmdTarget@@QAEHXZ 5f889a03 f
 0001:00088a0e       ?SetSysString@CString@@QBEPAGPAPAG@Z 5f889a0e f
 0001:00088c32       ?GetTypeInfoCount@COleDispatchImpl@@UAGJPAI@Z 5f889c32 f
 0001:00088c4a       ?GetTypeInfo@COleDispatchImpl@@UAGJIKPAPAUITypeInfo@@@Z 5f889c4a f
 0001:00088c90       ?GetIDsOfNames@COleDispatchImpl@@UAGJABU_GUID@@PAPAGIKPAJ@Z 5f889c90 f
 0001:000890c8       ??1COleDispatchException@@UAE@XZ 5f88a0c8 f
 0001:00089119       ??_GCOleDispatchException@@UAEPAXI@Z 5f88a119 f
 0001:00089119       ??_ECOleDispatchException@@UAEPAXI@Z 5f88a119 f
 0001:00089135       ?Process@COleDispatchException@@SGXPAUtagEXCEPINFO@@PBVCException@@@Z 5f88a135 f
 0001:00089228       ??0COleDispatchException@@QAE@PBGIG@Z 5f88a228 f
 0001:000892c2       ?GetErrorMessage@COleDispatchException@@UAEHPAGIPAI@Z 5f88a2c2 f
 0001:000892e4       ?AfxThrowOleDispatchException@@YGXGPBGI@Z 5f88a2e4 f
 0001:00089329       ?AfxThrowOleDispatchException@@YGXGII@Z 5f88a329 f
 0001:00089395       ?AfxGetClassIDFromString@@YGJPBGPAU_GUID@@@Z 5f88a395 f
 0001:000893b5       ??0COleDispatchDriver@@QAE@PAUIDispatch@@H@Z 5f88a3b5 f
 0001:000893c7       ??0COleDispatchDriver@@QAE@ABV0@@Z 5f88a3c7 f
 0001:000893e9       ??4COleDispatchDriver@@QAEABV0@ABV0@@Z 5f88a3e9 f
 0001:00089456       ?CreateDispatch@COleDispatchDriver@@QAEHPBGPAVCOleException@@@Z 5f88a456 f
 0001:00089490       ?AttachDispatch@COleDispatchDriver@@QAEXPAUIDispatch@@H@Z 5f88a490 f
 0001:000894a9       ?DetachDispatch@COleDispatchDriver@@QAEPAUIDispatch@@XZ 5f88a4a9 f
 0001:000896dd       ?_AfxMultMultDivDiv@@YGJHHHHH@Z 5f88a6dd f
 0001:0008983c       ??0CPreviewDC@@QAE@XZ      5f88a83c f
 0001:00089868       ??_GCPreviewDC@@UAEPAXI@Z  5f88a868 f
 0001:00089868       ??_ECPreviewDC@@UAEPAXI@Z  5f88a868 f
 0001:00089884       ?SetOutputDC@CPreviewDC@@UAEXPAUHDC__@@@Z 5f88a884 f
 0001:000898d3       ?ReleaseOutputDC@CPreviewDC@@UAEXXZ 5f88a8d3 f
 0001:000898eb       ?SetAttribDC@CPreviewDC@@UAEXPAUHDC__@@@Z 5f88a8eb f
 0001:00089912       ??1CPreviewDC@@UAE@XZ      5f88a912 f
 0001:0008994e       ?SetScaleRatio@CPreviewDC@@QAEXHH@Z 5f88a94e f
 0001:00089977       ?SaveDC@CPreviewDC@@UAEHXZ 5f88a977 f
 0001:000899c6       ?RestoreDC@CPreviewDC@@UAEHH@Z 5f88a9c6 f
 0001:00089a0b       ?MirrorAttributes@CPreviewDC@@IAEXXZ 5f88aa0b f
 0001:00089ae5       ?SelectStockObject@CPreviewDC@@UAEPAVCGdiObject@@H@Z 5f88aae5 f
 0001:00089b55       ?MirrorFont@CPreviewDC@@IAEXXZ 5f88ab55 f
 0001:00089d02       ?SelectObject@CPreviewDC@@UAEPAVCFont@@PAV2@@Z 5f88ad02 f
 0001:00089d41       ?SetBkColor@CPreviewDC@@UAEKK@Z 5f88ad41 f
 0001:00089d72       ?SetTextColor@CPreviewDC@@UAEKK@Z 5f88ad72 f
 0001:00089da3       ?SetMapMode@CPreviewDC@@UAEHH@Z 5f88ada3 f
 0001:00089dc6       ?SetViewportOrg@CPreviewDC@@UAE?AVCPoint@@HH@Z 5f88adc6 f
 0001:00089dfb       ?OffsetViewportOrg@CPreviewDC@@UAE?AVCPoint@@HH@Z 5f88adfb f
 0001:00089e30       ?SetViewportExt@CPreviewDC@@UAE?AVCSize@@HH@Z 5f88ae30 f
 0001:00089e67       ?ScaleViewportExt@CPreviewDC@@UAE?AVCSize@@HHHH@Z 5f88ae67 f
 0001:00089ea4       ?SetWindowExt@CPreviewDC@@UAE?AVCSize@@HH@Z 5f88aea4 f
 0001:00089edb       ?ScaleWindowExt@CPreviewDC@@UAE?AVCSize@@HHHH@Z 5f88aedb f
 0001:00089f18       ?_AfxComputeNextTab@@YGHHIPAHHH@Z 5f88af18 f
 0001:00089f4c       ?ComputeDeltas@CPreviewDC@@IAE?AVCSize@@AAHPBGAAIHIPAHHPAG30@Z 5f88af4c f
 0001:0008a1a4       ?TextOutW@CPreviewDC@@UAEHHHPBGH@Z 5f88b1a4 f
 0001:0008a1c1       ?ExtTextOutW@CPreviewDC@@UAEHHHIPBUtagRECT@@PBGIPAH@Z 5f88b1c1 f
 0001:0008a2d2       ?TabbedTextOutW@CPreviewDC@@UAE?AVCSize@@HHPBGHHPAHH@Z 5f88b2d2 f
 0001:0008a3e9       ?DrawTextW@CPreviewDC@@UAEHPBGHPAUtagRECT@@I@Z 5f88b3e9 f
 0001:0008a42f       ?GrayStringW@CPreviewDC@@UAEHPAVCBrush@@P6GHPAUHDC__@@JH@ZJHHHHH@Z 5f88b42f f
 0001:0008a447       ?Escape@CPreviewDC@@UAEHHHPBDPAX@Z 5f88b447 f
 0001:0008a4d5       ?MirrorMappingMode@CPreviewDC@@IAEXH@Z 5f88b4d5 f
 0001:0008a5da       ?MirrorViewportOrg@CPreviewDC@@IAEXXZ 5f88b5da f
 0001:0008a644       ?SetTopLeftOffset@CPreviewDC@@QAEXVCSize@@@Z 5f88b644 f
 0001:0008a65a       ?ClipToPage@CPreviewDC@@QAEXXZ 5f88b65a f
 0001:0008a6dc       ?PrinterDPtoScreenDP@CPreviewDC@@QBEXPAUtagPOINT@@@Z 5f88b6dc f
 0001:0008a735       ??0CMetaFileDC@@QAE@XZ     5f88b735 f
 0001:0008a747       ?SetOutputDC@CMetaFileDC@@MAEXPAUHDC__@@@Z 5f88b747 f
 0001:0008a74a       ?ReleaseOutputDC@CMetaFileDC@@MAEXXZ 5f88b74a f
 0001:0008a74b       ?SetAttribDC@CMetaFileDC@@UAEXPAUHDC__@@@Z 5f88b74b f
 0001:0008a770       ?GetClipBox@CMetaFileDC@@UBEHPAUtagRECT@@@Z 5f88b770 f
 0001:0008a780       ?PtVisible@CMetaFileDC@@UBEHHH@Z 5f88b780 f
 0001:0008a794       ?RectVisible@CMetaFileDC@@UBEHPBUtagRECT@@@Z 5f88b794 f
 0001:0008a79a       ?TextOutW@CMetaFileDC@@UAEHHHPBGH@Z 5f88b79a f
 0001:0008a807       ?ExtTextOutW@CMetaFileDC@@UAEHHHIPBUtagRECT@@PBGIPAH@Z 5f88b807 f
 0001:0008a868       ?TabbedTextOutW@CMetaFileDC@@UAE?AVCSize@@HHPBGHHPAHH@Z 5f88b868 f
 0001:0008a9c2       ?AdjustCP@CMetaFileDC@@IAEXH@Z 5f88b9c2 f
 0001:0008aa21       ?DrawTextW@CMetaFileDC@@UAEHPBGHPAUtagRECT@@I@Z 5f88ba21 f
 0001:0008aaa7       ?Escape@CMetaFileDC@@UAEHHHPBDPAX@Z 5f88baa7 f
 0001:0008ab58       ?SetViewportOrg@CMetaFileDC@@UAE?AVCPoint@@HH@Z 5f88bb58 f
 0001:0008ab96       ?OffsetViewportOrg@CMetaFileDC@@UAE?AVCPoint@@HH@Z 5f88bb96 f
 0001:0008abd4       ?SetViewportExt@CMetaFileDC@@UAE?AVCSize@@HH@Z 5f88bbd4 f
 0001:0008ac12       ?ScaleViewportExt@CMetaFileDC@@UAE?AVCSize@@HHHH@Z 5f88bc12 f
 0001:0008ac75       ?OnCancel@CPrintingDialog@@UAEXXZ 5f88bc75 f
 0001:0008afba       ??_ECPrintingDialog@@UAEPAXI@Z 5f88bfba f
 0001:0008afba       ??_GCPrintingDialog@@UAEPAXI@Z 5f88bfba f
 0001:0008afdd       ??0CPrintPreviewState@@QAE@XZ 5f88bfdd f
 0001:0008afff       ?OnFilePrintPreview@CView@@IAEXXZ 5f88bfff f
 0001:0008b04a       ?DoPrintPreview@CView@@QAEHIPAV1@PAUCRuntimeClass@@PAUCPrintPreviewState@@@Z 5f88c04a f
 0001:0008b201       ?_AfxPreviewCloseProc@@YGHPAVCFrameWnd@@@Z 5f88c201 f
 0001:0008b21b       ?_GetBaseMessageMap@CPreviewView@@KGPBUAFX_MSGMAP@@XZ 5f88c21b f
 0001:0008b221       ?GetMessageMap@CPreviewView@@MBEPBUAFX_MSGMAP@@XZ 5f88c221 f
 0001:0008b227       ??0CPreviewView@@QAE@XZ    5f88c227 f
 0001:0008b2ca       ??_GCPreviewView@@UAEPAXI@Z 5f88c2ca f
 0001:0008b2ca       ??_ECPreviewView@@UAEPAXI@Z 5f88c2ca f
 0001:0008b2e6       ??0PAGE_INFO@CPreviewView@@QAE@XZ 5f88c2e6 f
 0001:0008b2e9       ??1CPreviewView@@UAE@XZ    5f88c2e9 f
 0001:0008b392       ?OnCreate@CPreviewView@@IAEHPAUtagCREATESTRUCTW@@@Z 5f88c392 f
 0001:0008b3b6       ?SetPrintView@CPreviewView@@QAEHPAVCView@@@Z 5f88c3b6 f
 0001:0008b61a       ?OnSize@CPreviewView@@IAEXIHH@Z 5f88c61a f
 0001:0008b680       ?OnActivateView@CPreviewView@@MAEXHPAVCView@@0@Z 5f88c680 f
 0001:0008b6cf       ?OnPreviewClose@CPreviewView@@IAEXXZ 5f88c6cf f
 0001:0008b713       ?CalcScaleRatio@CPreviewView@@MAE?AVCSize@@V2@0@Z 5f88c713 f
 0001:0008b742       ?PositionPage@CPreviewView@@MAEXI@Z 5f88c742 f
 0001:0008b7ee       ?CalcPageDisplaySize@CPreviewView@@IAE?AVCSize@@XZ 5f88c7ee f
 0001:0008b872       ?SetScaledSize@CPreviewView@@IAEXI@Z 5f88c872 f
 0001:0008b9c2       ?OnPrepareDC@CPreviewView@@UAEXPAVCDC@@PAUCPrintInfo@@@Z 5f88c9c2 f
 0001:0008b9f6       ?OnEraseBkgnd@CPreviewView@@IAEHPAVCDC@@@Z 5f88c9f6 f
 0001:0008ba86       ?OnDraw@CPreviewView@@MAEXPAVCDC@@@Z 5f88ca86 f
 0001:0008be7e       ?OnHScroll@CPreviewView@@IAEXIIPAVCScrollBar@@@Z 5f88ce7e f
 0001:0008be9b       ?OnVScroll@CPreviewView@@IAEXIIPAVCScrollBar@@@Z 5f88ce9b f
 0001:0008bf82       ?OnNumPageChange@CPreviewView@@IAEXXZ 5f88cf82 f
 0001:0008bfc1       ?OnNextPage@CPreviewView@@IAEXXZ 5f88cfc1 f
 0001:0008bfd1       ?OnPrevPage@CPreviewView@@IAEXXZ 5f88cfd1 f
 0001:0008bfe1       ?OnPreviewPrint@CPreviewView@@IAEXXZ 5f88cfe1 f
 0001:0008c004       ?FindPageRect@CPreviewView@@IAEHAAVCPoint@@AAI@Z 5f88d004 f
 0001:0008c0ce       ?OnLButtonDown@CPreviewView@@IAEXIVCPoint@@@Z 5f88d0ce f
 0001:0008c10c       ?SetZoomState@CPreviewView@@IAEXIIVCPoint@@@Z 5f88d10c f
 0001:0008c130       ?OnZoomIn@CPreviewView@@IAEXXZ 5f88d130 f
 0001:0008c14c       ?OnZoomOut@CPreviewView@@IAEXXZ 5f88d14c f
 0001:0008c167       ?DoZoom@CPreviewView@@IAEXIVCPoint@@@Z 5f88d167 f
 0001:0008c2d6       ?SetCurrentPage@CPreviewView@@IAEXIH@Z 5f88d2d6 f
 0001:0008c368       ?OnDisplayPageNumber@CPreviewView@@MAEXII@Z 5f88d368 f
 0001:0008c42d       ?OnUpdateNumPageChange@CPreviewView@@IAEXPAVCCmdUI@@@Z 5f88d42d f
 0001:0008c4d1       ?OnUpdateNextPage@CPreviewView@@IAEXPAVCCmdUI@@@Z 5f88d4d1 f
 0001:0008c508       ?OnUpdatePrevPage@CPreviewView@@IAEXPAVCCmdUI@@@Z 5f88d508 f
 0001:0008c531       ?OnUpdateZoomIn@CPreviewView@@IAEXPAVCCmdUI@@@Z 5f88d531 f
 0001:0008c54d       ?OnUpdateZoomOut@CPreviewView@@IAEXPAVCCmdUI@@@Z 5f88d54d f
 0001:0008c568       ?OnSetCursor@CPreviewView@@IAEHPAVCWnd@@II@Z 5f88d568 f
 0001:0008c5f9       ?GetPrinterDeviceDefaults@CWinApp@@QAEHPAUtagPDW@@@Z 5f88d5f9 f
 0001:0008c72d       ?OnFilePrintSetup@CWinApp@@IAEXXZ 5f88d72d f
 0001:0008c782       ?SelectPrinter@CWinApp@@QAEXPAX0H@Z 5f88d782 f
 0001:0008c7dc       ??1_AFX_SOCK_STATE@@UAE@XZ 5f88d7dc f
 0001:0008c809       ??_G_AFX_SOCK_STATE@@UAEPAXI@Z 5f88d809 f
 0001:0008c809       ??_E_AFX_SOCK_STATE@@UAEPAXI@Z 5f88d809 f
 0001:0008c824       ?AfxSocketTerm@@YGXXZ      5f88d824 f
 0001:0008c856       ?AfxSocketInit@@YGHPAUWSAData@@@Z 5f88d856 f
 0001:0008c8b9       ??0CAsyncSocket@@QAE@XZ    5f88d8b9 f
 0001:0008c8c6       ?Create@CAsyncSocket@@QAEHIHJPBG@Z 5f88d8c6 f
 0001:0008c912       ?Attach@CAsyncSocket@@QAEHIJ@Z 5f88d912 f
 0001:0008c934       ?Detach@CAsyncSocket@@QAEIXZ 5f88d934 f
 0001:0008c95b       ?GetPeerName@CAsyncSocket@@QAEHAAVCString@@AAI@Z 5f88d95b f
 0001:0008c9c1       ?GetSockName@CAsyncSocket@@QAEHAAVCString@@AAI@Z 5f88d9c1 f
 0001:0008ca27       ?Accept@CAsyncSocket@@UAEHAAV1@PAUsockaddr@@PAH@Z 5f88da27 f
 0001:0008caa0       ?Bind@CAsyncSocket@@QAEHIPBG@Z 5f88daa0 f
 0001:0008cb51       ?Close@CAsyncSocket@@UAEXXZ 5f88db51 f
 0001:0008cb71       ?Connect@CAsyncSocket@@QAEHPBGI@Z 5f88db71 f
 0001:0008cc1f       ?Receive@CAsyncSocket@@UAEHPAXHH@Z 5f88dc1f f
 0001:0008cc36       ?ReceiveFrom@CAsyncSocket@@QAEHPAXHAAVCString@@AAIH@Z 5f88dc36 f
 0001:0008cc9d       ?Send@CAsyncSocket@@UAEHPBXHH@Z 5f88dc9d f
 0001:0008ccb4       ?SendTo@CAsyncSocket@@QAEHPBXHIPBGH@Z 5f88dcb4 f
 0001:0008cd7c       ?AsyncSelect@CAsyncSocket@@QAEHJ@Z 5f88dd7c f
 0001:0008cda6       ?OnClose@CAsyncSocket@@MAEXH@Z 5f88dda6 f
 0001:0008cda9       ?LookupHandle@CAsyncSocket@@SGPAV1@IH@Z 5f88dda9 f
 0001:0008cdcb       ?AttachHandle@CAsyncSocket@@SGXIPAV1@H@Z 5f88ddcb f
 0001:0008ce92       ?DetachHandle@CAsyncSocket@@SGXIH@Z 5f88de92 f
 0001:0008cf38       ?KillSocket@CAsyncSocket@@SGXIPAV1@@Z 5f88df38 f
 0001:0008cf77       ?DoCallBack@CAsyncSocket@@SGXIJ@Z 5f88df77 f
 0001:0008d04d       ?Socket@CAsyncSocket@@QAEHHJHH@Z 5f88e04d f
 0001:0008d085       ?ReceiveFromHelper@CAsyncSocket@@MAEHPAXHPAUsockaddr@@PAHH@Z 5f88e085 f
 0001:0008d0a3       ?SendToHelper@CAsyncSocket@@MAEHPBXHPBUsockaddr@@HH@Z 5f88e0a3 f
 0001:0008d0c1       ?ConnectHelper@CAsyncSocket@@MAEHPBUsockaddr@@H@Z 5f88e0c1 f
 0001:0008d0de       ??0CSocket@@QAE@XZ         5f88e0de f
 0001:0008d0ff       ?CancelBlockingCall@CSocket@@QAEXXZ 5f88e0ff f
 0001:0008d10e       ?OnMessagePending@CSocket@@MAEHXZ 5f88e10e f
 0001:0008d138       ??1CSocket@@UAE@XZ         5f88e138 f
 0001:0008d176       ?Accept@CSocket@@UAEHAAVCAsyncSocket@@PAUsockaddr@@PAH@Z 5f88e176 f
 0001:0008d1c7       ?Close@CSocket@@UAEXXZ     5f88e1c7 f
 0001:0008d1eb       ?Receive@CSocket@@UAEHPAXHH@Z 5f88e1eb f
 0001:0008d23b       ?Send@CSocket@@UAEHPBXHH@Z 5f88e23b f
 0001:0008d289       ?SendChunk@CSocket@@QAEHPBXHH@Z 5f88e289 f
 0001:0008d2c5       ?ConnectHelper@CSocket@@MAEHPBUsockaddr@@H@Z 5f88e2c5 f
 0001:0008d32b       ?ReceiveFromHelper@CSocket@@MAEHPAXHPAUsockaddr@@PAHH@Z 5f88e32b f
 0001:0008d381       ?SendToHelper@CSocket@@MAEHPBXHPBUsockaddr@@HH@Z 5f88e381 f
 0001:0008d3d5       ?ProcessAuxQueue@CSocket@@SGHXZ 5f88e3d5 f
 0001:0008d42c       ?AuxQueueAdd@CSocket@@KGXIIJ@Z 5f88e42c f
 0001:0008d45e       ?PumpMessages@CSocket@@MAEHI@Z 5f88e45e f
 0001:0008d5f7       ??0CSocketFile@@QAE@PAVCSocket@@H@Z 5f88e5f7 f
 0001:0008d619       ??_ECSocketFile@@UAEPAXI@Z 5f88e619 f
 0001:0008d619       ??_GCSocketFile@@UAEPAXI@Z 5f88e619 f
 0001:0008d635       ??1CSocketFile@@UAE@XZ     5f88e635 f
 0001:0008d640       ?Read@CSocketFile@@UAEIPAXI@Z 5f88e640 f
 0001:0008d6c3       ?Write@CSocketFile@@UAEXPBXI@Z 5f88e6c3 f
 0001:0008d6ec       ?Close@CSocketFile@@UAEXXZ 5f88e6ec f
 0001:0008d6f1       ?Open@CSocketFile@@UAEHPBGIPAVCFileException@@@Z 5f88e6f1 f
 0001:0008d6fb       ?GetPosition@CSocketFile@@UBEKXZ 5f88e6fb f
 0001:0008d703       ?Seek@CSocketFile@@UAEJJI@Z 5f88e703 f
 0001:0008d708       ?SetLength@CSocketFile@@UAEXK@Z 5f88e708 f
 0001:0008d710       ?LockRange@CSocketFile@@UAEXKK@Z 5f88e710 f
 0001:0008d718       ?Flush@CSocketFile@@UAEXXZ 5f88e718 f
 0001:0008d719       ?Abort@CSocketFile@@UAEXXZ 5f88e719 f
 0001:0008d71e       ??0CSocketWnd@@QAE@XZ      5f88e71e f
 0001:0008d730       ??_GCSocketWnd@@UAEPAXI@Z  5f88e730 f
 0001:0008d730       ??_ECSocketWnd@@UAEPAXI@Z  5f88e730 f
 0001:0008d74c       ??1CSocketWnd@@UAE@XZ      5f88e74c f
 0001:0008d751       ?OnSocketNotify@CSocketWnd@@IAEJIJ@Z 5f88e751 f
 0001:0008d76d       ?OnSocketDead@CSocketWnd@@IAEJIJ@Z 5f88e76d f
 0001:0008d789       ?_GetBaseMessageMap@CSocketWnd@@KGPBUAFX_MSGMAP@@XZ 5f88e789 f
 0001:0008d78f       ?GetMessageMap@CSocketWnd@@MBEPBUAFX_MSGMAP@@XZ 5f88e78f f
 0001:0008d835       ?AfxLoadLibrary@@YGPAUHINSTANCE__@@PBG@Z 5f88e835 f
 0001:0008d856       ?AfxFreeLibrary@@YGHPAUHINSTANCE__@@@Z 5f88e856 f
 0001:0008d877       ??_ECBitmap@@UAEPAXI@Z     5f88e877 f
 0001:0008d8c2       ??_ECBitmapButton@@UAEPAXI@Z 5f88e8c2 f
 0001:0008d90d       ??_ECBrush@@UAEPAXI@Z      5f88e90d f
 0001:0008d958       ??_ECButton@@UAEPAXI@Z     5f88e958 f
 0001:0008d9a3       ??_ECByteArray@@UAEPAXI@Z  5f88e9a3 f
 0001:0008d9ee       ??_ECCmdTarget@@UAEPAXI@Z  5f88e9ee f
 0001:0008da39       ??_ECComboBox@@UAEPAXI@Z   5f88ea39 f
 0001:0008da84       ??_ECDC@@UAEPAXI@Z         5f88ea84 f
 0001:0008dacf       ??_ECDWordArray@@UAEPAXI@Z 5f88eacf f
 0001:0008db1a       ??_ECDialog@@UAEPAXI@Z     5f88eb1a f
 0001:0008db65       ??_ECDialogBar@@UAEPAXI@Z  5f88eb65 f
 0001:0008dbb3       ??_ECEdit@@UAEPAXI@Z       5f88ebb3 f
 0001:0008dbfe       ??_ECFile@@UAEPAXI@Z       5f88ebfe f
 0001:0008dc49       ??_ECFont@@UAEPAXI@Z       5f88ec49 f
 0001:0008dc94       ??_ECFrameWnd@@UAEPAXI@Z   5f88ec94 f
 0001:0008dce2       ??_ECGdiObject@@UAEPAXI@Z  5f88ece2 f
 0001:0008dd2d       ??_ECListBox@@UAEPAXI@Z    5f88ed2d f
 0001:0008dd78       ??_ECCheckListBox@@UAEPAXI@Z 5f88ed78 f
 0001:0008ddc3       ??_ECMapPtrToPtr@@UAEPAXI@Z 5f88edc3 f
 0001:0008de0e       ??_ECMapPtrToWord@@UAEPAXI@Z 5f88ee0e f
 0001:0008de59       ??_ECMapStringToOb@@UAEPAXI@Z 5f88ee59 f
 0001:0008dea4       ??_ECMapStringToPtr@@UAEPAXI@Z 5f88eea4 f
 0001:0008deef       ??_ECMapStringToString@@UAEPAXI@Z 5f88eeef f
 0001:0008df3a       ??_ECMapWordToOb@@UAEPAXI@Z 5f88ef3a f
 0001:0008df85       ??_ECMapWordToPtr@@UAEPAXI@Z 5f88ef85 f
 0001:0008dfd0       ??_ECMemFile@@UAEPAXI@Z    5f88efd0 f
 0001:0008e01b       ??_ECMenu@@UAEPAXI@Z       5f88f01b f
 0001:0008e066       ??_ECMetaFileDC@@UAEPAXI@Z 5f88f066 f
 0001:0008e0b1       ??_ECObArray@@UAEPAXI@Z    5f88f0b1 f
 0001:0008e0fc       ??_ECObList@@UAEPAXI@Z     5f88f0fc f
 0001:0008e147       ??_ECPalette@@UAEPAXI@Z    5f88f147 f
 0001:0008e192       ??_ECPen@@UAEPAXI@Z        5f88f192 f
 0001:0008e1dd       ??_ECPtrArray@@UAEPAXI@Z   5f88f1dd f
 0001:0008e24f       ??_ECRectTracker@@UAEPAXI@Z 5f88f24f f
 0001:0008e29a       ??_ECRgn@@UAEPAXI@Z        5f88f29a f
 0001:0008e2e5       ??_ECScrollBar@@UAEPAXI@Z  5f88f2e5 f
 0001:0008e330       ??_ECSharedFile@@UAEPAXI@Z 5f88f330 f
 0001:0008e37b       ??_ECSplitterWnd@@UAEPAXI@Z 5f88f37b f
 0001:0008e3c9       ??_ECStatic@@UAEPAXI@Z     5f88f3c9 f
 0001:0008e414       ??_ECStatusBar@@UAEPAXI@Z  5f88f414 f
 0001:0008e462       ??_ECStdioFile@@UAEPAXI@Z  5f88f462 f
 0001:0008e4ad       ??_ECStringArray@@UAEPAXI@Z 5f88f4ad f
 0001:0008e4f8       ??_ECStringList@@UAEPAXI@Z 5f88f4f8 f
 0001:0008e543       ??_ECToolBar@@UAEPAXI@Z    5f88f543 f
 0001:0008e591       ??_ECUIntArray@@UAEPAXI@Z  5f88f591 f
 0001:0008e5dc       ??_ECWnd@@UAEPAXI@Z        5f88f5dc f
 0001:0008e627       ??_ECWordArray@@UAEPAXI@Z  5f88f627 f
 0001:0008e672       ??_ECFileFind@@UAEPAXI@Z   5f88f672 f
 0001:0008e6bd       ??_ECInternetSession@@UAEPAXI@Z 5f88f6bd f
 0001:0008e708       ??_ECDragListBox@@UAEPAXI@Z 5f88f708 f
 0001:0008e753       ??_ECStatusBarCtrl@@UAEPAXI@Z 5f88f753 f
 0001:0008e79e       ??_ECListCtrl@@UAEPAXI@Z   5f88f79e f
 0001:0008e7e9       ??_ECTreeCtrl@@UAEPAXI@Z   5f88f7e9 f
 0001:0008e834       ??_ECSpinButtonCtrl@@UAEPAXI@Z 5f88f834 f
 0001:0008e87f       ??_ECSliderCtrl@@UAEPAXI@Z 5f88f87f f
 0001:0008e8ca       ??_ECProgressCtrl@@UAEPAXI@Z 5f88f8ca f
 0001:0008e915       ??_ECHeaderCtrl@@UAEPAXI@Z 5f88f915 f
 0001:0008e960       ??_ECHotKeyCtrl@@UAEPAXI@Z 5f88f960 f
 0001:0008e9ab       ??_ECToolTipCtrl@@UAEPAXI@Z 5f88f9ab f
 0001:0008e9f6       ??_ECTabCtrl@@UAEPAXI@Z    5f88f9f6 f
 0001:0008ea41       ??_ECAnimateCtrl@@UAEPAXI@Z 5f88fa41 f
 0001:0008ea8c       ??_ECImageList@@UAEPAXI@Z  5f88fa8c f
 0001:0008ead7       ??_ECToolBarCtrl@@UAEPAXI@Z 5f88fad7 f
 0001:0008eb22       ??_ECRichEditCtrl@@UAEPAXI@Z 5f88fb22 f
 0001:0008eb6d       ??_ECMirrorFile@@UAEPAXI@Z 5f88fb6d f
 0001:0008ebb8       ??0CMirrorFile@@QAE@XZ     5f88fbb8 f
 0001:0008ebef       ??_ECDockState@@UAEPAXI@Z  5f88fbef f
 0001:0008ec3a       ??_ECListView@@UAEPAXI@Z   5f88fc3a f
 0001:0008ec85       ??_ECTreeView@@UAEPAXI@Z   5f88fc85 f
 0001:0008ecd0       ??_ECCommandLineInfo@@UAEPAXI@Z 5f88fcd0 f
 0001:0008ed42       ??_ECPageSetupDialog@@UAEPAXI@Z 5f88fd42 f
 0001:0008ed90       ??_ECSemaphore@@UAEPAXI@Z  5f88fd90 f
 0001:0008eddb       ??_ECMutex@@UAEPAXI@Z      5f88fddb f
 0001:0008ee26       ??_ECEvent@@UAEPAXI@Z      5f88fe26 f
 0001:0008ee71       ??_ECCriticalSection@@UAEPAXI@Z 5f88fe71 f
 0001:0008eebc       ??_ECOleDataSource@@UAEPAXI@Z 5f88febc f
 0001:0008ef07       ??_ECOleDropSource@@UAEPAXI@Z 5f88ff07 f
 0001:0008ef52       ??_ECMonikerFile@@UAEPAXI@Z 5f88ff52 f
 0001:0008ef9d       ??_ECOleResizeBar@@UAEPAXI@Z 5f88ff9d f
 0001:0008efeb       ??_ECAsyncMonikerFile@@UAEPAXI@Z 5f88ffeb f
 0001:0008f036       ??_ECCachedDataPathProperty@@UAEPAXI@Z 5f890036 f
 0001:0008f081       ??_ECDataPathProperty@@UAEPAXI@Z 5f890081 f
 0001:0008f0cc       ??_ECOleStreamFile@@UAEPAXI@Z 5f8900cc f
 0001:0008f117       ??_ECOleTemplateServer@@UAEPAXI@Z 5f890117 f
 0001:0008f162       ??_ECOleDropTarget@@UAEPAXI@Z 5f890162 f
 0001:0008f1ad       ??_ECOleIPFrameWnd@@UAEPAXI@Z 5f8901ad f
 0001:0008f1fb       ??_ECOleDocIPFrameWnd@@UAEPAXI@Z 5f8901fb f
 0001:0008f249       ??_ECRichEditView@@UAEPAXI@Z 5f890249 f
 0001:0008f297       ??_ECRichEditCntrItem@@UAEPAXI@Z 5f890297 f
 0001:0008f2e5       ??_ECDatabase@@UAEPAXI@Z   5f8902e5 f
 0001:0008f330       ??_ECLongBinary@@UAEPAXI@Z 5f890330 f
 0001:0008f37b       ??_ECDaoWorkspace@@UAEPAXI@Z 5f89037b f
 0001:0008f3c6       ??_ECDaoException@@UAEPAXI@Z 5f8903c6 f
 0001:0008f411       ??_ECDaoDatabase@@UAEPAXI@Z 5f890411 f
 0001:0008f45c       ??_ECDaoRecordset@@UAEPAXI@Z 5f89045c f
 0001:0008f4aa       ??_ECAsyncSocket@@UAEPAXI@Z 5f8904aa f
 0001:0008f4f5       ??_ECSocket@@UAEPAXI@Z     5f8904f5 f
 0001:0008f540       ?_AfxBinaryCompatibleStubFunction@@YAXXZ 5f890540 f
 0001:0008f546       ___CxxFrameHandler         5f890546 f
 0001:0008f5d6       ??1AFX_DDPDATA@@UAE@XZ     5f8905d6 f
 0001:0008f65d       ??1CFileException@@UAE@XZ  5f89065d f
 0001:0008fc60       ??1COccManager@@UAE@XZ     5f890c60 f
 0001:0008fce0       ??1AFX_MAINTAIN_STATE2@@QAE@XZ 5f890ce0 f
 0001:0008fdc6       ??1CWaitCursor@@QAE@XZ     5f890dc6 f
 0001:0008fed2       ??1CPushRoutingFrame@@QAE@XZ 5f890ed2 f
 0001:00090078       ??1CBrush@@UAE@XZ          5f891078 f
 0001:000902aa       ??1CMiniFrameWnd@@UAE@XZ   5f8912aa f
 0001:000904c3       ??1CRgn@@UAE@XZ            5f8914c3 f
 0001:000906b8       ??1CBitmap@@UAE@XZ         5f8916b8 f
 0001:000907d4       ??1CDialogTemplate@@QAE@XZ 5f8917d4 f
 0001:0009099f       ??1CPropertyPage@@UAE@XZ   5f89199f f
 0001:00090a9c       ??1CPropertySheet@@UAE@XZ  5f891a9c f
 0001:00090d94       ??1CGdiObject@@UAE@XZ      5f891d94 f
 0001:0009124c       ??1CFileDialog@@UAE@XZ     5f89224c f
 0001:00091346       ??1CNewTypeDlg@@UAE@XZ     5f892346 f
 0001:0009139f       ??1CPushRoutingView@@QAE@XZ 5f89239f f
 0001:00091475       ??1CPrintingDialog@@UAE@XZ 5f892475 f
 0001:0009158d       ??1CCtrlView@@UAE@XZ       5f89258d f
 0001:000915d7       ??1CUIntArray@@UAE@XZ      5f8925d7 f
 0001:00091750       ??1CPen@@UAE@XZ            5f892750 f
 0001:00091b92       ??1CStdioFile@@UAE@XZ      5f892b92 f
 0001:00091d07       ??1CGopherLocator@@UAE@XZ  5f892d07 f
 0001:00091e3c       ??1CInternetFile@@UAE@XZ   5f892e3c f
 0001:0009215b       ??1CAsyncSocket@@UAE@XZ    5f89315b f
 0001:000921be       ??1CDocItem@@UAE@XZ        5f8931be f
 0001:000924de       ??1CSharedFile@@UAE@XZ     5f8934de f
 0001:0009251f       ??1COleStreamFile@@UAE@XZ  5f89351f f
 0001:00092836       ??1COleSafeArray@@QAE@XZ   5f893836 f
 0001:00092ba6       ??1COleBusyDialog@@UAE@XZ  5f893ba6 f
 0001:0009323c       ??1CMetaFileDC@@UAE@XZ     5f89423c f
 0001:0009345e       ??1COleConvertDialog@@UAE@XZ 5f89445e f
 0001:000934ac       ??1COleChangeIconDialog@@UAE@XZ 5f8944ac f
 0001:000935aa       ??1COleClientItem@@UAE@XZ  5f8945aa f
 0001:0009366a       ??1COleInsertDialog@@UAE@XZ 5f89466a f
 0001:000936bd       ??1CReObject@@QAE@XZ       5f8946bd f
 0001:00093719       ??1COlePasteSpecialDialog@@UAE@XZ 5f894719 f
 0001:00093c59       ??1CByteArray@@UAE@XZ      5f894c59 f
 0001:00093d96       ??1CFont@@UAE@XZ           5f894d96 f
 0001:00093e0a       ??1CEnumArray@@UAE@XZ      5f894e0a f
 0001:00094023       ??1?$CComPtr@UIAccessor@@@ATL@@QAE@XZ 5f895023 f
 0001:00094189       ??1CManualAccessor@ATL@@QAE@XZ 5f895189 f
 0001:0009475d       ??1COleCmdUI@@QAE@XZ       5f89575d f
 0001:00094846       ??1CMonikerFile@@UAE@XZ    5f895846 f
 0001:000952cb       ??1CStringArray@@UAE@XZ    5f8962cb f
 0001:0009535d       ??1CPropertySet@@QAE@XZ    5f89635d f
 0001:00095661       ??1CPropbagPropExchange@@QAE@XZ 5f896661 f
 0001:000956f4       ??1CStockPropPage@@UAE@XZ  5f8966f4 f
 0001:0009576d       ??1COlePropertyPage@@UAE@XZ 5f89676d f
 0001:00095959       ??1CFontComboBox@@UAE@XZ   5f896959 f
 0001:00095fcd       ??1CDBException@@UAE@XZ    5f896fcd f
 0001:000965da       ??1CDaoRelationInfo@@UAE@XZ 5f8975da f
 0001:0009664c       ??1CDaoRelationFieldInfo@@QAE@XZ 5f89764c f
 0001:00096905       ??1CDaoFieldInfo@@QAE@XZ   5f897905 f
 0001:00096a82       ??1CDaoIndexInfo@@UAE@XZ   5f897a82 f
 0001:00097465       ??1CAsyncMonikerFile@@UAE@XZ 5f898465 f
 0001:000974cd       ??1CDataPathProperty@@UAE@XZ 5f8984cd f
 0002:00000000       __imp___initterm           5f899000  
 0002:00000004       __imp_?terminate@@YAXXZ    5f899004  
 0002:00000008       __imp___except_handler3    5f899008  
 0002:0000000c       __imp___adjust_fdiv        5f89900c  
 0002:00000010       __imp___onexit             5f899010  
 0002:00000014       __imp____dllonexit         5f899014  
 0002:00000018       __imp_??1type_info@@UAE@XZ 5f899018  
 0002:0000001c       __imp___wcsnicmp           5f89901c  
 0002:00000020       __imp__wcsncpy             5f899020  
 0002:00000024       __imp__wcscpy              5f899024  
 0002:00000028       __imp___ltow               5f899028  
 0002:0000002c       __imp___ultow              5f89902c  
 0002:00000030       __imp___itow               5f899030  
 0002:00000034       __imp__modf                5f899034  
 0002:00000038       __imp__ceil                5f899038  
 0002:0000003c       __imp__fabs                5f89903c  
 0002:00000040       __imp__floor               5f899040  
 0002:00000044       __imp__labs                5f899044  
 0002:00000048       __imp___ftol               5f899048  
 0002:0000004c       __imp___EH_prolog          5f89904c  
 0002:00000050       __imp___wsplitpath         5f899050  
 0002:00000054       __imp___wfullpath          5f899054  
 0002:00000058       __imp___wtol               5f899058  
 0002:0000005c       __imp____p___argc          5f89905c  
 0002:00000060       __imp____p___wargv         5f899060  
 0002:00000064       __imp___beginthreadex      5f899064  
 0002:00000068       __imp___endthreadex        5f899068  
 0002:0000006c       __imp___wcsdup             5f89906c  
 0002:00000070       __imp___expand             5f899070  
 0002:00000074       __imp__wcstod              5f899074  
 0002:00000078       __imp__wcstol              5f899078  
 0002:0000007c       __imp__wcstoul             5f89907c  
 0002:00000080       __imp__abs                 5f899080  
 0002:00000084       __imp__calloc              5f899084  
 0002:00000088       __imp___msize              5f899088  
 0002:0000008c       __imp___purecall           5f89908c  
 0002:00000090       __imp__wcsftime            5f899090  
 0002:00000094       __imp__localtime           5f899094  
 0002:00000098       __imp__gmtime              5f899098  
 0002:0000009c       __imp__time                5f89909c  
 0002:000000a0       __imp__iswspace            5f8990a0  
 0002:000000a4       __imp___wtoi               5f8990a4  
 0002:000000a8       __imp__iswdigit            5f8990a8  
 0002:000000ac       __imp__wcsncmp             5f8990ac  
 0002:000000b0       __imp__wcslen              5f8990b0  
 0002:000000b4       __imp__swprintf            5f8990b4  
 0002:000000b8       __imp__vswprintf           5f8990b8  
 0002:000000bc       __imp__wcsrchr             5f8990bc  
 0002:000000c0       __imp__wcscspn             5f8990c0  
 0002:000000c4       __imp__wcsspn              5f8990c4  
 0002:000000c8       __imp__wcsstr              5f8990c8  
 0002:000000cc       __imp___wcsrev             5f8990cc  
 0002:000000d0       __imp___wcslwr             5f8990d0  
 0002:000000d4       __imp___wcsupr             5f8990d4  
 0002:000000d8       __imp__wcspbrk             5f8990d8  
 0002:000000dc       __imp__wcschr              5f8990dc  
 0002:000000e0       __imp__wcscmp              5f8990e0  
 0002:000000e4       __imp__realloc             5f8990e4  
 0002:000000e8       __imp__fclose              5f8990e8  
 0002:000000ec       __imp__fflush              5f8990ec  
 0002:000000f0       __imp__fseek               5f8990f0  
 0002:000000f4       __imp__ftell               5f8990f4  
 0002:000000f8       __imp__fgetws              5f8990f8  
 0002:000000fc       __imp__fputws              5f8990fc  
 0002:00000100       __imp__fwrite              5f899100  
 0002:00000104       __imp__fread               5f899104  
 0002:00000108       __imp__clearerr            5f899108  
 0002:0000010c       __imp___open_osfhandle     5f89910c  
 0002:00000110       __imp___fdopen             5f899110  
 0002:00000114       __imp____doserrno          5f899114  
 0002:00000118       __imp___get_osfhandle      5f899118  
 0002:0000011c       __imp__memset              5f89911c  
 0002:00000120       __imp__abort               5f899120  
 0002:00000124       __imp__free                5f899124  
 0002:00000128       __imp__malloc              5f899128  
 0002:0000012c       __imp__memcmp              5f89912c  
 0002:00000130       __imp__memmove             5f899130  
 0002:00000134       __imp__memcpy              5f899134  
 0002:00000138       __imp___CxxThrowException@8 5f899138  
 0002:0000013c       __imp__mktime              5f89913c  
 0002:00000140       __imp____CxxFrameHandler   5f899140  
 0002:00000148       __imp__GetShortPathNameW@12 5f899148  
 0002:0000014c       __imp__GetModuleFileNameW@12 5f89914c  
 0002:00000150       __imp__GlobalSize@4        5f899150  
 0002:00000154       __imp__lstrcmpiW@8         5f899154  
 0002:00000158       __imp__FormatMessageW@28   5f899158  
 0002:0000015c       __imp__GlobalAlloc@8       5f89915c  
 0002:00000160       __imp__GlobalReAlloc@12    5f899160  
 0002:00000164       __imp__GlobalUnlock@4      5f899164  
 0002:00000168       __imp__GlobalFree@4        5f899168  
 0002:0000016c       __imp__GetFileAttributesW@4 5f89916c  
 0002:00000170       __imp__GetFileSize@8       5f899170  
 0002:00000174       __imp__GetFileTime@16      5f899174  
 0002:00000178       __imp__LocalFileTimeToFileTime@8 5f899178  
 0002:0000017c       __imp__SystemTimeToFileTime@8 5f89917c  
 0002:00000180       __imp__SetFileTime@16      5f899180  
 0002:00000184       __imp__SetFileAttributesW@8 5f899184  
 0002:00000188       __imp__InterlockedIncrement@4 5f899188  
 0002:0000018c       __imp__InterlockedDecrement@4 5f89918c  
 0002:00000190       __imp__WideCharToMultiByte@32 5f899190  
 0002:00000194       __imp__MultiByteToWideChar@24 5f899194  
 0002:00000198       __imp__GetStringTypeExW@20 5f899198  
 0002:0000019c       __imp__GetThreadLocale@0   5f89919c  
 0002:000001a0       __imp__FileTimeToSystemTime@8 5f8991a0  
 0002:000001a4       __imp__FileTimeToLocalFileTime@8 5f8991a4  
 0002:000001a8       __imp__LocalAlloc@8        5f8991a8  
 0002:000001ac       __imp__InitializeCriticalSection@4 5f8991ac  
 0002:000001b0       __imp__TlsAlloc@0          5f8991b0  
 0002:000001b4       __imp__DeleteCriticalSection@4 5f8991b4  
 0002:000001b8       __imp__GlobalHandle@4      5f8991b8  
 0002:000001bc       __imp__TlsFree@4           5f8991bc  
 0002:000001c0       __imp__LeaveCriticalSection@4 5f8991c0  
 0002:000001c4       __imp__EnterCriticalSection@4 5f8991c4  
 0002:000001c8       __imp__TlsSetValue@8       5f8991c8  
 0002:000001cc       __imp__LocalReAlloc@12     5f8991cc  
 0002:000001d0       __imp__TlsGetValue@4       5f8991d0  
 0002:000001d4       __imp__WaitForSingleObject@8 5f8991d4  
 0002:000001d8       __imp__CreateSemaphoreW@16 5f8991d8  
 0002:000001dc       __imp__ReleaseSemaphore@12 5f8991dc  
 0002:000001e0       __imp__CreateMutexW@12     5f8991e0  
 0002:000001e4       __imp__ReleaseMutex@4      5f8991e4  
 0002:000001e8       __imp__CreateEventW@16     5f8991e8  
 0002:000001ec       __imp__WaitForMultipleObjects@16 5f8991ec  
 0002:000001f0       __imp__GetModuleHandleW@4  5f8991f0  
 0002:000001f4       __imp__LocalFree@4         5f8991f4  
 0002:000001f8       __imp__FindFirstFileW@8    5f8991f8  
 0002:000001fc       __imp__GlobalAddAtomW@4    5f8991fc  
 0002:00000200       __imp__InterlockedExchange@8 5f899200  
 0002:00000204       __imp__lstrcatW@8          5f899204  
 0002:00000208       __imp__GetVersion@0        5f899208  
 0002:0000020c       __imp__LockResource@4      5f89920c  
 0002:00000210       __imp__LoadResource@8      5f899210  
 0002:00000214       __imp__FindResourceW@12    5f899214  
 0002:00000218       __imp__FreeLibrary@4       5f899218  
 0002:0000021c       __imp__LoadLibraryA@4      5f89921c  
 0002:00000220       __imp__GlobalGetAtomNameW@12 5f899220  
 0002:00000224       __imp__GetModuleHandleA@4  5f899224  
 0002:00000228       __imp__MulDiv@12           5f899228  
 0002:0000022c       __imp__GetProfileIntW@12   5f89922c  
 0002:00000230       __imp__VirtualProtect@16   5f899230  
 0002:00000234       __imp__lstrcpyA@8          5f899234  
 0002:00000238       __imp__FindResourceExW@16  5f899238  
 0002:0000023c       __imp__SizeofResource@8    5f89923c  
 0002:00000240       __imp__GetProcessVersion@4 5f899240  
 0002:00000244       __imp__lstrcmpW@8          5f899244  
 0002:00000248       __imp__GlobalFlags@4       5f899248  
 0002:0000024c       __imp__GetTempFileNameW@16 5f89924c  
 0002:00000250       __imp__GetDiskFreeSpaceW@20 5f899250  
 0002:00000254       __imp__LocalUnlock@4       5f899254  
 0002:00000258       __imp__LocalLock@4         5f899258  
 0002:0000025c       __imp__GetTempPathW@8      5f89925c  
 0002:00000260       __imp__SearchPathW@24      5f899260  
 0002:00000264       __imp__SetEvent@4          5f899264  
 0002:00000268       __imp__ResumeThread@4      5f899268  
 0002:0000026c       __imp__SetThreadPriority@8 5f89926c  
 0002:00000270       __imp__SuspendThread@4     5f899270  
 0002:00000274       __imp__GetCurrentThread@0  5f899274  
 0002:00000278       __imp__lstrcmpiA@8         5f899278  
 0002:0000027c       __imp__SetErrorMode@4      5f89927c  
 0002:00000280       __imp__GetPrivateProfileIntW@16 5f899280  
 0002:00000284       __imp__GetPrivateProfileStringW@24 5f899284  
 0002:00000288       __imp__WritePrivateProfileStringW@16 5f899288  
 0002:0000028c       __imp__GetCurrentDirectoryW@8 5f89928c  
 0002:00000290       __imp__FindNextFileW@8     5f899290  
 0002:00000294       __imp__GetTickCount@0      5f899294  
 0002:00000298       __imp__CopyFileW@12        5f899298  
 0002:0000029c       __imp__GetUserDefaultLCID@0 5f89929c  
 0002:000002a0       __imp__IsDBCSLeadByte@4    5f8992a0  
 0002:000002a4       __imp__lstrcatA@8          5f8992a4  
 0002:000002a8       __imp__GetSystemDirectoryA@8 5f8992a8  
 0002:000002ac       __imp__GetFullPathNameW@16 5f8992ac  
 0002:000002b0       __imp__GetVolumeInformationW@32 5f8992b0  
 0002:000002b4       __imp__LoadLibraryW@4      5f8992b4  
 0002:000002b8       __imp__FindClose@4         5f8992b8  
 0002:000002bc       __imp__lstrcpyW@8          5f8992bc  
 0002:000002c0       __imp__MoveFileW@8         5f8992c0  
 0002:000002c4       __imp__GetProcAddress@8    5f8992c4  
 0002:000002c8       __imp__DeleteFileW@4       5f8992c8  
 0002:000002cc       __imp__LockFile@20         5f8992cc  
 0002:000002d0       __imp__SetEndOfFile@4      5f8992d0  
 0002:000002d4       __imp__UnlockFile@20       5f8992d4  
 0002:000002d8       __imp__SetFilePointer@16   5f8992d8  
 0002:000002dc       __imp__CloseHandle@4       5f8992dc  
 0002:000002e0       __imp__FlushFileBuffers@4  5f8992e0  
 0002:000002e4       __imp__CreateFileW@28      5f8992e4  
 0002:000002e8       __imp__WriteFile@20        5f8992e8  
 0002:000002ec       __imp__ReadFile@20         5f8992ec  
 0002:000002f0       __imp__lstrlenA@4          5f8992f0  
 0002:000002f4       __imp__GetCurrentProcess@0 5f8992f4  
 0002:000002f8       __imp__DuplicateHandle@28  5f8992f8  
 0002:000002fc       __imp__lstrlenW@4          5f8992fc  
 0002:00000300       __imp__lstrcmpA@8          5f899300  
 0002:00000304       __imp__OutputDebugStringW@4 5f899304  
 0002:00000308       __imp__IsBadStringPtrA@8   5f899308  
 0002:0000030c       __imp__IsBadReadPtr@8      5f89930c  
 0002:00000310       __imp__IsBadWritePtr@8     5f899310  
 0002:00000314       __imp__GetLastError@0      5f899314  
 0002:00000318       __imp__IsBadStringPtrW@8   5f899318  
 0002:0000031c       __imp__lstrcpynW@12        5f89931c  
 0002:00000320       __imp__GlobalDeleteAtom@4  5f899320  
 0002:00000324       __imp__SetLastError@4      5f899324  
 0002:00000328       __imp__GlobalFindAtomW@4   5f899328  
 0002:0000032c       __imp__GlobalLock@4        5f89932c  
 0002:00000330       __imp__GetCurrentThreadId@0 5f899330  
 0002:00000334       __imp__RaiseException@16   5f899334  
 0002:0000033c       __imp__CreatePen@12        5f89933c  
 0002:00000340       __imp__SetMapMode@8        5f899340  
 0002:00000344       __imp__EnumFontFamiliesW@16 5f899344  
 0002:00000348       __imp__GetPixel@12         5f899348  
 0002:0000034c       __imp__CreatePalette@4     5f89934c  
 0002:00000350       __imp__GetPaletteEntries@16 5f899350  
 0002:00000354       __imp__RealizePalette@4    5f899354  
 0002:00000358       __imp__OffsetRgn@12        5f899358  
 0002:0000035c       __imp__SetBrushOrgEx@16    5f89935c  
 0002:00000360       __imp__CreateMetaFileW@4   5f899360  
 0002:00000364       __imp__CopyMetaFileW@8     5f899364  
 0002:00000368       __imp__LPtoDP@12           5f899368  
 0002:0000036c       __imp__SetAbortProc@8      5f89936c  
 0002:00000370       __imp__StartPage@4         5f899370  
 0002:00000374       __imp__EndPage@4           5f899374  
 0002:00000378       __imp__EndDoc@4            5f899378  
 0002:0000037c       __imp__AbortDoc@4          5f89937c  
 0002:00000380       __imp__DPtoLP@12           5f899380  
 0002:00000384       __imp__CombineRgn@16       5f899384  
 0002:00000388       __imp__SetRectRgn@20       5f899388  
 0002:0000038c       __imp__GetMapMode@4        5f89938c  
 0002:00000390       __imp__CreateDIBPatternBrushPt@8 5f899390  
 0002:00000394       __imp__CreateHatchBrush@8  5f899394  
 0002:00000398       __imp__ExtCreatePen@20     5f899398  
 0002:0000039c       __imp__PlayMetaFile@8      5f89939c  
 0002:000003a0       __imp__EnumMetaFile@16     5f8993a0  
 0002:000003a4       __imp__GetObjectType@4     5f8993a4  
 0002:000003a8       __imp__PlayMetaFileRecord@16 5f8993a8  
 0002:000003ac       __imp__ExtSelectClipRgn@12 5f8993ac  
 0002:000003b0       __imp__SelectClipPath@8    5f8993b0  
 0002:000003b4       __imp__CreateRectRgn@16    5f8993b4  
 0002:000003b8       __imp__GetClipRgn@8        5f8993b8  
 0002:000003bc       __imp__PolyBezierTo@12     5f8993bc  
 0002:000003c0       __imp__SetColorAdjustment@8 5f8993c0  
 0002:000003c4       __imp__PolylineTo@12       5f8993c4  
 0002:000003c8       __imp__PolyDraw@16         5f8993c8  
 0002:000003cc       __imp__SetArcDirection@8   5f8993cc  
 0002:000003d0       __imp__ArcTo@36            5f8993d0  
 0002:000003d4       __imp__SetMapperFlags@8    5f8993d4  
 0002:000003d8       __imp__SetTextCharacterExtra@8 5f8993d8  
 0002:000003dc       __imp__SetTextJustification@12 5f8993dc  
 0002:000003e0       __imp__SetTextAlign@8      5f8993e0  
 0002:000003e4       __imp__LineTo@12           5f8993e4  
 0002:000003e8       __imp__OffsetClipRgn@12    5f8993e8  
 0002:000003ec       __imp__ExcludeClipRect@20  5f8993ec  
 0002:000003f0       __imp__SelectClipRgn@8     5f8993f0  
 0002:000003f4       __imp__OffsetWindowOrgEx@16 5f8993f4  
 0002:000003f8       __imp__SetStretchBltMode@8 5f8993f8  
 0002:000003fc       __imp__SetROP2@8           5f8993fc  
 0002:00000400       __imp__SetPolyFillMode@8   5f899400  
 0002:00000404       __imp__SetBkMode@8         5f899404  
 0002:00000408       __imp__SelectPalette@12    5f899408  
 0002:0000040c       __imp__StartDocW@8         5f89940c  
 0002:00000410       __imp__EnumFontFamiliesExW@20 5f899410  
 0002:00000414       __imp__CreateDCW@16        5f899414  
 0002:00000418       __imp__CreateRectRgnIndirect@4 5f899418  
 0002:0000041c       __imp__Rectangle@20        5f89941c  
 0002:00000420       __imp__UnrealizeObject@4   5f899420  
 0002:00000424       __imp__PatBlt@24           5f899424  
 0002:00000428       __imp__CreateBitmap@20     5f899428  
 0002:0000042c       __imp__CreatePatternBrush@4 5f89942c  
 0002:00000430       __imp__TextOutW@20         5f899430  
 0002:00000434       __imp__CloseMetaFile@4     5f899434  
 0002:00000438       __imp__DeleteMetaFile@4    5f899438  
 0002:0000043c       __imp__RectVisible@8       5f89943c  
 0002:00000440       __imp__PtVisible@12        5f899440  
 0002:00000444       __imp__IntersectClipRect@20 5f899444  
 0002:00000448       __imp__GetViewportOrgEx@8  5f899448  
 0002:0000044c       __imp__GetWindowOrgEx@8    5f89944c  
 0002:00000450       __imp__SetWindowOrgEx@16   5f899450  
 0002:00000454       __imp__GetDeviceCaps@8     5f899454  
 0002:00000458       __imp__Escape@20           5f899458  
 0002:0000045c       __imp__GetTextExtentPoint32A@16 5f89945c  
 0002:00000460       __imp__GetCurrentPositionEx@8 5f899460  
 0002:00000464       __imp__MoveToEx@16         5f899464  
 0002:00000468       __imp__ScaleWindowExtEx@24 5f899468  
 0002:0000046c       __imp__SetWindowExtEx@16   5f89946c  
 0002:00000470       __imp__ScaleViewportExtEx@24 5f899470  
 0002:00000474       __imp__SetViewportExtEx@16 5f899474  
 0002:00000478       __imp__OffsetViewportOrgEx@16 5f899478  
 0002:0000047c       __imp__SetViewportOrgEx@16 5f89947c  
 0002:00000480       __imp__GetViewportExtEx@8  5f899480  
 0002:00000484       __imp__GetROP2@4           5f899484  
 0002:00000488       __imp__GetWindowExtEx@8    5f899488  
 0002:0000048c       __imp__GetTextAlign@4      5f89948c  
 0002:00000490       __imp__GetPolyFillMode@4   5f899490  
 0002:00000494       __imp__GetBkMode@4         5f899494  
 0002:00000498       __imp__GetTextColor@4      5f899498  
 0002:0000049c       __imp__GetNearestColor@8   5f89949c  
 0002:000004a0       __imp__GetStretchBltMode@4 5f8994a0  
 0002:000004a4       __imp__RestoreDC@8         5f8994a4  
 0002:000004a8       __imp__SaveDC@4            5f8994a8  
 0002:000004ac       __imp__GetBkColor@4        5f8994ac  
 0002:000004b0       __imp__CreateFontW@56      5f8994b0  
 0002:000004b4       __imp__GetCharWidthW@16    5f8994b4  
 0002:000004b8       __imp__GetStockObject@4    5f8994b8  
 0002:000004bc       __imp__CreateCompatibleBitmap@12 5f8994bc  
 0002:000004c0       __imp__StretchDIBits@52    5f8994c0  
 0002:000004c4       __imp__DeleteObject@4      5f8994c4  
 0002:000004c8       __imp__CreateSolidBrush@4  5f8994c8  
 0002:000004cc       __imp__GetTextExtentPoint32W@16 5f8994cc  
 0002:000004d0       __imp__DeleteDC@4          5f8994d0  
 0002:000004d4       __imp__CreateCompatibleDC@4 5f8994d4  
 0002:000004d8       __imp__BitBlt@36           5f8994d8  
 0002:000004dc       __imp__ExtTextOutW@32      5f8994dc  
 0002:000004e0       __imp__SelectObject@8      5f8994e0  
 0002:000004e4       __imp__GetTextMetricsW@8   5f8994e4  
 0002:000004e8       __imp__CreateFontIndirectW@4 5f8994e8  
 0002:000004ec       __imp__SetBkColor@8        5f8994ec  
 0002:000004f0       __imp__SetTextColor@8      5f8994f0  
 0002:000004f4       __imp__GetObjectW@12       5f8994f4  
 0002:000004f8       __imp__GetClipBox@8        5f8994f8  
 0002:000004fc       __imp__GetTextFaceW@12     5f8994fc  
 0002:00000504       __imp__GetCursorPos@4      5f899504  
 0002:00000508       __imp__UnhookWindowsHookEx@4 5f899508  
 0002:0000050c       __imp__MsgWaitForMultipleObjects@20 5f89950c  
 0002:00000510       __imp__GetWindowRect@8     5f899510  
 0002:00000514       __imp__GetWindowPlacement@8 5f899514  
 0002:00000518       __imp__IsIconic@4          5f899518  
 0002:0000051c       __imp__SystemParametersInfoW@16 5f89951c  
 0002:00000520       __imp__IntersectRect@12    5f899520  
 0002:00000524       __imp__OffsetRect@12       5f899524  
 0002:00000528       __imp__RegisterWindowMessageW@4 5f899528  
 0002:0000052c       __imp__SetWindowPos@28     5f89952c  
 0002:00000530       __imp__SetWindowLongW@12   5f899530  
 0002:00000534       __imp__GetWindowLongW@8    5f899534  
 0002:00000538       __imp__GetWindow@8         5f899538  
 0002:0000053c       __imp__SendMessageW@16     5f89953c  
 0002:00000540       __imp__SetForegroundWindow@4 5f899540  
 0002:00000544       __imp__GetForegroundWindow@0 5f899544  
 0002:00000548       __imp__GetLastActivePopup@4 5f899548  
 0002:0000054c       __imp__GetMessagePos@0     5f89954c  
 0002:00000550       __imp__GetMessageTime@0    5f899550  
 0002:00000554       __imp__RemovePropW@8       5f899554  
 0002:00000558       __imp__CallWindowProcW@20  5f899558  
 0002:0000055c       __imp__GetPropW@8          5f89955c  
 0002:00000560       __imp__SetPropW@12         5f899560  
 0002:00000564       __imp__CallNextHookEx@16   5f899564  
 0002:00000568       __imp__SetWindowsHookExW@16 5f899568  
 0002:0000056c       __imp__CreateWindowExW@48  5f89956c  
 0002:00000570       __imp__DestroyWindow@4     5f899570  
 0002:00000574       __imp__DefWindowProcW@16   5f899574  
 0002:00000578       __imp__GetKeyState@4       5f899578  
 0002:0000057c       __imp__GetDlgCtrlID@4      5f89957c  
 0002:00000580       __imp__GetWindowTextW@12   5f899580  
 0002:00000584       __imp__GetWindowTextLengthW@4 5f899584  
 0002:00000588       __imp__GetDlgItem@8        5f899588  
 0002:0000058c       __imp__SetWindowPlacement@8 5f89958c  
 0002:00000590       __imp__TrackPopupMenu@28   5f899590  
 0002:00000594       __imp__GetMenuItemID@8     5f899594  
 0002:00000598       __imp__GetSubMenu@8        5f899598  
 0002:0000059c       __imp__GetMenuItemCount@4  5f89959c  
 0002:000005a0       __imp__GetMenu@4           5f8995a0  
 0002:000005a4       __imp__RegisterClassW@4    5f8995a4  
 0002:000005a8       __imp__GetClassInfoW@12    5f8995a8  
 0002:000005ac       __imp__WinHelpW@16         5f8995ac  
 0002:000005b0       __imp__GetCapture@0        5f8995b0  
 0002:000005b4       __imp__GetParent@4         5f8995b4  
 0002:000005b8       __imp__IsChild@8           5f8995b8  
 0002:000005bc       __imp__MessageBoxW@16      5f8995bc  
 0002:000005c0       __imp__GetTopWindow@4      5f8995c0  
 0002:000005c4       __imp__SetScrollPos@16     5f8995c4  
 0002:000005c8       __imp__GetScrollPos@8      5f8995c8  
 0002:000005cc       __imp__SetScrollRange@20   5f8995cc  
 0002:000005d0       __imp__GetScrollRange@16   5f8995d0  
 0002:000005d4       __imp__ShowScrollBar@12    5f8995d4  
 0002:000005d8       __imp__SetScrollInfo@16    5f8995d8  
 0002:000005dc       __imp__GetScrollInfo@12    5f8995dc  
 0002:000005e0       __imp__ScrollWindow@20     5f8995e0  
 0002:000005e4       __imp__IsWindowVisible@4   5f8995e4  
 0002:000005e8       __imp__EnableWindow@8      5f8995e8  
 0002:000005ec       __imp__EndDeferWindowPos@4 5f8995ec  
 0002:000005f0       __imp__CopyRect@8          5f8995f0  
 0002:000005f4       __imp__BeginDeferWindowPos@4 5f8995f4  
 0002:000005f8       __imp__GetClientRect@8     5f8995f8  
 0002:000005fc       __imp__DeferWindowPos@32   5f8995fc  
 0002:00000600       __imp__EqualRect@8         5f899600  
 0002:00000604       __imp__ScreenToClient@8    5f899604  
 0002:00000608       __imp__AdjustWindowRectEx@16 5f899608  
 0002:0000060c       __imp__SetFocus@4          5f89960c  
 0002:00000610       __imp__IsWindow@4          5f899610  
 0002:00000614       __imp__SetActiveWindow@4   5f899614  
 0002:00000618       __imp__GetFocus@0          5f899618  
 0002:0000061c       __imp__DispatchMessageW@4  5f89961c  
 0002:00000620       __imp__PeekMessageW@20     5f899620  
 0002:00000624       __imp__GetSysColor@4       5f899624  
 0002:00000628       __imp__MapWindowPoints@16  5f899628  
 0002:0000062c       __imp__SendDlgItemMessageA@20 5f89962c  
 0002:00000630       __imp__SendDlgItemMessageW@20 5f899630  
 0002:00000634       __imp__UpdateWindow@4      5f899634  
 0002:00000638       __imp__PostMessageW@16     5f899638  
 0002:0000063c       __imp__LoadIconW@8         5f89963c  
 0002:00000640       __imp__SetRectEmpty@4      5f899640  
 0002:00000644       __imp__LoadAcceleratorsW@8 5f899644  
 0002:00000648       __imp__TranslateAcceleratorW@12 5f899648  
 0002:0000064c       __imp__ReleaseCapture@0    5f89964c  
 0002:00000650       __imp__SetCursor@4         5f899650  
 0002:00000654       __imp__IsWindowEnabled@4   5f899654  
 0002:00000658       __imp__GetDesktopWindow@0  5f899658  
 0002:0000065c       __imp__ShowWindow@8        5f89965c  
 0002:00000660       __imp__GetActiveWindow@0   5f899660  
 0002:00000664       __imp__DestroyMenu@4       5f899664  
 0002:00000668       __imp__LoadMenuW@8         5f899668  
 0002:0000066c       __imp__SetMenu@8           5f89966c  
 0002:00000670       __imp__ReuseDDElParam@20   5f899670  
 0002:00000674       __imp__UnpackDDElParam@16  5f899674  
 0002:00000678       __imp__InvalidateRect@12   5f899678  
 0002:0000067c       __imp__BringWindowToTop@4  5f89967c  
 0002:00000680       __imp__LoadCursorW@8       5f899680  
 0002:00000684       __imp__SetCapture@4        5f899684  
 0002:00000688       __imp__WaitMessage@0       5f899688  
 0002:0000068c       __imp__GetSystemMetrics@4  5f89968c  
 0002:00000690       __imp__GetWindowThreadProcessId@8 5f899690  
 0002:00000694       __imp__WindowFromPoint@8   5f899694  
 0002:00000698       __imp__ClientToScreen@8    5f899698  
 0002:0000069c       __imp__TranslateMessage@4  5f89969c  
 0002:000006a0       __imp__GetMessageW@16      5f8996a0  
 0002:000006a4       __imp__DefFrameProcW@20    5f8996a4  
 0002:000006a8       __imp__TranslateMDISysAccel@8 5f8996a8  
 0002:000006ac       __imp__DrawMenuBar@4       5f8996ac  
 0002:000006b0       __imp__DefMDIChildProcW@16 5f8996b0  
 0002:000006b4       __imp__RedrawWindow@16     5f8996b4  
 0002:000006b8       __imp__LoadBitmapW@8       5f8996b8  
 0002:000006bc       __imp__InflateRect@12      5f8996bc  
 0002:000006c0       __imp__PtInRect@12         5f8996c0  
 0002:000006c4       __imp__ReleaseDC@8         5f8996c4  
 0002:000006c8       __imp__InvertRect@8        5f8996c8  
 0002:000006cc       __imp__GetWindowDC@4       5f8996cc  
 0002:000006d0       __imp__FillRect@12         5f8996d0  
 0002:000006d4       __imp__SetTimer@16         5f8996d4  
 0002:000006d8       __imp__KillTimer@8         5f8996d8  
 0002:000006dc       __imp__SetRect@20          5f8996dc  
 0002:000006e0       __imp__GetDC@4             5f8996e0  
 0002:000006e4       __imp__IsZoomed@4          5f8996e4  
 0002:000006e8       __imp__SetParent@8         5f8996e8  
 0002:000006ec       __imp__IsRectEmpty@4       5f8996ec  
 0002:000006f0       __imp__AppendMenuW@16      5f8996f0  
 0002:000006f4       __imp__DeleteMenu@12       5f8996f4  
 0002:000006f8       __imp__GetSystemMenu@8     5f8996f8  
 0002:000006fc       __imp__GetDCEx@12          5f8996fc  
 0002:00000700       __imp__LockWindowUpdate@4  5f899700  
 0002:00000704       __imp__GetTabbedTextExtentA@20 5f899704  
 0002:00000708       __imp__DrawTextW@20        5f899708  
 0002:0000070c       __imp__GrayStringW@36      5f89970c  
 0002:00000710       __imp__UnionRect@12        5f899710  
 0002:00000714       __imp__DrawFocusRect@8     5f899714  
 0002:00000718       __imp__CreateDialogIndirectParamW@20 5f899718  
 0002:0000071c       __imp__EndDialog@8         5f89971c  
 0002:00000720       __imp__GetNextDlgTabItem@12 5f899720  
 0002:00000724       __imp__wvsprintfW@12       5f899724  
 0002:00000728       __imp__GetAsyncKeyState@4  5f899728  
 0002:0000072c       __imp__MapDialogRect@8     5f89972c  
 0002:00000730       __imp__GetDialogBaseUnits@0 5f899730  
 0002:00000734       __imp__BeginPaint@8        5f899734  
 0002:00000738       __imp__EndPaint@8          5f899738  
 0002:0000073c       __imp__TabbedTextOutW@32   5f89973c  
 0002:00000740       __imp__GetSysColorBrush@4  5f899740  
 0002:00000744       __imp__GetClassNameW@12    5f899744  
 0002:00000748       __imp__SetWindowTextW@8    5f899748  
 0002:0000074c       __imp__CheckDlgButton@12   5f89974c  
 0002:00000750       __imp__CheckRadioButton@16 5f899750  
 0002:00000754       __imp__GetDlgItemInt@16    5f899754  
 0002:00000758       __imp__GetDlgItemTextW@16  5f899758  
 0002:0000075c       __imp__SetDlgItemInt@16    5f89975c  
 0002:00000760       __imp__SetDlgItemTextW@12  5f899760  
 0002:00000764       __imp__IsDlgButtonChecked@8 5f899764  
 0002:00000768       __imp__ScrollWindowEx@32   5f899768  
 0002:0000076c       __imp__IsDialogMessageW@8  5f89976c  
 0002:00000770       __imp__MoveWindow@24       5f899770  
 0002:00000774       __imp__EnableMenuItem@12   5f899774  
 0002:00000778       __imp__CheckMenuItem@12    5f899778  
 0002:0000077c       __imp__SetMenuItemBitmaps@20 5f89977c  
 0002:00000780       __imp__ModifyMenuW@20      5f899780  
 0002:00000784       __imp__GetMenuState@12     5f899784  
 0002:00000788       __imp__GetMenuCheckMarkDimensions@0 5f899788  
 0002:0000078c       __imp__DestroyIcon@4       5f89978c  
 0002:00000790       __imp__SetCursorPos@8      5f899790  
 0002:00000794       __imp__DestroyCursor@4     5f899794  
 0002:00000798       __imp__FindWindowW@8       5f899798  
 0002:0000079c       __imp__GetTabbedTextExtentW@20 5f89979c  
 0002:000007a0       __imp__IsClipboardFormatAvailable@4 5f8997a0  
 0002:000007a4       __imp__MessageBeep@4       5f8997a4  
 0002:000007a8       __imp__RemoveMenu@12       5f8997a8  
 0002:000007ac       __imp__ValidateRect@8      5f8997ac  
 0002:000007b0       __imp__PostQuitMessage@4   5f8997b0  
 0002:000007b4       __imp__UnregisterClassW@8  5f8997b4  
 0002:000007b8       __imp__ShowOwnedPopups@8   5f8997b8  
 0002:000007bc       __imp__InsertMenuW@20      5f8997bc  
 0002:000007c0       __imp__GetMenuStringW@20   5f8997c0  
 0002:000007c4       __imp__RegisterClipboardFormatW@4 5f8997c4  
 0002:000007c8       __imp__CopyAcceleratorTableW@12 5f8997c8  
 0002:000007cc       __imp__InSendMessage@0     5f8997cc  
 0002:000007d0       __imp__PostThreadMessageW@16 5f8997d0  
 0002:000007d4       __imp__CreateMenu@0        5f8997d4  
 0002:000007d8       __imp__WindowFromDC@4      5f8997d8  
 0002:000007dc       __imp__CountClipboardFormats@0 5f8997dc  
 0002:000007e0       __imp__SetWindowContextHelpId@8 5f8997e0  
 0002:000007e4       __imp__CharNextW@4         5f8997e4  
 0002:000007e8       __imp__GetNextDlgGroupItem@12 5f8997e8  
 0002:000007ec       __imp__ClipCursor@4        5f8997ec  
 0002:000007f0       __imp__DrawEdge@16         5f8997f0  
 0002:000007f4       __imp__EnumChildWindows@12 5f8997f4  
 0002:000007f8       __imp__InvalidateRgn@12    5f8997f8  
 0002:000007fc       __imp__FrameRect@12        5f8997fc  
 0002:00000800       __imp__LoadStringW@16      5f899800  
 0002:00000804       __imp__MessageBoxA@16      5f899804  
 0002:00000808       __imp__CharUpperW@4        5f899808  
 0002:0000080c       __imp__wsprintfW           5f89980c  
 0002:00000818       ?classCTempWnd@CTempWnd@@2UCRuntimeClass@@B 5f899818  
 0002:00000830       ??_C@_08EHJM@CTempWnd?$AA@ 5f899830  
 0002:0000083c       ?_afxOldWndProc@@3QBGB     5f89983c  
 0002:00000864       ??_7type_info@@6B@         5f899864  
 0002:00000868       ??_R1A@?0A@A@type_info@@8  5f899868  
 0002:00000880       ??_R2type_info@@8          5f899880  
 0002:00000888       ??_R3type_info@@8          5f899888  
 0002:00000898       ??_R4type_info@@6B@        5f899898  
 0002:000008b0       ??_R1A@?0A@A@CObject@@8    5f8998b0  
 0002:000008cc       ??_7CWnd@@6B@              5f8998cc  
 0002:00000990       ??_R1A@?0A@A@CCmdTarget@@8 5f899990  
 0002:000009a8       ??_R1A@?0A@A@CWnd@@8       5f8999a8  
 0002:000009c0       ??_R2CWnd@@8               5f8999c0  
 0002:000009d0       ??_R3CWnd@@8               5f8999d0  
 0002:000009e0       ??_R4CWnd@@6B@             5f8999e0  
 0002:000009f8       ??_7CCmdTarget@@6B@        5f8999f8  
 0002:00000a50       ??_R2CCmdTarget@@8         5f899a50  
 0002:00000a60       ??_R3CCmdTarget@@8         5f899a60  
 0002:00000a70       ??_R4CCmdTarget@@6B@       5f899a70  
 0002:00000a88       ?messageMap@CWnd@@1UAFX_MSGMAP@@B 5f899a88  
 0002:00000a90       ?_messageEntries@CWnd@@0QBUAFX_MSGMAP_ENTRY@@B 5f899a90  
 0002:00000d30       ?messageMap@CCmdTarget@@1UAFX_MSGMAP@@B 5f899d30  
 0002:00000d38       ?_messageEntries@CCmdTarget@@0QBUAFX_MSGMAP_ENTRY@@B 5f899d38  
 0002:00000d50       ??_R1A@?0A@A@CCmdUI@@8     5f899d50  
 0002:00000d6c       ??_7CCmdUI@@6B@            5f899d6c  
 0002:00000d7c       ??_R2CCmdUI@@8             5f899d7c  
 0002:00000d88       ??_R3CCmdUI@@8             5f899d88  
 0002:00000d98       ??_R4CCmdUI@@6B@           5f899d98  
 0002:00000db0       ??_7CObject@@6B@           5f899db0  
 0002:00000dc4       ??_R2CObject@@8            5f899dc4  
 0002:00000dd0       ??_R3CObject@@8            5f899dd0  
 0002:00000de0       ??_R4CObject@@6B@          5f899de0  
 0002:00000df4       ?_pfnUninitialized@@3Q6AHI@ZA 5f899df4  
 0002:00000df8       ?messageMap@CStatusBar@@1UAFX_MSGMAP@@B 5f899df8  
 0002:00000e00       ?_messageEntries@CStatusBar@@0QBUAFX_MSGMAP_ENTRY@@B 5f899e00  
 0002:00000f08       ?messageMap@CView@@1UAFX_MSGMAP@@B 5f899f08  
 0002:00000f10       ?_messageEntries@CView@@0QBUAFX_MSGMAP_ENTRY@@B 5f899f10  
 0002:00001030       ?classCCmdTarget@CCmdTarget@@2UCRuntimeClass@@B 5f89a030  
 0002:00001048       ??_C@_0L@MION@CCmdTarget?$AA@ 5f89a048  
 0002:00001058       ?classCOleObjectFactory@COleObjectFactory@@2UCRuntimeClass@@B 5f89a058  
 0002:00001070       ??_C@_0BC@HKPN@COleObjectFactory?$AA@ 5f89a070  
 0002:00001088       ?messageMap@CDocument@@1UAFX_MSGMAP@@B 5f89a088  
 0002:00001090       ?_messageEntries@CDocument@@0QBUAFX_MSGMAP_ENTRY@@B 5f89a090  
 0002:000010f0       ?messageMap@CCtrlView@@1UAFX_MSGMAP@@B 5f89a0f0  
 0002:000010f8       ?_messageEntries@CCtrlView@@0QBUAFX_MSGMAP_ENTRY@@B 5f89a0f8  
 0002:00001128       ?messageMap@CToolBar@@1UAFX_MSGMAP@@B 5f89a128  
 0002:00001130       ?_messageEntries@CToolBar@@0QBUAFX_MSGMAP_ENTRY@@B 5f89a130  
 0002:00001268       ?messageMap@CControlBar@@1UAFX_MSGMAP@@B 5f89a268  
 0002:00001270       ?_messageEntries@CControlBar@@0QBUAFX_MSGMAP_ENTRY@@B 5f89a270  
 0002:00001420       ?messageMap@CDockBar@@1UAFX_MSGMAP@@B 5f89a420  
 0002:00001428       ?_messageEntries@CDockBar@@0QBUAFX_MSGMAP_ENTRY@@B 5f89a428  
 0002:000014bc       ??_7CStatusCmdUI@@6B@      5f89a4bc  
 0002:000014d0       ??_R1A@?0A@A@CStatusCmdUI@@8 5f89a4d0  
 0002:000014e8       ??_R2CStatusCmdUI@@8       5f89a4e8  
 0002:000014f8       ??_R3CStatusCmdUI@@8       5f89a4f8  
 0002:00001508       ??_R4CStatusCmdUI@@6B@     5f89a508  
 0002:00001520       ??_7CToolCmdUI@@6B@        5f89a520  
 0002:00001530       ??_R1A@?0A@A@CToolCmdUI@@8 5f89a530  
 0002:00001548       ??_R2CToolCmdUI@@8         5f89a548  
 0002:00001558       ??_R3CToolCmdUI@@8         5f89a558  
 0002:00001568       ??_R4CToolCmdUI@@6B@       5f89a568  
 0002:00001580       ?classCSplitterWnd@CSplitterWnd@@2UCRuntimeClass@@B 5f89a580  
 0002:00001598       ??_C@_0N@JGP@CSplitterWnd?$AA@ 5f89a598  
 0002:000015a8       ?classCWnd@CWnd@@2UCRuntimeClass@@B 5f89a5a8  
 0002:000015c0       ??_C@_04MBPC@CWnd?$AA@     5f89a5c0  
 0002:000015c8       ?classCObject@CObject@@2UCRuntimeClass@@B 5f89a5c8  
 0002:000015e0       ??_C@_07EFMO@CObject?$AA@  5f89a5e0  
 0002:000015ec       ??_7CTempWnd@@6B@          5f89a5ec  
 0002:000016b0       ??_R1A@?0A@A@CTempWnd@@8   5f89a6b0  
 0002:000016c8       ??_R2CTempWnd@@8           5f89a6c8  
 0002:000016e0       ??_R3CTempWnd@@8           5f89a6e0  
 0002:000016f0       ??_R4CTempWnd@@6B@         5f89a6f0  
 0002:00001708       ??_R1A@?0A@A@CMenu@@8      5f89a708  
 0002:00001720       ?classCTempMenu@CTempMenu@@2UCRuntimeClass@@B 5f89a720  
 0002:00001738       ??_C@_09NDEG@CTempMenu?$AA@ 5f89a738  
 0002:00001748       ??_7CTempMenu@@6B@         5f89a748  
 0002:00001768       ??_R1A@?0A@A@CTempMenu@@8  5f89a768  
 0002:00001780       ??_R2CTempMenu@@8          5f89a780  
 0002:00001790       ??_R3CTempMenu@@8          5f89a790  
 0002:000017a0       ??_R4CTempMenu@@6B@        5f89a7a0  
 0002:000017b4       ??_C@_19ENHM@?$AA?$CG?$AA?$CF?$AAd?$AA?5?$AA?$AA@ 5f89a7b4  
 0002:000017c4       ??_7CMenu@@6B@             5f89a7c4  
 0002:000017e0       ??_R2CMenu@@8              5f89a7e0  
 0002:000017f0       ??_R3CMenu@@8              5f89a7f0  
 0002:00001800       ??_R4CMenu@@6B@            5f89a800  
 0002:00001818       ??_7CTestCmdUI@@6B@        5f89a818  
 0002:00001828       ??_R1A@?0A@A@CTestCmdUI@@8 5f89a828  
 0002:00001840       ??_R2CTestCmdUI@@8         5f89a840  
 0002:00001850       ??_R3CTestCmdUI@@8         5f89a850  
 0002:00001860       ??_R4CTestCmdUI@@6B@       5f89a860  
 0002:00001874       ??_C@_1BG@PFLE@?$AAM?$AAA?$AAP?$AAI?$AA3?$AA2?$AA?4?$AAD?$AAL?$AAL?$AA?$AA@ 5f89a874  
 0002:0000188c       ??_C@_19DFMB@?$AAM?$AAA?$AAI?$AAL?$AA?$AA@ 5f89a88c  
 0002:00001898       ??_C@_19IMNH@?$AAM?$AAA?$AAP?$AAI?$AA?$AA@ 5f89a898  
 0002:000018a8       ??_7CDC@@6B@               5f89a8a8  
 0002:00001928       ??_R1A@?0A@A@CDC@@8        5f89a928  
 0002:00001940       ??_R2CDC@@8                5f89a940  
 0002:00001950       ??_R3CDC@@8                5f89a950  
 0002:00001960       ??_R4CDC@@6B@              5f89a960  
 0002:00001978       ?classCTempGdiObject@CTempGdiObject@@2UCRuntimeClass@@B 5f89a978  
 0002:00001990       ??_C@_0P@LOPC@CTempGdiObject?$AA@ 5f89a990  
 0002:000019a0       ?classCTempDC@CTempDC@@2UCRuntimeClass@@B 5f89a9a0  
 0002:000019b8       ??_C@_07LHDN@CTempDC?$AA@  5f89a9b8  
 0002:000019c0       ??_R1A@?0A@A@CGdiObject@@8 5f89a9c0  
 0002:000019dc       ??_7CGdiObject@@6B@        5f89a9dc  
 0002:000019f0       ??_R2CGdiObject@@8         5f89a9f0  
 0002:00001a00       ??_R3CGdiObject@@8         5f89aa00  
 0002:00001a10       ??_R4CGdiObject@@6B@       5f89aa10  
 0002:00001a28       ?classCOleServerItem@COleServerItem@@2UCRuntimeClass@@B 5f89aa28  
 0002:00001a40       ??_C@_0P@ODMG@COleServerItem?$AA@ 5f89aa40  
 0002:00001a50       _IID_IUnknown              5f89aa50  
 0002:00001a60       _IID_IDispatch             5f89aa60  
 0002:00001a70       ?interfaceMap@CCmdTarget@@1UAFX_INTERFACEMAP@@B 5f89aa70  
 0002:00001a78       ?_interfaceEntries@CCmdTarget@@0QBUAFX_INTERFACEMAP_ENTRY@@B 5f89aa78  
 0002:00001a88       ?classCOleClientItem@COleClientItem@@2UCRuntimeClass@@B 5f89aa88  
 0002:00001aa0       ??_C@_0P@JNNP@COleClientItem?$AA@ 5f89aaa0  
 0002:00001ab0       ??_C@_11A@?$AA?$AA@        5f89aab0  
 0002:00001ab8       ?interfaceMap@COleLinkingDoc@@1UAFX_INTERFACEMAP@@B 5f89aab8  
 0002:00001ac0       ?_interfaceEntries@COleLinkingDoc@@0QBUAFX_INTERFACEMAP_ENTRY@@B 5f89aac0  
 0002:00001af0       _IID_IPersistFile          5f89aaf0  
 0002:00001b00       _IID_IOleItemContainer     5f89ab00  
 0002:00001b10       _IID_IOleContainer         5f89ab10  
 0002:00001b20       _IID_IParseDisplayName     5f89ab20  
 0002:00001b30       _IID_IPersist              5f89ab30  
 0002:00001b40       ??_R1A@?0A@A@CMapPtrToPtr@@8 5f89ab40  
 0002:00001b5c       ??_7CMapPtrToPtr@@6B@      5f89ab5c  
 0002:00001b70       ??_R2CMapPtrToPtr@@8       5f89ab70  
 0002:00001b80       ??_R3CMapPtrToPtr@@8       5f89ab80  
 0002:00001b90       ??_R4CMapPtrToPtr@@6B@     5f89ab90  
 0002:00001ba8       ??_7CPtrList@@6B@          5f89aba8  
 0002:00001bc0       ??_R1A@?0A@A@CPtrList@@8   5f89abc0  
 0002:00001bd8       ??_R2CPtrList@@8           5f89abd8  
 0002:00001be8       ??_R3CPtrList@@8           5f89abe8  
 0002:00001bf8       ??_R4CPtrList@@6B@         5f89abf8  
 0002:00001c10       __sz_ole32                 5f89ac10  
 0002:00001c20       __DELAY_IMPORT_DESCRIPTOR_OLEPRO32 5f89ac20  
 0002:00001c40       __DELAY_IMPORT_DESCRIPTOR_ADVAPI32 5f89ac40  
 0002:00001c60       __DELAY_IMPORT_DESCRIPTOR_ole32 5f89ac60  
 0002:00001c80       __DELAY_IMPORT_DESCRIPTOR_OLEAUT32 5f89ac80  
 0002:00001ca0       __DELAY_IMPORT_DESCRIPTOR_COMCTL32 5f89aca0  
 0002:00001cc0       __DELAY_IMPORT_DESCRIPTOR_SHELL32 5f89acc0  
 0002:00001ce0       __DELAY_IMPORT_DESCRIPTOR_comdlg32 5f89ace0  
 0002:00001d00       __DELAY_IMPORT_DESCRIPTOR_WINSPOOL 5f89ad00  
 0002:00001d20       __DELAY_IMPORT_DESCRIPTOR_WININET 5f89ad20  
 0002:00001d40       __DELAY_IMPORT_DESCRIPTOR_WSOCK32 5f89ad40  
 0002:00001d60       __DELAY_IMPORT_DESCRIPTOR_oledlg 5f89ad60  
 0002:00001d80       __DELAY_IMPORT_DESCRIPTOR_urlmon 5f89ad80  
 0002:00001da0       __DELAY_IMPORT_DESCRIPTOR_ODBC32 5f89ada0  
 0002:00002298       ??_C@_17LFFB@?$AA?5?$AA?9?$AA?5?$AA?$AA@ 5f89b298  
 0002:000022a0       ??_C@_0L@DPAJ@MSVCRT?4DLL?$AA@ 5f89b2a0  
 0002:000022b0       ??_7_AFX_THREAD_STATE@@6B@ 5f89b2b0  
 0002:000022b8       ??_R1A@?0A@A@CNoTrackObject@@8 5f89b2b8  
 0002:000022d0       ??_R1A@?0A@A@_AFX_THREAD_STATE@@8 5f89b2d0  
 0002:000022e8       ??_R2_AFX_THREAD_STATE@@8  5f89b2e8  
 0002:000022f8       ??_R3_AFX_THREAD_STATE@@8  5f89b2f8  
 0002:00002308       ??_R4_AFX_THREAD_STATE@@6B@ 5f89b308  
 0002:00002320       ??_7CThreadData@@6B@       5f89b320  
 0002:00002328       ??_R1A@?0A@A@CThreadData@@8 5f89b328  
 0002:00002340       ??_R2CThreadData@@8        5f89b340  
 0002:00002350       ??_R3CThreadData@@8        5f89b350  
 0002:00002360       ??_R4CThreadData@@6B@      5f89b360  
 0002:00002378       ??_R1A@?0A@A@CException@@8 5f89b378  
 0002:00002390       ??_R1A@?0A@A@CWinThread@@8 5f89b390  
 0002:000023ac       ??_7CWinThread@@6B@        5f89b3ac  
 0002:00002430       ??_R2CWinThread@@8         5f89b430  
 0002:00002440       ??_R3CWinThread@@8         5f89b440  
 0002:00002450       ??_R4CWinThread@@6B@       5f89b450  
 0002:00002468       ??_7AFX_MODULE_THREAD_STATE@@6B@ 5f89b468  
 0002:00002470       ??_R1A@?0A@A@AFX_MODULE_THREAD_STATE@@8 5f89b470  
 0002:00002488       ??_R2AFX_MODULE_THREAD_STATE@@8 5f89b488  
 0002:00002498       ??_R3AFX_MODULE_THREAD_STATE@@8 5f89b498  
 0002:000024a8       ??_R4AFX_MODULE_THREAD_STATE@@6B@ 5f89b4a8  
 0002:000024d4       ??_7_AFX_CTL3D_THREAD@@6B@ 5f89b4d4  
 0002:000024d8       ??_R1A@?0A@A@_AFX_CTL3D_THREAD@@8 5f89b4d8  
 0002:000024f0       ??_R2_AFX_CTL3D_THREAD@@8  5f89b4f0  
 0002:00002500       ??_R3_AFX_CTL3D_THREAD@@8  5f89b500  
 0002:00002510       ??_R4_AFX_CTL3D_THREAD@@6B@ 5f89b510  
 0002:00002528       ??_7CCommandLineInfo@@6B@  5f89b528  
 0002:00002548       ??_R1A@?0A@A@CCommandLineInfo@@8 5f89b548  
 0002:00002560       ??_R2CCommandLineInfo@@8   5f89b560  
 0002:00002570       ??_R3CCommandLineInfo@@8   5f89b570  
 0002:00002580       ??_R4CCommandLineInfo@@6B@ 5f89b580  
 0002:00002598       __sz_ADVAPI32              5f89b598  
 0002:000025c0       ?interfaceMap@COleServerDoc@@1UAFX_INTERFACEMAP@@B 5f89b5c0  
 0002:000025c8       ?_interfaceEntries@COleServerDoc@@0QBUAFX_INTERFACEMAP_ENTRY@@B 5f89b5c8  
 0002:00002600       _IID_IOleWindow            5f89b600  
 0002:00002610       _IID_IOleObject            5f89b610  
 0002:00002620       _IID_IPersistStorage       5f89b620  
 0002:00002630       _IID_IDataObject           5f89b630  
 0002:00002640       _IID_IOleInPlaceObject     5f89b640  
 0002:00002650       _IID_IOleInPlaceActiveObject 5f89b650  
 0002:00002660       ??_R1A@?0A@A@CFile@@8      5f89b660  
 0002:0000267c       ??_7CFile@@6B@             5f89b67c  
 0002:000026d8       ??_R2CFile@@8              5f89b6d8  
 0002:000026e8       ??_R3CFile@@8              5f89b6e8  
 0002:000026f8       ??_R4CFile@@6B@            5f89b6f8  
 0002:00002710       ?classCRichEditView@CRichEditView@@2UCRuntimeClass@@B 5f89b710  
 0002:00002728       ??_C@_0O@OMMG@CRichEditView?$AA@ 5f89b728  
 0002:0000273c       ??_7_AFX_WIN_STATE@@6B@    5f89b73c  
 0002:00002740       ??_R1A@?0A@A@_AFX_WIN_STATE@@8 5f89b740  
 0002:00002758       ??_R2_AFX_WIN_STATE@@8     5f89b758  
 0002:00002768       ??_R3_AFX_WIN_STATE@@8     5f89b768  
 0002:00002778       ??_R4_AFX_WIN_STATE@@6B@   5f89b778  
 0002:00002790       ??_7CSessionMapPtrToPtr@@6B@ 5f89b790  
 0002:000027a8       ??_7CCriticalSection@@6B@  5f89b7a8  
 0002:000027c8       ??_R1A@?0A@A@CSyncObject@@8 5f89b7c8  
 0002:000027e0       ??_R1A@?0A@A@CSessionMapPtrToPtr@@8 5f89b7e0  
 0002:000027f8       ??_R2CSessionMapPtrToPtr@@8 5f89b7f8  
 0002:00002808       ??_R3CSessionMapPtrToPtr@@8 5f89b808  
 0002:00002818       ??_R4CSessionMapPtrToPtr@@6B@ 5f89b818  
 0002:00002830       ??_R1A@?0A@A@CCriticalSection@@8 5f89b830  
 0002:00002848       ??_R2CCriticalSection@@8   5f89b848  
 0002:00002858       ??_R3CCriticalSection@@8   5f89b858  
 0002:00002868       ??_R4CCriticalSection@@6B@ 5f89b868  
 0002:00002880       ??_7CSyncObject@@6B@       5f89b880  
 0002:000028a0       ??_R2CSyncObject@@8        5f89b8a0  
 0002:000028b0       ??_R3CSyncObject@@8        5f89b8b0  
 0002:000028c0       ??_R4CSyncObject@@6B@      5f89b8c0  
 0002:000028d8       ??_7AFX_MODULE_STATE@@6B@  5f89b8d8  
 0002:000028e0       ??_R1A@?0A@A@AFX_MODULE_STATE@@8 5f89b8e0  
 0002:000028f8       ??_R2AFX_MODULE_STATE@@8   5f89b8f8  
 0002:00002908       ??_R3AFX_MODULE_STATE@@8   5f89b908  
 0002:00002918       ??_R4AFX_MODULE_STATE@@6B@ 5f89b918  
 0002:00002930       ??_7CMemoryException@@6B@  5f89b930  
 0002:00002950       ??_R1A@?0A@A@CSimpleException@@8 5f89b950  
 0002:00002968       ??_R1A@?0A@A@CMemoryException@@8 5f89b968  
 0002:00002980       ??_R2CMemoryException@@8   5f89b980  
 0002:00002998       ??_R3CMemoryException@@8   5f89b998  
 0002:000029a8       ??_R4CMemoryException@@6B@ 5f89b9a8  
 0002:000029c0       ??_7CNotSupportedException@@6B@ 5f89b9c0  
 0002:000029e0       ??_R1A@?0A@A@CNotSupportedException@@8 5f89b9e0  
 0002:000029f8       ??_R2CNotSupportedException@@8 5f89b9f8  
 0002:00002a10       ??_R3CNotSupportedException@@8 5f89ba10  
 0002:00002a20       ??_R4CNotSupportedException@@6B@ 5f89ba20  
 0002:00002a38       ??_7CResourceException@@6B@ 5f89ba38  
 0002:00002a58       ??_R1A@?0A@A@CResourceException@@8 5f89ba58  
 0002:00002a70       ??_R2CResourceException@@8 5f89ba70  
 0002:00002a88       ??_R3CResourceException@@8 5f89ba88  
 0002:00002a98       ??_R4CResourceException@@6B@ 5f89ba98  
 0002:00002ab0       ??_7CUserException@@6B@    5f89bab0  
 0002:00002ad0       ??_R1A@?0A@A@CUserException@@8 5f89bad0  
 0002:00002ae8       ??_R2CUserException@@8     5f89bae8  
 0002:00002b00       ??_R3CUserException@@8     5f89bb00  
 0002:00002b10       ??_R4CUserException@@6B@   5f89bb10  
 0002:00002b28       ??_R1A@?0A@A@COleObjectFactory@@8 5f89bb28  
 0002:00002b44       ??_7COleObjectFactory@@6B@ 5f89bb44  
 0002:00002bb8       ??_R2COleObjectFactory@@8  5f89bbb8  
 0002:00002bc8       ??_R3COleObjectFactory@@8  5f89bbc8  
 0002:00002bd8       ??_R4COleObjectFactory@@6B@ 5f89bbd8  
 0002:00002bf0       ??_7CWinApp@@6B@           5f89bbf0  
 0002:00002c98       ??_R1A@?0A@A@CWinApp@@8    5f89bc98  
 0002:00002cb0       ??_R2CWinApp@@8            5f89bcb0  
 0002:00002cc8       ??_R3CWinApp@@8            5f89bcc8  
 0002:00002cd8       ??_R4CWinApp@@6B@          5f89bcd8  
 0002:00002cf0       ??_7CDynLinkLibrary@@6B@   5f89bcf0  
 0002:00002d48       ??_R1A@?0A@A@CDynLinkLibrary@@8 5f89bd48  
 0002:00002d60       ??_R2CDynLinkLibrary@@8    5f89bd60  
 0002:00002d70       ??_R3CDynLinkLibrary@@8    5f89bd70  
 0002:00002d80       ??_R4CDynLinkLibrary@@6B@  5f89bd80  
 0002:00002d98       ??_7_AFX_CTL3D_STATE@@6B@  5f89bd98  
 0002:00002da0       ??_R1A@?0A@A@_AFX_CTL3D_STATE@@8 5f89bda0  
 0002:00002db8       ??_R2_AFX_CTL3D_STATE@@8   5f89bdb8  
 0002:00002dc8       ??_R3_AFX_CTL3D_STATE@@8   5f89bdc8  
 0002:00002dd8       ??_R4_AFX_CTL3D_STATE@@6B@ 5f89bdd8  
 0002:00002df0       ??_7COleMessageFilter@@6B@ 5f89bdf0  
 0002:00002e60       ??_R1A@?0A@A@COleMessageFilter@@8 5f89be60  
 0002:00002e78       ??_R2COleMessageFilter@@8  5f89be78  
 0002:00002e88       ??_R3COleMessageFilter@@8  5f89be88  
 0002:00002e98       ??_R4COleMessageFilter@@6B@ 5f89be98  
 0002:00002eb0       ??_7_AFX_OLE_STATE@@6B@    5f89beb0  
 0002:00002eb8       ??_R1A@?0A@A@_AFX_OLE_STATE@@8 5f89beb8  
 0002:00002ed0       ??_R2_AFX_OLE_STATE@@8     5f89bed0  
 0002:00002ee0       ??_R3_AFX_OLE_STATE@@8     5f89bee0  
 0002:00002ef0       ??_R4_AFX_OLE_STATE@@6B@   5f89bef0  
 0002:00002f18       ??_R1A@?0A@A@CFrameWnd@@8  5f89bf18  
 0002:00002f34       ??_7CFrameWnd@@6B@         5f89bf34  
 0002:00003030       ??_R2CFrameWnd@@8          5f89c030  
 0002:00003048       ??_R3CFrameWnd@@8          5f89c048  
 0002:00003058       ??_R4CFrameWnd@@6B@        5f89c058  
 0002:00003070       ??_R1A@?0A@A@CDocument@@8  5f89c070  
 0002:00003088       ??_R1A@?0A@A@COleDocument@@8 5f89c088  
 0002:000030a0       ??_R1A@?0A@A@COleLinkingDoc@@8 5f89c0a0  
 0002:000030bc       ??_7COleLinkingDoc@@6B@    5f89c0bc  
 0002:000031b0       ??_R2COleLinkingDoc@@8     5f89c1b0  
 0002:000031c8       ??_R3COleLinkingDoc@@8     5f89c1c8  
 0002:000031d8       ??_R4COleLinkingDoc@@6B@   5f89c1d8  
 0002:000031f0       ??_7COleDocument@@6B@      5f89c1f0  
 0002:000032d8       ??_R2COleDocument@@8       5f89c2d8  
 0002:000032f0       ??_R3COleDocument@@8       5f89c2f0  
 0002:00003300       ??_R4COleDocument@@6B@     5f89c300  
 0002:00003318       ??_7CDocument@@6B@         5f89c318  
 0002:000033d0       ??_R2CDocument@@8          5f89c3d0  
 0002:000033e0       ??_R3CDocument@@8          5f89c3e0  
 0002:000033f0       ??_R4CDocument@@6B@        5f89c3f0  
 0002:00003408       ??_7CObList@@6B@           5f89c408  
 0002:00003420       ??_R1A@?0A@A@CObList@@8    5f89c420  
 0002:00003438       ??_R2CObList@@8            5f89c438  
 0002:00003448       ??_R3CObList@@8            5f89c448  
 0002:00003458       ??_R4CObList@@6B@          5f89c458  
 0002:00003470       ??_R1A@?0A@A@CView@@8      5f89c470  
 0002:0000348c       ??_7CView@@6B@             5f89c48c  
 0002:000035a0       ??_R2CView@@8              5f89c5a0  
 0002:000035b8       ??_R3CView@@8              5f89c5b8  
 0002:000035c8       ??_R4CView@@6B@            5f89c5c8  
 0002:000035e0       ??_R1A@?0A@A@COleServerDoc@@8 5f89c5e0  
 0002:000035fc       ??_7COleServerDoc@@6B@     5f89c5fc  
 0002:00003748       ??_R2COleServerDoc@@8      5f89c748  
 0002:00003768       ??_R3COleServerDoc@@8      5f89c768  
 0002:00003778       ??_R4COleServerDoc@@6B@    5f89c778  
 0002:00003790       ??_7CPtrArray@@6B@         5f89c790  
 0002:000037a8       ??_R1A@?0A@A@CPtrArray@@8  5f89c7a8  
 0002:000037c0       ??_R2CPtrArray@@8          5f89c7c0  
 0002:000037d0       ??_R3CPtrArray@@8          5f89c7d0  
 0002:000037e0       ??_R4CPtrArray@@6B@        5f89c7e0  
 0002:000037f8       ??_R1A@?0A@A@CDocTemplate@@8 5f89c7f8  
 0002:00003814       ??_7CDocTemplate@@6B@      5f89c814  
 0002:000038ac       ??_7CRecentFileList@@6B@   5f89c8ac  
 0002:000038c8       ??_R2CDocTemplate@@8       5f89c8c8  
 0002:000038d8       ??_R3CDocTemplate@@8       5f89c8d8  
 0002:000038e8       ??_R4CDocTemplate@@6B@     5f89c8e8  
 0002:00003900       ??_R1A@?0A@A@CRecentFileList@@8 5f89c900  
 0002:00003918       ??_R2CRecentFileList@@8    5f89c918  
 0002:00003920       ??_R3CRecentFileList@@8    5f89c920  
 0002:00003930       ??_R4CRecentFileList@@6B@  5f89c930  
 0002:00003948       ??_7CDocManager@@6B@       5f89c948  
 0002:00003990       ??_R1A@?0A@A@CDocManager@@8 5f89c990  
 0002:000039a8       ??_R2CDocManager@@8        5f89c9a8  
 0002:000039b8       ??_R3CDocManager@@8        5f89c9b8  
 0002:000039c8       ??_R4CDocManager@@6B@      5f89c9c8  
 0002:000039e0       ??_7CStatusBar@@6B@        5f89c9e0  
 0002:00003ad0       ??_R1A@?0A@A@CControlBar@@8 5f89cad0  
 0002:00003ae8       ??_R1A@?0A@A@CStatusBar@@8 5f89cae8  
 0002:00003b00       ??_R2CStatusBar@@8         5f89cb00  
 0002:00003b18       ??_R3CStatusBar@@8         5f89cb18  
 0002:00003b28       ??_R4CStatusBar@@6B@       5f89cb28  
 0002:00003b40       ??_7CControlBar@@6B@       5f89cb40  
 0002:00003c28       ??_R2CControlBar@@8        5f89cc28  
 0002:00003c40       ??_R3CControlBar@@8        5f89cc40  
 0002:00003c50       ??_R4CControlBar@@6B@      5f89cc50  
 0002:00003c68       ??_7CToolBar@@6B@          5f89cc68  
 0002:00003d58       ??_R1A@?0A@A@CToolBar@@8   5f89cd58  
 0002:00003d70       ??_R2CToolBar@@8           5f89cd70  
 0002:00003d88       ??_R3CToolBar@@8           5f89cd88  
 0002:00003d98       ??_R4CToolBar@@6B@         5f89cd98  
 0002:00003db0       ??_7CDockBar@@6B@          5f89cdb0  
 0002:00003ea0       ??_R1A@?0A@A@CDockBar@@8   5f89cea0  
 0002:00003eb8       ??_R2CDockBar@@8           5f89ceb8  
 0002:00003ed0       ??_R3CDockBar@@8           5f89ced0  
 0002:00003ee0       ??_R4CDockBar@@6B@         5f89cee0  
 0002:00003ef8       ??_7CDockContext@@6B@      5f89cef8  
 0002:00003f08       ??_R1A@?0A@A@CDockContext@@8 5f89cf08  
 0002:00003f20       ??_R2CDockContext@@8       5f89cf20  
 0002:00003f28       ??_R3CDockContext@@8       5f89cf28  
 0002:00003f38       ??_R4CDockContext@@6B@     5f89cf38  
 0002:00003f50       ??_7CDockState@@6B@        5f89cf50  
 0002:00003f68       ??_R1A@?0A@A@CDockState@@8 5f89cf68  
 0002:00003f80       ??_R2CDockState@@8         5f89cf80  
 0002:00003f90       ??_R3CDockState@@8         5f89cf90  
 0002:00003fa0       ??_R4CDockState@@6B@       5f89cfa0  
 0002:00003fb8       ??_7CSingleDocTemplate@@6B@ 5f89cfb8  
 0002:00004050       ??_R1A@?0A@A@CSingleDocTemplate@@8 5f89d050  
 0002:00004068       ??_R2CSingleDocTemplate@@8 5f89d068  
 0002:00004080       ??_R3CSingleDocTemplate@@8 5f89d080  
 0002:00004090       ??_R4CSingleDocTemplate@@6B@ 5f89d090  
 0002:000040a4       ??_C@_1BC@GMME@?$AAs?$AAo?$AAf?$AAt?$AAw?$AAa?$AAr?$AAe?$AA?$AA@ 5f89d0a4  
 0002:000040bc       ??_7CMemFile@@6B@          5f89d0bc  
 0002:00004130       ??_R1A@?0A@A@CMemFile@@8   5f89d130  
 0002:00004148       ??_R2CMemFile@@8           5f89d148  
 0002:00004158       ??_R3CMemFile@@8           5f89d158  
 0002:00004168       ??_R4CMemFile@@6B@         5f89d168  
 0002:00004180       ??_7CDWordArray@@6B@       5f89d180  
 0002:00004198       ??_R1A@?0A@A@CDWordArray@@8 5f89d198  
 0002:000041b0       ??_R2CDWordArray@@8        5f89d1b0  
 0002:000041c0       ??_R3CDWordArray@@8        5f89d1c0  
 0002:000041d0       ??_R4CDWordArray@@6B@      5f89d1d0  
 0002:000041e8       ??_7_AFX_RICHEDIT_STATE@@6B@ 5f89d1e8  
 0002:000041f0       ??_R1A@?0A@A@_AFX_EDIT_STATE@@8 5f89d1f0  
 0002:00004208       ??_R1A@?0A@A@_AFX_RICHEDIT_STATE@@8 5f89d208  
 0002:00004220       ??_R2_AFX_RICHEDIT_STATE@@8 5f89d220  
 0002:00004230       ??_R3_AFX_RICHEDIT_STATE@@8 5f89d230  
 0002:00004240       ??_R4_AFX_RICHEDIT_STATE@@6B@ 5f89d240  
 0002:00004258       ??_7_AFX_EDIT_STATE@@6B@   5f89d258  
 0002:00004260       ??_R2_AFX_EDIT_STATE@@8    5f89d260  
 0002:00004270       ??_R3_AFX_EDIT_STATE@@8    5f89d270  
 0002:00004280       ??_R4_AFX_EDIT_STATE@@6B@  5f89d280  
 0002:00004298       ??_7CComboBox@@6B@         5f89d298  
 0002:00004368       ??_R1A@?0A@A@CComboBox@@8  5f89d368  
 0002:00004380       ??_R2CComboBox@@8          5f89d380  
 0002:00004398       ??_R3CComboBox@@8          5f89d398  
 0002:000043a8       ??_R4CComboBox@@6B@        5f89d3a8  
 0002:000043bc       ??_C@_1CG@HFFM@?$AAA?$AAf?$AAx?$AA?3?$AA?$CF?$AAx?$AA?3?$AA?$CF?$AAx?$AA?3?$AA?$CF?$AAx?$AA?3?$AA?$CF?$AAx?$AA?3?$AA?$CF?$AAx?$AA?$AA@ 5f89d3bc  
 0002:000043e8       ??_7CClientDC@@6B@         5f89d3e8  
 0002:00004468       ??_R1A@?0A@A@CClientDC@@8  5f89d468  
 0002:00004480       ??_R2CClientDC@@8          5f89d480  
 0002:00004490       ??_R3CClientDC@@8          5f89d490  
 0002:000044a0       ??_R4CClientDC@@6B@        5f89d4a0  
 0002:000044b8       ??_R1A@?0A@A@IPersist@@8   5f89d4b8  
 0002:000044d4       ??_7XOleItemContainer@COleLinkingDoc@@6B@ 5f89d4d4  
 0002:000044fc       ??_7XPersistFile@COleLinkingDoc@@6B@ 5f89d4fc  
 0002:00004520       ??_R1A@?0A@A@IParseDisplayName@@8 5f89d520  
 0002:00004538       ??_R1A@?0A@A@IOleContainer@@8 5f89d538  
 0002:00004550       ??_R1A@?0A@A@IOleItemContainer@@8 5f89d550  
 0002:00004568       ??_R1A@?0A@A@XOleItemContainer@COleLinkingDoc@@8 5f89d568  
 0002:00004580       ??_R2XOleItemContainer@COleLinkingDoc@@8 5f89d580  
 0002:00004598       ??_R3XOleItemContainer@COleLinkingDoc@@8 5f89d598  
 0002:000045a8       ??_R4XOleItemContainer@COleLinkingDoc@@6B@ 5f89d5a8  
 0002:000045c0       ??_R1A@?0A@A@IPersistFile@@8 5f89d5c0  
 0002:000045d8       ??_R1A@?0A@A@XPersistFile@COleLinkingDoc@@8 5f89d5d8  
 0002:000045f0       ??_R2XPersistFile@COleLinkingDoc@@8 5f89d5f0  
 0002:00004608       ??_R3XPersistFile@COleLinkingDoc@@8 5f89d608  
 0002:00004618       ??_R4XPersistFile@COleLinkingDoc@@6B@ 5f89d618  
 0002:00004630       ??_7CWindowDC@@6B@         5f89d630  
 0002:000046b0       ??_R1A@?0A@A@CWindowDC@@8  5f89d6b0  
 0002:000046c8       ??_R2CWindowDC@@8          5f89d6c8  
 0002:000046d8       ??_R3CWindowDC@@8          5f89d6d8  
 0002:000046e8       ??_R4CWindowDC@@6B@        5f89d6e8  
 0002:00004700       ??_7XOleInPlaceActiveObject@COleServerDoc@@6B@ 5f89d700  
 0002:0000472c       ??_7XOleInPlaceObject@COleServerDoc@@6B@ 5f89d72c  
 0002:00004754       ??_7XDataObject@COleServerDoc@@6B@ 5f89d754  
 0002:00004788       ??_7XOleObject@COleServerDoc@@6B@ 5f89d788  
 0002:000047ec       ??_7XPersistStorage@COleServerDoc@@6B@ 5f89d7ec  
 0002:00004818       ??_R1A@?0A@A@IOleWindow@@8 5f89d818  
 0002:00004830       ??_R1A@?0A@A@IDataObject@@8 5f89d830  
 0002:00004848       ??_R1A@?0A@A@IPersistStorage@@8 5f89d848  
 0002:00004860       ??_R1A@?0A@A@XPersistStorage@COleServerDoc@@8 5f89d860  
 0002:00004878       ??_R2XPersistStorage@COleServerDoc@@8 5f89d878  
 0002:00004890       ??_R3XPersistStorage@COleServerDoc@@8 5f89d890  
 0002:000048a0       ??_R4XPersistStorage@COleServerDoc@@6B@ 5f89d8a0  
 0002:000048b8       ??_R1A@?0A@A@IOleInPlaceActiveObject@@8 5f89d8b8  
 0002:000048d0       ??_R1A@?0A@A@XOleInPlaceActiveObject@COleServerDoc@@8 5f89d8d0  
 0002:000048e8       ??_R2XOleInPlaceActiveObject@COleServerDoc@@8 5f89d8e8  
 0002:00004900       ??_R3XOleInPlaceActiveObject@COleServerDoc@@8 5f89d900  
 0002:00004910       ??_R4XOleInPlaceActiveObject@COleServerDoc@@6B@ 5f89d910  
 0002:00004928       ??_R1A@?0A@A@IOleInPlaceObject@@8 5f89d928  
 0002:00004940       ??_R1A@?0A@A@XOleInPlaceObject@COleServerDoc@@8 5f89d940  
 0002:00004958       ??_R2XOleInPlaceObject@COleServerDoc@@8 5f89d958  
 0002:00004970       ??_R3XOleInPlaceObject@COleServerDoc@@8 5f89d970  
 0002:00004980       ??_R4XOleInPlaceObject@COleServerDoc@@6B@ 5f89d980  
 0002:00004998       ??_R1A@?0A@A@XDataObject@COleServerDoc@@8 5f89d998  
 0002:000049b0       ??_R2XDataObject@COleServerDoc@@8 5f89d9b0  
 0002:000049c0       ??_R3XDataObject@COleServerDoc@@8 5f89d9c0  
 0002:000049d0       ??_R4XDataObject@COleServerDoc@@6B@ 5f89d9d0  
 0002:000049e8       ??_R1A@?0A@A@IOleObject@@8 5f89d9e8  
 0002:00004a00       ??_R1A@?0A@A@XOleObject@COleServerDoc@@8 5f89da00  
 0002:00004a18       ??_R2XOleObject@COleServerDoc@@8 5f89da18  
 0002:00004a28       ??_R3XOleObject@COleServerDoc@@8 5f89da28  
 0002:00004a38       ??_R4XOleObject@COleServerDoc@@6B@ 5f89da38  
 0002:00004a4c       ??_C@_0L@LFP@CByteArray?$AA@ 5f89da4c  
 0002:00004a58       ??_C@_0M@JHEJ@CDWordArray?$AA@ 5f89da58  
 0002:00004a64       ??_C@_08PPJP@CObArray?$AA@ 5f89da64  
 0002:00004a70       ??_C@_0N@FMIP@CStringArray?$AA@ 5f89da70  
 0002:00004a80       ??_C@_0L@KEGG@CWordArray?$AA@ 5f89da80  
 0002:00004a8c       ??_C@_07ICCG@CObList?$AA@  5f89da8c  
 0002:00004a94       ??_C@_0M@JCPP@CStringList?$AA@ 5f89da94  
 0002:00004aa0       ??_C@_0P@FLNF@CMapStringToOb?$AA@ 5f89daa0  
 0002:00004ab0       ??_C@_0BD@HCIA@CMapStringToString?$AA@ 5f89dab0  
 0002:00004ac4       ??_C@_0N@DJOC@CMapWordToOb?$AA@ 5f89dac4  
 0002:00004ad4       ??_C@_1CK@HBPJ@?$AAc?$AAo?$AAm?$AAm?$AAc?$AAt?$AAr?$AAl?$AA_?$AAD?$AAr?$AAa?$AAg?$AAL?$AAi?$AAs?$AAt?$AAM?$AAs?$AAg@ 5f89dad4  
 0002:00004b00       ??_C@_0L@HPAN@CDockState?$AA@ 5f89db00  
 0002:00004b0c       ??_C@_1CI@PGNH@?$AAc?$AAo?$AAm?$AAm?$AAd?$AAl?$AAg?$AA_?$AAF?$AAi?$AAn?$AAd?$AAR?$AAe?$AAp?$AAl?$AAa?$AAc?$AAe?$AA?$AA@ 5f89db0c  
 0002:00004b34       ??_C@_1DE@GHMD@?$AAR?$AAi?$AAc?$AAh?$AAE?$AAd?$AAi?$AAt?$AA?5?$AAT?$AAe?$AAx?$AAt?$AA?5?$AAa?$AAn?$AAd?$AA?5?$AAO?$AAb@ 5f89db34  
 0002:00004b68       ??_C@_1CC@FCIJ@?$AAR?$AAi?$AAc?$AAh?$AA?5?$AAT?$AAe?$AAx?$AAt?$AA?5?$AAF?$AAo?$AAr?$AAm?$AAa?$AAt?$AA?$AA@ 5f89db68  
 0002:00004b8c       ??_C@_1BE@OIFD@?$AAF?$AAi?$AAl?$AAe?$AAN?$AAa?$AAm?$AAe?$AAW?$AA?$AA@ 5f89db8c  
 0002:00004ba0       ??_C@_1BC@LEEL@?$AAF?$AAi?$AAl?$AAe?$AAN?$AAa?$AAm?$AAe?$AA?$AA@ 5f89dba0  
 0002:00004bb4       ??_C@_1CO@MJBN@?$AAL?$AAi?$AAn?$AAk?$AA?5?$AAS?$AAo?$AAu?$AAr?$AAc?$AAe?$AA?5?$AAD?$AAe?$AAs?$AAc?$AAr?$AAi?$AAp?$AAt@ 5f89dbb4  
 0002:00004be4       ??_C@_1CE@PGMB@?$AAO?$AAb?$AAj?$AAe?$AAc?$AAt?$AA?5?$AAD?$AAe?$AAs?$AAc?$AAr?$AAi?$AAp?$AAt?$AAo?$AAr?$AA?$AA@ 5f89dbe4  
 0002:00004c08       ??_C@_1BI@PBNI@?$AAL?$AAi?$AAn?$AAk?$AA?5?$AAS?$AAo?$AAu?$AAr?$AAc?$AAe?$AA?$AA@ 5f89dc08  
 0002:00004c20       ??_C@_1BK@EEJA@?$AAE?$AAm?$AAb?$AAe?$AAd?$AA?5?$AAS?$AAo?$AAu?$AAr?$AAc?$AAe?$AA?$AA@ 5f89dc20  
 0002:00004c3c       ??_C@_1CA@NPFJ@?$AAE?$AAm?$AAb?$AAe?$AAd?$AAd?$AAe?$AAd?$AA?5?$AAO?$AAb?$AAj?$AAe?$AAc?$AAt?$AA?$AA@ 5f89dc3c  
 0002:00004c5c       ??_C@_1BG@JFDH@?$AAO?$AAb?$AAj?$AAe?$AAc?$AAt?$AAL?$AAi?$AAn?$AAk?$AA?$AA@ 5f89dc5c  
 0002:00004c74       ??_C@_1BE@MPFF@?$AAO?$AAw?$AAn?$AAe?$AAr?$AAL?$AAi?$AAn?$AAk?$AA?$AA@ 5f89dc74  
 0002:00004c88       ??_C@_1O@OGPB@?$AAN?$AAa?$AAt?$AAi?$AAv?$AAe?$AA?$AA@ 5f89dc88  
 0002:00004c98       ??_C@_08NNLJ@CDocItem?$AA@ 5f89dc98  
 0002:00004ca4       ??_C@_0BC@CJOP@CRichEditCntrItem?$AA@ 5f89dca4  
 0002:00004cb8       ?classCColorPropPage@CColorPropPage@@2UCRuntimeClass@@B 5f89dcb8  
 0002:00004cd0       ??_C@_0P@PKCG@CColorPropPage?$AA@ 5f89dcd0  
 0002:00004d08       ?guid@CColorPropPage@@2U_GUID@@B 5f89dd08  
 0002:00004d1c       ??_7CColorPropPageFactory@CColorPropPage@@6B@ 5f89dd1c  
 0002:00004d90       ??_R1A@?0A@A@CColorPropPageFactory@CColorPropPage@@8 5f89dd90  
 0002:00004da8       ??_R2CColorPropPageFactory@CColorPropPage@@8 5f89dda8  
 0002:00004dc0       ??_R3CColorPropPageFactory@CColorPropPage@@8 5f89ddc0  
 0002:00004dd0       ??_R4CColorPropPageFactory@CColorPropPage@@6B@ 5f89ddd0  
 0002:00004de8       ??_7XClassFactory@COleObjectFactory@@6B@ 5f89dde8  
 0002:00004e08       ??_R1A@?0A@A@IClassFactory@@8 5f89de08  
 0002:00004e20       ??_R1A@?0A@A@IClassFactory2@@8 5f89de20  
 0002:00004e38       ??_R1A@?0A@A@XClassFactory@COleObjectFactory@@8 5f89de38  
 0002:00004e50       ??_R2XClassFactory@COleObjectFactory@@8 5f89de50  
 0002:00004e68       ??_R3XClassFactory@COleObjectFactory@@8 5f89de68  
 0002:00004e78       ??_R4XClassFactory@COleObjectFactory@@6B@ 5f89de78  
 0002:00004e90       ?classCFontPropPage@CFontPropPage@@2UCRuntimeClass@@B 5f89de90  
 0002:00004ea8       ??_C@_0O@IMID@CFontPropPage?$AA@ 5f89dea8  
 0002:00004ee0       ?guid@CFontPropPage@@2U_GUID@@B 5f89dee0  
 0002:00004ef4       ??_7CFontPropPageFactory@CFontPropPage@@6B@ 5f89def4  
 0002:00004f68       ??_R1A@?0A@A@CFontPropPageFactory@CFontPropPage@@8 5f89df68  
 0002:00004f80       ??_R2CFontPropPageFactory@CFontPropPage@@8 5f89df80  
 0002:00004f98       ??_R3CFontPropPageFactory@CFontPropPage@@8 5f89df98  
 0002:00004fa8       ??_R4CFontPropPageFactory@CFontPropPage@@6B@ 5f89dfa8  
 0002:00004fc0       ?classCPicturePropPage@CPicturePropPage@@2UCRuntimeClass@@B 5f89dfc0  
 0002:00004fd8       ??_C@_0BB@EHCI@CPicturePropPage?$AA@ 5f89dfd8  
 0002:00005020       ?guid@CPicturePropPage@@2U_GUID@@B 5f89e020  
 0002:00005034       ??_7CPicturePropPageFactory@CPicturePropPage@@6B@ 5f89e034  
 0002:000050a8       ??_R1A@?0A@A@CPicturePropPageFactory@CPicturePropPage@@8 5f89e0a8  
 0002:000050c0       ??_R2CPicturePropPageFactory@CPicturePropPage@@8 5f89e0c0  
 0002:000050d8       ??_R3CPicturePropPageFactory@CPicturePropPage@@8 5f89e0d8  
 0002:000050e8       ??_R4CPicturePropPageFactory@CPicturePropPage@@6B@ 5f89e0e8  
 0002:000050fc       ??_C@_19KGAM@?$AA?4?$AAI?$AAN?$AAI?$AA?$AA@ 5f89e0fc  
 0002:00005108       ??_C@_19CLBK@?$AA?4?$AAH?$AAL?$AAP?$AA?$AA@ 5f89e108  
 0002:00005118       ??_7_AFX_BASE_MODULE_STATE@@6B@ 5f89e118  
 0002:00005120       ??_R1A@?0A@A@_AFX_BASE_MODULE_STATE@@8 5f89e120  
 0002:00005138       ??_R2_AFX_BASE_MODULE_STATE@@8 5f89e138  
 0002:00005148       ??_R3_AFX_BASE_MODULE_STATE@@8 5f89e148  
 0002:00005158       ??_R4_AFX_BASE_MODULE_STATE@@6B@ 5f89e158  
 0002:00005170       ??_7XMessageFilter@COleMessageFilter@@6B@ 5f89e170  
 0002:00005188       ??_R1A@?0A@A@IMessageFilter@@8 5f89e188  
 0002:000051a0       ??_R1A@?0A@A@XMessageFilter@COleMessageFilter@@8 5f89e1a0  
 0002:000051b8       ??_R2XMessageFilter@COleMessageFilter@@8 5f89e1b8  
 0002:000051c8       ??_R3XMessageFilter@COleMessageFilter@@8 5f89e1c8  
 0002:000051d8       ??_R4XMessageFilter@COleMessageFilter@@6B@ 5f89e1d8  
 0002:000051f0       __sz_COMCTL32              5f89e1f0  
 0002:0000521c       ??_7COleTemplateServer@@6B@ 5f89e21c  
 0002:00005290       ??_R1A@?0A@A@COleTemplateServer@@8 5f89e290  
 0002:000052a8       ??_R2COleTemplateServer@@8 5f89e2a8  
 0002:000052c0       ??_R3COleTemplateServer@@8 5f89e2c0  
 0002:000052d0       ??_R4COleTemplateServer@@6B@ 5f89e2d0  
 0002:000052e4       ?_afxPreviewEntry@@3QBGB   5f89e2e4  
 0002:00005300       ?_afxPreviewSection@@3QBGB 5f89e300  
 0002:00005314       ?_afxFileEntry@@3QBGB      5f89e314  
 0002:00005324       ?_afxFileSection@@3QBGB    5f89e324  
 0002:00005354       ??_C@_1CA@IKCD@?$AAT?$AAo?$AAo?$AAl?$AAb?$AAa?$AAr?$AAW?$AAi?$AAn?$AAd?$AAo?$AAw?$AA3?$AA2?$AA?$AA@ 5f89e354  
 0002:00005374       ??_C@_0O@CDEE@DllGetVersion?$AA@ 5f89e374  
 0002:00005384       ??_C@_1BA@NPHH@?$AAM?$AAa?$AAr?$AAl?$AAe?$AAt?$AAt?$AA?$AA@ 5f89e384  
 0002:00005398       ?_afxSysColorMap@@3QBUAFX_COLORMAP@@B 5f89e398  
 0002:000053b8       ??_C@_1CG@LDD@?$AAm?$AAs?$AAc?$AAt?$AAl?$AAs?$AA_?$AAs?$AAt?$AAa?$AAt?$AAu?$AAs?$AAb?$AAa?$AAr?$AA3?$AA2?$AA?$AA@ 5f89e3b8  
 0002:000053e0       ?dwDockBarMap@CFrameWnd@@1QAY01$$CBKA 5f89e3e0  
 0002:00005400       ?classCMiniDockFrameWnd@CMiniDockFrameWnd@@2UCRuntimeClass@@B 5f89e400  
 0002:00005418       ??_C@_0BC@NGKE@CMiniDockFrameWnd?$AA@ 5f89e418  
 0002:00005430       ??_7CRichEditDoc@@6B@      5f89e430  
 0002:00005580       ??_R1A@?0A@A@CRichEditDoc@@8 5f89e580  
 0002:00005598       ??_R2CRichEditDoc@@8       5f89e598  
 0002:000055b8       ??_R3CRichEditDoc@@8       5f89e5b8  
 0002:000055c8       ??_R4CRichEditDoc@@6B@     5f89e5c8  
 0002:000055dc       ??_C@_1BC@IAEH@?$AAR?$AAI?$AAC?$AAH?$AAE?$AAD?$AAI?$AAT?$AA?$AA@ 5f89e5dc  
 0002:000055f4       ??_7CRichEditView@@6B@     5f89e5f4  
 0002:00005734       ??_7XRichEditOleCallback@CRichEditView@@6B@ 5f89e734  
 0002:00005768       ??_R1A@?0A@A@CCtrlView@@8  5f89e768  
 0002:00005780       ??_R1A@?0A@A@CRichEditView@@8 5f89e780  
 0002:00005798       ??_R2CRichEditView@@8      5f89e798  
 0002:000057b8       ??_R3CRichEditView@@8      5f89e7b8  
 0002:000057c8       ??_R4CRichEditView@@6B@    5f89e7c8  
 0002:000057e0       ??_R1A@?0A@A@IRichEditOleCallback@@8 5f89e7e0  
 0002:000057f8       ??_R1A@?0A@A@XRichEditOleCallback@CRichEditView@@8 5f89e7f8  
 0002:00005810       ??_R2XRichEditOleCallback@CRichEditView@@8 5f89e810  
 0002:00005820       ??_R3XRichEditOleCallback@CRichEditView@@8 5f89e820  
 0002:00005830       ??_R4XRichEditOleCallback@CRichEditView@@6B@ 5f89e830  
 0002:00005848       ??_7CCtrlView@@6B@         5f89e848  
 0002:00005958       ??_R2CCtrlView@@8          5f89e958  
 0002:00005970       ??_R3CCtrlView@@8          5f89e970  
 0002:00005980       ??_R4CCtrlView@@6B@        5f89e980  
 0002:00005994       ??_C@_0N@GEKM@RICHED32?4DLL?$AA@ 5f89e994  
 0002:000059a4       ??_C@_1BC@DNEF@?$AAC?$AAO?$AAM?$AAB?$AAO?$AAB?$AAO?$AAX?$AA?$AA@ 5f89e9a4  
 0002:000059b8       ?classCCtrlView@CCtrlView@@2UCRuntimeClass@@B 5f89e9b8  
 0002:000059d0       ??_C@_09OBAN@CCtrlView?$AA@ 5f89e9d0  
 0002:000059e0       ?messageMap@CFrameWnd@@1UAFX_MSGMAP@@B 5f89e9e0  
 0002:000059e8       ?_messageEntries@CFrameWnd@@0QBUAFX_MSGMAP_ENTRY@@B 5f89e9e8  
 0002:00005e54       ??_7CScrollView@@6B@       5f89ee54  
 0002:00005f68       ??_R1A@?0A@A@CScrollView@@8 5f89ef68  
 0002:00005f80       ??_R2CScrollView@@8        5f89ef80  
 0002:00005f98       ??_R3CScrollView@@8        5f89ef98  
 0002:00005fa8       ??_R4CScrollView@@6B@      5f89efa8  
 0002:00005fc0       ??_7COleDropTarget@@6B@    5f89efc0  
 0002:00006038       ??_R1A@?0A@A@COleDropTarget@@8 5f89f038  
 0002:00006050       ??_R2COleDropTarget@@8     5f89f050  
 0002:00006060       ??_R3COleDropTarget@@8     5f89f060  
 0002:00006070       ??_R4COleDropTarget@@6B@   5f89f070  
 0002:00006088       _IID_IDropTarget           5f89f088  
 0002:00006098       ?interfaceMap@COleDropTarget@@1UAFX_INTERFACEMAP@@B 5f89f098  
 0002:000060a0       ?_interfaceEntries@COleDropTarget@@0QBUAFX_INTERFACEMAP_ENTRY@@B 5f89f0a0  
 0002:000060b4       ??_7CMultiDocTemplate@@6B@ 5f89f0b4  
 0002:00006148       ??_R1A@?0A@A@CMultiDocTemplate@@8 5f89f148  
 0002:00006160       ??_R2CMultiDocTemplate@@8  5f89f160  
 0002:00006178       ??_R3CMultiDocTemplate@@8  5f89f178  
 0002:00006188       ??_R4CMultiDocTemplate@@6B@ 5f89f188  
 0002:000061a0       ?messageMap@CSplitterWnd@@1UAFX_MSGMAP@@B 5f89f1a0  
 0002:000061a8       ?_messageEntries@CSplitterWnd@@0QBUAFX_MSGMAP_ENTRY@@B 5f89f1a8  
 0002:00006358       ?messageMap@CMDIChildWnd@@1UAFX_MSGMAP@@B 5f89f358  
 0002:00006360       ?_messageEntries@CMDIChildWnd@@0QBUAFX_MSGMAP_ENTRY@@B 5f89f360  
 0002:00006468       ?classCMDIChildWnd@CMDIChildWnd@@2UCRuntimeClass@@B 5f89f468  
 0002:00006480       ??_C@_0N@NPHP@CMDIChildWnd?$AA@ 5f89f480  
 0002:00006490       ?classCFrameWnd@CFrameWnd@@2UCRuntimeClass@@B 5f89f490  
 0002:000064a8       ??_C@_09HNKJ@CFrameWnd?$AA@ 5f89f4a8  
 0002:000064b2       ?_afxShellNewValue@@3QBGB  5f89f4b2  
 0002:000064b4       ?_afxShellNewValueName@@3QBGB 5f89f4b4  
 0002:000064c8       ?_afxDDEPrintTo@@3QBGB     5f89f4c8  
 0002:00006508       ?_afxDDEPrint@@3QBGB       5f89f508  
 0002:00006524       ?_afxDDEOpen@@3QBGB        5f89f524  
 0002:00006540       ?_afxDDEExec@@3QBGB        5f89f540  
 0002:00006550       ?_afxDDEArg@@3QBGB         5f89f550  
 0002:0000655c       ?_afxCommand@@3QBGB        5f89f55c  
 0002:0000656c       ?_afxIconIndexFmt@@3QBGB   5f89f56c  
 0002:00006574       ?_afxShellNewFmt@@3QBGB    5f89f574  
 0002:0000658c       ?_afxDefaultIconFmt@@3QBGB 5f89f58c  
 0002:000065ac       ?_afxShellPrintToFmt@@3QBGB 5f89f5ac  
 0002:000065d4       ?_afxShellPrintFmt@@3QBGB  5f89f5d4  
 0002:000065f8       ?_afxShellOpenFmt@@3QBGB   5f89f5f8  
 0002:00006620       ??_7CMDIChildWnd@@6B@      5f89f620  
 0002:00006728       ??_R1A@?0A@A@CMDIChildWnd@@8 5f89f728  
 0002:00006740       ??_R2CMDIChildWnd@@8       5f89f740  
 0002:00006758       ??_R3CMDIChildWnd@@8       5f89f758  
 0002:00006768       ??_R4CMDIChildWnd@@6B@     5f89f768  
 0002:000067f8       ??_7XDropTarget@COleDropTarget@@6B@ 5f89f7f8  
 0002:00006818       ??_R1A@?0A@A@IDropTarget@@8 5f89f818  
 0002:00006830       ??_R1A@?0A@A@XDropTarget@COleDropTarget@@8 5f89f830  
 0002:00006848       ??_R2XDropTarget@COleDropTarget@@8 5f89f848  
 0002:00006858       ??_R3XDropTarget@COleDropTarget@@8 5f89f858  
 0002:00006868       ??_R4XDropTarget@COleDropTarget@@6B@ 5f89f868  
 0002:00006d74       ??_7CMDIFrameWnd@@6B@      5f89fd74  
 0002:00006e78       ??_R1A@?0A@A@CMDIFrameWnd@@8 5f89fe78  
 0002:00006e90       ??_R2CMDIFrameWnd@@8       5f89fe90  
 0002:00006ea8       ??_R3CMDIFrameWnd@@8       5f89fea8  
 0002:00006eb8       ??_R4CMDIFrameWnd@@6B@     5f89feb8  
 0002:00006ecc       ??_C@_1BE@MFDJ@?$AAm?$AAd?$AAi?$AAc?$AAl?$AAi?$AAe?$AAn?$AAt?$AA?$AA@ 5f89fecc  
 0002:00006ee0       ??_C@_1O@IKOG@?$AAs?$AAy?$AAs?$AAt?$AAe?$AAm?$AA?$AA@ 5f89fee0  
 0002:00006ef4       ??_7CSplitterWnd@@6B@      5f89fef4  
 0002:00007020       ??_R1A@?0A@A@CSplitterWnd@@8 5f8a0020  
 0002:00007038       ??_R2CSplitterWnd@@8       5f8a0038  
 0002:00007050       ??_R3CSplitterWnd@@8       5f8a0050  
 0002:00007060       ??_R4CSplitterWnd@@6B@     5f8a0060  
 0002:00007078       ??_7COleUpdateDialog@@6B@  5f8a0078  
 0002:00007150       ??_R1A@?0A@A@COleDialog@@8 5f8a0150  
 0002:00007168       ??_R1A@?0A@A@COleLinksDialog@@8 5f8a0168  
 0002:00007180       ??_R1A@?0A@A@COleUpdateDialog@@8 5f8a0180  
 0002:00007198       ??_R2COleUpdateDialog@@8   5f8a0198  
 0002:000071c0       ??_R3COleUpdateDialog@@8   5f8a01c0  
 0002:000071d0       ??_R4COleUpdateDialog@@6B@ 5f8a01d0  
 0002:000071e8       ??_7COleLinksDialog@@6B@   5f8a01e8  
 0002:000072c0       ??_R2COleLinksDialog@@8    5f8a02c0  
 0002:000072e0       ??_R3COleLinksDialog@@8    5f8a02e0  
 0002:000072f0       ??_R4COleLinksDialog@@6B@  5f8a02f0  
 0002:00007308       ??_7COleDialog@@6B@        5f8a0308  
 0002:000073e0       ??_R2COleDialog@@8         5f8a03e0  
 0002:00007400       ??_R3COleDialog@@8         5f8a0400  
 0002:00007410       ??_R4COleDialog@@6B@       5f8a0410  
 0002:00007428       ??_7COleUILinkInfo@@6B@    5f8a0428  
 0002:00007458       ??_R1A@?0A@A@IOleUILinkContainerW@@8 5f8a0458  
 0002:00007470       ??_R1A@?0A@A@IOleUILinkInfoW@@8 5f8a0470  
 0002:00007488       ??_R1A@?0A@A@COleUILinkInfo@@8 5f8a0488  
 0002:000074a0       ??_R2COleUILinkInfo@@8     5f8a04a0  
 0002:000074b8       ??_R3COleUILinkInfo@@8     5f8a04b8  
 0002:000074c8       ??_R4COleUILinkInfo@@6B@   5f8a04c8  
 0002:000074dc       ?_afxRetVal@@3QBIB         5f8a04dc  
 0002:00007518       ?_afxByRef@@3QBIB          5f8a0518  
 0002:00007554       ?_afxByValue@@3QBIB        5f8a0554  
 0002:00007590       ??_7COleDispatchImpl@@6B@  5f8a0590  
 0002:000075b0       ??_R1A@?0A@A@IDispatch@@8  5f8a05b0  
 0002:000075c8       ??_R1A@?0A@A@COleDispatchImpl@@8 5f8a05c8  
 0002:000075e0       ??_R2COleDispatchImpl@@8   5f8a05e0  
 0002:000075f0       ??_R3COleDispatchImpl@@8   5f8a05f0  
 0002:00007600       ??_R4COleDispatchImpl@@6B@ 5f8a0600  
 0002:00007618       __sz_OLEAUT32              5f8a0618  
 0002:0000762c       ??_C@_1BG@GHOC@?$AAA?$AAu?$AAt?$AAo?$AAm?$AAa?$AAt?$AAi?$AAo?$AAn?$AA?$AA@ 5f8a062c  
 0002:00007648       ??_7CEdit@@6B@             5f8a0648  
 0002:00007708       ??_R1A@?0A@A@CEdit@@8      5f8a0708  
 0002:00007720       ??_R2CEdit@@8              5f8a0720  
 0002:00007738       ??_R3CEdit@@8              5f8a0738  
 0002:00007748       ??_R4CEdit@@6B@            5f8a0748  
 0002:00007760       ??_7CStatic@@6B@           5f8a0760  
 0002:00007820       ??_R1A@?0A@A@CStatic@@8    5f8a0820  
 0002:00007838       ??_R2CStatic@@8            5f8a0838  
 0002:00007850       ??_R3CStatic@@8            5f8a0850  
 0002:00007860       ??_R4CStatic@@6B@          5f8a0860  
 0002:00007878       ??_7CDialog@@6B@           5f8a0878  
 0002:00007950       ??_R1A@?0A@A@CDialog@@8    5f8a0950  
 0002:00007968       ??_R2CDialog@@8            5f8a0968  
 0002:00007980       ??_R3CDialog@@8            5f8a0980  
 0002:00007990       ??_R4CDialog@@6B@          5f8a0990  
 0002:000079a8       ?classCDialog@CDialog@@2UCRuntimeClass@@B 5f8a09a8  
 0002:000079c0       ??_C@_07IJJI@CDialog?$AA@  5f8a09c0  
 0002:000079c8       ??_R1A@?0A@A@CCommonDialog@@8 5f8a09c8  
 0002:000079e0       ??_C@_0BC@COEH@MonitorFromWindow?$AA@ 5f8a09e0  
 0002:000079f4       ??_C@_0BB@NDAA@GetSystemMetrics?$AA@ 5f8a09f4  
 0002:00007a08       ??_C@_1O@EJK@?$AAU?$AAS?$AAE?$AAR?$AA3?$AA2?$AA?$AA@ 5f8a0a08  
 0002:00007a18       ?messageMap@CDialog@@1UAFX_MSGMAP@@B 5f8a0a18  
 0002:00007a20       ?_messageEntries@CDialog@@0QBUAFX_MSGMAP_ENTRY@@B 5f8a0a20  
 0002:00007afc       ??_7CMapStringToPtr@@6B@   5f8a0afc  
 0002:00007b10       ??_R1A@?0A@A@CMapStringToPtr@@8 5f8a0b10  
 0002:00007b28       ??_R2CMapStringToPtr@@8    5f8a0b28  
 0002:00007b38       ??_R3CMapStringToPtr@@8    5f8a0b38  
 0002:00007b48       ??_R4CMapStringToPtr@@6B@  5f8a0b48  
 0002:00007b60       ??_7CPrintDialog@@6B@      5f8a0b60  
 0002:00007c40       ??_R1A@?0A@A@CPrintDialog@@8 5f8a0c40  
 0002:00007c58       ??_R2CPrintDialog@@8       5f8a0c58  
 0002:00007c78       ??_R3CPrintDialog@@8       5f8a0c78  
 0002:00007c88       ??_R4CPrintDialog@@6B@     5f8a0c88  
 0002:00007ca0       ??_7CFileException@@6B@    5f8a0ca0  
 0002:00007cc0       ??_R1A@?0A@A@CFileException@@8 5f8a0cc0  
 0002:00007cd8       ??_R2CFileException@@8     5f8a0cd8  
 0002:00007ce8       ??_R3CFileException@@8     5f8a0ce8  
 0002:00007cf8       ??_R4CFileException@@6B@   5f8a0cf8  
 0002:00007d10       ??_7CButton@@6B@           5f8a0d10  
 0002:00007dd8       ??_R1A@?0A@A@CButton@@8    5f8a0dd8  
 0002:00007df0       ??_R2CButton@@8            5f8a0df0  
 0002:00007e08       ??_R3CButton@@8            5f8a0e08  
 0002:00007e18       ??_R4CButton@@6B@          5f8a0e18  
 0002:00007e30       ?messageMap@CPrintDialog@@1UAFX_MSGMAP@@B 5f8a0e30  
 0002:00007e38       ?_messageEntries@CPrintDialog@@0QBUAFX_MSGMAP_ENTRY@@B 5f8a0e38  
 0002:00007e68       ?messageMap@CCommonDialog@@1UAFX_MSGMAP@@B 5f8a0e68  
 0002:00007e70       ?_messageEntries@CCommonDialog@@0QBUAFX_MSGMAP_ENTRY@@B 5f8a0e70  
 0002:00007ea0       ??_C@_1CI@HAOL@?$AAc?$AAo?$AAm?$AAm?$AAd?$AAl?$AAg?$AA_?$AAS?$AAe?$AAt?$AAR?$AAG?$AAB?$AAC?$AAo?$AAl?$AAo?$AAr?$AA?$AA@ 5f8a0ea0  
 0002:00007ec8       ??_C@_1BK@KCME@?$AAc?$AAo?$AAm?$AAm?$AAd?$AAl?$AAg?$AA_?$AAh?$AAe?$AAl?$AAp?$AA?$AA@ 5f8a0ec8  
 0002:00007ee4       ??_C@_1CA@HL@?$AAc?$AAo?$AAm?$AAm?$AAd?$AAl?$AAg?$AA_?$AAC?$AAo?$AAl?$AAo?$AAr?$AAO?$AAK?$AA?$AA@ 5f8a0ee4  
 0002:00007f04       ??_C@_1CG@GOBL@?$AAc?$AAo?$AAm?$AAm?$AAd?$AAl?$AAg?$AA_?$AAF?$AAi?$AAl?$AAe?$AAN?$AAa?$AAm?$AAe?$AAO?$AAK?$AA?$AA@ 5f8a0f04  
 0002:00007f2c       ??_C@_1CO@EDLA@?$AAc?$AAo?$AAm?$AAm?$AAd?$AAl?$AAg?$AA_?$AAS?$AAh?$AAa?$AAr?$AAe?$AAV?$AAi?$AAo?$AAl?$AAa?$AAt?$AAi@ 5f8a0f2c  
 0002:00007f5c       ??_C@_1DG@FJGG@?$AAc?$AAo?$AAm?$AAm?$AAd?$AAl?$AAg?$AA_?$AAL?$AAB?$AAS?$AAe?$AAl?$AAC?$AAh?$AAa?$AAn?$AAg?$AAe?$AAd@ 5f8a0f5c  
 0002:00007f98       ??_7CPrintingDialog@@6B@   5f8a0f98  
 0002:00008070       ??_R1A@?0A@A@CPrintingDialog@@8 5f8a1070  
 0002:00008088       ??_R2CPrintingDialog@@8    5f8a1088  
 0002:000080a0       ??_R3CPrintingDialog@@8    5f8a10a0  
 0002:000080b0       ??_R4CPrintingDialog@@6B@  5f8a10b0  
 0002:000080c8       ?classCPrintDialog@CPrintDialog@@2UCRuntimeClass@@B 5f8a10c8  
 0002:000080e0       ??_C@_0N@KDJG@CPrintDialog?$AA@ 5f8a10e0  
 0002:000080f4       ??_7CTempGdiObject@@6B@    5f8a10f4  
 0002:00008108       ??_R1A@?0A@A@CTempGdiObject@@8 5f8a1108  
 0002:00008120       ??_R2CTempGdiObject@@8     5f8a1120  
 0002:00008130       ??_R3CTempGdiObject@@8     5f8a1130  
 0002:00008140       ??_R4CTempGdiObject@@6B@   5f8a1140  
 0002:00008154       ?_afxWndControlBar@@3QBGB  5f8a1154  
 0002:00008178       ?_afxWndMDIFrame@@3QBGB    5f8a1178  
 0002:00008198       ?_afxWndFrameOrView@@3QBGB 5f8a1198  
 0002:000081bc       ??_C@_0BF@CELH@InitCommonControlsEx?$AA@ 5f8a11bc  
 0002:000081d4       ??_C@_0N@BMKC@COMCTL32?4DLL?$AA@ 5f8a11d4  
 0002:000081e8       ??_R1A@?0A@A@IUnknown@@8   5f8a11e8  
 0002:00008200       _GUID_NULL                 5f8a1200  
 0002:00008210       ??_C@_15KLDP@?$AA?$CF?$AAd?$AA?$AA@ 5f8a1210  
 0002:00008218       ??_C@_17BCJF@?$AAI?$AA6?$AA4?$AA?$AA@ 5f8a1218  
 0002:00008220       ??_C@_1M@EPCN@?$AAC?$AAL?$AAS?$AAI?$AAD?$AA?$AA@ 5f8a1220  
 0002:00008230       ?interfaceMap@COleObjectFactory@@1UAFX_INTERFACEMAP@@B 5f8a1230  
 0002:00008238       ?_interfaceEntries@COleObjectFactory@@0QBUAFX_INTERFACEMAP_ENTRY@@B 5f8a1238  
 0002:00008250       _IID_IClassFactory         5f8a1250  
 0002:00008260       _IID_IClassFactory2        5f8a1260  
 0002:00008270       ??_C@_1BE@IDHE@?$AAE?$AAm?$AAb?$AAe?$AAd?$AAd?$AAi?$AAn?$AAg?$AA?$AA@ 5f8a1270  
 0002:00008284       ??_C@_1BE@JGEP@?$AAS?$AAC?$AAR?$AAO?$AAL?$AAL?$AAB?$AAA?$AAR?$AA?$AA@ 5f8a1284  
 0002:0000829c       ??_7CTempDC@@6B@           5f8a129c  
 0002:00008318       ??_R1A@?0A@A@CTempDC@@8    5f8a1318  
 0002:00008330       ??_R2CTempDC@@8            5f8a1330  
 0002:00008340       ??_R3CTempDC@@8            5f8a1340  
 0002:00008350       ??_R4CTempDC@@6B@          5f8a1350  
 0002:00008368       ??_7CException@@6B@        5f8a1368  
 0002:00008388       ??_R2CException@@8         5f8a1388  
 0002:00008398       ??_R3CException@@8         5f8a1398  
 0002:000083a8       ??_R4CException@@6B@       5f8a13a8  
 0002:000083c0       __sz_SHELL32               5f8a13c0  
 0002:000083e0       ?classCView@CView@@2UCRuntimeClass@@B 5f8a13e0  
 0002:000083f8       ??_C@_05KON@CView?$AA@     5f8a13f8  
 0002:00008404       ??_7CPaintDC@@6B@          5f8a1404  
 0002:00008480       ??_R1A@?0A@A@CPaintDC@@8   5f8a1480  
 0002:00008498       ??_R2CPaintDC@@8           5f8a1498  
 0002:000084a8       ??_R3CPaintDC@@8           5f8a14a8  
 0002:000084b8       ??_R4CPaintDC@@6B@         5f8a14b8  
 0002:000084d0       __sz_comdlg32              5f8a14d0  
 0002:00008500       ?classCNotSupportedException@CNotSupportedException@@2UCRuntimeClass@@B 5f8a1500  
 0002:00008518       ??_C@_0BH@JODH@CNotSupportedException?$AA@ 5f8a1518  
 0002:00008530       ?classCMemoryException@CMemoryException@@2UCRuntimeClass@@B 5f8a1530  
 0002:00008548       ??_C@_0BB@NODM@CMemoryException?$AA@ 5f8a1548  
 0002:00008560       ?classCException@CException@@2UCRuntimeClass@@B 5f8a1560  
 0002:00008578       ??_C@_0L@CMNH@CException?$AA@ 5f8a1578  
 0002:00008584       ??_C@_1O@DAJD@?$AA?$CI?$AAN?$AAU?$AAL?$AAL?$AA?$CJ?$AA?$AA@ 5f8a1584  
 0002:00008594       ??_C@_15NIED@?$AA?$CF?$AAu?$AA?$AA@ 5f8a1594  
 0002:0000859c       ??_C@_19JHMD@?$AA0?$AAx?$AA?$CF?$AAX?$AA?$AA@ 5f8a159c  
 0002:000085a8       ??_C@_17EFBD@?$AA?$CF?$AAl?$AAd?$AA?$AA@ 5f8a15a8  
 0002:000085b0       ??_C@_17DGGP@?$AA?$CF?$AAl?$AAu?$AA?$AA@ 5f8a15b0  
 0002:000085b8       ??_C@_19KF@?$AAN?$AAU?$AAL?$AAL?$AA?$AA@ 5f8a15b8  
 0002:000085c4       ??_C@_19LOGG@?$AA$?$AA?$CF?$AAl?$AAX?$AA?$AA@ 5f8a15c4  
 0002:000085d0       ??_C@_13DEJI@?$AA?6?$AA?$AA@ 5f8a15d0  
 0002:000085d4       ??_C@_1M@JKLL@?$AA?5?$AA?$CF?$AA0?$AA2?$AAX?$AA?$AA@ 5f8a15d4  
 0002:000085e0       ?classCArchiveException@CArchiveException@@2UCRuntimeClass@@B 5f8a15e0  
 0002:000085f8       ??_C@_0BC@BIF@CArchiveException?$AA@ 5f8a15f8  
 0002:00008610       ??_7CArchiveException@@6B@ 5f8a1610  
 0002:00008630       ??_7CArchiveStream@@6B@    5f8a1630  
 0002:00008668       ?classCFile@CFile@@2UCRuntimeClass@@B 5f8a1668  
 0002:00008680       ??_C@_05GM@CFile?$AA@      5f8a1680  
 0002:00008688       _afxIID_IShellLinkW        5f8a1688  
 0002:00008698       _afxCLSID_ShellLink        5f8a1698  
 0002:000086a8       ??_C@_0BC@KFKC@DllGetClassObject?$AA@ 5f8a16a8  
 0002:000086bc       ??_C@_1GG@OAL@?$AA?$HL?$AA?$CF?$AA0?$AA8?$AAX?$AA?9?$AA?$CF?$AA0?$AA4?$AAX?$AA?9?$AA?$CF?$AA0?$AA4?$AAX?$AA?9?$AA?$CF?$AA0?$AA2?$AAX@ 5f8a16bc  
 0002:00008724       ??_C@_1BO@DEPG@?$AAI?$AAn?$AAP?$AAr?$AAo?$AAc?$AAS?$AAe?$AAr?$AAv?$AAe?$AAr?$AA3?$AA2?$AA?$AA@ 5f8a1724  
 0002:00008748       ?classCStdioFile@CStdioFile@@2UCRuntimeClass@@B 5f8a1748  
 0002:00008760       ??_C@_0L@JAPO@CStdioFile?$AA@ 5f8a1760  
 0002:00008770       ??_7CStdioFile@@6B@        5f8a1770  
 0002:000087d8       ?classCMemFile@CMemFile@@2UCRuntimeClass@@B 5f8a17d8  
 0002:000087f0       ??_C@_08EMMO@CMemFile?$AA@ 5f8a17f0  
 0002:00008800       ?classCSharedFile@CSharedFile@@2UCRuntimeClass@@B 5f8a1800  
 0002:00008818       ??_C@_0M@DHDK@CSharedFile?$AA@ 5f8a1818  
 0002:00008828       ??_7CSharedFile@@6B@       5f8a1828  
 0002:00008898       ?classCFileException@CFileException@@2UCRuntimeClass@@B 5f8a1898  
 0002:000088b0       ??_C@_0P@HFKI@CFileException?$AA@ 5f8a18b0  
 0002:000088c4       ??_7CByteArray@@6B@        5f8a18c4  
 0002:000088d8       ?classCPtrArray@CPtrArray@@2UCRuntimeClass@@B 5f8a18d8  
 0002:000088f0       ??_C@_09BHCJ@CPtrArray?$AA@ 5f8a18f0  
 0002:00008900       ??_7CObArray@@6B@          5f8a1900  
 0002:00008918       ??_7CStringArray@@6B@      5f8a1918  
 0002:00008930       ?classCUIntArray@CUIntArray@@2UCRuntimeClass@@B 5f8a1930  
 0002:00008948       ??_C@_0L@OIGA@CUIntArray?$AA@ 5f8a1948  
 0002:00008958       ??_7CUIntArray@@6B@        5f8a1958  
 0002:00008970       ??_7CWordArray@@6B@        5f8a1970  
 0002:00008988       ?classCPtrList@CPtrList@@2UCRuntimeClass@@B 5f8a1988  
 0002:000089a0       ??_C@_08DEKG@CPtrList?$AA@ 5f8a19a0  
 0002:000089b0       ??_7CStringList@@6B@       5f8a19b0  
 0002:000089c8       ?classCMapPtrToPtr@CMapPtrToPtr@@2UCRuntimeClass@@B 5f8a19c8  
 0002:000089e0       ??_C@_0N@EGND@CMapPtrToPtr?$AA@ 5f8a19e0  
 0002:000089f0       ?classCMapPtrToWord@CMapPtrToWord@@2UCRuntimeClass@@B 5f8a19f0  
 0002:00008a08       ??_C@_0O@CNGA@CMapPtrToWord?$AA@ 5f8a1a08  
 0002:00008a1c       ??_7CMapPtrToWord@@6B@     5f8a1a1c  
 0002:00008a34       ??_7CMapStringToOb@@6B@    5f8a1a34  
 0002:00008a48       ?classCMapStringToPtr@CMapStringToPtr@@2UCRuntimeClass@@B 5f8a1a48  
 0002:00008a60       ??_C@_0BA@PAMN@CMapStringToPtr?$AA@ 5f8a1a60  
 0002:00008a74       ??_7CMapStringToString@@6B@ 5f8a1a74  
 0002:00008a8c       ??_7CMapWordToOb@@6B@      5f8a1a8c  
 0002:00008aa0       ?classCMapWordToPtr@CMapWordToPtr@@2UCRuntimeClass@@B 5f8a1aa0  
 0002:00008ab8       ??_C@_0O@MJKP@CMapWordToPtr?$AA@ 5f8a1ab8  
 0002:00008acc       ??_7CMapWordToPtr@@6B@     5f8a1acc  
 0002:00008ae0       ??_C@_1M@OBDK@?$AA?$CF?$AA?$CK?$AA?4?$AA?$CK?$AAf?$AA?$AA@ 5f8a1ae0  
 0002:00008aec       ??_C@_19HABD@?$AA?$CF?$AA0?$AA2?$AAd?$AA?$AA@ 5f8a1aec  
 0002:00008af8       ?classCSyncObject@CSyncObject@@2UCRuntimeClass@@B 5f8a1af8  
 0002:00008b10       ??_C@_0M@EHIL@CSyncObject?$AA@ 5f8a1b10  
 0002:00008b20       ?classCCriticalSection@CCriticalSection@@2UCRuntimeClass@@B 5f8a1b20  
 0002:00008b38       ??_C@_0BB@HCJ@CCriticalSection?$AA@ 5f8a1b38  
 0002:00008b50       ?classCMutex@CMutex@@2UCRuntimeClass@@B 5f8a1b50  
 0002:00008b68       ??_C@_06HCIL@CMutex?$AA@   5f8a1b68  
 0002:00008b70       ?classCSemaphore@CSemaphore@@2UCRuntimeClass@@B 5f8a1b70  
 0002:00008b88       ??_C@_0L@NFMO@CSemaphore?$AA@ 5f8a1b88  
 0002:00008b98       ?classCEvent@CEvent@@2UCRuntimeClass@@B 5f8a1b98  
 0002:00008bb0       ??_C@_06BPGE@CEvent?$AA@   5f8a1bb0  
 0002:00008bbc       ??_7CSemaphore@@6B@        5f8a1bbc  
 0002:00008be0       ??_7CMutex@@6B@            5f8a1be0  
 0002:00008c04       ??_7CEvent@@6B@            5f8a1c04  
 0002:00008c24       ?_afxWnd@@3QBGB            5f8a1c24  
 0002:00008c38       ?_afxWndOleControl@@3QBGB  5f8a1c38  
 0002:00008c5c       ??_C@_0BA@OPCN@GetMonitorInfoW?$AA@ 5f8a1c5c  
 0002:00008c6c       ??_C@_0BE@KPOG@EnumDisplayMonitors?$AA@ 5f8a1c6c  
 0002:00008c80       ??_C@_0BB@GJCM@MonitorFromPoint?$AA@ 5f8a1c80  
 0002:00008c94       ??_C@_0BA@GOHF@MonitorFromRect?$AA@ 5f8a1c94  
 0002:00008ca4       ??_C@_1BA@FHJ@?$AAD?$AAI?$AAS?$AAP?$AAL?$AAA?$AAY?$AA?$AA@ 5f8a1ca4  
 0002:00008cb4       ??_C@_1BE@KCHN@?$AAA?$AAf?$AAx?$AA?3?$AA?$CF?$AAx?$AA?3?$AA?$CF?$AAx?$AA?$AA@ 5f8a1cb4  
 0002:00008cc8       ?classCControlBar@CControlBar@@2UCRuntimeClass@@B 5f8a1cc8  
 0002:00008ce0       ??_C@_0M@GCON@CControlBar?$AA@ 5f8a1ce0  
 0002:00008cec       ??_C@_1CA@JHCA@?$AAM?$AAS?$AAW?$AAH?$AAE?$AAE?$AAL?$AA_?$AAR?$AAO?$AAL?$AAL?$AAM?$AAS?$AAG?$AA?$AA@ 5f8a1cec  
 0002:00008d0c       ??_C@_17LJFH@?$AA?3?$AA?$CF?$AAd?$AA?$AA@ 5f8a1d0c  
 0002:00008d18       ?classCMDIFrameWnd@CMDIFrameWnd@@2UCRuntimeClass@@B 5f8a1d18  
 0002:00008d30       ??_C@_0N@FPEB@CMDIFrameWnd?$AA@ 5f8a1d30  
 0002:00008d40       ?messageMap@CMDIFrameWnd@@1UAFX_MSGMAP@@B 5f8a1d40  
 0002:00008d48       ?_messageEntries@CMDIFrameWnd@@0QBUAFX_MSGMAP_ENTRY@@B 5f8a1d48  
 0002:00008ec8       ?classCToolTipCtrl@CToolTipCtrl@@2UCRuntimeClass@@B 5f8a1ec8  
 0002:00008ee0       ??_C@_0N@OELH@CToolTipCtrl?$AA@ 5f8a1ee0  
 0002:00008ef0       ?messageMap@CToolTipCtrl@@1UAFX_MSGMAP@@B 5f8a1ef0  
 0002:00008ef8       ?_messageEntries@CToolTipCtrl@@0QBUAFX_MSGMAP_ENTRY@@B 5f8a1ef8  
 0002:00008f74       ??_7CToolTipCtrl@@6B@      5f8a1f74  
 0002:00009034       ??_C@_1CC@BIKB@?$AAt?$AAo?$AAo?$AAl?$AAt?$AAi?$AAp?$AAs?$AA_?$AAc?$AAl?$AAa?$AAs?$AAs?$AA3?$AA2?$AA?$AA@ 5f8a2034  
 0002:00009058       ?classCMiniFrameWnd@CMiniFrameWnd@@2UCRuntimeClass@@B 5f8a2058  
 0002:00009070       ??_C@_0O@NPLL@CMiniFrameWnd?$AA@ 5f8a2070  
 0002:00009080       ?messageMap@CMiniFrameWnd@@1UAFX_MSGMAP@@B 5f8a2080  
 0002:00009088       ?_messageEntries@CMiniFrameWnd@@0QBUAFX_MSGMAP_ENTRY@@B 5f8a2088  
 0002:0000920c       ??_7CMiniFrameWnd@@6B@     5f8a220c  
 0002:00009308       ??_C@_1BI@PPN@?$AAS?$AAm?$AAa?$AAl?$AAl?$AA?5?$AAF?$AAo?$AAn?$AAt?$AAs?$AA?$AA@ 5f8a2308  
 0002:00009320       ??_C@_1BC@NHJA@?$AAT?$AAe?$AAr?$AAm?$AAi?$AAn?$AAa?$AAl?$AA?$AA@ 5f8a2320  
 0002:00009338       ??_7CBrush@@6B@            5f8a2338  
 0002:00009350       ?classCToolBar@CToolBar@@2UCRuntimeClass@@B 5f8a2350  
 0002:00009368       ??_C@_08NCEL@CToolBar?$AA@ 5f8a2368  
 0002:00009378       ?classCDialogBar@CDialogBar@@2UCRuntimeClass@@B 5f8a2378  
 0002:00009390       ??_C@_0L@KJOE@CDialogBar?$AA@ 5f8a2390  
 0002:000093a0       ?messageMap@CDialogBar@@1UAFX_MSGMAP@@B 5f8a23a0  
 0002:000093a8       ?_messageEntries@CDialogBar@@0QBUAFX_MSGMAP_ENTRY@@B 5f8a23a8  
 0002:000093dc       ??_7CDialogBar@@6B@        5f8a23dc  
 0002:000094c8       ?classCStatusBar@CStatusBar@@2UCRuntimeClass@@B 5f8a24c8  
 0002:000094e0       ??_C@_0L@BNMI@CStatusBar?$AA@ 5f8a24e0  
 0002:000094f0       ?classCDockBar@CDockBar@@2UCRuntimeClass@@B 5f8a24f0  
 0002:00009508       ??_C@_08EABA@CDockBar?$AA@ 5f8a2508  
 0002:00009518       ?messageMap@CMiniDockFrameWnd@@1UAFX_MSGMAP@@B 5f8a2518  
 0002:00009520       ?_messageEntries@CMiniDockFrameWnd@@0QBUAFX_MSGMAP_ENTRY@@B 5f8a2520  
 0002:0000959c       ??_7CMiniDockFrameWnd@@6B@ 5f8a259c  
 0002:0000969c       ?_afxBar@@3QBGB            5f8a269c  
 0002:000096ac       ?_afxScreenCY@@3QBGB       5f8a26ac  
 0002:000096c0       ?_afxScreenCX@@3QBGB       5f8a26c0  
 0002:000096d4       ?_afxBars@@3QBGB           5f8a26d4  
 0002:000096e0       ?_afxFloating@@3QBGB       5f8a26e0  
 0002:000096f4       ?_afxHorz@@3QBGB           5f8a26f4  
 0002:00009700       ?_afxBarID@@3QBGB          5f8a2700  
 0002:0000970c       ?_afxMRUFloatYPos@@3QBGB   5f8a270c  
 0002:00009728       ?_afxMRUFloatXPos@@3QBGB   5f8a2728  
 0002:00009744       ?_afxMRUFloatStyle@@3QBGB  5f8a2744  
 0002:00009760       ?_afxMRUDockBottomPos@@3QBGB 5f8a2760  
 0002:00009784       ?_afxMRUDockTopPos@@3QBGB  5f8a2784  
 0002:000097a0       ?_afxMRUDockRightPos@@3QBGB 5f8a27a0  
 0002:000097c0       ?_afxMRUDockLeftPos@@3QBGB 5f8a27c0  
 0002:000097e0       ?_afxMRUDockID@@3QBGB      5f8a27e0  
 0002:000097f4       ?_afxDocking@@3QBGB        5f8a27f4  
 0002:00009804       ?_afxMRUWidth@@3QBGB       5f8a2804  
 0002:00009818       ?_afxYPos@@3QBGB           5f8a2818  
 0002:00009824       ?_afxXPos@@3QBGB           5f8a2824  
 0002:00009830       ?_afxSummarySection@@3QBGB 5f8a2830  
 0002:00009848       ?_afxBarSection@@3QBGB     5f8a2848  
 0002:0000985c       ?_afxVisible@@3QBGB        5f8a285c  
 0002:00009870       ?classCPreviewDC@CPreviewDC@@2UCRuntimeClass@@B 5f8a2870  
 0002:00009888       ??_C@_0L@MCGA@CPreviewDC?$AA@ 5f8a2888  
 0002:00009898       ??_7CPreviewDC@@6B@        5f8a2898  
 0002:00009914       ??_C@_01POCP@?7?$AA@       5f8a2914  
 0002:00009916       ??_C@_01PFH@A?$AA@         5f8a2916  
 0002:00009918       ?classCMetaFileDC@CMetaFileDC@@2UCRuntimeClass@@B 5f8a2918  
 0002:00009930       ??_C@_0M@MIEC@CMetaFileDC?$AA@ 5f8a2930  
 0002:00009940       ??_7CMetaFileDC@@6B@       5f8a2940  
 0002:000099f8       ?_afxRectInfo@@3QBUAFX_RECTINFO@@B 5f8a29f8  
 0002:00009a18       ?_afxHandleInfo@@3QBUAFX_HANDLEINFO@@B 5f8a2a18  
 0002:00009b1c       ??_7CRectTracker@@6B@      5f8a2b1c  
 0002:00009b38       ?classCReBar@CReBar@@2UCRuntimeClass@@B 5f8a2b38  
 0002:00009b50       ??_C@_06JANL@CReBar?$AA@   5f8a2b50  
 0002:00009b58       ?messageMap@CReBar@@1UAFX_MSGMAP@@B 5f8a2b58  
 0002:00009b60       ?_messageEntries@CReBar@@0QBUAFX_MSGMAP_ENTRY@@B 5f8a2b60  
 0002:00009c54       ??_7CReBar@@6B@            5f8a2c54  
 0002:00009d3c       ??_C@_1BM@CPLN@?$AAR?$AAe?$AAB?$AAa?$AAr?$AAW?$AAi?$AAn?$AAd?$AAo?$AAw?$AA3?$AA2?$AA?$AA@ 5f8a2d3c  
 0002:00009d58       ?classCScrollBar@CScrollBar@@2UCRuntimeClass@@B 5f8a2d58  
 0002:00009d70       ??_C@_0L@JCLK@CScrollBar?$AA@ 5f8a2d70  
 0002:00009d80       ?classCEdit@CEdit@@2UCRuntimeClass@@B 5f8a2d80  
 0002:00009d98       ??_C@_05KKIE@CEdit?$AA@    5f8a2d98  
 0002:00009da0       ?classCComboBox@CComboBox@@2UCRuntimeClass@@B 5f8a2da0  
 0002:00009db8       ??_C@_09JMHE@CComboBox?$AA@ 5f8a2db8  
 0002:00009dc8       ?classCListBox@CListBox@@2UCRuntimeClass@@B 5f8a2dc8  
 0002:00009de0       ??_C@_08NBK@CListBox?$AA@  5f8a2de0  
 0002:00009df0       ?classCButton@CButton@@2UCRuntimeClass@@B 5f8a2df0  
 0002:00009e08       ??_C@_07NNHJ@CButton?$AA@  5f8a2e08  
 0002:00009e10       ?classCStatic@CStatic@@2UCRuntimeClass@@B 5f8a2e10  
 0002:00009e28       ??_C@_07HEEJ@CStatic?$AA@  5f8a2e28  
 0002:00009e30       ??_C@_1O@GCMM@?$AAS?$AAT?$AAA?$AAT?$AAI?$AAC?$AA?$AA@ 5f8a2e30  
 0002:00009e40       ??_C@_1O@GKDM@?$AAB?$AAU?$AAT?$AAT?$AAO?$AAN?$AA?$AA@ 5f8a2e40  
 0002:00009e50       ??_C@_1BA@BJGI@?$AAL?$AAI?$AAS?$AAT?$AAB?$AAO?$AAX?$AA?$AA@ 5f8a2e50  
 0002:00009e64       ??_7CListBox@@6B@          5f8a2e64  
 0002:00009f3c       ??_C@_19CJM@?$AAE?$AAD?$AAI?$AAT?$AA?$AA@ 5f8a2f3c  
 0002:00009f4c       ??_7CScrollBar@@6B@        5f8a2f4c  
 0002:0000a010       ?classCRichEditCtrl@CRichEditCtrl@@2UCRuntimeClass@@B 5f8a3010  
 0002:0000a028       ??_C@_0O@KLOD@CRichEditCtrl?$AA@ 5f8a3028  
 0002:0000a038       ?classCTempImageList@CTempImageList@@2UCRuntimeClass@@B 5f8a3038  
 0002:0000a050       ??_C@_0P@OCOD@CTempImageList?$AA@ 5f8a3050  
 0002:0000a060       ?classCImageList@CImageList@@2UCRuntimeClass@@B 5f8a3060  
 0002:0000a078       ??_C@_0L@HBAH@CImageList?$AA@ 5f8a3078  
 0002:0000a088       ?classCStatusBarCtrl@CStatusBarCtrl@@2UCRuntimeClass@@B 5f8a3088  
 0002:0000a0a0       ??_C@_0P@NMO@CStatusBarCtrl?$AA@ 5f8a30a0  
 0002:0000a0b0       ?classCToolBarCtrl@CToolBarCtrl@@2UCRuntimeClass@@B 5f8a30b0  
 0002:0000a0c8       ??_C@_0N@HNL@CToolBarCtrl?$AA@ 5f8a30c8  
 0002:0000a0d8       ?classCListCtrl@CListCtrl@@2UCRuntimeClass@@B 5f8a30d8  
 0002:0000a0f0       ??_C@_09IAHO@CListCtrl?$AA@ 5f8a30f0  
 0002:0000a100       ?classCTreeCtrl@CTreeCtrl@@2UCRuntimeClass@@B 5f8a3100  
 0002:0000a118       ??_C@_09CIBI@CTreeCtrl?$AA@ 5f8a3118  
 0002:0000a128       ?classCTabCtrl@CTabCtrl@@2UCRuntimeClass@@B 5f8a3128  
 0002:0000a140       ??_C@_08IFFI@CTabCtrl?$AA@ 5f8a3140  
 0002:0000a150       ?classCAnimateCtrl@CAnimateCtrl@@2UCRuntimeClass@@B 5f8a3150  
 0002:0000a168       ??_C@_0N@PPEM@CAnimateCtrl?$AA@ 5f8a3168  
 0002:0000a178       ?classCHotKeyCtrl@CHotKeyCtrl@@2UCRuntimeClass@@B 5f8a3178  
 0002:0000a190       ??_C@_0M@IPHC@CHotKeyCtrl?$AA@ 5f8a3190  
 0002:0000a1a0       ?classCHeaderCtrl@CHeaderCtrl@@2UCRuntimeClass@@B 5f8a31a0  
 0002:0000a1b8       ??_C@_0M@HNGK@CHeaderCtrl?$AA@ 5f8a31b8  
 0002:0000a1c8       ?classCComboBoxEx@CComboBoxEx@@2UCRuntimeClass@@B 5f8a31c8  
 0002:0000a1e0       ??_C@_0M@BDBF@CComboBoxEx?$AA@ 5f8a31e0  
 0002:0000a1f0       ?classCProgressCtrl@CProgressCtrl@@2UCRuntimeClass@@B 5f8a31f0  
 0002:0000a208       ??_C@_0O@ECFI@CProgressCtrl?$AA@ 5f8a3208  
 0002:0000a218       ?classCSliderCtrl@CSliderCtrl@@2UCRuntimeClass@@B 5f8a3218  
 0002:0000a230       ??_C@_0M@POGH@CSliderCtrl?$AA@ 5f8a3230  
 0002:0000a240       ?classCSpinButtonCtrl@CSpinButtonCtrl@@2UCRuntimeClass@@B 5f8a3240  
 0002:0000a258       ??_C@_0BA@MANL@CSpinButtonCtrl?$AA@ 5f8a3258  
 0002:0000a268       ?classCDragListBox@CDragListBox@@2UCRuntimeClass@@B 5f8a3268  
 0002:0000a280       ??_C@_0N@BPBM@CDragListBox?$AA@ 5f8a3280  
 0002:0000a290       ?messageMap@CTabCtrl@@1UAFX_MSGMAP@@B 5f8a3290  
 0002:0000a298       ?_messageEntries@CTabCtrl@@0QBUAFX_MSGMAP_ENTRY@@B 5f8a3298  
 0002:0000a2c8       ?messageMap@CTreeCtrl@@1UAFX_MSGMAP@@B 5f8a32c8  
 0002:0000a2d0       ?_messageEntries@CTreeCtrl@@0QBUAFX_MSGMAP_ENTRY@@B 5f8a32d0  
 0002:0000a300       ?messageMap@CListCtrl@@1UAFX_MSGMAP@@B 5f8a3300  
 0002:0000a308       ?_messageEntries@CListCtrl@@0QBUAFX_MSGMAP_ENTRY@@B 5f8a3308  
 0002:0000a338       ?messageMap@CToolBarCtrl@@1UAFX_MSGMAP@@B 5f8a3338  
 0002:0000a340       ?_messageEntries@CToolBarCtrl@@0QBUAFX_MSGMAP_ENTRY@@B 5f8a3340  
 0002:0000a374       ??_7CDragListBox@@6B@      5f8a3374  
 0002:0000a464       ??_7CRgn@@6B@              5f8a3464  
 0002:0000a47c       ??_7CToolBarCtrl@@6B@      5f8a347c  
 0002:0000a540       ??_7CStatusBarCtrl@@6B@    5f8a3540  
 0002:0000a604       ??_C@_1BM@DGLL@?$AAS?$AAy?$AAs?$AAL?$AAi?$AAs?$AAt?$AAV?$AAi?$AAe?$AAw?$AA3?$AA2?$AA?$AA@ 5f8a3604  
 0002:0000a624       ??_7CListCtrl@@6B@         5f8a3624  
 0002:0000a6e8       ??_C@_1BM@DBCI@?$AAS?$AAy?$AAs?$AAT?$AAr?$AAe?$AAe?$AAV?$AAi?$AAe?$AAw?$AA3?$AA2?$AA?$AA@ 5f8a36e8  
 0002:0000a708       ??_7CTreeCtrl@@6B@         5f8a3708  
 0002:0000a7c8       ??_C@_1CA@JDKO@?$AAm?$AAs?$AAc?$AAt?$AAl?$AAs?$AA_?$AAu?$AAp?$AAd?$AAo?$AAw?$AAn?$AA3?$AA2?$AA?$AA@ 5f8a37c8  
 0002:0000a7ec       ??_7CSpinButtonCtrl@@6B@   5f8a37ec  
 0002:0000a8ac       ??_C@_1CE@EHFJ@?$AAm?$AAs?$AAc?$AAt?$AAl?$AAs?$AA_?$AAt?$AAr?$AAa?$AAc?$AAk?$AAb?$AAa?$AAr?$AA3?$AA2?$AA?$AA@ 5f8a38ac  
 0002:0000a8d4       ??_7CSliderCtrl@@6B@       5f8a38d4  
 0002:0000a994       ??_C@_1CE@ECOJ@?$AAm?$AAs?$AAc?$AAt?$AAl?$AAs?$AA_?$AAp?$AAr?$AAo?$AAg?$AAr?$AAe?$AAs?$AAs?$AA3?$AA2?$AA?$AA@ 5f8a3994  
 0002:0000a9bc       ??_7CProgressCtrl@@6B@     5f8a39bc  
 0002:0000aa7c       ??_C@_1BI@FFDG@?$AAS?$AAy?$AAs?$AAH?$AAe?$AAa?$AAd?$AAe?$AAr?$AA3?$AA2?$AA?$AA@ 5f8a3a7c  
 0002:0000aa98       ??_7CHeaderCtrl@@6B@       5f8a3a98  
 0002:0000ab5c       ??_C@_1CA@BKDN@?$AAm?$AAs?$AAc?$AAt?$AAl?$AAs?$AA_?$AAh?$AAo?$AAt?$AAk?$AAe?$AAy?$AA3?$AA2?$AA?$AA@ 5f8a3b5c  
 0002:0000ab80       ??_7CHotKeyCtrl@@6B@       5f8a3b80  
 0002:0000ac40       ??_C@_1CA@OIHL@?$AAS?$AAy?$AAs?$AAT?$AAa?$AAb?$AAC?$AAo?$AAn?$AAt?$AAr?$AAo?$AAl?$AA3?$AA2?$AA?$AA@ 5f8a3c40  
 0002:0000ac64       ??_7CTabCtrl@@6B@          5f8a3c64  
 0002:0000ad28       ??_C@_1BK@MPBJ@?$AAS?$AAy?$AAs?$AAA?$AAn?$AAi?$AAm?$AAa?$AAt?$AAe?$AA3?$AA2?$AA?$AA@ 5f8a3d28  
 0002:0000ad48       ??_7CAnimateCtrl@@6B@      5f8a3d48  
 0002:0000ae0c       ??_7CRichEditCtrl@@6B@     5f8a3e0c  
 0002:0000aed0       ??_7CImageList@@6B@        5f8a3ed0  
 0002:0000aee8       ??_7CTempImageList@@6B@    5f8a3ee8  
 0002:0000af00       ?classCCheckListBox@CCheckListBox@@2UCRuntimeClass@@B 5f8a3f00  
 0002:0000af18       ??_C@_0O@KOFM@CCheckListBox?$AA@ 5f8a3f18  
 0002:0000af28       ?messageMap@CCheckListBox@@1UAFX_MSGMAP@@B 5f8a3f28  
 0002:0000af30       ?_messageEntries@CCheckListBox@@0QBUAFX_MSGMAP_ENTRY@@B 5f8a3f30  
 0002:0000b09c       ??_7CBitmap@@6B@           5f8a409c  
 0002:0000b0b4       ??_7_AFX_CHECKLIST_STATE@@6B@ 5f8a40b4  
 0002:0000b0b8       ?classCBitmapButton@CBitmapButton@@2UCRuntimeClass@@B 5f8a40b8  
 0002:0000b0d0       ??_C@_0O@FPOC@CBitmapButton?$AA@ 5f8a40d0  
 0002:0000b0e0       ??_C@_13LOIM@?$AAU?$AA?$AA@ 5f8a40e0  
 0002:0000b0e4       ??_C@_13MNPA@?$AAD?$AA?$AA@ 5f8a40e4  
 0002:0000b0e8       ??_C@_13GJNN@?$AAF?$AA?$AA@ 5f8a40e8  
 0002:0000b0ec       ??_C@_13DEHF@?$AAX?$AA?$AA@ 5f8a40ec  
 0002:0000b0f0       ??_C@_19JGFH@?$AAE?$AAd?$AAi?$AAt?$AA?$AA@ 5f8a40f0  
 0002:0000b0fc       ??_C@_19OFHG@?$AAH?$AAe?$AAl?$AAv?$AA?$AA@ 5f8a40fc  
 0002:0000b108       ??_C@_1BM@LDDO@?$AAM?$AAS?$AA?5?$AAS?$AAa?$AAn?$AAs?$AA?5?$AAS?$AAe?$AAr?$AAi?$AAf?$AA?$AA@ 5f8a4108  
 0002:0000b124       ??_C@_1BK@PLLM@?$AAM?$AAS?$AA?5?$AAS?$AAh?$AAe?$AAl?$AAl?$AA?5?$AAD?$AAl?$AAg?$AA?$AA@ 5f8a4124  
 0002:0000b140       ??_C@_17MFIG@?$AA?$CF?$AAh?$AAd?$AA?$AA@ 5f8a4140  
 0002:0000b148       ??_C@_17CGJG@?$AA?$CF?$AAs?$AAd?$AA?$AA@ 5f8a4148  
 0002:0000b150       __real@8@00000000000000000000 5f8a4150  
 0002:0000b158       ??_C@_19PPNN@?$AA?$CF?$AA?4?$AA?$CK?$AAg?$AA?$AA@ 5f8a4158  
 0002:0000b168       ?classCPropertySheetEx@CPropertySheetEx@@2UCRuntimeClass@@B 5f8a4168  
 0002:0000b180       ??_C@_0BB@NMHF@CPropertySheetEx?$AA@ 5f8a4180  
 0002:0000b198       ?classCPropertyPageEx@CPropertyPageEx@@2UCRuntimeClass@@B 5f8a4198  
 0002:0000b1b0       ??_C@_0BA@MOPN@CPropertyPageEx?$AA@ 5f8a41b0  
 0002:0000b1c0       ?classCPropertySheet@CPropertySheet@@2UCRuntimeClass@@B 5f8a41c0  
 0002:0000b1d8       ??_C@_0P@PIP@CPropertySheet?$AA@ 5f8a41d8  
 0002:0000b1e8       ?classCPropertyPage@CPropertyPage@@2UCRuntimeClass@@B 5f8a41e8  
 0002:0000b200       ??_C@_0O@DMH@CPropertyPage?$AA@ 5f8a4200  
 0002:0000b210       ?_afxPropSheetIDs@@3QBHB   5f8a4210  
 0002:0000b220       ?messageMap@CPropertySheet@@1UAFX_MSGMAP@@B 5f8a4220  
 0002:0000b228       ?_messageEntries@CPropertySheet@@0QBUAFX_MSGMAP_ENTRY@@B 5f8a4228  
 0002:0000b2e8       ?messageMap@CPropertyPage@@1UAFX_MSGMAP@@B 5f8a42e8  
 0002:0000b2f0       ?_messageEntries@CPropertyPage@@0QBUAFX_MSGMAP_ENTRY@@B 5f8a42f0  
 0002:0000b33c       ??_7CPropertyPage@@6B@     5f8a433c  
 0002:0000b438       ??_7CPropertySheet@@6B@    5f8a4438  
 0002:0000b508       ??_7CPropertyPageEx@@6B@   5f8a4508  
 0002:0000b604       ??_7CPropertySheetEx@@6B@  5f8a4604  
 0002:0000b6d0       ?classCFileDialog@CFileDialog@@2UCRuntimeClass@@B 5f8a46d0  
 0002:0000b6e8       ??_C@_0M@JEJA@CFileDialog?$AA@ 5f8a46e8  
 0002:0000b6f8       ??_7CFileDialog@@6B@       5f8a46f8  
 0002:0000b7f0       ??_7CCommonDialog@@6B@     5f8a47f0  
 0002:0000b8c8       ?classCPageSetupDialog@CPageSetupDialog@@2UCRuntimeClass@@B 5f8a48c8  
 0002:0000b8e0       ??_C@_0BB@KMEP@CPageSetupDialog?$AA@ 5f8a48e0  
 0002:0000b8f8       ??_7CPageSetupDialog@@6B@  5f8a48f8  
 0002:0000b9d8       ?classCColorDialog@CColorDialog@@2UCRuntimeClass@@B 5f8a49d8  
 0002:0000b9f0       ??_C@_0N@GCDM@CColorDialog?$AA@ 5f8a49f0  
 0002:0000ba00       ?messageMap@CColorDialog@@1UAFX_MSGMAP@@B 5f8a4a00  
 0002:0000ba08       ?_messageEntries@CColorDialog@@0QBUAFX_MSGMAP_ENTRY@@B 5f8a4a08  
 0002:0000ba3c       ??_7_AFX_COLOR_STATE@@6B@  5f8a4a3c  
 0002:0000ba44       ??_7CColorDialog@@6B@      5f8a4a44  
 0002:0000bb20       ?classCFontDialog@CFontDialog@@2UCRuntimeClass@@B 5f8a4b20  
 0002:0000bb38       ??_C@_0M@EOLC@CFontDialog?$AA@ 5f8a4b38  
 0002:0000bb48       ??_7CFontDialog@@6B@       5f8a4b48  
 0002:0000bc20       ?classCFindReplaceDialog@CFindReplaceDialog@@2UCRuntimeClass@@B 5f8a4c20  
 0002:0000bc38       ??_C@_0BD@HPIP@CFindReplaceDialog?$AA@ 5f8a4c38  
 0002:0000bc50       ??_7CFindReplaceDialog@@6B@ 5f8a4c50  
 0002:0000bd28       ??_C@_1BK@EOBE@?$AAM?$AAS?$AA?5?$AAU?$AAI?$AA?5?$AAG?$AAo?$AAt?$AAh?$AAi?$AAc?$AA?$AA@ 5f8a4d28  
 0002:0000bd44       ??_C@_0BJ@HDLP@GetUserDefaultUILanguage?$AA@ 5f8a4d44  
 0002:0000bd60       ??_C@_0N@MMAA@KERNEL32?4DLL?$AA@ 5f8a4d60  
 0002:0000bd74       ??_7_AFX_PROPPAGEFONTINFO@@6B@ 5f8a4d74  
 0002:0000bd78       ??_C@_1GK@FNIL@?$AAA?$AAB?$AAC?$AAD?$AAE?$AAF?$AAG?$AAH?$AAI?$AAJ?$AAK?$AAL?$AAM?$AAN?$AAO?$AAP?$AAQ?$AAR?$AAS?$AAT@ 5f8a4d78  
 0002:0000bde4       ??_C@_1O@KHFL@?$AAS?$AAy?$AAs?$AAt?$AAe?$AAm?$AA?$AA@ 5f8a4de4  
 0002:0000bdf8       ?classCReBarCtrl@CReBarCtrl@@2UCRuntimeClass@@B 5f8a4df8  
 0002:0000be10       ??_C@_0L@GONC@CReBarCtrl?$AA@ 5f8a4e10  
 0002:0000be20       ?classCIPAddressCtrl@CIPAddressCtrl@@2UCRuntimeClass@@B 5f8a4e20  
 0002:0000be38       ??_C@_0P@PBFM@CIPAddressCtrl?$AA@ 5f8a4e38  
 0002:0000be4c       ??_7CIPAddressCtrl@@6B@    5f8a4e4c  
 0002:0000bf0c       ??_C@_1BO@OJBJ@?$AAS?$AAy?$AAs?$AAI?$AAP?$AAA?$AAd?$AAd?$AAr?$AAe?$AAs?$AAs?$AA3?$AA2?$AA?$AA@ 5f8a4f0c  
 0002:0000bf2c       ??_C@_1BK@JEIN@?$AAC?$AAo?$AAm?$AAb?$AAo?$AAB?$AAo?$AAx?$AAE?$AAx?$AA3?$AA2?$AA?$AA@ 5f8a4f2c  
 0002:0000bf4c       ??_7CComboBoxEx@@6B@       5f8a4f4c  
 0002:0000c020       ?classCRgn@CRgn@@2UCRuntimeClass@@B 5f8a5020  
 0002:0000c038       ??_C@_04HJNG@CRgn?$AA@     5f8a5038  
 0002:0000c040       ?classCPalette@CPalette@@2UCRuntimeClass@@B 5f8a5040  
 0002:0000c058       ??_C@_08CIF@CPalette?$AA@  5f8a5058  
 0002:0000c068       ?classCBitmap@CBitmap@@2UCRuntimeClass@@B 5f8a5068  
 0002:0000c080       ??_C@_07HNEL@CBitmap?$AA@  5f8a5080  
 0002:0000c088       ?classCFont@CFont@@2UCRuntimeClass@@B 5f8a5088  
 0002:0000c0a0       ??_C@_05MCKJ@CFont?$AA@    5f8a50a0  
 0002:0000c0a8       ?classCBrush@CBrush@@2UCRuntimeClass@@B 5f8a50a8  
 0002:0000c0c0       ??_C@_06PNF@CBrush?$AA@    5f8a50c0  
 0002:0000c0c8       ?classCPen@CPen@@2UCRuntimeClass@@B 5f8a50c8  
 0002:0000c0e0       ??_C@_04PAKO@CPen?$AA@     5f8a50e0  
 0002:0000c0e8       ?classCGdiObject@CGdiObject@@2UCRuntimeClass@@B 5f8a50e8  
 0002:0000c100       ??_C@_0L@CNBG@CGdiObject?$AA@ 5f8a5100  
 0002:0000c110       ?classCPaintDC@CPaintDC@@2UCRuntimeClass@@B 5f8a5110  
 0002:0000c128       ??_C@_08HFDK@CPaintDC?$AA@ 5f8a5128  
 0002:0000c138       ?classCWindowDC@CWindowDC@@2UCRuntimeClass@@B 5f8a5138  
 0002:0000c150       ??_C@_09NFPO@CWindowDC?$AA@ 5f8a5150  
 0002:0000c160       ?classCClientDC@CClientDC@@2UCRuntimeClass@@B 5f8a5160  
 0002:0000c178       ??_C@_09HIEC@CClientDC?$AA@ 5f8a5178  
 0002:0000c188       ?classCDC@CDC@@2UCRuntimeClass@@B 5f8a5188  
 0002:0000c1a0       ??_C@_03NJOH@CDC?$AA@      5f8a51a0  
 0002:0000c1a8       ?classCUserException@CUserException@@2UCRuntimeClass@@B 5f8a51a8  
 0002:0000c1c0       ??_C@_0P@BHHD@CUserException?$AA@ 5f8a51c0  
 0002:0000c1d0       ?classCResourceException@CResourceException@@2UCRuntimeClass@@B 5f8a51d0  
 0002:0000c1e8       ??_C@_0BD@GMHI@CResourceException?$AA@ 5f8a51e8  
 0002:0000c1fc       ??_C@_09EBEO@GetLayout?$AA@ 5f8a51fc  
 0002:0000c208       ??_C@_09JDFO@GDI32?4DLL?$AA@ 5f8a5208  
 0002:0000c214       ??_C@_09GMOM@SetLayout?$AA@ 5f8a5214  
 0002:0000c224       ??_7CPen@@6B@              5f8a5224  
 0002:0000c238       ?classCMenu@CMenu@@2UCRuntimeClass@@B 5f8a5238  
 0002:0000c250       ??_C@_05BJMA@CMenu?$AA@    5f8a5250  
 0002:0000c258       ??_C@_1BC@EMPM@?$AAc?$AAo?$AAm?$AAb?$AAo?$AAb?$AAo?$AAx?$AA?$AA@ 5f8a5258  
 0002:0000c26c       ?_afxDot@@3QBEB            5f8a526c  
 0002:0000c278       ?dispatchMap@CCmdTarget@@1UAFX_DISPMAP@@B 5f8a5278  
 0002:0000c288       ?_dispatchEntries@CCmdTarget@@0QBUAFX_DISPMAP_ENTRY@@B 5f8a5288  
 0002:0000c2a8       ?eventsinkMap@CCmdTarget@@1UAFX_EVENTSINKMAP@@B 5f8a52a8  
 0002:0000c2b8       ?_eventsinkEntries@CCmdTarget@@0QBUAFX_EVENTSINKMAP_ENTRY@@B 5f8a52b8  
 0002:0000c2e0       ?connectionMap@CCmdTarget@@1UAFX_CONNECTIONMAP@@B 5f8a52e0  
 0002:0000c2e8       ?_connectionEntries@CCmdTarget@@0QBUAFX_CONNECTIONMAP_ENTRY@@B 5f8a52e8  
 0002:0000c2f0       ?commandMap@CCmdTarget@@1UAFX_OLECMDMAP@@B 5f8a52f0  
 0002:0000c2f8       ?_commandEntries@CCmdTarget@@0QBUAFX_OLECMDMAP_ENTRY@@B 5f8a52f8  
 0002:0000c308       ?classCDocument@CDocument@@2UCRuntimeClass@@B 5f8a5308  
 0002:0000c320       ??_C@_09IIIN@CDocument?$AA@ 5f8a5320  
 0002:0000c32c       ??_C@_1O@OEBA@?$AA?5?$AA?$CD?$AA?$CF?$AA?$DL?$AA?1?$AA?2?$AA?$AA@ 5f8a532c  
 0002:0000c33c       ??_C@_17PPBM@?$AAM?$AAF?$AAC?$AA?$AA@ 5f8a533c  
 0002:0000c344       ??_C@_0M@JIL@ReplaceFile?$AA@ 5f8a5344  
 0002:0000c350       ??_C@_08OBID@KERNEL32?$AA@ 5f8a5350  
 0002:0000c360       ??_7CMirrorFile@@6B@       5f8a5360  
 0002:0000c3c0       ?classCDocTemplate@CDocTemplate@@2UCRuntimeClass@@B 5f8a53c0  
 0002:0000c3d8       ??_C@_0N@BKAE@CDocTemplate?$AA@ 5f8a53d8  
 0002:0000c3e8       ?classCSingleDocTemplate@CSingleDocTemplate@@2UCRuntimeClass@@B 5f8a53e8  
 0002:0000c400       ??_C@_0BD@BIBJ@CSingleDocTemplate?$AA@ 5f8a5400  
 0002:0000c418       ?classCMultiDocTemplate@CMultiDocTemplate@@2UCRuntimeClass@@B 5f8a5418  
 0002:0000c430       ??_C@_0BC@HJJP@CMultiDocTemplate?$AA@ 5f8a5430  
 0002:0000c448       ?classCDocManager@CDocManager@@2UCRuntimeClass@@B 5f8a5448  
 0002:0000c460       ??_C@_0M@FJOK@CDocManager?$AA@ 5f8a5460  
 0002:0000c470       ?messageMap@CNewTypeDlg@@1UAFX_MSGMAP@@B 5f8a5470  
 0002:0000c478       ?_messageEntries@CNewTypeDlg@@0QBUAFX_MSGMAP_ENTRY@@B 5f8a5478  
 0002:0000c4a8       ?_afxPrintToArg@@3QBGB     5f8a54a8  
 0002:0000c4dc       ?_afxPrintArg@@3QBGB       5f8a54dc  
 0002:0000c4f0       ?_afxOpenArg@@3QBGB        5f8a54f0  
 0002:0000c4fc       ??_C@_17EICA@?$AA?$CK?$AA?4?$AA?$CK?$AA?$AA@ 5f8a54fc  
 0002:0000c504       ??_C@_17OMHC@?$AA?$CC?$AA?0?$AA?$CC?$AA?$AA@ 5f8a5504  
 0002:0000c50c       ??_C@_1BG@LIGO@?$AA?$FL?$AAp?$AAr?$AAi?$AAn?$AAt?$AAt?$AAo?$AA?$CI?$AA?$CC?$AA?$AA@ 5f8a550c  
 0002:0000c524       ??_C@_1BC@CMHH@?$AA?$FL?$AAp?$AAr?$AAi?$AAn?$AAt?$AA?$CI?$AA?$CC?$AA?$AA@ 5f8a5524  
 0002:0000c538       ??_C@_1BA@NGLM@?$AA?$FL?$AAo?$AAp?$AAe?$AAn?$AA?$CI?$AA?$CC?$AA?$AA@ 5f8a5538  
 0002:0000c54c       ??_7CNewTypeDlg@@6B@       5f8a554c  
 0002:0000c628       ?classCScrollView@CScrollView@@2UCRuntimeClass@@B 5f8a5628  
 0002:0000c640       ??_C@_0M@DAH@CScrollView?$AA@ 5f8a5640  
 0002:0000c650       ?sizeDefault@CScrollView@@2UtagSIZE@@B 5f8a5650  
 0002:0000c658       ?messageMap@CScrollView@@1UAFX_MSGMAP@@B 5f8a5658  
 0002:0000c660       ?_messageEntries@CScrollView@@0QBUAFX_MSGMAP_ENTRY@@B 5f8a5660  
 0002:0000c6d8       ??_C@_1O@JDNM@?$AAM?$AAo?$AAu?$AAs?$AAe?$AAZ?$AA?$AA@ 5f8a56d8  
 0002:0000c6e8       ??_C@_1CC@LAMD@?$AAM?$AAa?$AAg?$AAe?$AAl?$AAl?$AAa?$AAn?$AA?5?$AAM?$AAS?$AAW?$AAH?$AAE?$AAE?$AAL?$AA?$AA@ 5f8a56e8  
 0002:0000c70c       ??_C@_1CC@BFDC@?$AAW?$AAh?$AAe?$AAe?$AAl?$AAS?$AAc?$AAr?$AAo?$AAl?$AAl?$AAL?$AAi?$AAn?$AAe?$AAs?$AA?$AA@ 5f8a570c  
 0002:0000c730       ??_C@_1CM@EIGA@?$AAC?$AAo?$AAn?$AAt?$AAr?$AAo?$AAl?$AA?5?$AAP?$AAa?$AAn?$AAe?$AAl?$AA?2?$AAD?$AAe?$AAs?$AAk?$AAt?$AAo@ 5f8a5730  
 0002:0000c75c       ??_C@_1CK@GMOB@?$AAM?$AAS?$AAH?$AA_?$AAS?$AAC?$AAR?$AAO?$AAL?$AAL?$AA_?$AAL?$AAI?$AAN?$AAE?$AAS?$AA_?$AAM?$AAS?$AAG@ 5f8a575c  
 0002:0000c788       ?classCFormView@CFormView@@2UCRuntimeClass@@B 5f8a5788  
 0002:0000c7a0       ??_C@_09MHPF@CFormView?$AA@ 5f8a57a0  
 0002:0000c7b0       ?messageMap@CFormView@@1UAFX_MSGMAP@@B 5f8a57b0  
 0002:0000c7b8       ?_messageEntries@CFormView@@0QBUAFX_MSGMAP_ENTRY@@B 5f8a57b8  
 0002:0000c834       ??_7CFormView@@6B@         5f8a5834  
 0002:0000c948       ?classCEditView@CEditView@@2UCRuntimeClass@@B 5f8a5948  
 0002:0000c960       ??_C@_09PCCM@CEditView?$AA@ 5f8a5960  
 0002:0000c96c       ?dwStyleDefault@CEditView@@2KB 5f8a596c  
 0002:0000c970       ?nMaxSize@CEditView@@2IB   5f8a5970  
 0002:0000c978       ?messageMap@CEditView@@1UAFX_MSGMAP@@B 5f8a5978  
 0002:0000c980       ?_messageEntries@CEditView@@0QBUAFX_MSGMAP_ENTRY@@B 5f8a5980  
 0002:0000cbf4       ??_7CEditView@@6B@         5f8a5bf4  
 0002:0000cd18       ??_C@_1CI@IJEE@?$AAL?$AAu?$AAc?$AAi?$AAd?$AAa?$AA?5?$AAS?$AAa?$AAn?$AAs?$AA?5?$AAU?$AAn?$AAi?$AAc?$AAo?$AAd?$AAe?$AA?$AA@ 5f8a5d18  
 0002:0000cd40       ??_C@_13MCKD@?$AA?7?$AA?$AA@ 5f8a5d40  
 0002:0000cd48       ?classCPreviewView@CPreviewView@@2UCRuntimeClass@@B 5f8a5d48  
 0002:0000cd60       ??_C@_0N@LOLK@CPreviewView?$AA@ 5f8a5d60  
 0002:0000cd70       ?messageMap@CPreviewView@@1UAFX_MSGMAP@@B 5f8a5d70  
 0002:0000cd78       ?_messageEntries@CPreviewView@@0QBUAFX_MSGMAP_ENTRY@@B 5f8a5d78  
 0002:0000cf5c       ??_7CPreviewView@@6B@      5f8a5f5c  
 0002:0000d078       ?classCTreeView@CTreeView@@2UCRuntimeClass@@B 5f8a6078  
 0002:0000d090       ??_C@_09GPDN@CTreeView?$AA@ 5f8a6090  
 0002:0000d0a0       ?classCListView@CListView@@2UCRuntimeClass@@B 5f8a60a0  
 0002:0000d0b8       ??_C@_09MHFL@CListView?$AA@ 5f8a60b8  
 0002:0000d0c8       ?messageMap@CTreeView@@1UAFX_MSGMAP@@B 5f8a60c8  
 0002:0000d0d0       ?_messageEntries@CTreeView@@0QBUAFX_MSGMAP_ENTRY@@B 5f8a60d0  
 0002:0000d100       ?messageMap@CListView@@1UAFX_MSGMAP@@B 5f8a6100  
 0002:0000d108       ?_messageEntries@CListView@@0QBUAFX_MSGMAP_ENTRY@@B 5f8a6108  
 0002:0000d13c       ??_7CListView@@6B@         5f8a613c  
 0002:0000d254       ??_7CTreeView@@6B@         5f8a6254  
 0002:0000d368       ??_7_AFX_MAIL_STATE@@6B@   5f8a6368  
 0002:0000d36c       ??_C@_17OCMI@?$AAa?$AAf?$AAx?$AA?$AA@ 5f8a636c  
 0002:0000d374       ??_C@_0N@HFFA@MAPISendMail?$AA@ 5f8a6374  
 0002:0000d384       ??_C@_0L@ICPG@MAPI32?4DLL?$AA@ 5f8a6384  
 0002:0000d390       ?classCWinThread@CWinThread@@2UCRuntimeClass@@B 5f8a6390  
 0002:0000d3a8       ??_C@_0L@BKIL@CWinThread?$AA@ 5f8a63a8  
 0002:0000d3b8       ?classCWinApp@CWinApp@@2UCRuntimeClass@@B 5f8a63b8  
 0002:0000d3d0       ??_C@_07DHEF@CWinApp?$AA@  5f8a63d0  
 0002:0000d3d8       ?messageMap@CWinApp@@1UAFX_MSGMAP@@B 5f8a63d8  
 0002:0000d3e0       ?_messageEntries@CWinApp@@0QBUAFX_MSGMAP_ENTRY@@B 5f8a63e0  
 0002:0000d440       ??_C@_0L@POJA@Automation?$AA@ 5f8a6440  
 0002:0000d44c       ??_C@_09LHIP@Embedding?$AA@ 5f8a644c  
 0002:0000d458       ??_C@_03FNJD@dde?$AA@      5f8a6458  
 0002:0000d45c       ??_C@_0M@HIDL@Unregserver?$AA@ 5f8a645c  
 0002:0000d468       ??_C@_0L@MNBE@Unregister?$AA@ 5f8a6468  
 0002:0000d474       ??_C@_01FOFA@p?$AA@        5f8a6474  
 0002:0000d476       ??_C@_02OBFC@pt?$AA@       5f8a6476  
 0002:0000d47c       ??_C@_13HMCP@?$AA?2?$AA?$AA@ 5f8a647c  
 0002:0000d480       ??_C@_1BE@JFBP@?$AAS?$AAo?$AAf?$AAt?$AAw?$AAa?$AAr?$AAe?$AA?2?$AA?$AA@ 5f8a6480  
 0002:0000d494       ??_C@_0M@PMCB@CTL3D32?4DLL?$AA@ 5f8a6494  
 0002:0000d4a0       ??_C@_19BHME@?$AA?2?$AA?4?$AA?4?$AA?4?$AA?$AA@ 5f8a64a0  
 0002:0000d4b0       ?classCGopherFileFind@CGopherFileFind@@2UCRuntimeClass@@B 5f8a64b0  
 0002:0000d4c8       ??_C@_0BA@FPGB@CGopherFileFind?$AA@ 5f8a64c8  
 0002:0000d4d8       ?classCFtpFileFind@CFtpFileFind@@2UCRuntimeClass@@B 5f8a64d8  
 0002:0000d4f0       ??_C@_0N@NGMH@CFtpFileFind?$AA@ 5f8a64f0  
 0002:0000d500       ?classCGopherConnection@CGopherConnection@@2UCRuntimeClass@@B 5f8a6500  
 0002:0000d518       ??_C@_0BC@JCEC@CGopherConnection?$AA@ 5f8a6518  
 0002:0000d530       ?classCHttpConnection@CHttpConnection@@2UCRuntimeClass@@B 5f8a6530  
 0002:0000d548       ??_C@_0BA@OLNH@CHttpConnection?$AA@ 5f8a6548  
 0002:0000d558       ?classCFtpConnection@CFtpConnection@@2UCRuntimeClass@@B 5f8a6558  
 0002:0000d570       ??_C@_0P@HPOD@CFtpConnection?$AA@ 5f8a6570  
 0002:0000d580       ?classCInternetConnection@CInternetConnection@@2UCRuntimeClass@@B 5f8a6580  
 0002:0000d598       ??_C@_0BE@NNFJ@CInternetConnection?$AA@ 5f8a6598  
 0002:0000d5b0       ?classCInternetSession@CInternetSession@@2UCRuntimeClass@@B 5f8a65b0  
 0002:0000d5c8       ??_C@_0BB@BEAH@CInternetSession?$AA@ 5f8a65c8  
 0002:0000d5e0       ?classCGopherFile@CGopherFile@@2UCRuntimeClass@@B 5f8a65e0  
 0002:0000d5f8       ??_C@_0M@HDHO@CGopherFile?$AA@ 5f8a65f8  
 0002:0000d608       ?classCHttpFile@CHttpFile@@2UCRuntimeClass@@B 5f8a6608  
 0002:0000d620       ??_C@_09IMKB@CHttpFile?$AA@ 5f8a6620  
 0002:0000d630       ?classCInternetFile@CInternetFile@@2UCRuntimeClass@@B 5f8a6630  
 0002:0000d648       ??_C@_0O@FDJM@CInternetFile?$AA@ 5f8a6648  
 0002:0000d658       ?classCInternetException@CInternetException@@2UCRuntimeClass@@B 5f8a6658  
 0002:0000d670       ??_C@_0BD@EMID@CInternetException?$AA@ 5f8a6670  
 0002:0000d684       ?szHtmlVerbs@CHttpConnection@@1QBQBGB 5f8a6684  
 0002:0000d6a0       ??_C@_1O@IMGP@?$AAU?$AAN?$AAL?$AAI?$AAN?$AAK?$AA?$AA@ 5f8a66a0  
 0002:0000d6b0       ??_C@_1O@FBDO@?$AAD?$AAE?$AAL?$AAE?$AAT?$AAE?$AA?$AA@ 5f8a66b0  
 0002:0000d6c0       ??_C@_19FNLP@?$AAL?$AAI?$AAN?$AAK?$AA?$AA@ 5f8a66c0  
 0002:0000d6cc       ??_C@_17ILBJ@?$AAP?$AAU?$AAT?$AA?$AA@ 5f8a66cc  
 0002:0000d6d4       ??_C@_19NFGA@?$AAH?$AAE?$AAA?$AAD?$AA?$AA@ 5f8a66d4  
 0002:0000d6e0       ??_C@_17KJPO@?$AAG?$AAE?$AAT?$AA?$AA@ 5f8a66e0  
 0002:0000d6e8       ??_C@_19KJFA@?$AAP?$AAO?$AAS?$AAT?$AA?$AA@ 5f8a66e8  
 0002:0000d6f4       ?_afxURLhttp@@3QBGB        5f8a66f4  
 0002:0000d704       ?_afxURLftp@@3QBGB         5f8a6704  
 0002:0000d718       ??_7CInternetSession@@6B@  5f8a6718  
 0002:0000d738       ??_7CInternetFile@@6B@     5f8a6738  
 0002:0000d7a4       ??_7CInternetConnection@@6B@ 5f8a67a4  
 0002:0000d7c0       ??_7CFtpConnection@@6B@    5f8a67c0  
 0002:0000d7dc       ??_7CGopherConnection@@6B@ 5f8a67dc  
 0002:0000d7f8       ??_7CHttpConnection@@6B@   5f8a67f8  
 0002:0000d810       ??_C@_1BC@IFNG@?$AAH?$AAT?$AAT?$AAP?$AA?1?$AA1?$AA?4?$AA0?$AA?$AA@ 5f8a6810  
 0002:0000d828       ??_7CHttpFile@@6B@         5f8a6828  
 0002:0000d898       ??_7CGopherFile@@6B@       5f8a6898  
 0002:0000d904       ??_7CFtpFileFind@@6B@      5f8a6904  
 0002:0000d958       ??_C@_15OGLP@?$AA?2?$AA?1?$AA?$AA@ 5f8a6958  
 0002:0000d960       ??_C@_13HGEN@?$AA?$CK?$AA?$AA@ 5f8a6960  
 0002:0000d968       ??_7CGopherFileFind@@6B@   5f8a6968  
 0002:0000d9cc       ??_7CGopherLocator@@6B@    5f8a69cc  
 0002:0000d9e0       ??_C@_0M@KFA@WININET?4DLL?$AA@ 5f8a69e0  
 0002:0000d9f0       ??_7CInternetException@@6B@ 5f8a69f0  
 0002:0000da10       ?classCFileFind@CFileFind@@2UCRuntimeClass@@B 5f8a6a10  
 0002:0000da28       ??_C@_09CGCC@CFileFind?$AA@ 5f8a6a28  
 0002:0000da38       ??_7CFileFind@@6B@         5f8a6a38  
 0002:0000da8c       ??_C@_07LDFI@file?3?1?1?$AA@ 5f8a6a8c  
 0002:0000da98       ?classCSocketFile@CSocketFile@@2UCRuntimeClass@@B 5f8a6a98  
 0002:0000dab0       ??_C@_0M@FJKI@CSocketFile?$AA@ 5f8a6ab0  
 0002:0000dac0       ?classCSocket@CSocket@@2UCRuntimeClass@@B 5f8a6ac0  
 0002:0000dad8       ??_C@_07MBCI@CSocket?$AA@  5f8a6ad8  
 0002:0000dae0       ?classCAsyncSocket@CAsyncSocket@@2UCRuntimeClass@@B 5f8a6ae0  
 0002:0000daf8       ??_C@_0N@CCKH@CAsyncSocket?$AA@ 5f8a6af8  
 0002:0000db08       ?messageMap@CSocketWnd@@1UAFX_MSGMAP@@B 5f8a6b08  
 0002:0000db10       ?_messageEntries@CSocketWnd@@0QBUAFX_MSGMAP_ENTRY@@B 5f8a6b10  
 0002:0000db5c       ??_7_AFX_SOCK_STATE@@6B@   5f8a6b5c  
 0002:0000db64       ??_7CAsyncSocket@@6B@      5f8a6b64  
 0002:0000dbac       ??_C@_1DC@CDHD@?$AAS?$AAo?$AAc?$AAk?$AAe?$AAt?$AA?5?$AAN?$AAo?$AAt?$AAi?$AAf?$AAi?$AAc?$AAa?$AAt?$AAi?$AAo?$AAn?$AA?5@ 5f8a6bac  
 0002:0000dbe4       ??_7CSocket@@6B@           5f8a6be4  
 0002:0000dc38       ??_7CSocketFile@@6B@       5f8a6c38  
 0002:0000dc98       ??_7CSocketWnd@@6B@        5f8a6c98  
 0002:0000dd58       ?classCOleLinkingDoc@COleLinkingDoc@@2UCRuntimeClass@@B 5f8a6d58  
 0002:0000dd70       ??_C@_0P@EIOM@COleLinkingDoc?$AA@ 5f8a6d70  
 0002:0000dd80       ?interfaceMap@COleClientItem@@1UAFX_INTERFACEMAP@@B 5f8a6d80  
 0002:0000dd88       ?_interfaceEntries@COleClientItem@@0QBUAFX_INTERFACEMAP_ENTRY@@B 5f8a6d88  
 0002:0000ddb4       ??_7COleClientItem@@6B@    5f8a6db4  
 0002:0000dea0       ??_7XOleIPSite@COleClientItem@@6B@ 5f8a6ea0  
 0002:0000dee0       ??_7XAdviseSink@COleClientItem@@6B@ 5f8a6ee0  
 0002:0000df04       ??_7XOleClientSite@COleClientItem@@6B@ 5f8a6f04  
 0002:0000df28       ??_C@_1BM@EINE@?$AAE?$AAm?$AAb?$AAe?$AAd?$AAd?$AAi?$AAn?$AAg?$AA?5?$AA?$CF?$AAl?$AAu?$AA?$AA@ 5f8a6f28  
 0002:0000df44       ??_C@_1BI@FPKN@?$AAD?$AAo?$AAc?$AAS?$AAh?$AAo?$AAr?$AAt?$AAc?$AAu?$AAt?$AA?$AA@ 5f8a6f44  
 0002:0000df5c       ??_C@_1BI@EMMJ@?$AAD?$AAe?$AAf?$AAa?$AAu?$AAl?$AAt?$AAI?$AAc?$AAo?$AAn?$AA?$AA@ 5f8a6f5c  
 0002:0000df74       ??_C@_1M@MDBL@?$AAc?$AAl?$AAs?$AAi?$AAd?$AA?$AA@ 5f8a6f74  
 0002:0000df80       ?interfaceMap@COleFrameHook@@1UAFX_INTERFACEMAP@@B 5f8a6f80  
 0002:0000df88       ?_interfaceEntries@COleFrameHook@@0QBUAFX_INTERFACEMAP_ENTRY@@B 5f8a6f88  
 0002:0000dfac       ??_7COleFrameHook@@6B@     5f8a6fac  
 0002:0000e038       ??_7XOleCommandTarget@COleFrameHook@@6B@ 5f8a7038  
 0002:0000e050       ??_7XOleInPlaceFrame@COleFrameHook@@6B@ 5f8a7050  
 0002:0000e090       ?interfaceMap@COleDataSource@@1UAFX_INTERFACEMAP@@B 5f8a7090  
 0002:0000e098       ?_interfaceEntries@COleDataSource@@0QBUAFX_INTERFACEMAP_ENTRY@@B 5f8a7098  
 0002:0000e0a8       ?interfaceMap@CEnumFormatEtc@@1UAFX_INTERFACEMAP@@B 5f8a70a8  
 0002:0000e0b0       ?_interfaceEntries@CEnumFormatEtc@@0QBUAFX_INTERFACEMAP_ENTRY@@B 5f8a70b0  
 0002:0000e0c4       ??_7COleDataSource@@6B@    5f8a70c4  
 0002:0000e130       ??_7XDataObject@COleDataSource@@6B@ 5f8a7130  
 0002:0000e164       ??_7CEnumFormatEtc@@6B@    5f8a7164  
 0002:0000e1d0       ?classCOleDispatchException@COleDispatchException@@2UCRuntimeClass@@B 5f8a71d0  
 0002:0000e1e8       ??_C@_0BG@OGI@COleDispatchException?$AA@ 5f8a71e8  
 0002:0000e204       ??_7COleDispatchException@@6B@ 5f8a7204  
 0002:0000e220       ?classCOlePasteSpecialDialog@COlePasteSpecialDialog@@2UCRuntimeClass@@B 5f8a7220  
 0002:0000e238       ??_C@_0BH@NAFF@COlePasteSpecialDialog?$AA@ 5f8a7238  
 0002:0000e250       ?classCOleUpdateDialog@COleUpdateDialog@@2UCRuntimeClass@@B 5f8a7250  
 0002:0000e268       ??_C@_0BB@HGD@COleUpdateDialog?$AA@ 5f8a7268  
 0002:0000e280       ?classCOleLinksDialog@COleLinksDialog@@2UCRuntimeClass@@B 5f8a7280  
 0002:0000e298       ??_C@_0BA@PIHM@COleLinksDialog?$AA@ 5f8a7298  
 0002:0000e2a8       ?classCOleChangeIconDialog@COleChangeIconDialog@@2UCRuntimeClass@@B 5f8a72a8  
 0002:0000e2c0       ??_C@_0BF@JMPM@COleChangeIconDialog?$AA@ 5f8a72c0  
 0002:0000e2d8       ?classCOleConvertDialog@COleConvertDialog@@2UCRuntimeClass@@B 5f8a72d8  
 0002:0000e2f0       ??_C@_0BC@CIPN@COleConvertDialog?$AA@ 5f8a72f0  
 0002:0000e308       ?classCOleInsertDialog@COleInsertDialog@@2UCRuntimeClass@@B 5f8a7308  
 0002:0000e320       ??_C@_0BB@KPPE@COleInsertDialog?$AA@ 5f8a7320  
 0002:0000e338       ??_7COleInsertDialog@@6B@  5f8a7338  
 0002:0000e410       ??_C@_1CG@POCI@?$AAC?$AAL?$AAS?$AAI?$AAD?$AA?2?$AA?$CF?$AAs?$AA?2?$AAD?$AAo?$AAc?$AAO?$AAb?$AAj?$AAe?$AAc?$AAt?$AA?$AA@ 5f8a7410  
 0002:0000e438       ??_C@_1BE@ILGK@?$AAD?$AAo?$AAc?$AAO?$AAb?$AAj?$AAe?$AAc?$AAt?$AA?$AA@ 5f8a7438  
 0002:0000e44c       ??_C@_1BE@NGOH@?$AAO?$AAl?$AAe?$AA1?$AAC?$AAl?$AAa?$AAs?$AAs?$AA?$AA@ 5f8a744c  
 0002:0000e460       ??_C@_1BG@HHA@?$AAI?$AAn?$AAs?$AAe?$AAr?$AAt?$AAa?$AAb?$AAl?$AAe?$AA?$AA@ 5f8a7460  
 0002:0000e47c       ??_7COleConvertDialog@@6B@ 5f8a747c  
 0002:0000e558       ??_7COleChangeIconDialog@@6B@ 5f8a7558  
 0002:0000e634       ??_7COlePasteSpecialDialog@@6B@ 5f8a7634  
 0002:0000e710       ?classCOleBusyDialog@COleBusyDialog@@2UCRuntimeClass@@B 5f8a7710  
 0002:0000e728       ??_C@_0P@CLOH@COleBusyDialog?$AA@ 5f8a7728  
 0002:0000e738       ?classCOleDialog@COleDialog@@2UCRuntimeClass@@B 5f8a7738  
 0002:0000e750       ??_C@_0L@HMIO@COleDialog?$AA@ 5f8a7750  
 0002:0000e760       ??_7COleBusyDialog@@6B@    5f8a7760  
 0002:0000e838       ?classCOleChangeSourceDialog@COleChangeSourceDialog@@2UCRuntimeClass@@B 5f8a7838  
 0002:0000e850       ??_C@_0BH@HBLJ@COleChangeSourceDialog?$AA@ 5f8a7850  
 0002:0000e868       ?classCOlePropertiesDialog@COlePropertiesDialog@@2UCRuntimeClass@@B 5f8a7868  
 0002:0000e880       ??_C@_0BF@IDJJ@COlePropertiesDialog?$AA@ 5f8a7880  
 0002:0000e89c       ??_7COlePropertiesDialog@@6B@ 5f8a789c  
 0002:0000e97c       ??_7XOleUIObjInfo@COlePropertiesDialog@@6B@ 5f8a797c  
 0002:0000e99c       ??_C@_15DEDE@?$AA?$CF?$AAs?$AA?$AA@ 5f8a799c  
 0002:0000e9a8       ??_7COleChangeSourceDialog@@6B@ 5f8a79a8  
 0002:0000ea80       __real@8@3ffb8000000000000000 5f8a7a80  
 0002:0000ea88       __real@4@3ffb8000000000000000 5f8a7a88  
 0002:0000ea90       __real@8@3feec22e450672894800 5f8a7a90  
 0002:0000ea98       __real@8@400fa8c0000000000000 5f8a7a98  
 0002:0000eaa0       __real@8@bfedc22e450672894800 5f8a7aa0  
 0002:0000eaa8       __real@8@3fedc22e450672894800 5f8a7aa8  
 0002:0000eab0       __real@8@c012a081a00000000000 5f8a7ab0  
 0002:0000eab8       __real@8@4014b492040000000000 5f8a7ab8  
 0002:0000eac0       __real@8@bfff8000000000000000 5f8a7ac0  
 0002:0000eac8       __real@8@4003c000000000000000 5f8a7ac8  
 0002:0000ead0       __real@8@4004f000000000000000 5f8a7ad0  
 0002:0000ead8       __real@8@4009b400000000000000 5f8a7ad8  
 0002:0000eae0       __real@8@3ffaaaaaaaaaaaaaa800 5f8a7ae0  
 0002:0000eae8       __real@8@3ff4b60b60b60b60b800 5f8a7ae8  
 0002:0000eaf0       __real@8@4014dcb2640000000000 5f8a7af0  
 0002:0000eaf8       __real@8@c014dcb2640000000000 5f8a7af8  
 0002:0000eb00       ?classCOleDocument@COleDocument@@2UCRuntimeClass@@B 5f8a7b00  
 0002:0000eb18       ??_C@_0N@KLEF@COleDocument?$AA@ 5f8a7b18  
 0002:0000eb28       ??_C@_1BC@DBBK@?$AAC?$AAo?$AAn?$AAt?$AAe?$AAn?$AAt?$AAs?$AA?$AA@ 5f8a7b28  
 0002:0000eb40       ??_7CDocItem@@6B@          5f8a7b40  
 0002:0000eba0       ?interfaceMap@COleDropSource@@1UAFX_INTERFACEMAP@@B 5f8a7ba0  
 0002:0000eba8       ?_interfaceEntries@COleDropSource@@0QBUAFX_INTERFACEMAP_ENTRY@@B 5f8a7ba8  
 0002:0000ebf8       ??_7COleDropSource@@6B@    5f8a7bf8  
 0002:0000ec60       ??_7XDropSource@COleDropSource@@6B@ 5f8a7c60  
 0002:0000ec78       ?interfaceMap@COleMessageFilter@@1UAFX_INTERFACEMAP@@B 5f8a7c78  
 0002:0000ec80       ?_interfaceEntries@COleMessageFilter@@0QBUAFX_INTERFACEMAP_ENTRY@@B 5f8a7c80  
 0002:0000ec90       ?_afxSignificantMsgs@@3QBIB 5f8a7c90  
 0002:0000ecd0       ??_7CEnumArray@@6B@        5f8a7cd0  
 0002:0000ed3c       ??_7XEnumVOID@CEnumArray@@6B@ 5f8a7d3c  
 0002:0000ed58       ?classCOleIPFrameWnd@COleIPFrameWnd@@2UCRuntimeClass@@B 5f8a7d58  
 0002:0000ed70       ??_C@_0P@CBLJ@COleIPFrameWnd?$AA@ 5f8a7d70  
 0002:0000ed80       ?messageMap@COleIPFrameWnd@@1UAFX_MSGMAP@@B 5f8a7d80  
 0002:0000ed88       ?_messageEntries@COleIPFrameWnd@@0QBUAFX_MSGMAP_ENTRY@@B 5f8a7d88  
 0002:0000eec4       ??_7COleCntrFrameWnd@@6B@  5f8a7ec4  
 0002:0000efc4       ??_7COleIPFrameWnd@@6B@    5f8a7fc4  
 0002:0000f0e0       ?classCOleException@COleException@@2UCRuntimeClass@@B 5f8a80e0  
 0002:0000f0f8       ??_C@_0O@EEPE@COleException?$AA@ 5f8a80f8  
 0002:0000f10c       ??_7COleException@@6B@     5f8a810c  
 0002:0000f128       ?classCOleStreamFile@COleStreamFile@@2UCRuntimeClass@@B 5f8a8128  
 0002:0000f140       ??_C@_0P@CGBG@COleStreamFile?$AA@ 5f8a8140  
 0002:0000f154       ??_7COleStreamFile@@6B@    5f8a8154  
 0002:0000f1b8       ?classCOleServerDoc@COleServerDoc@@2UCRuntimeClass@@B 5f8a81b8  
 0002:0000f1d0       ??_C@_0O@ELE@COleServerDoc?$AA@ 5f8a81d0  
 0002:0000f1e0       ?messageMap@COleServerDoc@@1UAFX_MSGMAP@@B 5f8a81e0  
 0002:0000f1e8       ?_messageEntries@COleServerDoc@@0QBUAFX_MSGMAP_ENTRY@@B 5f8a81e8  
 0002:0000f260       ?interfaceMap@COleServerItem@@1UAFX_INTERFACEMAP@@B 5f8a8260  
 0002:0000f268       ?_interfaceEntries@COleServerItem@@0QBUAFX_INTERFACEMAP_ENTRY@@B 5f8a8268  
 0002:0000f284       ??_7COleServerItem@@6B@    5f8a8284  
 0002:0000f334       ??_7XDataObject@COleServerItem@@6B@ 5f8a8334  
 0002:0000f368       ??_7XOleObject@COleServerItem@@6B@ 5f8a8368  
 0002:0000f3cc       ??_7CItemDataSource@COleServerItem@@6B@ 5f8a83cc  
 0002:0000f4c4       ??_7CInnerUnknown@@6B@     5f8a84c4  
 0002:0000f4d0       ?interfaceMap@CEnumOleVerb@@1UAFX_INTERFACEMAP@@B 5f8a84d0  
 0002:0000f4d8       ?_interfaceEntries@CEnumOleVerb@@0QBUAFX_INTERFACEMAP_ENTRY@@B 5f8a84d8  
 0002:0000f4ec       ??_7CEnumOleVerb@@6B@      5f8a84ec  
 0002:0000f554       ??_C@_1BO@JDJE@?$AA?$DM?$AAu?$AAn?$AAk?$AAn?$AAo?$AAw?$AAn?$AA?5?$AAv?$AAe?$AAr?$AAb?$AA?$DO?$AA?$AA@ 5f8a8554  
 0002:0000f578       ?classCRichEditDoc@CRichEditDoc@@2UCRuntimeClass@@B 5f8a8578  
 0002:0000f590       ??_C@_0N@HOLH@CRichEditDoc?$AA@ 5f8a8590  
 0002:0000f5a0       ?interfaceMap@CRichEditView@@1UAFX_INTERFACEMAP@@B 5f8a85a0  
 0002:0000f5a8       ?_interfaceEntries@CRichEditView@@0QBUAFX_INTERFACEMAP_ENTRY@@B 5f8a85a8  
 0002:0000f5b8       ?messageMap@CRichEditView@@1UAFX_MSGMAP@@B 5f8a85b8  
 0002:0000f5c0       ?_messageEntries@CRichEditView@@0QBUAFX_MSGMAP_ENTRY@@B 5f8a85c0  
 0002:0000f890       ??_C@_15MLJJ@?$AA?6?$AA?$AN?$AA?$AA@ 5f8a8890  
 0002:0000f89c       ??_7CRichEditCntrItem@@6B@ 5f8a889c  
 0002:0000f988       ??_7CTypeLibCacheMap@@6B@  5f8a8988  
 0002:0000f9a0       ?classCMonikerFile@CMonikerFile@@2UCRuntimeClass@@B 5f8a89a0  
 0002:0000f9b8       ??_C@_0N@CIKC@CMonikerFile?$AA@ 5f8a89b8  
 0002:0000f9cc       ??_7CMonikerFile@@6B@      5f8a89cc  
 0002:0000fa44       ??_7_AfxBindHost@@6B@      5f8a8a44  
 0002:0000fa60       ??_7IBindHost@@6B@         5f8a8a60  
 0002:0000fa78       ?classCMonthCalCtrl@CMonthCalCtrl@@2UCRuntimeClass@@B 5f8a8a78  
 0002:0000fa90       ??_C@_0O@MIA@CMonthCalCtrl?$AA@ 5f8a8a90  
 0002:0000faa0       ?classCDateTimeCtrl@CDateTimeCtrl@@2UCRuntimeClass@@B 5f8a8aa0  
 0002:0000fab8       ??_C@_0O@BJFB@CDateTimeCtrl?$AA@ 5f8a8ab8  
 0002:0000fac8       ??_C@_1CE@IFHN@?$AAS?$AAy?$AAs?$AAD?$AAa?$AAt?$AAe?$AAT?$AAi?$AAm?$AAe?$AAP?$AAi?$AAc?$AAk?$AA3?$AA2?$AA?$AA@ 5f8a8ac8  
 0002:0000faf0       ??_7CDateTimeCtrl@@6B@     5f8a8af0  
 0002:0000fbb0       ??_C@_1BM@FKA@?$AAS?$AAy?$AAs?$AAM?$AAo?$AAn?$AAt?$AAh?$AAC?$AAa?$AAl?$AA3?$AA2?$AA?$AA@ 5f8a8bb0  
 0002:0000fbd0       ??_7CMonthCalCtrl@@6B@     5f8a8bd0  
 0002:0000fc90       ?classCHtmlView@CHtmlView@@2UCRuntimeClass@@B 5f8a8c90  
 0002:0000fca8       ??_C@_09GHGJ@CHtmlView?$AA@ 5f8a8ca8  
 0002:0000fcb8       ?eventsinkMap@CHtmlView@@1UAFX_EVENTSINKMAP@@B 5f8a8cb8  
 0002:0000fcc8       ?_eventsinkEntries@CHtmlView@@0QBUAFX_EVENTSINKMAP_ENTRY@@B 5f8a8cc8  
 0002:0000ffc0       ??_C@_01KLAB@?$AL?$AA@     5f8a8fc0  
 0002:0000ffc2       ??_C@_02HJK@IK?$AA@        5f8a8fc2  
 0002:0000ffc8       ??_C@_07LMNJ@?7LLLLLK?$AA@ 5f8a8fc8  
 0002:0000ffd0       ??_C@_02PINK@?7L?$AA@      5f8a8fd0  
 0002:0000ffd4       ??_C@_02JAPO@?$AD?$AL?$AA@ 5f8a8fd4  
 0002:0000ffd8       ??_C@_02MEEG@?$AD?$AD?$AA@ 5f8a8fd8  
 0002:0000ffdc       ??_C@_01FELI@?$AI?$AA@     5f8a8fdc  
 0002:0000ffe0       ?messageMap@CHtmlView@@1UAFX_MSGMAP@@B 5f8a8fe0  
 0002:0000ffe8       ?_messageEntries@CHtmlView@@0QBUAFX_MSGMAP_ENTRY@@B 5f8a8fe8  
 0002:00010064       ??_7CHtmlView@@6B@         5f8a9064  
 0002:000101c8       ??_C@_1BI@HKIO@?$AAr?$AAe?$AAs?$AA?3?$AA?1?$AA?1?$AA?$CF?$AAs?$AA?1?$AA?$CF?$AAs?$AA?$AA@ 5f8a91c8  
 0002:000101e0       ??_C@_1BI@OFIF@?$AAr?$AAe?$AAs?$AA?3?$AA?1?$AA?1?$AA?$CF?$AAs?$AA?1?$AA?$CF?$AAd?$AA?$AA@ 5f8a91e0  
 0002:000101fc       ??_7COccManager@@6B@       5f8a91fc  
 0002:00010228       ?interfaceMap@CEnumUnknown@@1UAFX_INTERFACEMAP@@B 5f8a9228  
 0002:00010230       ?_interfaceEntries@CEnumUnknown@@0QBUAFX_INTERFACEMAP_ENTRY@@B 5f8a9230  
 0002:00010240       ?dispatchMap@COleControlContainer@@1UAFX_DISPMAP@@B 5f8a9240  
 0002:00010250       ?_dispatchEntries@COleControlContainer@@0QBUAFX_DISPMAP_ENTRY@@B 5f8a9250  
 0002:00010270       ?interfaceMap@COleControlContainer@@1UAFX_INTERFACEMAP@@B 5f8a9270  
 0002:00010278       ?_interfaceEntries@COleControlContainer@@0QBUAFX_INTERFACEMAP_ENTRY@@B 5f8a9278  
 0002:00010294       ??_7COleControlContainer@@6B@ 5f8a9294  
 0002:0001032c       ??_7XOleContainer@COleControlContainer@@6B@ 5f8a932c  
 0002:00010348       ??_7XOleIPFrame@COleControlContainer@@6B@ 5f8a9348  
 0002:00010388       ??_7CFont@@6B@             5f8a9388  
 0002:000103a0       ??_7CEnumUnknown@@6B@      5f8a93a0  
 0002:00010408       _IID_IDataSource           5f8a9408  
 0002:00010428       ?_afxAmbients@@3QBU__unnamed@@B 5f8a9428  
 0002:00010468       ?interfaceMap@COleControlSite@@1UAFX_INTERFACEMAP@@B 5f8a9468  
 0002:00010470       ?_interfaceEntries@COleControlSite@@0QBUAFX_INTERFACEMAP_ENTRY@@B 5f8a9470  
 0002:000104b4       ??_7COleControlSite@@6B@   5f8a94b4  
 0002:00010580       ??_7XRowsetNotify@COleControlSite@@6B@ 5f8a9580  
 0002:0001059c       ??_7XNotifyDBEvents@COleControlSite@@6B@ 5f8a959c  
 0002:000105c8       ??_7XBoundObjectSite@COleControlSite@@6B@ 5f8a95c8  
 0002:000105dc       ??_7XEventSink@COleControlSite@@6B@ 5f8a95dc  
 0002:000105fc       ??_7XPropertyNotifySink@COleControlSite@@6B@ 5f8a95fc  
 0002:00010614       ??_7XAmbientProps@COleControlSite@@6B@ 5f8a9614  
 0002:00010634       ??_7XOleControlSite@COleControlSite@@6B@ 5f8a9634  
 0002:00010660       ??_7XOleIPSite@COleControlSite@@6B@ 5f8a9660  
 0002:000106a0       ??_7XOleClientSite@COleControlSite@@6B@ 5f8a96a0  
 0002:000106c8       ??_7CDataSourceControl@@6B@ 5f8a96c8  
 0002:000106e0       __real@8@3ffbccccccccccccd000 5f8a96e0  
 0002:000106ec       ??_7COleControlLock@@6B@   5f8a96ec  
 0002:000106f0       ?classCDocObjectServerItem@CDocObjectServerItem@@2UCRuntimeClass@@B 5f8a96f0  
 0002:00010708       ??_C@_0BF@FCEC@CDocObjectServerItem?$AA@ 5f8a9708  
 0002:00010720       ?interfaceMap@CDocObjectServer@@1UAFX_INTERFACEMAP@@B 5f8a9720  
 0002:00010728       ?_interfaceEntries@CDocObjectServer@@0QBUAFX_INTERFACEMAP_ENTRY@@B 5f8a9728  
 0002:00010758       ?messageMap@CDocObjectServer@@1UAFX_MSGMAP@@B 5f8a9758  
 0002:00010760       ?_messageEntries@CDocObjectServer@@0QBUAFX_MSGMAP_ENTRY@@B 5f8a9760  
 0002:00010778       ?classCDocObjectServer@CDocObjectServer@@2UCRuntimeClass@@B 5f8a9778  
 0002:00010790       ??_C@_0BB@ICMG@CDocObjectServer?$AA@ 5f8a9790  
 0002:000107a8       ??_7CDocObjectServer@@6B@  5f8a97a8  
 0002:00010814       ??_7XPrint@CDocObjectServer@@6B@ 5f8a9814  
 0002:00010830       ??_7XOleCommandTarget@CDocObjectServer@@6B@ 5f8a9830  
 0002:00010848       ??_7XOleDocumentView@CDocObjectServer@@6B@ 5f8a9848  
 0002:0001088c       ??_7XOleDocument@CDocObjectServer@@6B@ 5f8a988c  
 0002:000108a8       ??_7XOleObject@CDocObjectServer@@6B@ 5f8a98a8  
 0002:0001090c       ??_7CDocObjectServerItem@@6B@ 5f8a990c  
 0002:000109bc       ??_7COleCmdUI@@6B@         5f8a99bc  
 0002:000109d0       ?messageMap@COleDocIPFrameWnd@@1UAFX_MSGMAP@@B 5f8a99d0  
 0002:000109d8       ?_messageEntries@COleDocIPFrameWnd@@0QBUAFX_MSGMAP_ENTRY@@B 5f8a99d8  
 0002:000109f0       ?classCOleDocIPFrameWnd@COleDocIPFrameWnd@@2UCRuntimeClass@@B 5f8a99f0  
 0002:00010a08       ??_C@_0BC@DHMK@COleDocIPFrameWnd?$AA@ 5f8a9a08  
 0002:00010a20       ??_7COleDocIPFrameWnd@@6B@ 5f8a9a20  
 0002:00010b40       ?interfaceMap@COleDocObjectItem@@1UAFX_INTERFACEMAP@@B 5f8a9b40  
 0002:00010b48       ?_interfaceEntries@COleDocObjectItem@@0QBUAFX_INTERFACEMAP_ENTRY@@B 5f8a9b48  
 0002:00010b58       ?classCOleDocObjectItem@COleDocObjectItem@@2UCRuntimeClass@@B 5f8a9b58  
 0002:00010b70       ??_C@_0BC@ODBE@COleDocObjectItem?$AA@ 5f8a9b70  
 0002:00010b88       ??_7COleDocObjectItem@@6B@ 5f8a9b88  
 0002:00010c78       ??_7XOleDocumentSite@COleDocObjectItem@@6B@ 5f8a9c78  
 0002:00010c88       ??_C@_1M@EOJM@?$AA?$CF?$AAs?$AA?5?$AA?$CF?$AAs?$AA?$AA@ 5f8a9c88  
 0002:00010c98       ?classCAsyncMonikerFile@CAsyncMonikerFile@@2UCRuntimeClass@@B 5f8a9c98  
 0002:00010cb0       ??_C@_0BC@OCAO@CAsyncMonikerFile?$AA@ 5f8a9cb0  
 0002:00010cc8       ??_7CAsyncMonikerFile@@6B@ 5f8a9cc8  
 0002:00010d78       ??_7_AfxBindStatusCallback@@6B@ 5f8a9d78  
 0002:00010da8       ??_7CInnerUnknown@_AfxBindStatusCallback@@6B@ 5f8a9da8  
 0002:00010db8       ??_7IBindStatusCallback@@6B@ 5f8a9db8  
 0002:00010de8       ?classCOleResizeBar@COleResizeBar@@2UCRuntimeClass@@B 5f8a9de8  
 0002:00010e00       ??_C@_0O@BGCL@COleResizeBar?$AA@ 5f8a9e00  
 0002:00010e10       ?messageMap@COleResizeBar@@1UAFX_MSGMAP@@B 5f8a9e10  
 0002:00010e18       ?_messageEntries@COleResizeBar@@0QBUAFX_MSGMAP_ENTRY@@B 5f8a9e18  
 0002:00010ec4       ??_7COleResizeBar@@6B@     5f8a9ec4  
 0002:00010fac       ??_C@_1CC@MLNF@?$AAA?$AAf?$AAx?$AAC?$AAo?$AAn?$AAt?$AAr?$AAo?$AAl?$AAB?$AAa?$AAr?$AA4?$AA2?$AAu?$AA?$AA@ 5f8a9fac  
 0002:00010fd0       ?classCOleControl@COleControl@@2UCRuntimeClass@@B 5f8a9fd0  
 0002:00010fe8       ??_C@_0M@EGDG@COleControl?$AA@ 5f8a9fe8  
 0002:00010ff8       ?messageMap@COleControl@@1UAFX_MSGMAP@@B 5f8a9ff8  
 0002:00011000       ?_messageEntries@COleControl@@0QBUAFX_MSGMAP_ENTRY@@B 5f8aa000  
 0002:00011450       ?eventMap@COleControl@@1UAFX_EVENTMAP@@B 5f8aa450  
 0002:00011460       ?interfaceMap@COleControl@@1UAFX_INTERFACEMAP@@B 5f8aa460  
 0002:00011468       ?_interfaceEntries@COleControl@@0QBUAFX_INTERFACEMAP_ENTRY@@B 5f8aa468  
 0002:00011524       ??_7COleControl@@6B@       5f8aa524  
 0002:00011720       ??_7XPropConnPt@COleControl@@6B@ 5f8aa720  
 0002:00011790       ??_7XEventConnPt@COleControl@@6B@ 5f8aa790  
 0002:00011800       ??_7XPointerInactive@COleControl@@6B@ 5f8aa800  
 0002:0001181c       ??_7XQuickActivate@COleControl@@6B@ 5f8aa81c  
 0002:00011838       ??_7XFontNotification@COleControl@@6B@ 5f8aa838  
 0002:00011850       ??_7XPerPropertyBrowsing@COleControl@@6B@ 5f8aa850  
 0002:00011870       ??_7XSpecifyPropertyPages@COleControl@@6B@ 5f8aa870  
 0002:00011884       ??_7XProvideClassInfo@COleControl@@6B@ 5f8aa884  
 0002:0001189c       ??_7XOleControl@COleControl@@6B@ 5f8aa89c  
 0002:000118bc       ??_7XOleCache@COleControl@@6B@ 5f8aa8bc  
 0002:000118e0       ??_7XOleInPlaceActiveObject@COleControl@@6B@ 5f8aa8e0  
 0002:0001190c       ??_7XOleInPlaceObject@COleControl@@6B@ 5f8aa90c  
 0002:0001193c       ??_7XDataObject@COleControl@@6B@ 5f8aa93c  
 0002:00011970       ??_7XViewObject@COleControl@@6B@ 5f8aa970  
 0002:000119b0       ??_7XOleObject@COleControl@@6B@ 5f8aa9b0  
 0002:00011a14       ??_7XPersistPropertyBag@COleControl@@6B@ 5f8aaa14  
 0002:00011a34       ??_7XPersistMemory@COleControl@@6B@ 5f8aaa34  
 0002:00011a5c       ??_7XPersistStreamInit@COleControl@@6B@ 5f8aaa5c  
 0002:00011a84       ??_7XPersistStorage@COleControl@@6B@ 5f8aaa84  
 0002:00011ab0       ??_7CReflectorWnd@@6B@     5f8aaab0  
 0002:00011b70       ??_C@_1CC@IHJH@?$AAA?$AAf?$AAx?$AAO?$AAl?$AAe?$AAC?$AAo?$AAn?$AAt?$AAr?$AAo?$AAl?$AA4?$AA2?$AAu?$AA?$AA@ 5f8aab70  
 0002:00011b98       ??_7CParkingWnd@@6B@       5f8aab98  
 0002:00011c58       ?connectionMap@COleControl@@1UAFX_CONNECTIONMAP@@B 5f8aac58  
 0002:00011c60       ?_connectionEntries@COleControl@@0QBUAFX_CONNECTIONMAP_ENTRY@@B 5f8aac60  
 0002:00011c70       ??_C@_1GI@CCPJ@?$AA?$HL?$AA?$CF?$AA0?$AA8?$AAl?$AAX?$AA?9?$AA?$CF?$AA0?$AA4?$AAX?$AA?9?$AA?$CF?$AA0?$AA4?$AAX?$AA?9?$AA?$CF?$AA0?$AA2@ 5f8aac70  
 0002:00011cdc       ??_7CControlDataSource@COleControl@@6B@ 5f8aacdc  
 0002:00011d44       ?_afxStockEvents@@3QBKB    5f8aad44  
 0002:00011d6c       ??_C@_02NCNO@B?$AC?$AA@    5f8aad6c  
 0002:00011d70       ??_C@_1BC@BKHA@?$AAC?$AAo?$AAm?$AAb?$AAo?$AAB?$AAo?$AAx?$AA?$AA@ 5f8aad70  
 0002:00011d84       ??_C@_1BA@GKFH@?$AAL?$AAi?$AAs?$AAt?$AAB?$AAo?$AAx?$AA?$AA@ 5f8aad84  
 0002:00011d94       ??_C@_01PAOO@B?$AA@        5f8aad94  
 0002:00011d98       ??_C@_04CKMP@?$AC?$AC?$AD?$AD?$AA@ 5f8aad98  
 0002:00011da0       ??_C@_07FGFI@?$ACH?6?$AI?$AI?$ADK?$AA@ 5f8aada0  
 0002:00011da8       ?classCOleControlModule@COleControlModule@@2UCRuntimeClass@@B 5f8aada8  
 0002:00011dc0       ??_C@_0BC@KPIB@COleControlModule?$AA@ 5f8aadc0  
 0002:00011dd8       ?messageMap@CControlFrameWnd@@1UAFX_MSGMAP@@B 5f8aadd8  
 0002:00011de0       ?_messageEntries@CControlFrameWnd@@0QBUAFX_MSGMAP_ENTRY@@B 5f8aade0  
 0002:00011e2c       ??_7CControlFrameWnd@@6B@  5f8aae2c  
 0002:00011ef0       ??_C@_1BE@MHHE@?$AAA?$AAf?$AAx?$AAW?$AAn?$AAd?$AA4?$AA2?$AAu?$AA?$AA@ 5f8aaef0  
 0002:00011f08       ?_afxFontDescDefault@@3UtagFONTDESC@@B 5f8aaf08  
 0002:00011f28       ?interfaceMap@CEnumConnPoints@@1UAFX_INTERFACEMAP@@B 5f8aaf28  
 0002:00011f30       ?_interfaceEntries@CEnumConnPoints@@0QBUAFX_INTERFACEMAP_ENTRY@@B 5f8aaf30  
 0002:00011f40       ?interfaceMap@CEnumConnections@@1UAFX_INTERFACEMAP@@B 5f8aaf40  
 0002:00011f48       ?_interfaceEntries@CEnumConnections@@0QBUAFX_INTERFACEMAP_ENTRY@@B 5f8aaf48  
 0002:00011f5c       ??_7CConnectionPoint@@6B@  5f8aaf5c  
 0002:00011fcc       ??_7XConnPt@CConnectionPoint@@6B@ 5f8aafcc  
 0002:00011ff0       ??_7CEnumConnections@@6B@  5f8aaff0  
 0002:0001205c       ??_7CEnumConnPoints@@6B@   5f8ab05c  
 0002:000120c8       ??_7COleConnPtContainer@@6B@ 5f8ab0c8  
 0002:000120e0       ?_afx_CLSID_StdPicture2_V1@@3U_GUID@@B 5f8ab0e0  
 0002:000120f0       ??_C@_1BC@EBDI@?$AA_?$AAE?$AAx?$AAt?$AAe?$AAn?$AAt?$AAY?$AA?$AA@ 5f8ab0f0  
 0002:00012104       ??_C@_1BC@BDCO@?$AA_?$AAE?$AAx?$AAt?$AAe?$AAn?$AAt?$AAX?$AA?$AA@ 5f8ab104  
 0002:00012118       ??_C@_1BC@IEIC@?$AA_?$AAV?$AAe?$AAr?$AAs?$AAi?$AAo?$AAn?$AA?$AA@ 5f8ab118  
 0002:00012130       ??_7CArchivePropExchange@@6B@ 5f8ab130  
 0002:00012148       ??_7CResetPropExchange@@6B@ 5f8ab148  
 0002:00012160       ??_7CAsyncPropExchange@@6B@ 5f8ab160  
 0002:00012174       ??_C@_1BO@FKJD@?$AAF?$AAo?$AAn?$AAt?$AAS?$AAt?$AAr?$AAi?$AAk?$AAe?$AAt?$AAh?$AAr?$AAu?$AA?$AA@ 5f8ab174  
 0002:00012194       ??_C@_1BM@KNCC@?$AAF?$AAo?$AAn?$AAt?$AAU?$AAn?$AAd?$AAe?$AAr?$AAl?$AAi?$AAn?$AAe?$AA?$AA@ 5f8ab194  
 0002:000121b0       ??_C@_1BG@LJAN@?$AAF?$AAo?$AAn?$AAt?$AAI?$AAt?$AAa?$AAl?$AAi?$AAc?$AA?$AA@ 5f8ab1b0  
 0002:000121c8       ??_C@_1BC@KBKA@?$AAF?$AAo?$AAn?$AAt?$AAB?$AAo?$AAl?$AAd?$AA?$AA@ 5f8ab1c8  
 0002:000121dc       ??_C@_1BC@DAIL@?$AAF?$AAo?$AAn?$AAt?$AAS?$AAi?$AAz?$AAe?$AA?$AA@ 5f8ab1dc  
 0002:000121f0       ??_C@_1BC@NLCC@?$AAF?$AAo?$AAn?$AAt?$AAN?$AAa?$AAm?$AAe?$AA?$AA@ 5f8ab1f0  
 0002:00012208       ?classCOlePropertyPage@COlePropertyPage@@2UCRuntimeClass@@B 5f8ab208  
 0002:00012220       ??_C@_0BB@LGDG@COlePropertyPage?$AA@ 5f8ab220  
 0002:00012238       ?_afxUpdateList@@3QBUNotifyInfo@@B 5f8ab238  
 0002:00012268       ?_afxNotifyList@@3QBUNotifyInfo@@B 5f8ab268  
 0002:00012298       ??_C@_1BA@OMOJ@?$AAl?$AAi?$AAs?$AAt?$AAb?$AAo?$AAx?$AA?$AA@ 5f8ab298  
 0002:000122a8       ??_C@_1O@MLLH@?$AAb?$AAu?$AAt?$AAt?$AAo?$AAn?$AA?$AA@ 5f8ab2a8  
 0002:000122b8       ??_C@_19NPFC@?$AAe?$AAd?$AAi?$AAt?$AA?$AA@ 5f8ab2b8  
 0002:000122c8       ?messageMap@COlePropertyPage@@1UAFX_MSGMAP@@B 5f8ab2c8  
 0002:000122d0       ?_messageEntries@COlePropertyPage@@0QBUAFX_MSGMAP_ENTRY@@B 5f8ab2d0  
 0002:00012318       ?interfaceMap@COlePropertyPage@@1UAFX_INTERFACEMAP@@B 5f8ab318  
 0002:00012320       ?_interfaceEntries@COlePropertyPage@@0QBUAFX_INTERFACEMAP_ENTRY@@B 5f8ab320  
 0002:0001233c       ??_7AFX_DDPDATA@@6B@       5f8ab33c  
 0002:00012354       ??_7COlePropertyPage@@6B@  5f8ab354  
 0002:00012440       ??_7XPropNotifySink@COlePropertyPage@@6B@ 5f8ab440  
 0002:00012458       ??_7XPropertyPage@COlePropertyPage@@6B@ 5f8ab458  
 0002:00012498       ?classCCachedDataPathProperty@CCachedDataPathProperty@@2UCRuntimeClass@@B 5f8ab498  
 0002:000124b0       ??_C@_0BI@EKAI@CCachedDataPathProperty?$AA@ 5f8ab4b0  
 0002:000124c8       ?classCDataPathProperty@CDataPathProperty@@2UCRuntimeClass@@B 5f8ab4c8  
 0002:000124e0       ??_C@_0BC@OBPM@CDataPathProperty?$AA@ 5f8ab4e0  
 0002:000124f4       ?_afxAmbientFlags@@3QBKB   5f8ab4f4  
 0002:0001251c       ?_afxStockProps@@3QBKB     5f8ab51c  
 0002:0001256c       ??_C@_1BG@LJOC@?$AAA?$AAp?$AAp?$AAe?$AAa?$AAr?$AAa?$AAn?$AAc?$AAe?$AA?$AA@ 5f8ab56c  
 0002:00012584       ??_C@_1BA@CGKE@?$AAE?$AAn?$AAa?$AAb?$AAl?$AAe?$AAd?$AA?$AA@ 5f8ab584  
 0002:00012594       ??_C@_1BI@PNDM@?$AAB?$AAo?$AAr?$AAd?$AAe?$AAr?$AAS?$AAt?$AAy?$AAl?$AAe?$AA?$AA@ 5f8ab594  
 0002:000125ac       ??_C@_19LHGG@?$AAF?$AAo?$AAn?$AAt?$AA?$AA@ 5f8ab5ac  
 0002:000125b8       ??_C@_1BE@DJDJ@?$AAB?$AAa?$AAc?$AAk?$AAC?$AAo?$AAl?$AAo?$AAr?$AA?$AA@ 5f8ab5b8  
 0002:000125cc       ??_C@_1BE@NMAC@?$AAF?$AAo?$AAr?$AAe?$AAC?$AAo?$AAl?$AAo?$AAr?$AA?$AA@ 5f8ab5cc  
 0002:000125e0       ??_C@_19PMHI@?$AAT?$AAe?$AAx?$AAt?$AA?$AA@ 5f8ab5e0  
 0002:000125ec       ??_C@_1BA@JOHB@?$AAC?$AAa?$AAp?$AAt?$AAi?$AAo?$AAn?$AA?$AA@ 5f8ab5ec  
 0002:000125fc       ??_C@_1BI@HFFM@?$AA_?$AAS?$AAt?$AAo?$AAc?$AAk?$AAP?$AAr?$AAo?$AAp?$AAs?$AA?$AA@ 5f8ab5fc  
 0002:00012618       ?_afxFontDescHelv@@3UtagFONTDESC@@B 5f8ab618  
 0002:00012638       ?_afx_CLSID_StdPicture_V1@@3U_GUID@@B 5f8ab638  
 0002:00012648       ?_afx_CLSID_StdFont_V1@@3U_GUID@@B 5f8ab648  
 0002:0001265c       ??_7CPropsetPropExchange@@6B@ 5f8ab65c  
 0002:00012670       ?_afxPropPageClass@@3QBQBGB 5f8ab670  
 0002:0001267c       ??_C@_1CE@CBLG@?$AAI?$AAn?$AAp?$AAr?$AAo?$AAc?$AAS?$AAe?$AAr?$AAv?$AAe?$AAr?$AA3?$AA2?$AA?$AA?$AA?$CF?$AA2?$AA?$AA@ 5f8ab67c  
 0002:000126a0       ?_afxCtrlClassID@@3QBQBGB  5f8ab6a0  
 0002:000126c8       ??_C@_1BG@KBAC@?$AAV?$AAe?$AAr?$AAs?$AAi?$AAo?$AAn?$AA?$AA?$AA?$CF?$AA7?$AA?$AA@ 5f8ab6c8  
 0002:000126e0       ??_C@_1BG@CKJF@?$AAT?$AAy?$AAp?$AAe?$AAL?$AAi?$AAb?$AA?$AA?$AA?$CF?$AA6?$AA?$AA@ 5f8ab6e0  
 0002:000126f8       ??_C@_1BC@GHKE@?$AAC?$AAo?$AAn?$AAt?$AAr?$AAo?$AAl?$AA?$AA?$AA?$AA@ 5f8ab6f8  
 0002:0001270c       ??_C@_1CA@JADL@?$AAM?$AAi?$AAs?$AAc?$AAS?$AAt?$AAa?$AAt?$AAu?$AAs?$AA?2?$AA1?$AA?$AA?$AA?$CF?$AA5?$AA?$AA@ 5f8ab70c  
 0002:0001272c       ??_C@_1BK@KBO@?$AAM?$AAi?$AAs?$AAc?$AAS?$AAt?$AAa?$AAt?$AAu?$AAs?$AA?$AA?$AA0?$AA?$AA@ 5f8ab72c  
 0002:00012748       ??_C@_1CO@FFFM@?$AAT?$AAo?$AAo?$AAl?$AAb?$AAo?$AAx?$AAB?$AAi?$AAt?$AAm?$AAa?$AAp?$AA3?$AA2?$AA?$AA?$AA?$CF?$AA3?$AA?0?$AA?5@ 5f8ab748  
 0002:00012778       ??_C@_1CE@HDKA@?$AAI?$AAn?$AAp?$AAr?$AAo?$AAc?$AAS?$AAe?$AAr?$AAv?$AAe?$AAr?$AA3?$AA2?$AA?$AA?$AA?$CF?$AA3?$AA?$AA@ 5f8ab778  
 0002:0001279c       ??_C@_1BE@EDCM@?$AAP?$AAr?$AAo?$AAg?$AAI?$AAD?$AA?$AA?$AA?$CF?$AA2?$AA?$AA@ 5f8ab79c  
 0002:000127b0       ?_afxCtrlProgID@@3QBQBGB   5f8ab7b0  
 0002:000127bc       ??_C@_1BC@HIDF@?$AAC?$AAL?$AAS?$AAI?$AAD?$AA?$AA?$AA?$CF?$AA2?$AA?$AA@ 5f8ab7bc  
 0002:000127d0       ??_C@_17BFLD@?$AA?$AA?$AA?$CF?$AA1?$AA?$AA@ 5f8ab7d0  
 0002:000127d8       ??_C@_1BG@JIPA@?$AAI?$AAn?$AAt?$AAe?$AAr?$AAf?$AAa?$AAc?$AAe?$AA?2?$AA?$AA@ 5f8ab7d8  
 0002:000127f0       ??_C@_1M@BFC@?$AAw?$AAi?$AAn?$AA3?$AA2?$AA?$AA@ 5f8ab7f0  
 0002:000127fc       ??_C@_1M@JEC@?$AAw?$AAi?$AAn?$AA1?$AA6?$AA?$AA@ 5f8ab7fc  
 0002:00012808       ??_C@_1M@OFBC@?$AAF?$AAL?$AAA?$AAG?$AAS?$AA?$AA@ 5f8ab808  
 0002:00012814       ??_C@_1BA@KOAG@?$AAH?$AAE?$AAL?$AAP?$AAD?$AAI?$AAR?$AA?$AA@ 5f8ab814  
 0002:00012824       ??_C@_1BG@DNML@?$AAT?$AAY?$AAP?$AAE?$AAL?$AAI?$AAB?$AA?2?$AA?$CF?$AAs?$AA?$AA@ 5f8ab824  
 0002:0001283c       ??_C@_1BO@PFNJ@?$AAT?$AAh?$AAr?$AAe?$AAa?$AAd?$AAi?$AAn?$AAg?$AAM?$AAo?$AAd?$AAe?$AAl?$AA?$AA@ 5f8ab83c  
 0002:0001285c       ??_C@_1BO@OGKK@?$AAI?$AAn?$AAp?$AAr?$AAo?$AAc?$AAS?$AAe?$AAr?$AAv?$AAe?$AAr?$AA3?$AA2?$AA?$AA@ 5f8ab85c  
 0002:0001287c       ??_C@_1BC@CNEA@?$AAC?$AAL?$AAS?$AAI?$AAD?$AA?2?$AA?$CF?$AAs?$AA?$AA@ 5f8ab87c  
 0002:00012890       ??_C@_1M@CJDN@?$AA?$CF?$AAd?$AA?4?$AA?$CF?$AAd?$AA?$AA@ 5f8ab890  
 0002:0001289c       ??_C@_1CA@NEAI@?$AAT?$AAo?$AAo?$AAl?$AAb?$AAo?$AAx?$AAB?$AAi?$AAt?$AAm?$AAa?$AAp?$AA3?$AA2?$AA?$AA@ 5f8ab89c  
 0002:000128bc       ??_C@_1BI@FGP@?$AAC?$AAL?$AAS?$AAI?$AAD?$AA?2?$AA?$CF?$AAs?$AA?2?$AA?$CF?$AAs?$AA?$AA@ 5f8ab8bc  
 0002:000128d4       ??_C@_1BK@KICO@?$AAI?$AAn?$AAp?$AAr?$AAo?$AAc?$AAS?$AAe?$AAr?$AAv?$AAe?$AAr?$AA?$AA@ 5f8ab8d4  
 0002:000128f4       ??_7CControlRectTracker@@6B@ 5f8ab8f4  
 0002:00012910       ?_afx_CLSID_BlobProperty@@3U_GUID@@B 5f8ab910  
 0002:00012924       ??_7CBlobProperty@@6B@     5f8ab924  
 0002:00012948       ??_7CPropbagPropExchange@@6B@ 5f8ab948  
 0002:00012960       ??_7_AFXCTL_AMBIENT_CACHE@@6B@ 5f8ab960  
 0002:00012968       ?classCWindowlessDC@CWindowlessDC@@2UCRuntimeClass@@B 5f8ab968  
 0002:00012980       ??_C@_0O@FBOP@CWindowlessDC?$AA@ 5f8ab980  
 0002:00012994       ??_7CWindowlessDC@@6B@     5f8ab994  
 0002:00012a10       ?messageMap@CColorPropPage@@1UAFX_MSGMAP@@B 5f8aba10  
 0002:00012a18       ?_messageEntries@CColorPropPage@@0QBUAFX_MSGMAP_ENTRY@@B 5f8aba18  
 0002:00012be0       ?_afxSysColorsList@@3QBUSysColorsInfo@@B 5f8abbe0  
 0002:00012c94       ??_7CColorButton@@6B@      5f8abc94  
 0002:00012d5c       ??_7CColorPropPage@@6B@    5f8abd5c  
 0002:00012e48       ?messageMap@CFontPropPage@@1UAFX_MSGMAP@@B 5f8abe48  
 0002:00012e50       ?_messageEntries@CFontPropPage@@0QBUAFX_MSGMAP_ENTRY@@B 5f8abe50  
 0002:00012f5c       ??_7CFontPropPage@@6B@     5f8abf5c  
 0002:00013050       ??_7CSizeComboBox@@6B@     5f8ac050  
 0002:00013124       ??_7CFontComboBox@@6B@     5f8ac124  
 0002:000131f8       ?messageMap@CPicturePropPage@@1UAFX_MSGMAP@@B 5f8ac1f8  
 0002:00013200       ?_messageEntries@CPicturePropPage@@0QBUAFX_MSGMAP_ENTRY@@B 5f8ac200  
 0002:0001327c       ??_7CPicturePropPage@@6B@  5f8ac27c  
 0002:00013368       ?classCStockPropPage@CStockPropPage@@2UCRuntimeClass@@B 5f8ac368  
 0002:00013380       ??_C@_0P@GBDL@CStockPropPage?$AA@ 5f8ac380  
 0002:00013390       ?messageMap@CStockPropPage@@1UAFX_MSGMAP@@B 5f8ac390  
 0002:00013398       ?_messageEntries@CStockPropPage@@0QBUAFX_MSGMAP_ENTRY@@B 5f8ac398  
 0002:000133b4       ??_7CStockPropPage@@6B@    5f8ac3b4  
 0002:000134a0       ?classCRecordset@CRecordset@@2UCRuntimeClass@@B 5f8ac4a0  
 0002:000134b8       ??_C@_0L@FKJL@CRecordset?$AA@ 5f8ac4b8  
 0002:000134c8       ?classCDatabase@CDatabase@@2UCRuntimeClass@@B 5f8ac4c8  
 0002:000134e0       ??_C@_09CDJB@CDatabase?$AA@ 5f8ac4e0  
 0002:000134f0       ?classCDBException@CDBException@@2UCRuntimeClass@@B 5f8ac4f0  
 0002:00013508       ??_C@_0N@GGEG@CDBException?$AA@ 5f8ac508  
 0002:00013518       ?_afxDriverNotCapable@@3QBGB 5f8ac518  
 0002:00013530       ?_afxOutOfSequence@@3QBGB  5f8ac530  
 0002:00013548       ?_afxDataTruncated@@3QBGB  5f8ac548  
 0002:00013560       ?_afxRowFetch@@3QBGB       5f8ac560  
 0002:00013578       ?_afxForUpdate@@3QBGB      5f8ac578  
 0002:00013594       ?_afxOrderBy@@3QBGB        5f8ac594  
 0002:000135ac       ?_afxWhere@@3QBGB          5f8ac5ac  
 0002:000135bc       ?_afxFrom@@3QBGB           5f8ac5bc  
 0002:000135cc       ?_afxSelect@@3QBGB         5f8ac5cc  
 0002:000135dc       ?_afxParamCall@@3QBGB      5f8ac5dc  
 0002:000135e4       ?_afxCall@@3QBGB           5f8ac5e4  
 0002:000135f4       ?_afxComma@@3QBGB          5f8ac5f4  
 0002:000135f8       ?_afxODBCTrail@@3QBGB      5f8ac5f8  
 0002:00013608       ??_7CDBException@@6B@      5f8ac608  
 0002:00013628       ??_C@_1O@JCG@?$AAS?$AAt?$AAa?$AAt?$AAe?$AA?3?$AA?$AA@ 5f8ac628  
 0002:00013638       ??_C@_1CI@LDEF@?$AA?0?$AAN?$AAa?$AAt?$AAi?$AAv?$AAe?$AA?3?$AA?$CF?$AAl?$AAd?$AA?0?$AAO?$AAr?$AAi?$AAg?$AAi?$AAn?$AA?3?$AA?$AA@ 5f8ac638  
 0002:00013660       ??_C@_1M@MKCN@?$AA0?$AA0?$AA0?$AA0?$AA0?$AA?$AA@ 5f8ac660  
 0002:00013670       ??_7CDatabase@@6B@         5f8ac670  
 0002:000136a0       ??_C@_1M@BHKK@?$AA?$DL?$AAD?$AAS?$AAN?$AA?$DN?$AA?$AA@ 5f8ac6a0  
 0002:000136ac       ??_C@_01PCJP@Y?$AA@        5f8ac6ac  
 0002:000136b4       ??_7CRecordset@@6B@        5f8ac6b4  
 0002:0001371c       ??_C@_1BA@FFIB@?$AA?5?$AAU?$AAN?$AAI?$AAO?$AAN?$AA?5?$AA?$AA@ 5f8ac71c  
 0002:0001372c       ??_C@_1BG@CONM@?$AA?5?$AAG?$AAR?$AAO?$AAU?$AAP?$AA?5?$AAB?$AAY?$AA?5?$AA?$AA@ 5f8ac72c  
 0002:00013744       ??_C@_1O@LFLK@?$AA?5?$AAJ?$AAO?$AAI?$AAN?$AA?5?$AA?$AA@ 5f8ac744  
 0002:00013754       ??_C@_13JKDK@?$AA?0?$AA?$AA@ 5f8ac754  
 0002:00013758       ??_C@_1CG@BIKJ@?$AA?5?$AAW?$AAH?$AAE?$AAR?$AAE?$AA?5?$AAC?$AAU?$AAR?$AAR?$AAE?$AAN?$AAT?$AA?5?$AAO?$AAF?$AA?5?$AA?$AA@ 5f8ac758  
 0002:00013780       ??_C@_1BK@FPKL@?$AAD?$AAE?$AAL?$AAE?$AAT?$AAE?$AA?5?$AAF?$AAR?$AAO?$AAM?$AA?5?$AA?$AA@ 5f8ac780  
 0002:0001379c       ??_C@_1M@FJED@?$AA?5?$AAS?$AAE?$AAT?$AA?5?$AA?$AA@ 5f8ac79c  
 0002:000137a8       ??_C@_1BA@MDEN@?$AAU?$AAP?$AAD?$AAA?$AAT?$AAE?$AA?5?$AA?$AA@ 5f8ac7a8  
 0002:000137b8       ??_C@_1BE@LEJJ@?$AA?5?$AAV?$AAA?$AAL?$AAU?$AAE?$AAS?$AA?5?$AA?$CI?$AA?$AA@ 5f8ac7b8  
 0002:000137cc       ??_C@_15NGMK@?$AA?5?$AA?$CI?$AA?$AA@ 5f8ac7cc  
 0002:000137d4       ??_C@_1BK@ECOF@?$AAI?$AAN?$AAS?$AAE?$AAR?$AAT?$AA?5?$AAI?$AAN?$AAT?$AAO?$AA?5?$AA?$AA@ 5f8ac7d4  
 0002:000137f4       ??_7_AFX_DB_STATE@@6B@     5f8ac7f4  
 0002:000137f8       ??_C@_1BI@HDAA@?$AAS?$AAt?$AAa?$AAt?$AAe?$AA?3?$AA0?$AA1?$AA0?$AA0?$AA4?$AA?$AA@ 5f8ac7f8  
 0002:00013810       ?classCRecordView@CRecordView@@2UCRuntimeClass@@B 5f8ac810  
 0002:00013828       ??_C@_0M@EAFL@CRecordView?$AA@ 5f8ac828  
 0002:00013838       ?messageMap@CRecordView@@1UAFX_MSGMAP@@B 5f8ac838  
 0002:00013840       ?_messageEntries@CRecordView@@0QBUAFX_MSGMAP_ENTRY@@B 5f8ac840  
 0002:0001391c       ??_7CRecordView@@6B@       5f8ac91c  
 0002:00013a48       ?classCLongBinary@CLongBinary@@2UCRuntimeClass@@B 5f8aca48  
 0002:00013a60       ??_C@_0M@DJA@CLongBinary?$AA@ 5f8aca60  
 0002:00013a70       ??_7CLongBinary@@6B@       5f8aca70  
 0002:00013a88       ??_7CDBVariant@@6B@        5f8aca88  
 0002:00013a90       ?classCDaoRecordset@CDaoRecordset@@2UCRuntimeClass@@B 5f8aca90  
 0002:00013aa8       ??_C@_0O@JOIL@CDaoRecordset?$AA@ 5f8acaa8  
 0002:00013ab8       ?classCDaoQueryDef@CDaoQueryDef@@2UCRuntimeClass@@B 5f8acab8  
 0002:00013ad0       ??_C@_0N@NGH@CDaoQueryDef?$AA@ 5f8acad0  
 0002:00013ae0       ?classCDaoTableDef@CDaoTableDef@@2UCRuntimeClass@@B 5f8acae0  
 0002:00013af8       ??_C@_0N@PHMG@CDaoTableDef?$AA@ 5f8acaf8  
 0002:00013b08       ?classCDaoDatabase@CDaoDatabase@@2UCRuntimeClass@@B 5f8acb08  
 0002:00013b20       ??_C@_0N@DDLP@CDaoDatabase?$AA@ 5f8acb20  
 0002:00013b30       ?classCDaoWorkspace@CDaoWorkspace@@2UCRuntimeClass@@B 5f8acb30  
 0002:00013b48       ??_C@_0O@IEJG@CDaoWorkspace?$AA@ 5f8acb48  
 0002:00013b58       ?classCDaoException@CDaoException@@2UCRuntimeClass@@B 5f8acb58  
 0002:00013b70       ??_C@_0O@OIMH@CDaoException?$AA@ 5f8acb70  
 0002:00013b80       ?_afxTable2@@3QBGB         5f8acb80  
 0002:00013b90       ?_afxTransform2@@3QBGB     5f8acb90  
 0002:00013ba8       ?_afxOrderBy2@@3QBGB       5f8acba8  
 0002:00013bc0       ?_afxWhere2@@3QBGB         5f8acbc0  
 0002:00013bd0       ?_afxFrom2@@3QBGB          5f8acbd0  
 0002:00013be0       ?_afxSelect2@@3QBGB        5f8acbe0  
 0002:00013bf0       ?_afxParameters2@@3QBGB    5f8acbf0  
 0002:00013c0c       ??_7_AFX_DAO_STATE@@6B@    5f8acc0c  
 0002:00013c14       ??_7CDaoIndexInfo@@6B@     5f8acc14  
 0002:00013c1c       ??_7CDaoRelationInfo@@6B@  5f8acc1c  
 0002:00013c24       ??_7CDaoException@@6B@     5f8acc24  
 0002:00013c44       ??_7CDaoWorkspace@@6B@     5f8acc44  
 0002:00013c70       ??_7CDaoDatabase@@6B@      5f8acc70  
 0002:00013c98       ??_7CDaoTableDef@@6B@      5f8acc98  
 0002:00013cc4       ??_7CDaoQueryDef@@6B@      5f8accc4  
 0002:00013d04       ??_7CDaoRecordset@@6B@     5f8acd04  
 0002:00013d84       ??_C@_13FDB@?$AA?$DL?$AA?$AA@ 5f8acd84  
 0002:00013d88       ??_C@_1CO@HEDE@?$AAI?$AAC?$AAD?$AAA?$AAO?$AAR?$AAe?$AAc?$AAo?$AAr?$AAd?$AAs?$AAe?$AAt?$AA?4?$AAG?$AAe?$AAt?$AAR?$AAo@ 5f8acd88  
 0002:00013db8       ??_C@_1EK@JJKF@?$AAm?$AAj?$AAg?$AAc?$AAq?$AAc?$AAe?$AAj?$AAf?$AAc?$AAh?$AAc?$AAi?$AAj?$AAe?$AAc?$AAp?$AAd?$AAh?$AAc@ 5f8acdb8  
 0002:00013e04       ??_C@_1EK@JBEF@?$AAm?$AAb?$AAm?$AAa?$AAb?$AAp?$AAt?$AAe?$AAb?$AAk?$AAj?$AAc?$AAd?$AAl?$AAg?$AAt?$AAj?$AAm?$AAs?$AAk@ 5f8ace04  
 0002:00013e50       ?_afxDoublePseudoNull@@3NB 5f8ace50  
 0002:00013e58       ?_afxFloatPseudoNull@@3MB  5f8ace58  
 0002:00013e5c       ??_C@_09CGOK@?5DateTime?$AA@ 5f8ace5c  
 0002:00013e68       ??_C@_0M@BGKI@?5IEEEDouble?$AA@ 5f8ace68  
 0002:00013e74       ??_C@_0M@GOBO@?5IEEESingle?$AA@ 5f8ace74  
 0002:00013e80       ??_C@_09GDCP@?5Currency?$AA@ 5f8ace80  
 0002:00013e8c       ??_C@_05BJMF@?5Long?$AA@   5f8ace8c  
 0002:00013e94       ??_C@_06KOJB@?5Short?$AA@  5f8ace94  
 0002:00013e9c       ??_C@_05IGCC@?5Byte?$AA@   5f8ace9c  
 0002:00013ea4       ??_C@_04KDMA@?5Bit?$AA@    5f8acea4  
 0002:00013eac       ??_C@_0M@MOAI@?5LongBinary?$AA@ 5f8aceac  
 0002:00013eb8       ??_C@_05BJHD@?5Text?$AA@   5f8aceb8  
 0002:00013ebe       ??_C@_01KMAE@?0?$AA@       5f8acebe  
 0002:00013ec0       ?messageMap@CDaoRecordView@@1UAFX_MSGMAP@@B 5f8acec0  
 0002:00013ec8       ?_messageEntries@CDaoRecordView@@0QBUAFX_MSGMAP_ENTRY@@B 5f8acec8  
 0002:00013fa0       ?classCDaoRecordView@CDaoRecordView@@2UCRuntimeClass@@B 5f8acfa0  
 0002:00013fb8       ??_C@_0P@KPJP@CDaoRecordView?$AA@ 5f8acfb8  
 0002:00013fcc       ??_7CDaoRecordView@@6B@    5f8acfcc  
 0002:000140e8       ?classCOleDBRecordView@COleDBRecordView@@2UCRuntimeClass@@B 5f8ad0e8  
 0002:00014100       ??_C@_0BB@HKOA@COleDBRecordView?$AA@ 5f8ad100  
 0002:00014118       ?messageMap@COleDBRecordView@@1UAFX_MSGMAP@@B 5f8ad118  
 0002:00014120       ?_messageEntries@COleDBRecordView@@0QBUAFX_MSGMAP_ENTRY@@B 5f8ad120  
 0002:000141f8       ?classCDynLinkLibrary@CDynLinkLibrary@@2UCRuntimeClass@@B 5f8ad1f8  
 0002:00014210       ??_C@_0BA@FNMJ@CDynLinkLibrary?$AA@ 5f8ad210  
 0002:00014220       ??_C@_0JB@KLFG@This?5application?5or?5DLL?5can?5not?5@ 5f8ad220  
 0002:000142b4       ??_C@_0BD@CCKL@MFC?5Runtime?5Module?$AA@ 5f8ad2b4  
 0002:000142cc       ??_7CPalette@@6B@          5f8ad2cc  
 0002:000142e4       ??_7CCheckListBox@@6B@     5f8ad2e4  
 0002:000143c4       ??_7CBitmapButton@@6B@     5f8ad3c4  
 0002:0001448c       ??_7CDataPathProperty@@6B@ 5f8ad48c  
 0002:0001454c       ??_7CCachedDataPathProperty@@6B@ 5f8ad54c  
 0002:00014618       _IID_IStream               5f8ad618  
 0002:00014628       _IID_IOleInPlaceSite       5f8ad628  
 0002:00014638       _IID_IAdviseSink           5f8ad638  
 0002:00014648       _IID_IOleClientSite        5f8ad648  
 0002:00014658       _IID_IOleLink              5f8ad658  
 0002:00014668       _IID_IViewObject2          5f8ad668  
 0002:00014678       _IID_IPersistStream        5f8ad678  
 0002:00014688       _IID_IPersistStreamInit    5f8ad688  
 0002:00014698       _IID_IOleCache             5f8ad698  
 0002:000146a8       _IID_IOleInPlaceFrame      5f8ad6a8  
 0002:000146b8       _IID_IOleInPlaceUIWindow   5f8ad6b8  
 0002:000146c8       _IID_IOleCommandTarget     5f8ad6c8  
 0002:000146d8       _IID_IEnumFORMATETC        5f8ad6d8  
 0002:000146e8       _IID_IDropSource           5f8ad6e8  
 0002:000146f8       _IID_IMessageFilter        5f8ad6f8  
 0002:00014708       _IID_IStorage              5f8ad708  
 0002:00014718       _IID_IOleDocumentSite      5f8ad718  
 0002:00014728       _IID_IEnumOLEVERB          5f8ad728  
 0002:00014738       _IID_IBindHost             5f8ad738  
 0002:00014748       _IID_IWebBrowser2          5f8ad748  
 0002:00014758       _CLSID_WebBrowser          5f8ad758  
 0002:00014768       _IID_IEnumUnknown          5f8ad768  
 0002:00014778       _IID_IFontDisp             5f8ad778  
 0002:00014788       _IID_IRowsetNotify         5f8ad788  
 0002:00014798       _IID_IRowPosition          5f8ad798  
 0002:000147a8       _IID_IRowset               5f8ad7a8  
 0002:000147b8       _IID_IAccessor             5f8ad7b8  
 0002:000147c8       _IID_INotifyDBEvents       5f8ad7c8  
 0002:000147d8       _IID_IBoundObjectSite      5f8ad7d8  
 0002:000147e8       _IID_IOleControlSite       5f8ad7e8  
 0002:000147f8       _IID_IPropertyNotifySink   5f8ad7f8  
 0002:00014808       _IID_IFont                 5f8ad808  
 0002:00014818       _IID_IQuickActivate        5f8ad818  
 0002:00014828       _IID_IPersistMemory        5f8ad828  
 0002:00014838       _IID_IOleControl           5f8ad838  
 0002:00014848       _IID_IConnectionPointContainer 5f8ad848  
 0002:00014858       _IID_IProvideClassInfo     5f8ad858  
 0002:00014868       _IID_IProvideClassInfo2    5f8ad868  
 0002:00014878       _IID_ICursorUpdateARow     5f8ad878  
 0002:00014888       _IID_ICursorMove           5f8ad888  
 0002:00014898       _IID_ICursor               5f8ad898  
 0002:000148a8       _COLUMN_COLUMNID           5f8ad8a8  
 0002:000148c0       _COLUMN_NAME               5f8ad8c0  
 0002:000148d8       _DBBMK_CURRENT             5f8ad8d8  
 0002:000148e0       _IID_ISequentialStream     5f8ad8e0  
 0002:000148f0       _IID_IBoundObject          5f8ad8f0  
 0002:00014900       _IID_IPrint                5f8ad900  
 0002:00014910       _IID_IOleDocumentView      5f8ad910  
 0002:00014920       _IID_IOleDocument          5f8ad920  
 0002:00014930       _IID_IBindStatusCallback   5f8ad930  
 0002:00014940       _IID_IServiceProvider      5f8ad940  
 0002:00014950       _IID_IPerPropertyBrowsing  5f8ad950  
 0002:00014960       _IID_ISpecifyPropertyPages 5f8ad960  
 0002:00014970       _IID_IPersistPropertyBag   5f8ad970  
 0002:00014980       _IID_IViewObject           5f8ad980  
 0002:00014990       _IID_IOleInPlaceObjectWindowless 5f8ad990  
 0002:000149a0       _IID_IViewObjectEx         5f8ad9a0  
 0002:000149b0       _IID_IPointerInactive      5f8ad9b0  
 0002:000149c0       _CLSID_ConvertVBX          5f8ad9c0  
 0002:000149d0       _CLSID_PersistPropset      5f8ad9d0  
 0002:000149e0       _IID_IOleInPlaceSiteEx     5f8ad9e0  
 0002:000149f0       _IID_IOleInPlaceSiteWindowless 5f8ad9f0  
 0002:00014a00       _IID_IEnumConnectionPoints 5f8ada00  
 0002:00014a10       _IID_IEnumConnections      5f8ada10  
 0002:00014a20       _IID_IConnectionPoint      5f8ada20  
 0002:00014a30       _IID_ISimpleFrameSite      5f8ada30  
 0002:00014a40       _IID_IPicture              5f8ada40  
 0002:00014a50       _IID_IPictureDisp          5f8ada50  
 0002:00014a60       _CLSID_StdPicture          5f8ada60  
 0002:00014a70       _IID_IPropertyPage         5f8ada70  
 0002:00014a80       _IID_IPropertyPage2        5f8ada80  
 0002:00014a90       _CLSID_CColorPropPage      5f8ada90  
 0002:00014aa0       _CLSID_CFontPropPage       5f8adaa0  
 0002:00014ab0       _CLSID_StdFont             5f8adab0  
 0002:00014ac0       _GUID_COLOR                5f8adac0  
 0002:00014ad0       _CLSID_CDAODBEngine        5f8adad0  
 0002:00014ae0       _CLSID35_CDAODBEngine      5f8adae0  
 0002:00014af0       _IID_IDAODBEngineW         5f8adaf0  
 0002:00014b00       _IID_ICDAORecordset        5f8adb00  
 0002:00014b10       _IID_IDAOFieldW            5f8adb10  
 0002:00014b20       _IID_IDAOIndexFieldsW      5f8adb20  
 0002:00014b30       _CLSID30_CDAODBEngine      5f8adb30  
 0002:00014b40       _IID30_IDAODBEngineW       5f8adb40  
 0002:00014b50       _IID30_IDAOFieldW          5f8adb50  
 0002:00014b60       _IID30_IDAOIndexFieldsW    5f8adb60  
 0002:00014b70       __sz_OLEPRO32              5f8adb70  
 0002:00014b80       __sz_WINSPOOL              5f8adb80  
 0002:00014b90       __sz_WININET               5f8adb90  
 0002:00014ba0       __sz_WSOCK32               5f8adba0  
 0002:00014bb0       __sz_oledlg                5f8adbb0  
 0002:00014bc0       __sz_urlmon                5f8adbc0  
 0002:00014bd0       __sz_ODBC32                5f8adbd0  
 0002:00014be0       ??_R1A@?0A@A@CArchiveException@@8 5f8adbe0  
 0002:00014bf8       ??_R2CArchiveException@@8  5f8adbf8  
 0002:00014c08       ??_R3CArchiveException@@8  5f8adc08  
 0002:00014c18       ??_R4CArchiveException@@6B@ 5f8adc18  
 0002:00014c30       ??_R1A@?0A@A@ISequentialStream@@8 5f8adc30  
 0002:00014c48       ??_R1A@?0A@A@IStream@@8    5f8adc48  
 0002:00014c60       ??_R1A@?0A@A@CArchiveStream@@8 5f8adc60  
 0002:00014c78       ??_R2CArchiveStream@@8     5f8adc78  
 0002:00014c90       ??_R3CArchiveStream@@8     5f8adc90  
 0002:00014ca0       ??_R4CArchiveStream@@6B@   5f8adca0  
 0002:00014cb8       ??_R1A@?0A@A@CStdioFile@@8 5f8adcb8  
 0002:00014cd0       ??_R2CStdioFile@@8         5f8adcd0  
 0002:00014ce0       ??_R3CStdioFile@@8         5f8adce0  
 0002:00014cf0       ??_R4CStdioFile@@6B@       5f8adcf0  
 0002:00014d08       ??_R1A@?0A@A@CSharedFile@@8 5f8add08  
 0002:00014d20       ??_R2CSharedFile@@8        5f8add20  
 0002:00014d38       ??_R3CSharedFile@@8        5f8add38  
 0002:00014d48       ??_R4CSharedFile@@6B@      5f8add48  
 0002:00014d60       ??_R1A@?0A@A@CByteArray@@8 5f8add60  
 0002:00014d78       ??_R2CByteArray@@8         5f8add78  
 0002:00014d88       ??_R3CByteArray@@8         5f8add88  
 0002:00014d98       ??_R4CByteArray@@6B@       5f8add98  
 0002:00014db0       ??_R1A@?0A@A@CObArray@@8   5f8addb0  
 0002:00014dc8       ??_R2CObArray@@8           5f8addc8  
 0002:00014dd8       ??_R3CObArray@@8           5f8addd8  
 0002:00014de8       ??_R4CObArray@@6B@         5f8adde8  
 0002:00014e00       ??_R1A@?0A@A@CStringArray@@8 5f8ade00  
 0002:00014e18       ??_R2CStringArray@@8       5f8ade18  
 0002:00014e28       ??_R3CStringArray@@8       5f8ade28  
 0002:00014e38       ??_R4CStringArray@@6B@     5f8ade38  
 0002:00014e50       ??_R1A@?0A@A@CUIntArray@@8 5f8ade50  
 0002:00014e68       ??_R2CUIntArray@@8         5f8ade68  
 0002:00014e78       ??_R3CUIntArray@@8         5f8ade78  
 0002:00014e88       ??_R4CUIntArray@@6B@       5f8ade88  
 0002:00014ea0       ??_R1A@?0A@A@CWordArray@@8 5f8adea0  
 0002:00014eb8       ??_R2CWordArray@@8         5f8adeb8  
 0002:00014ec8       ??_R3CWordArray@@8         5f8adec8  
 0002:00014ed8       ??_R4CWordArray@@6B@       5f8aded8  
 0002:00014ef0       ??_R1A@?0A@A@CStringList@@8 5f8adef0  
 0002:00014f08       ??_R2CStringList@@8        5f8adf08  
 0002:00014f18       ??_R3CStringList@@8        5f8adf18  
 0002:00014f28       ??_R4CStringList@@6B@      5f8adf28  
 0002:00014f40       ??_R1A@?0A@A@CMapPtrToWord@@8 5f8adf40  
 0002:00014f58       ??_R2CMapPtrToWord@@8      5f8adf58  
 0002:00014f68       ??_R3CMapPtrToWord@@8      5f8adf68  
 0002:00014f78       ??_R4CMapPtrToWord@@6B@    5f8adf78  
 0002:00014f90       ??_R1A@?0A@A@CMapStringToOb@@8 5f8adf90  
 0002:00014fa8       ??_R2CMapStringToOb@@8     5f8adfa8  
 0002:00014fb8       ??_R3CMapStringToOb@@8     5f8adfb8  
 0002:00014fc8       ??_R4CMapStringToOb@@6B@   5f8adfc8  
 0002:00014fe0       ??_R1A@?0A@A@CMapStringToString@@8 5f8adfe0  
 0002:00014ff8       ??_R2CMapStringToString@@8 5f8adff8  
 0002:00015008       ??_R3CMapStringToString@@8 5f8ae008  
 0002:00015018       ??_R4CMapStringToString@@6B@ 5f8ae018  
 0002:00015030       ??_R1A@?0A@A@CMapWordToOb@@8 5f8ae030  
 0002:00015048       ??_R2CMapWordToOb@@8       5f8ae048  
 0002:00015058       ??_R3CMapWordToOb@@8       5f8ae058  
 0002:00015068       ??_R4CMapWordToOb@@6B@     5f8ae068  
 0002:00015080       ??_R1A@?0A@A@CMapWordToPtr@@8 5f8ae080  
 0002:00015098       ??_R2CMapWordToPtr@@8      5f8ae098  
 0002:000150a8       ??_R3CMapWordToPtr@@8      5f8ae0a8  
 0002:000150b8       ??_R4CMapWordToPtr@@6B@    5f8ae0b8  
 0002:000150d0       ??_R1A@?0A@A@CSemaphore@@8 5f8ae0d0  
 0002:000150e8       ??_R2CSemaphore@@8         5f8ae0e8  
 0002:000150f8       ??_R3CSemaphore@@8         5f8ae0f8  
 0002:00015108       ??_R4CSemaphore@@6B@       5f8ae108  
 0002:00015120       ??_R1A@?0A@A@CMutex@@8     5f8ae120  
 0002:00015138       ??_R2CMutex@@8             5f8ae138  
 0002:00015148       ??_R3CMutex@@8             5f8ae148  
 0002:00015158       ??_R4CMutex@@6B@           5f8ae158  
 0002:00015170       ??_R1A@?0A@A@CEvent@@8     5f8ae170  
 0002:00015188       ??_R2CEvent@@8             5f8ae188  
 0002:00015198       ??_R3CEvent@@8             5f8ae198  
 0002:000151a8       ??_R4CEvent@@6B@           5f8ae1a8  
 0002:000151c0       ??_R1A@?0A@A@CToolTipCtrl@@8 5f8ae1c0  
 0002:000151d8       ??_R2CToolTipCtrl@@8       5f8ae1d8  
 0002:000151f0       ??_R3CToolTipCtrl@@8       5f8ae1f0  
 0002:00015200       ??_R4CToolTipCtrl@@6B@     5f8ae200  
 0002:00015218       ??_R1A@?0A@A@CMiniFrameWnd@@8 5f8ae218  
 0002:00015230       ??_R2CMiniFrameWnd@@8      5f8ae230  
 0002:00015248       ??_R3CMiniFrameWnd@@8      5f8ae248  
 0002:00015258       ??_R4CMiniFrameWnd@@6B@    5f8ae258  
 0002:00015270       ??_R1A@?0A@A@CBrush@@8     5f8ae270  
 0002:00015288       ??_R2CBrush@@8             5f8ae288  
 0002:00015298       ??_R3CBrush@@8             5f8ae298  
 0002:000152a8       ??_R4CBrush@@6B@           5f8ae2a8  
 0002:000152c0       ??_R1A@?0A@A@CDialogBar@@8 5f8ae2c0  
 0002:000152d8       ??_R2CDialogBar@@8         5f8ae2d8  
 0002:000152f0       ??_R3CDialogBar@@8         5f8ae2f0  
 0002:00015300       ??_R4CDialogBar@@6B@       5f8ae300  
 0002:00015318       ??_R1A@?0A@A@CMiniDockFrameWnd@@8 5f8ae318  
 0002:00015330       ??_R2CMiniDockFrameWnd@@8  5f8ae330  
 0002:00015350       ??_R3CMiniDockFrameWnd@@8  5f8ae350  
 0002:00015360       ??_R4CMiniDockFrameWnd@@6B@ 5f8ae360  
 0002:00015378       ??_R1A@?0A@A@CPreviewDC@@8 5f8ae378  
 0002:00015390       ??_R2CPreviewDC@@8         5f8ae390  
 0002:000153a0       ??_R3CPreviewDC@@8         5f8ae3a0  
 0002:000153b0       ??_R4CPreviewDC@@6B@       5f8ae3b0  
 0002:000153c8       ??_R1A@?0A@A@CMetaFileDC@@8 5f8ae3c8  
 0002:000153e0       ??_R2CMetaFileDC@@8        5f8ae3e0  
 0002:000153f0       ??_R3CMetaFileDC@@8        5f8ae3f0  
 0002:00015400       ??_R4CMetaFileDC@@6B@      5f8ae400  
 0002:00015418       ??_R1A@?0A@A@CRectTracker@@8 5f8ae418  
 0002:00015430       ??_R2CRectTracker@@8       5f8ae430  
 0002:00015438       ??_R3CRectTracker@@8       5f8ae438  
 0002:00015448       ??_R4CRectTracker@@6B@     5f8ae448  
 0002:00015460       ??_R1A@?0A@A@CReBar@@8     5f8ae460  
 0002:00015478       ??_R2CReBar@@8             5f8ae478  
 0002:00015490       ??_R3CReBar@@8             5f8ae490  
 0002:000154a0       ??_R4CReBar@@6B@           5f8ae4a0  
 0002:000154b8       ??_R1A@?0A@A@CListBox@@8   5f8ae4b8  
 0002:000154d0       ??_R2CListBox@@8           5f8ae4d0  
 0002:000154e8       ??_R3CListBox@@8           5f8ae4e8  
 0002:000154f8       ??_R4CListBox@@6B@         5f8ae4f8  
 0002:00015510       ??_R1A@?0A@A@CScrollBar@@8 5f8ae510  
 0002:00015528       ??_R2CScrollBar@@8         5f8ae528  
 0002:00015540       ??_R3CScrollBar@@8         5f8ae540  
 0002:00015550       ??_R4CScrollBar@@6B@       5f8ae550  
 0002:00015568       ??_R1A@?0A@A@CDragListBox@@8 5f8ae568  
 0002:00015580       ??_R2CDragListBox@@8       5f8ae580  
 0002:00015598       ??_R3CDragListBox@@8       5f8ae598  
 0002:000155a8       ??_R4CDragListBox@@6B@     5f8ae5a8  
 0002:000155c0       ??_R1A@?0A@A@CRgn@@8       5f8ae5c0  
 0002:000155d8       ??_R2CRgn@@8               5f8ae5d8  
 0002:000155e8       ??_R3CRgn@@8               5f8ae5e8  
 0002:000155f8       ??_R4CRgn@@6B@             5f8ae5f8  
 0002:00015610       ??_R1A@?0A@A@CToolBarCtrl@@8 5f8ae610  
 0002:00015628       ??_R2CToolBarCtrl@@8       5f8ae628  
 0002:00015640       ??_R3CToolBarCtrl@@8       5f8ae640  
 0002:00015650       ??_R4CToolBarCtrl@@6B@     5f8ae650  
 0002:00015668       ??_R1A@?0A@A@CStatusBarCtrl@@8 5f8ae668  
 0002:00015680       ??_R2CStatusBarCtrl@@8     5f8ae680  
 0002:00015698       ??_R3CStatusBarCtrl@@8     5f8ae698  
 0002:000156a8       ??_R4CStatusBarCtrl@@6B@   5f8ae6a8  
 0002:000156c0       ??_R1A@?0A@A@CListCtrl@@8  5f8ae6c0  
 0002:000156d8       ??_R2CListCtrl@@8          5f8ae6d8  
 0002:000156f0       ??_R3CListCtrl@@8          5f8ae6f0  
 0002:00015700       ??_R4CListCtrl@@6B@        5f8ae700  
 0002:00015718       ??_R1A@?0A@A@CTreeCtrl@@8  5f8ae718  
 0002:00015730       ??_R2CTreeCtrl@@8          5f8ae730  
 0002:00015748       ??_R3CTreeCtrl@@8          5f8ae748  
 0002:00015758       ??_R4CTreeCtrl@@6B@        5f8ae758  
 0002:00015770       ??_R1A@?0A@A@CSpinButtonCtrl@@8 5f8ae770  
 0002:00015788       ??_R2CSpinButtonCtrl@@8    5f8ae788  
 0002:000157a0       ??_R3CSpinButtonCtrl@@8    5f8ae7a0  
 0002:000157b0       ??_R4CSpinButtonCtrl@@6B@  5f8ae7b0  
 0002:000157c8       ??_R1A@?0A@A@CSliderCtrl@@8 5f8ae7c8  
 0002:000157e0       ??_R2CSliderCtrl@@8        5f8ae7e0  
 0002:000157f8       ??_R3CSliderCtrl@@8        5f8ae7f8  
 0002:00015808       ??_R4CSliderCtrl@@6B@      5f8ae808  
 0002:00015820       ??_R1A@?0A@A@CProgressCtrl@@8 5f8ae820  
 0002:00015838       ??_R2CProgressCtrl@@8      5f8ae838  
 0002:00015850       ??_R3CProgressCtrl@@8      5f8ae850  
 0002:00015860       ??_R4CProgressCtrl@@6B@    5f8ae860  
 0002:00015878       ??_R1A@?0A@A@CHeaderCtrl@@8 5f8ae878  
 0002:00015890       ??_R2CHeaderCtrl@@8        5f8ae890  
 0002:000158a8       ??_R3CHeaderCtrl@@8        5f8ae8a8  
 0002:000158b8       ??_R4CHeaderCtrl@@6B@      5f8ae8b8  
 0002:000158d0       ??_R1A@?0A@A@CHotKeyCtrl@@8 5f8ae8d0  
 0002:000158e8       ??_R2CHotKeyCtrl@@8        5f8ae8e8  
 0002:00015900       ??_R3CHotKeyCtrl@@8        5f8ae900  
 0002:00015910       ??_R4CHotKeyCtrl@@6B@      5f8ae910  
 0002:00015928       ??_R1A@?0A@A@CTabCtrl@@8   5f8ae928  
 0002:00015940       ??_R2CTabCtrl@@8           5f8ae940  
 0002:00015958       ??_R3CTabCtrl@@8           5f8ae958  
 0002:00015968       ??_R4CTabCtrl@@6B@         5f8ae968  
 0002:00015980       ??_R1A@?0A@A@CAnimateCtrl@@8 5f8ae980  
 0002:00015998       ??_R2CAnimateCtrl@@8       5f8ae998  
 0002:000159b0       ??_R3CAnimateCtrl@@8       5f8ae9b0  
 0002:000159c0       ??_R4CAnimateCtrl@@6B@     5f8ae9c0  
 0002:000159d8       ??_R1A@?0A@A@CRichEditCtrl@@8 5f8ae9d8  
 0002:000159f0       ??_R2CRichEditCtrl@@8      5f8ae9f0  
 0002:00015a08       ??_R3CRichEditCtrl@@8      5f8aea08  
 0002:00015a18       ??_R4CRichEditCtrl@@6B@    5f8aea18  
 0002:00015a30       ??_R1A@?0A@A@CImageList@@8 5f8aea30  
 0002:00015a48       ??_R2CImageList@@8         5f8aea48  
 0002:00015a58       ??_R3CImageList@@8         5f8aea58  
 0002:00015a68       ??_R4CImageList@@6B@       5f8aea68  
 0002:00015a80       ??_R1A@?0A@A@CTempImageList@@8 5f8aea80  
 0002:00015a98       ??_R2CTempImageList@@8     5f8aea98  
 0002:00015aa8       ??_R3CTempImageList@@8     5f8aeaa8  
 0002:00015ab8       ??_R4CTempImageList@@6B@   5f8aeab8  
 0002:00015ad0       ??_R1A@?0A@A@CBitmap@@8    5f8aead0  
 0002:00015ae8       ??_R2CBitmap@@8            5f8aeae8  
 0002:00015af8       ??_R3CBitmap@@8            5f8aeaf8  
 0002:00015b08       ??_R4CBitmap@@6B@          5f8aeb08  
 0002:00015b20       ??_R1A@?0A@A@_AFX_CHECKLIST_STATE@@8 5f8aeb20  
 0002:00015b38       ??_R2_AFX_CHECKLIST_STATE@@8 5f8aeb38  
 0002:00015b48       ??_R3_AFX_CHECKLIST_STATE@@8 5f8aeb48  
 0002:00015b58       ??_R4_AFX_CHECKLIST_STATE@@6B@ 5f8aeb58  
 0002:00015b70       ??_R1A@?0A@A@CPropertyPage@@8 5f8aeb70  
 0002:00015b88       ??_R2CPropertyPage@@8      5f8aeb88  
 0002:00015ba0       ??_R3CPropertyPage@@8      5f8aeba0  
 0002:00015bb0       ??_R4CPropertyPage@@6B@    5f8aebb0  
 0002:00015bc8       ??_R1A@?0A@A@CPropertySheet@@8 5f8aebc8  
 0002:00015be0       ??_R2CPropertySheet@@8     5f8aebe0  
 0002:00015bf8       ??_R3CPropertySheet@@8     5f8aebf8  
 0002:00015c08       ??_R4CPropertySheet@@6B@   5f8aec08  
 0002:00015c20       ??_R1A@?0A@A@CPropertyPageEx@@8 5f8aec20  
 0002:00015c38       ??_R2CPropertyPageEx@@8    5f8aec38  
 0002:00015c58       ??_R3CPropertyPageEx@@8    5f8aec58  
 0002:00015c68       ??_R4CPropertyPageEx@@6B@  5f8aec68  
 0002:00015c80       ??_R1A@?0A@A@CPropertySheetEx@@8 5f8aec80  
 0002:00015c98       ??_R2CPropertySheetEx@@8   5f8aec98  
 0002:00015cb0       ??_R3CPropertySheetEx@@8   5f8aecb0  
 0002:00015cc0       ??_R4CPropertySheetEx@@6B@ 5f8aecc0  
 0002:00015cd8       ??_R1A@?0A@A@CFileDialog@@8 5f8aecd8  
 0002:00015cf0       ??_R2CFileDialog@@8        5f8aecf0  
 0002:00015d10       ??_R3CFileDialog@@8        5f8aed10  
 0002:00015d20       ??_R4CFileDialog@@6B@      5f8aed20  
 0002:00015d38       ??_R2CCommonDialog@@8      5f8aed38  
 0002:00015d50       ??_R3CCommonDialog@@8      5f8aed50  
 0002:00015d60       ??_R4CCommonDialog@@6B@    5f8aed60  
 0002:00015d78       ??_R1A@?0A@A@CPageSetupDialog@@8 5f8aed78  
 0002:00015d90       ??_R2CPageSetupDialog@@8   5f8aed90  
 0002:00015db0       ??_R3CPageSetupDialog@@8   5f8aedb0  
 0002:00015dc0       ??_R4CPageSetupDialog@@6B@ 5f8aedc0  
 0002:00015dd8       ??_R1A@?0A@A@_AFX_COLOR_STATE@@8 5f8aedd8  
 0002:00015df0       ??_R2_AFX_COLOR_STATE@@8   5f8aedf0  
 0002:00015e00       ??_R3_AFX_COLOR_STATE@@8   5f8aee00  
 0002:00015e10       ??_R4_AFX_COLOR_STATE@@6B@ 5f8aee10  
 0002:00015e28       ??_R1A@?0A@A@CColorDialog@@8 5f8aee28  
 0002:00015e40       ??_R2CColorDialog@@8       5f8aee40  
 0002:00015e60       ??_R3CColorDialog@@8       5f8aee60  
 0002:00015e70       ??_R4CColorDialog@@6B@     5f8aee70  
 0002:00015e88       ??_R1A@?0A@A@CFontDialog@@8 5f8aee88  
 0002:00015ea0       ??_R2CFontDialog@@8        5f8aeea0  
 0002:00015ec0       ??_R3CFontDialog@@8        5f8aeec0  
 0002:00015ed0       ??_R4CFontDialog@@6B@      5f8aeed0  
 0002:00015ee8       ??_R1A@?0A@A@CFindReplaceDialog@@8 5f8aeee8  
 0002:00015f00       ??_R2CFindReplaceDialog@@8 5f8aef00  
 0002:00015f20       ??_R3CFindReplaceDialog@@8 5f8aef20  
 0002:00015f30       ??_R4CFindReplaceDialog@@6B@ 5f8aef30  
 0002:00015f48       ??_R1A@?0A@A@_AFX_PROPPAGEFONTINFO@@8 5f8aef48  
 0002:00015f60       ??_R2_AFX_PROPPAGEFONTINFO@@8 5f8aef60  
 0002:00015f70       ??_R3_AFX_PROPPAGEFONTINFO@@8 5f8aef70  
 0002:00015f80       ??_R4_AFX_PROPPAGEFONTINFO@@6B@ 5f8aef80  
 0002:00015f98       ??_R1A@?0A@A@CIPAddressCtrl@@8 5f8aef98  
 0002:00015fb0       ??_R2CIPAddressCtrl@@8     5f8aefb0  
 0002:00015fc8       ??_R3CIPAddressCtrl@@8     5f8aefc8  
 0002:00015fd8       ??_R4CIPAddressCtrl@@6B@   5f8aefd8  
 0002:00015ff0       ??_R1A@?0A@A@CComboBoxEx@@8 5f8aeff0  
 0002:00016008       ??_R2CComboBoxEx@@8        5f8af008  
 0002:00016020       ??_R3CComboBoxEx@@8        5f8af020  
 0002:00016030       ??_R4CComboBoxEx@@6B@      5f8af030  
 0002:00016048       ??_R1A@?0A@A@CPen@@8       5f8af048  
 0002:00016060       ??_R2CPen@@8               5f8af060  
 0002:00016070       ??_R3CPen@@8               5f8af070  
 0002:00016080       ??_R4CPen@@6B@             5f8af080  
 0002:00016098       ??_R1A@?0A@A@CMirrorFile@@8 5f8af098  
 0002:000160b0       ??_R2CMirrorFile@@8        5f8af0b0  
 0002:000160c0       ??_R3CMirrorFile@@8        5f8af0c0  
 0002:000160d0       ??_R4CMirrorFile@@6B@      5f8af0d0  
 0002:000160e8       ??_R1A@?0A@A@CNewTypeDlg@@8 5f8af0e8  
 0002:00016100       ??_R2CNewTypeDlg@@8        5f8af100  
 0002:00016118       ??_R3CNewTypeDlg@@8        5f8af118  
 0002:00016128       ??_R4CNewTypeDlg@@6B@      5f8af128  
 0002:00016140       ??_R1A@?0A@A@CFormView@@8  5f8af140  
 0002:00016158       ??_R2CFormView@@8          5f8af158  
 0002:00016178       ??_R3CFormView@@8          5f8af178  
 0002:00016188       ??_R4CFormView@@6B@        5f8af188  
 0002:000161a0       ??_R1A@?0A@A@CEditView@@8  5f8af1a0  
 0002:000161b8       ??_R2CEditView@@8          5f8af1b8  
 0002:000161d8       ??_R3CEditView@@8          5f8af1d8  
 0002:000161e8       ??_R4CEditView@@6B@        5f8af1e8  
 0002:00016200       ??_R1A@?0A@A@CPreviewView@@8 5f8af200  
 0002:00016218       ??_R2CPreviewView@@8       5f8af218  
 0002:00016238       ??_R3CPreviewView@@8       5f8af238  
 0002:00016248       ??_R4CPreviewView@@6B@     5f8af248  
 0002:00016260       ??_R1A@?0A@A@CListView@@8  5f8af260  
 0002:00016278       ??_R2CListView@@8          5f8af278  
 0002:00016298       ??_R3CListView@@8          5f8af298  
 0002:000162a8       ??_R4CListView@@6B@        5f8af2a8  
 0002:000162c0       ??_R1A@?0A@A@CTreeView@@8  5f8af2c0  
 0002:000162d8       ??_R2CTreeView@@8          5f8af2d8  
 0002:000162f8       ??_R3CTreeView@@8          5f8af2f8  
 0002:00016308       ??_R4CTreeView@@6B@        5f8af308  
 0002:00016320       ??_R1A@?0A@A@_AFX_MAIL_STATE@@8 5f8af320  
 0002:00016338       ??_R2_AFX_MAIL_STATE@@8    5f8af338  
 0002:00016348       ??_R3_AFX_MAIL_STATE@@8    5f8af348  
 0002:00016358       ??_R4_AFX_MAIL_STATE@@6B@  5f8af358  
 0002:00016370       ??_R1A@?0A@A@CInternetSession@@8 5f8af370  
 0002:00016388       ??_R2CInternetSession@@8   5f8af388  
 0002:00016398       ??_R3CInternetSession@@8   5f8af398  
 0002:000163a8       ??_R4CInternetSession@@6B@ 5f8af3a8  
 0002:000163c0       ??_R1A@?0A@A@CInternetFile@@8 5f8af3c0  
 0002:000163d8       ??_R2CInternetFile@@8      5f8af3d8  
 0002:000163f0       ??_R3CInternetFile@@8      5f8af3f0  
 0002:00016400       ??_R4CInternetFile@@6B@    5f8af400  
 0002:00016418       ??_R1A@?0A@A@CInternetConnection@@8 5f8af418  
 0002:00016430       ??_R2CInternetConnection@@8 5f8af430  
 0002:00016440       ??_R3CInternetConnection@@8 5f8af440  
 0002:00016450       ??_R4CInternetConnection@@6B@ 5f8af450  
 0002:00016468       ??_R1A@?0A@A@CFtpConnection@@8 5f8af468  
 0002:00016480       ??_R2CFtpConnection@@8     5f8af480  
 0002:00016490       ??_R3CFtpConnection@@8     5f8af490  
 0002:000164a0       ??_R4CFtpConnection@@6B@   5f8af4a0  
 0002:000164b8       ??_R1A@?0A@A@CGopherConnection@@8 5f8af4b8  
 0002:000164d0       ??_R2CGopherConnection@@8  5f8af4d0  
 0002:000164e0       ??_R3CGopherConnection@@8  5f8af4e0  
 0002:000164f0       ??_R4CGopherConnection@@6B@ 5f8af4f0  
 0002:00016508       ??_R1A@?0A@A@CHttpConnection@@8 5f8af508  
 0002:00016520       ??_R2CHttpConnection@@8    5f8af520  
 0002:00016530       ??_R3CHttpConnection@@8    5f8af530  
 0002:00016540       ??_R4CHttpConnection@@6B@  5f8af540  
 0002:00016558       ??_R1A@?0A@A@CHttpFile@@8  5f8af558  
 0002:00016570       ??_R2CHttpFile@@8          5f8af570  
 0002:00016588       ??_R3CHttpFile@@8          5f8af588  
 0002:00016598       ??_R4CHttpFile@@6B@        5f8af598  
 0002:000165b0       ??_R1A@?0A@A@CGopherFile@@8 5f8af5b0  
 0002:000165c8       ??_R2CGopherFile@@8        5f8af5c8  
 0002:000165e0       ??_R3CGopherFile@@8        5f8af5e0  
 0002:000165f0       ??_R4CGopherFile@@6B@      5f8af5f0  
 0002:00016608       ??_R1A@?0A@A@CFileFind@@8  5f8af608  
 0002:00016620       ??_R1A@?0A@A@CFtpFileFind@@8 5f8af620  
 0002:00016638       ??_R2CFtpFileFind@@8       5f8af638  
 0002:00016648       ??_R3CFtpFileFind@@8       5f8af648  
 0002:00016658       ??_R4CFtpFileFind@@6B@     5f8af658  
 0002:00016670       ??_R1A@?0A@A@CGopherFileFind@@8 5f8af670  
 0002:00016688       ??_R2CGopherFileFind@@8    5f8af688  
 0002:00016698       ??_R3CGopherFileFind@@8    5f8af698  
 0002:000166a8       ??_R4CGopherFileFind@@6B@  5f8af6a8  
 0002:000166c0       ??_R1A@?0A@A@CGopherLocator@@8 5f8af6c0  
 0002:000166d8       ??_R2CGopherLocator@@8     5f8af6d8  
 0002:000166e8       ??_R3CGopherLocator@@8     5f8af6e8  
 0002:000166f8       ??_R4CGopherLocator@@6B@   5f8af6f8  
 0002:00016710       ??_R1A@?0A@A@CInternetException@@8 5f8af710  
 0002:00016728       ??_R2CInternetException@@8 5f8af728  
 0002:00016738       ??_R3CInternetException@@8 5f8af738  
 0002:00016748       ??_R4CInternetException@@6B@ 5f8af748  
 0002:00016760       ??_R2CFileFind@@8          5f8af760  
 0002:00016770       ??_R3CFileFind@@8          5f8af770  
 0002:00016780       ??_R4CFileFind@@6B@        5f8af780  
 0002:00016798       ??_R1A@?0A@A@_AFX_SOCK_STATE@@8 5f8af798  
 0002:000167b0       ??_R2_AFX_SOCK_STATE@@8    5f8af7b0  
 0002:000167c0       ??_R3_AFX_SOCK_STATE@@8    5f8af7c0  
 0002:000167d0       ??_R4_AFX_SOCK_STATE@@6B@  5f8af7d0  
 0002:000167e8       ??_R1A@?0A@A@CAsyncSocket@@8 5f8af7e8  
 0002:00016800       ??_R2CAsyncSocket@@8       5f8af800  
 0002:00016810       ??_R3CAsyncSocket@@8       5f8af810  
 0002:00016820       ??_R4CAsyncSocket@@6B@     5f8af820  
 0002:00016838       ??_R1A@?0A@A@CSocket@@8    5f8af838  
 0002:00016850       ??_R2CSocket@@8            5f8af850  
 0002:00016860       ??_R3CSocket@@8            5f8af860  
 0002:00016870       ??_R4CSocket@@6B@          5f8af870  
 0002:00016888       ??_R1A@?0A@A@CSocketFile@@8 5f8af888  
 0002:000168a0       ??_R2CSocketFile@@8        5f8af8a0  
 0002:000168b0       ??_R3CSocketFile@@8        5f8af8b0  
 0002:000168c0       ??_R4CSocketFile@@6B@      5f8af8c0  
 0002:000168d8       ??_R1A@?0A@A@CSocketWnd@@8 5f8af8d8  
 0002:000168f0       ??_R2CSocketWnd@@8         5f8af8f0  
 0002:00016908       ??_R3CSocketWnd@@8         5f8af908  
 0002:00016918       ??_R4CSocketWnd@@6B@       5f8af918  
 0002:00016930       ??_R1A@?0A@A@IOleInPlaceSite@@8 5f8af930  
 0002:00016948       ??_R1A@?0A@A@XOleIPSite@COleClientItem@@8 5f8af948  
 0002:00016960       ??_R2XOleIPSite@COleClientItem@@8 5f8af960  
 0002:00016978       ??_R3XOleIPSite@COleClientItem@@8 5f8af978  
 0002:00016988       ??_R4XOleIPSite@COleClientItem@@6B@ 5f8af988  
 0002:000169a0       ??_R1A@?0A@A@CDocItem@@8   5f8af9a0  
 0002:000169b8       ??_R1A@?0A@A@COleClientItem@@8 5f8af9b8  
 0002:000169d0       ??_R2COleClientItem@@8     5f8af9d0  
 0002:000169e8       ??_R3COleClientItem@@8     5f8af9e8  
 0002:000169f8       ??_R4COleClientItem@@6B@   5f8af9f8  
 0002:00016a10       ??_R1A@?0A@A@IAdviseSink@@8 5f8afa10  
 0002:00016a28       ??_R1A@?0A@A@XAdviseSink@COleClientItem@@8 5f8afa28  
 0002:00016a40       ??_R2XAdviseSink@COleClientItem@@8 5f8afa40  
 0002:00016a50       ??_R3XAdviseSink@COleClientItem@@8 5f8afa50  
 0002:00016a60       ??_R4XAdviseSink@COleClientItem@@6B@ 5f8afa60  
 0002:00016a78       ??_R1A@?0A@A@IOleClientSite@@8 5f8afa78  
 0002:00016a90       ??_R1A@?0A@A@XOleClientSite@COleClientItem@@8 5f8afa90  
 0002:00016aa8       ??_R2XOleClientSite@COleClientItem@@8 5f8afaa8  
 0002:00016ab8       ??_R3XOleClientSite@COleClientItem@@8 5f8afab8  
 0002:00016ac8       ??_R4XOleClientSite@COleClientItem@@6B@ 5f8afac8  
 0002:00016ae0       ??_R1A@?0A@A@IOleCommandTarget@@8 5f8afae0  
 0002:00016af8       ??_R1A@?0A@A@XOleCommandTarget@COleFrameHook@@8 5f8afaf8  
 0002:00016b10       ??_R2XOleCommandTarget@COleFrameHook@@8 5f8afb10  
 0002:00016b20       ??_R3XOleCommandTarget@COleFrameHook@@8 5f8afb20  
 0002:00016b30       ??_R4XOleCommandTarget@COleFrameHook@@6B@ 5f8afb30  
 0002:00016b48       ??_R1A@?0A@A@IOleInPlaceUIWindow@@8 5f8afb48  
 0002:00016b60       ??_R1A@?0A@A@IOleInPlaceFrame@@8 5f8afb60  
 0002:00016b78       ??_R1A@?0A@A@XOleInPlaceFrame@COleFrameHook@@8 5f8afb78  
 0002:00016b90       ??_R2XOleInPlaceFrame@COleFrameHook@@8 5f8afb90  
 0002:00016ba8       ??_R3XOleInPlaceFrame@COleFrameHook@@8 5f8afba8  
 0002:00016bb8       ??_R4XOleInPlaceFrame@COleFrameHook@@6B@ 5f8afbb8  
 0002:00016bd0       ??_R1A@?0A@A@COleFrameHook@@8 5f8afbd0  
 0002:00016be8       ??_R2COleFrameHook@@8      5f8afbe8  
 0002:00016bf8       ??_R3COleFrameHook@@8      5f8afbf8  
 0002:00016c08       ??_R4COleFrameHook@@6B@    5f8afc08  
 0002:00016c20       ??_R1A@?0A@A@XDataObject@COleDataSource@@8 5f8afc20  
 0002:00016c38       ??_R2XDataObject@COleDataSource@@8 5f8afc38  
 0002:00016c48       ??_R3XDataObject@COleDataSource@@8 5f8afc48  
 0002:00016c58       ??_R4XDataObject@COleDataSource@@6B@ 5f8afc58  
 0002:00016c70       ??_R1A@?0A@A@COleDataSource@@8 5f8afc70  
 0002:00016c88       ??_R2COleDataSource@@8     5f8afc88  
 0002:00016c98       ??_R3COleDataSource@@8     5f8afc98  
 0002:00016ca8       ??_R4COleDataSource@@6B@   5f8afca8  
 0002:00016cc0       ??_R1A@?0A@A@CEnumArray@@8 5f8afcc0  
 0002:00016cd8       ??_R1A@?0A@A@CEnumFormatEtc@@8 5f8afcd8  
 0002:00016cf0       ??_R2CEnumFormatEtc@@8     5f8afcf0  
 0002:00016d08       ??_R3CEnumFormatEtc@@8     5f8afd08  
 0002:00016d18       ??_R4CEnumFormatEtc@@6B@   5f8afd18  
 0002:00016d30       ??_R1A@?0A@A@COleDispatchException@@8 5f8afd30  
 0002:00016d48       ??_R2COleDispatchException@@8 5f8afd48  
 0002:00016d58       ??_R3COleDispatchException@@8 5f8afd58  
 0002:00016d68       ??_R4COleDispatchException@@6B@ 5f8afd68  
 0002:00016d80       ??_R1A@?0A@A@COleInsertDialog@@8 5f8afd80  
 0002:00016d98       ??_R2COleInsertDialog@@8   5f8afd98  
 0002:00016db8       ??_R3COleInsertDialog@@8   5f8afdb8  
 0002:00016dc8       ??_R4COleInsertDialog@@6B@ 5f8afdc8  
 0002:00016de0       ??_R1A@?0A@A@COleConvertDialog@@8 5f8afde0  
 0002:00016df8       ??_R2COleConvertDialog@@8  5f8afdf8  
 0002:00016e18       ??_R3COleConvertDialog@@8  5f8afe18  
 0002:00016e28       ??_R4COleConvertDialog@@6B@ 5f8afe28  
 0002:00016e40       ??_R1A@?0A@A@COleChangeIconDialog@@8 5f8afe40  
 0002:00016e58       ??_R2COleChangeIconDialog@@8 5f8afe58  
 0002:00016e78       ??_R3COleChangeIconDialog@@8 5f8afe78  
 0002:00016e88       ??_R4COleChangeIconDialog@@6B@ 5f8afe88  
 0002:00016ea0       ??_R1A@?0A@A@COlePasteSpecialDialog@@8 5f8afea0  
 0002:00016eb8       ??_R2COlePasteSpecialDialog@@8 5f8afeb8  
 0002:00016ed8       ??_R3COlePasteSpecialDialog@@8 5f8afed8  
 0002:00016ee8       ??_R4COlePasteSpecialDialog@@6B@ 5f8afee8  
 0002:00016f00       ??_R1A@?0A@A@COleBusyDialog@@8 5f8aff00  
 0002:00016f18       ??_R2COleBusyDialog@@8     5f8aff18  
 0002:00016f38       ??_R3COleBusyDialog@@8     5f8aff38  
 0002:00016f48       ??_R4COleBusyDialog@@6B@   5f8aff48  
 0002:00016f60       ??_R1A@?0A@A@COlePropertiesDialog@@8 5f8aff60  
 0002:00016f78       ??_R2COlePropertiesDialog@@8 5f8aff78  
 0002:00016f98       ??_R3COlePropertiesDialog@@8 5f8aff98  
 0002:00016fa8       ??_R4COlePropertiesDialog@@6B@ 5f8affa8  
 0002:00016fc0       ??_R1A@?0A@A@IOleUIObjInfoW@@8 5f8affc0  
 0002:00016fd8       ??_R1A@?0A@A@XOleUIObjInfo@COlePropertiesDialog@@8 5f8affd8  
 0002:00016ff0       ??_R2XOleUIObjInfo@COlePropertiesDialog@@8 5f8afff0  
 0002:00017000       ??_R3XOleUIObjInfo@COlePropertiesDialog@@8 5f8b0000  
 0002:00017010       ??_R4XOleUIObjInfo@COlePropertiesDialog@@6B@ 5f8b0010  
 0002:00017028       ??_R1A@?0A@A@COleChangeSourceDialog@@8 5f8b0028  
 0002:00017040       ??_R2COleChangeSourceDialog@@8 5f8b0040  
 0002:00017060       ??_R3COleChangeSourceDialog@@8 5f8b0060  
 0002:00017070       ??_R4COleChangeSourceDialog@@6B@ 5f8b0070  
 0002:00017088       ??_R2CDocItem@@8           5f8b0088  
 0002:00017098       ??_R3CDocItem@@8           5f8b0098  
 0002:000170a8       ??_R4CDocItem@@6B@         5f8b00a8  
 0002:000170c0       ??_R1A@?0A@A@COleDropSource@@8 5f8b00c0  
 0002:000170d8       ??_R2COleDropSource@@8     5f8b00d8  
 0002:000170e8       ??_R3COleDropSource@@8     5f8b00e8  
 0002:000170f8       ??_R4COleDropSource@@6B@   5f8b00f8  
 0002:00017110       ??_R1A@?0A@A@IDropSource@@8 5f8b0110  
 0002:00017128       ??_R1A@?0A@A@XDropSource@COleDropSource@@8 5f8b0128  
 0002:00017140       ??_R2XDropSource@COleDropSource@@8 5f8b0140  
 0002:00017150       ??_R3XDropSource@COleDropSource@@8 5f8b0150  
 0002:00017160       ??_R4XDropSource@COleDropSource@@6B@ 5f8b0160  
 0002:00017178       ??_R1A@?0A@A@IEnumVOID@@8  5f8b0178  
 0002:00017190       ??_R1A@?0A@A@XEnumVOID@CEnumArray@@8 5f8b0190  
 0002:000171a8       ??_R2XEnumVOID@CEnumArray@@8 5f8b01a8  
 0002:000171b8       ??_R3XEnumVOID@CEnumArray@@8 5f8b01b8  
 0002:000171c8       ??_R4XEnumVOID@CEnumArray@@6B@ 5f8b01c8  
 0002:000171e0       ??_R2CEnumArray@@8         5f8b01e0  
 0002:000171f0       ??_R3CEnumArray@@8         5f8b01f0  
 0002:00017200       ??_R4CEnumArray@@6B@       5f8b0200  
 0002:00017218       ??_R1A@?0A@A@COleCntrFrameWnd@@8 5f8b0218  
 0002:00017230       ??_R2COleCntrFrameWnd@@8   5f8b0230  
 0002:00017248       ??_R3COleCntrFrameWnd@@8   5f8b0248  
 0002:00017258       ??_R4COleCntrFrameWnd@@6B@ 5f8b0258  
 0002:00017270       ??_R1A@?0A@A@COleIPFrameWnd@@8 5f8b0270  
 0002:00017288       ??_R2COleIPFrameWnd@@8     5f8b0288  
 0002:000172a0       ??_R3COleIPFrameWnd@@8     5f8b02a0  
 0002:000172b0       ??_R4COleIPFrameWnd@@6B@   5f8b02b0  
 0002:000172c8       ??_R1A@?0A@A@COleException@@8 5f8b02c8  
 0002:000172e0       ??_R2COleException@@8      5f8b02e0  
 0002:000172f0       ??_R3COleException@@8      5f8b02f0  
 0002:00017300       ??_R4COleException@@6B@    5f8b0300  
 0002:00017318       ??_R1A@?0A@A@COleStreamFile@@8 5f8b0318  
 0002:00017330       ??_R2COleStreamFile@@8     5f8b0330  
 0002:00017340       ??_R3COleStreamFile@@8     5f8b0340  
 0002:00017350       ??_R4COleStreamFile@@6B@   5f8b0350  
 0002:00017368       ??_R1A@?0A@A@XOleObject@COleServerItem@@8 5f8b0368  
 0002:00017380       ??_R2XOleObject@COleServerItem@@8 5f8b0380  
 0002:00017390       ??_R3XOleObject@COleServerItem@@8 5f8b0390  
 0002:000173a0       ??_R4XOleObject@COleServerItem@@6B@ 5f8b03a0  
 0002:000173b8       ??_R1A@?0A@A@CItemDataSource@COleServerItem@@8 5f8b03b8  
 0002:000173d0       ??_R2CItemDataSource@COleServerItem@@8 5f8b03d0  
 0002:000173e8       ??_R3CItemDataSource@COleServerItem@@8 5f8b03e8  
 0002:000173f8       ??_R4CItemDataSource@COleServerItem@@6B@ 5f8b03f8  
 0002:00017410       ??_R1A@?0A@A@COleServerItem@@8 5f8b0410  
 0002:00017428       ??_R2COleServerItem@@8     5f8b0428  
 0002:00017440       ??_R3COleServerItem@@8     5f8b0440  
 0002:00017450       ??_R4COleServerItem@@6B@   5f8b0450  
 0002:00017468       ??_R1A@?0A@A@XDataObject@COleServerItem@@8 5f8b0468  
 0002:00017480       ??_R2XDataObject@COleServerItem@@8 5f8b0480  
 0002:00017490       ??_R3XDataObject@COleServerItem@@8 5f8b0490  
 0002:000174a0       ??_R4XDataObject@COleServerItem@@6B@ 5f8b04a0  
 0002:000174b8       ??_R1A@?0A@A@CInnerUnknown@@8 5f8b04b8  
 0002:000174d0       ??_R2CInnerUnknown@@8      5f8b04d0  
 0002:000174e0       ??_R3CInnerUnknown@@8      5f8b04e0  
 0002:000174f0       ??_R4CInnerUnknown@@6B@    5f8b04f0  
 0002:00017508       ??_R1A@?0A@A@CEnumOleVerb@@8 5f8b0508  
 0002:00017520       ??_R2CEnumOleVerb@@8       5f8b0520  
 0002:00017538       ??_R3CEnumOleVerb@@8       5f8b0538  
 0002:00017548       ??_R4CEnumOleVerb@@6B@     5f8b0548  
 0002:00017560       ??_R1A@?0A@A@CRichEditCntrItem@@8 5f8b0560  
 0002:00017578       ??_R2CRichEditCntrItem@@8  5f8b0578  
 0002:00017590       ??_R3CRichEditCntrItem@@8  5f8b0590  
 0002:000175a0       ??_R4CRichEditCntrItem@@6B@ 5f8b05a0  
 0002:000175b8       ??_R1A@?0A@A@CTypeLibCacheMap@@8 5f8b05b8  
 0002:000175d0       ??_R2CTypeLibCacheMap@@8   5f8b05d0  
 0002:000175e0       ??_R3CTypeLibCacheMap@@8   5f8b05e0  
 0002:000175f0       ??_R4CTypeLibCacheMap@@6B@ 5f8b05f0  
 0002:00017608       ??_R1A@?0A@A@CMonikerFile@@8 5f8b0608  
 0002:00017620       ??_R2CMonikerFile@@8       5f8b0620  
 0002:00017638       ??_R3CMonikerFile@@8       5f8b0638  
 0002:00017648       ??_R4CMonikerFile@@6B@     5f8b0648  
 0002:00017660       ??_R1A@?0A@A@IBindHost@@8  5f8b0660  
 0002:00017678       ??_R1A@?0A@A@_AfxBindHost@@8 5f8b0678  
 0002:00017690       ??_R2_AfxBindHost@@8       5f8b0690  
 0002:000176a0       ??_R3_AfxBindHost@@8       5f8b06a0  
 0002:000176b0       ??_R4_AfxBindHost@@6B@     5f8b06b0  
 0002:000176c8       ??_R2IBindHost@@8          5f8b06c8  
 0002:000176d8       ??_R3IBindHost@@8          5f8b06d8  
 0002:000176e8       ??_R4IBindHost@@6B@        5f8b06e8  
 0002:00017700       ??_R1A@?0A@A@CDateTimeCtrl@@8 5f8b0700  
 0002:00017718       ??_R2CDateTimeCtrl@@8      5f8b0718  
 0002:00017730       ??_R3CDateTimeCtrl@@8      5f8b0730  
 0002:00017740       ??_R4CDateTimeCtrl@@6B@    5f8b0740  
 0002:00017758       ??_R1A@?0A@A@CMonthCalCtrl@@8 5f8b0758  
 0002:00017770       ??_R2CMonthCalCtrl@@8      5f8b0770  
 0002:00017788       ??_R3CMonthCalCtrl@@8      5f8b0788  
 0002:00017798       ??_R4CMonthCalCtrl@@6B@    5f8b0798  
 0002:000177b0       ??_R1A@?0A@A@CHtmlView@@8  5f8b07b0  
 0002:000177c8       ??_R2CHtmlView@@8          5f8b07c8  
 0002:000177e8       ??_R3CHtmlView@@8          5f8b07e8  
 0002:000177f8       ??_R4CHtmlView@@6B@        5f8b07f8  
 0002:00017810       ??_R1A@?0A@A@COccManager@@8 5f8b0810  
 0002:00017828       ??_R2COccManager@@8        5f8b0828  
 0002:00017838       ??_R3COccManager@@8        5f8b0838  
 0002:00017848       ??_R4COccManager@@6B@      5f8b0848  
 0002:00017860       ??_R1A@?0A@A@XOleContainer@COleControlContainer@@8 5f8b0860  
 0002:00017878       ??_R2XOleContainer@COleControlContainer@@8 5f8b0878  
 0002:00017890       ??_R3XOleContainer@COleControlContainer@@8 5f8b0890  
 0002:000178a0       ??_R4XOleContainer@COleControlContainer@@6B@ 5f8b08a0  
 0002:000178b8       ??_R1A@?0A@A@XOleIPFrame@COleControlContainer@@8 5f8b08b8  
 0002:000178d0       ??_R2XOleIPFrame@COleControlContainer@@8 5f8b08d0  
 0002:000178e8       ??_R3XOleIPFrame@COleControlContainer@@8 5f8b08e8  
 0002:000178f8       ??_R4XOleIPFrame@COleControlContainer@@6B@ 5f8b08f8  
 0002:00017910       ??_R1A@?0A@A@COleControlContainer@@8 5f8b0910  
 0002:00017928       ??_R2COleControlContainer@@8 5f8b0928  
 0002:00017938       ??_R3COleControlContainer@@8 5f8b0938  
 0002:00017948       ??_R4COleControlContainer@@6B@ 5f8b0948  
 0002:00017960       ??_R1A@?0A@A@CFont@@8      5f8b0960  
 0002:00017978       ??_R2CFont@@8              5f8b0978  
 0002:00017988       ??_R3CFont@@8              5f8b0988  
 0002:00017998       ??_R4CFont@@6B@            5f8b0998  
 0002:000179b0       ??_R1A@?0A@A@CEnumUnknown@@8 5f8b09b0  
 0002:000179c8       ??_R2CEnumUnknown@@8       5f8b09c8  
 0002:000179e0       ??_R3CEnumUnknown@@8       5f8b09e0  
 0002:000179f0       ??_R4CEnumUnknown@@6B@     5f8b09f0  
 0002:00017a08       ??_R1A@?0A@A@XEventSink@COleControlSite@@8 5f8b0a08  
 0002:00017a20       ??_R2XEventSink@COleControlSite@@8 5f8b0a20  
 0002:00017a30       ??_R3XEventSink@COleControlSite@@8 5f8b0a30  
 0002:00017a40       ??_R4XEventSink@COleControlSite@@6B@ 5f8b0a40  
 0002:00017a58       ??_R1A@?0A@A@IPropertyNotifySink@@8 5f8b0a58  
 0002:00017a70       ??_R1A@?0A@A@XPropertyNotifySink@COleControlSite@@8 5f8b0a70  
 0002:00017a88       ??_R2XPropertyNotifySink@COleControlSite@@8 5f8b0a88  
 0002:00017a98       ??_R3XPropertyNotifySink@COleControlSite@@8 5f8b0a98  
 0002:00017aa8       ??_R4XPropertyNotifySink@COleControlSite@@6B@ 5f8b0aa8  
 0002:00017ac0       ??_R1A@?0A@A@XAmbientProps@COleControlSite@@8 5f8b0ac0  
 0002:00017ad8       ??_R2XAmbientProps@COleControlSite@@8 5f8b0ad8  
 0002:00017ae8       ??_R3XAmbientProps@COleControlSite@@8 5f8b0ae8  
 0002:00017af8       ??_R4XAmbientProps@COleControlSite@@6B@ 5f8b0af8  
 0002:00017b10       ??_R1A@?0A@A@IOleControlSite@@8 5f8b0b10  
 0002:00017b28       ??_R1A@?0A@A@XOleControlSite@COleControlSite@@8 5f8b0b28  
 0002:00017b40       ??_R2XOleControlSite@COleControlSite@@8 5f8b0b40  
 0002:00017b50       ??_R3XOleControlSite@COleControlSite@@8 5f8b0b50  
 0002:00017b60       ??_R4XOleControlSite@COleControlSite@@6B@ 5f8b0b60  
 0002:00017b78       ??_R1A@?0A@A@XOleIPSite@COleControlSite@@8 5f8b0b78  
 0002:00017b90       ??_R2XOleIPSite@COleControlSite@@8 5f8b0b90  
 0002:00017ba8       ??_R3XOleIPSite@COleControlSite@@8 5f8b0ba8  
 0002:00017bb8       ??_R4XOleIPSite@COleControlSite@@6B@ 5f8b0bb8  
 0002:00017bd0       ??_R1A@?0A@A@XOleClientSite@COleControlSite@@8 5f8b0bd0  
 0002:00017be8       ??_R2XOleClientSite@COleControlSite@@8 5f8b0be8  
 0002:00017bf8       ??_R3XOleClientSite@COleControlSite@@8 5f8b0bf8  
 0002:00017c08       ??_R4XOleClientSite@COleControlSite@@6B@ 5f8b0c08  
 0002:00017c20       ??_R1A@?0A@A@COleControlSite@@8 5f8b0c20  
 0002:00017c38       ??_R2COleControlSite@@8    5f8b0c38  
 0002:00017c48       ??_R3COleControlSite@@8    5f8b0c48  
 0002:00017c58       ??_R4COleControlSite@@6B@  5f8b0c58  
 0002:00017c70       ??_R1A@?0A@A@IRowsetNotify@@8 5f8b0c70  
 0002:00017c88       ??_R1A@?0A@A@XRowsetNotify@COleControlSite@@8 5f8b0c88  
 0002:00017ca0       ??_R2XRowsetNotify@COleControlSite@@8 5f8b0ca0  
 0002:00017cb0       ??_R3XRowsetNotify@COleControlSite@@8 5f8b0cb0  
 0002:00017cc0       ??_R4XRowsetNotify@COleControlSite@@6B@ 5f8b0cc0  
 0002:00017cd8       ??_R1A@?0A@A@INotifyDBEvents@@8 5f8b0cd8  
 0002:00017cf0       ??_R1A@?0A@A@XNotifyDBEvents@COleControlSite@@8 5f8b0cf0  
 0002:00017d08       ??_R2XNotifyDBEvents@COleControlSite@@8 5f8b0d08  
 0002:00017d18       ??_R3XNotifyDBEvents@COleControlSite@@8 5f8b0d18  
 0002:00017d28       ??_R4XNotifyDBEvents@COleControlSite@@6B@ 5f8b0d28  
 0002:00017d40       ??_R1A@?0A@A@IBoundObjectSite@@8 5f8b0d40  
 0002:00017d58       ??_R1A@?0A@A@XBoundObjectSite@COleControlSite@@8 5f8b0d58  
 0002:00017d70       ??_R2XBoundObjectSite@COleControlSite@@8 5f8b0d70  
 0002:00017d80       ??_R3XBoundObjectSite@COleControlSite@@8 5f8b0d80  
 0002:00017d90       ??_R4XBoundObjectSite@COleControlSite@@6B@ 5f8b0d90  
 0002:00017da8       ??_R1A@?0A@A@CDataSourceControl@@8 5f8b0da8  
 0002:00017dc0       ??_R2CDataSourceControl@@8 5f8b0dc0  
 0002:00017dc8       ??_R3CDataSourceControl@@8 5f8b0dc8  
 0002:00017dd8       ??_R4CDataSourceControl@@6B@ 5f8b0dd8  
 0002:00017df0       ??_R1A@?0A@A@COleControlLock@@8 5f8b0df0  
 0002:00017e08       ??_R2COleControlLock@@8    5f8b0e08  
 0002:00017e10       ??_R3COleControlLock@@8    5f8b0e10  
 0002:00017e20       ??_R4COleControlLock@@6B@  5f8b0e20  
 0002:00017e38       ??_R1A@?0A@A@XOleObject@CDocObjectServer@@8 5f8b0e38  
 0002:00017e50       ??_R2XOleObject@CDocObjectServer@@8 5f8b0e50  
 0002:00017e60       ??_R3XOleObject@CDocObjectServer@@8 5f8b0e60  
 0002:00017e70       ??_R4XOleObject@CDocObjectServer@@6B@ 5f8b0e70  
 0002:00017e88       ??_R1A@?0A@A@IPrint@@8     5f8b0e88  
 0002:00017ea0       ??_R1A@?0A@A@XPrint@CDocObjectServer@@8 5f8b0ea0  
 0002:00017eb8       ??_R2XPrint@CDocObjectServer@@8 5f8b0eb8  
 0002:00017ec8       ??_R3XPrint@CDocObjectServer@@8 5f8b0ec8  
 0002:00017ed8       ??_R4XPrint@CDocObjectServer@@6B@ 5f8b0ed8  
 0002:00017ef0       ??_R1A@?0A@A@XOleCommandTarget@CDocObjectServer@@8 5f8b0ef0  
 0002:00017f08       ??_R2XOleCommandTarget@CDocObjectServer@@8 5f8b0f08  
 0002:00017f18       ??_R3XOleCommandTarget@CDocObjectServer@@8 5f8b0f18  
 0002:00017f28       ??_R4XOleCommandTarget@CDocObjectServer@@6B@ 5f8b0f28  
 0002:00017f40       ??_R1A@?0A@A@CDocObjectServer@@8 5f8b0f40  
 0002:00017f58       ??_R2CDocObjectServer@@8   5f8b0f58  
 0002:00017f68       ??_R3CDocObjectServer@@8   5f8b0f68  
 0002:00017f78       ??_R4CDocObjectServer@@6B@ 5f8b0f78  
 0002:00017f90       ??_R1A@?0A@A@IOleDocumentView@@8 5f8b0f90  
 0002:00017fa8       ??_R1A@?0A@A@XOleDocumentView@CDocObjectServer@@8 5f8b0fa8  
 0002:00017fc0       ??_R2XOleDocumentView@CDocObjectServer@@8 5f8b0fc0  
 0002:00017fd0       ??_R3XOleDocumentView@CDocObjectServer@@8 5f8b0fd0  
 0002:00017fe0       ??_R4XOleDocumentView@CDocObjectServer@@6B@ 5f8b0fe0  
 0002:00017ff8       ??_R1A@?0A@A@IOleDocument@@8 5f8b0ff8  
 0002:00018010       ??_R1A@?0A@A@XOleDocument@CDocObjectServer@@8 5f8b1010  
 0002:00018028       ??_R2XOleDocument@CDocObjectServer@@8 5f8b1028  
 0002:00018038       ??_R3XOleDocument@CDocObjectServer@@8 5f8b1038  
 0002:00018048       ??_R4XOleDocument@CDocObjectServer@@6B@ 5f8b1048  
 0002:00018060       ??_R1A@?0A@A@CDocObjectServerItem@@8 5f8b1060  
 0002:00018078       ??_R2CDocObjectServerItem@@8 5f8b1078  
 0002:00018090       ??_R3CDocObjectServerItem@@8 5f8b1090  
 0002:000180a0       ??_R4CDocObjectServerItem@@6B@ 5f8b10a0  
 0002:000180b8       ??_R1A@?0A@A@COleCmdUI@@8  5f8b10b8  
 0002:000180d0       ??_R2COleCmdUI@@8          5f8b10d0  
 0002:000180e0       ??_R3COleCmdUI@@8          5f8b10e0  
 0002:000180f0       ??_R4COleCmdUI@@6B@        5f8b10f0  
 0002:00018108       ??_R1A@?0A@A@COleDocIPFrameWnd@@8 5f8b1108  
 0002:00018120       ??_R2COleDocIPFrameWnd@@8  5f8b1120  
 0002:00018140       ??_R3COleDocIPFrameWnd@@8  5f8b1140  
 0002:00018150       ??_R4COleDocIPFrameWnd@@6B@ 5f8b1150  
 0002:00018168       ??_R1A@?0A@A@IOleDocumentSite@@8 5f8b1168  
 0002:00018180       ??_R1A@?0A@A@XOleDocumentSite@COleDocObjectItem@@8 5f8b1180  
 0002:00018198       ??_R2XOleDocumentSite@COleDocObjectItem@@8 5f8b1198  
 0002:000181a8       ??_R3XOleDocumentSite@COleDocObjectItem@@8 5f8b11a8  
 0002:000181b8       ??_R4XOleDocumentSite@COleDocObjectItem@@6B@ 5f8b11b8  
 0002:000181d0       ??_R1A@?0A@A@COleDocObjectItem@@8 5f8b11d0  
 0002:000181e8       ??_R2COleDocObjectItem@@8  5f8b11e8  
 0002:00018200       ??_R3COleDocObjectItem@@8  5f8b1200  
 0002:00018210       ??_R4COleDocObjectItem@@6B@ 5f8b1210  
 0002:00018228       ??_R1A@?0A@A@CAsyncMonikerFile@@8 5f8b1228  
 0002:00018240       ??_R2CAsyncMonikerFile@@8  5f8b1240  
 0002:00018258       ??_R3CAsyncMonikerFile@@8  5f8b1258  
 0002:00018268       ??_R4CAsyncMonikerFile@@6B@ 5f8b1268  
 0002:00018280       ??_R1A@?0A@A@IBindStatusCallback@@8 5f8b1280  
 0002:00018298       ??_R1A@?0A@A@_AfxBindStatusCallback@@8 5f8b1298  
 0002:000182b0       ??_R2_AfxBindStatusCallback@@8 5f8b12b0  
 0002:000182c0       ??_R3_AfxBindStatusCallback@@8 5f8b12c0  
 0002:000182d0       ??_R4_AfxBindStatusCallback@@6B@ 5f8b12d0  
 0002:000182e8       ??_R1A@?0A@A@CInnerUnknown@_AfxBindStatusCallback@@8 5f8b12e8  
 0002:00018300       ??_R2CInnerUnknown@_AfxBindStatusCallback@@8 5f8b1300  
 0002:00018310       ??_R3CInnerUnknown@_AfxBindStatusCallback@@8 5f8b1310  
 0002:00018320       ??_R4CInnerUnknown@_AfxBindStatusCallback@@6B@ 5f8b1320  
 0002:00018338       ??_R2IBindStatusCallback@@8 5f8b1338  
 0002:00018348       ??_R3IBindStatusCallback@@8 5f8b1348  
 0002:00018358       ??_R4IBindStatusCallback@@6B@ 5f8b1358  
 0002:00018370       ??_R1A@?0A@A@COleResizeBar@@8 5f8b1370  
 0002:00018388       ??_R2COleResizeBar@@8      5f8b1388  
 0002:000183a0       ??_R3COleResizeBar@@8      5f8b13a0  
 0002:000183b0       ??_R4COleResizeBar@@6B@    5f8b13b0  
 0002:000183c8       ??_R1A@?0A@A@IProvideClassInfo@@8 5f8b13c8  
 0002:000183e0       ??_R1A@?0A@A@IProvideClassInfo2@@8 5f8b13e0  
 0002:000183f8       ??_R1A@?0A@A@XProvideClassInfo@COleControl@@8 5f8b13f8  
 0002:00018410       ??_R2XProvideClassInfo@COleControl@@8 5f8b1410  
 0002:00018428       ??_R3XProvideClassInfo@COleControl@@8 5f8b1428  
 0002:00018438       ??_R4XProvideClassInfo@COleControl@@6B@ 5f8b1438  
 0002:00018450       ??_R1A@?0A@A@IOleControl@@8 5f8b1450  
 0002:00018468       ??_R1A@?0A@A@XOleControl@COleControl@@8 5f8b1468  
 0002:00018480       ??_R2XOleControl@COleControl@@8 5f8b1480  
 0002:00018490       ??_R3XOleControl@COleControl@@8 5f8b1490  
 0002:000184a0       ??_R4XOleControl@COleControl@@6B@ 5f8b14a0  
 0002:000184b8       ??_R1A@?0A@A@IOleCache@@8  5f8b14b8  
 0002:000184d0       ??_R1A@?0A@A@XOleCache@COleControl@@8 5f8b14d0  
 0002:000184e8       ??_R2XOleCache@COleControl@@8 5f8b14e8  
 0002:000184f8       ??_R3XOleCache@COleControl@@8 5f8b14f8  
 0002:00018508       ??_R4XOleCache@COleControl@@6B@ 5f8b1508  
 0002:00018520       ??_R1A@?0A@A@XOleInPlaceActiveObject@COleControl@@8 5f8b1520  
 0002:00018538       ??_R2XOleInPlaceActiveObject@COleControl@@8 5f8b1538  
 0002:00018550       ??_R3XOleInPlaceActiveObject@COleControl@@8 5f8b1550  
 0002:00018560       ??_R4XOleInPlaceActiveObject@COleControl@@6B@ 5f8b1560  
 0002:00018578       ??_R1A@?0A@A@IPersistStreamInit@@8 5f8b1578  
 0002:00018590       ??_R1A@?0A@A@XPersistStreamInit@COleControl@@8 5f8b1590  
 0002:000185a8       ??_R2XPersistStreamInit@COleControl@@8 5f8b15a8  
 0002:000185c0       ??_R3XPersistStreamInit@COleControl@@8 5f8b15c0  
 0002:000185d0       ??_R4XPersistStreamInit@COleControl@@6B@ 5f8b15d0  
 0002:000185e8       ??_R1A@?0A@A@IPerPropertyBrowsing@@8 5f8b15e8  
 0002:00018600       ??_R1A@?0A@A@XPerPropertyBrowsing@COleControl@@8 5f8b1600  
 0002:00018618       ??_R2XPerPropertyBrowsing@COleControl@@8 5f8b1618  
 0002:00018628       ??_R3XPerPropertyBrowsing@COleControl@@8 5f8b1628  
 0002:00018638       ??_R4XPerPropertyBrowsing@COleControl@@6B@ 5f8b1638  
 0002:00018650       ??_R1A@?0A@A@IOleInPlaceObjectWindowless@@8 5f8b1650  
 0002:00018668       ??_R1A@?0A@A@XOleInPlaceObject@COleControl@@8 5f8b1668  
 0002:00018680       ??_R2XOleInPlaceObject@COleControl@@8 5f8b1680  
 0002:00018698       ??_R3XOleInPlaceObject@COleControl@@8 5f8b1698  
 0002:000186a8       ??_R4XOleInPlaceObject@COleControl@@6B@ 5f8b16a8  
 0002:000186c0       ??_R1A@?0A@A@ISpecifyPropertyPages@@8 5f8b16c0  
 0002:000186d8       ??_R1A@?0A@A@XSpecifyPropertyPages@COleControl@@8 5f8b16d8  
 0002:000186f0       ??_R2XSpecifyPropertyPages@COleControl@@8 5f8b16f0  
 0002:00018700       ??_R3XSpecifyPropertyPages@COleControl@@8 5f8b1700  
 0002:00018710       ??_R4XSpecifyPropertyPages@COleControl@@6B@ 5f8b1710  
 0002:00018728       ??_R1A@?0A@A@XPersistStorage@COleControl@@8 5f8b1728  
 0002:00018740       ??_R2XPersistStorage@COleControl@@8 5f8b1740  
 0002:00018758       ??_R3XPersistStorage@COleControl@@8 5f8b1758  
 0002:00018768       ??_R4XPersistStorage@COleControl@@6B@ 5f8b1768  
 0002:00018780       ??_R1A@?0A@A@XDataObject@COleControl@@8 5f8b1780  
 0002:00018798       ??_R2XDataObject@COleControl@@8 5f8b1798  
 0002:000187a8       ??_R3XDataObject@COleControl@@8 5f8b17a8  
 0002:000187b8       ??_R4XDataObject@COleControl@@6B@ 5f8b17b8  
 0002:000187d0       ??_R1A@?0A@A@COleControl@@8 5f8b17d0  
 0002:000187e8       ??_R2COleControl@@8        5f8b17e8  
 0002:00018800       ??_R3COleControl@@8        5f8b1800  
 0002:00018810       ??_R4COleControl@@6B@      5f8b1810  
 0002:00018828       ??_R1A@?0A@A@XPropConnPt@COleControl@@8 5f8b1828  
 0002:00018840       ??_R2XPropConnPt@COleControl@@8 5f8b1840  
 0002:00018858       ??_R3XPropConnPt@COleControl@@8 5f8b1858  
 0002:00018868       ??_R4XPropConnPt@COleControl@@6B@ 5f8b1868  
 0002:00018880       ??_R1A@?0A@A@IViewObject@@8 5f8b1880  
 0002:00018898       ??_R1A@?0A@A@IViewObject2@@8 5f8b1898  
 0002:000188b0       ??_R1A@?0A@A@IViewObjectEx@@8 5f8b18b0  
 0002:000188c8       ??_R1A@?0A@A@XViewObject@COleControl@@8 5f8b18c8  
 0002:000188e0       ??_R2XViewObject@COleControl@@8 5f8b18e0  
 0002:000188f8       ??_R3XViewObject@COleControl@@8 5f8b18f8  
 0002:00018908       ??_R4XViewObject@COleControl@@6B@ 5f8b1908  
 0002:00018920       ??_R1A@?0A@A@CConnectionPoint@@8 5f8b1920  
 0002:00018938       ??_R1A@?0A@A@XEventConnPt@COleControl@@8 5f8b1938  
 0002:00018950       ??_R2XEventConnPt@COleControl@@8 5f8b1950  
 0002:00018968       ??_R3XEventConnPt@COleControl@@8 5f8b1968  
 0002:00018978       ??_R4XEventConnPt@COleControl@@6B@ 5f8b1978  
 0002:00018990       ??_R1A@?0A@A@XOleObject@COleControl@@8 5f8b1990  
 0002:000189a8       ??_R2XOleObject@COleControl@@8 5f8b19a8  
 0002:000189b8       ??_R3XOleObject@COleControl@@8 5f8b19b8  
 0002:000189c8       ??_R4XOleObject@COleControl@@6B@ 5f8b19c8  
 0002:000189e0       ??_R1A@?0A@A@IPointerInactive@@8 5f8b19e0  
 0002:000189f8       ??_R1A@?0A@A@XPointerInactive@COleControl@@8 5f8b19f8  
 0002:00018a10       ??_R2XPointerInactive@COleControl@@8 5f8b1a10  
 0002:00018a20       ??_R3XPointerInactive@COleControl@@8 5f8b1a20  
 0002:00018a30       ??_R4XPointerInactive@COleControl@@6B@ 5f8b1a30  
 0002:00018a48       ??_R1A@?0A@A@IPersistPropertyBag@@8 5f8b1a48  
 0002:00018a60       ??_R1A@?0A@A@XPersistPropertyBag@COleControl@@8 5f8b1a60  
 0002:00018a78       ??_R2XPersistPropertyBag@COleControl@@8 5f8b1a78  
 0002:00018a90       ??_R3XPersistPropertyBag@COleControl@@8 5f8b1a90  
 0002:00018aa0       ??_R4XPersistPropertyBag@COleControl@@6B@ 5f8b1aa0  
 0002:00018ab8       ??_R1A@?0A@A@IQuickActivate@@8 5f8b1ab8  
 0002:00018ad0       ??_R1A@?0A@A@XQuickActivate@COleControl@@8 5f8b1ad0  
 0002:00018ae8       ??_R2XQuickActivate@COleControl@@8 5f8b1ae8  
 0002:00018af8       ??_R3XQuickActivate@COleControl@@8 5f8b1af8  
 0002:00018b08       ??_R4XQuickActivate@COleControl@@6B@ 5f8b1b08  
 0002:00018b20       ??_R1A@?0A@A@IPersistMemory@@8 5f8b1b20  
 0002:00018b38       ??_R1A@?0A@A@XPersistMemory@COleControl@@8 5f8b1b38  
 0002:00018b50       ??_R2XPersistMemory@COleControl@@8 5f8b1b50  
 0002:00018b68       ??_R3XPersistMemory@COleControl@@8 5f8b1b68  
 0002:00018b78       ??_R4XPersistMemory@COleControl@@6B@ 5f8b1b78  
 0002:00018b90       ??_R1A@?0A@A@XFontNotification@COleControl@@8 5f8b1b90  
 0002:00018ba8       ??_R2XFontNotification@COleControl@@8 5f8b1ba8  
 0002:00018bb8       ??_R3XFontNotification@COleControl@@8 5f8b1bb8  
 0002:00018bc8       ??_R4XFontNotification@COleControl@@6B@ 5f8b1bc8  
 0002:00018be0       ??_R1A@?0A@A@CReflectorWnd@@8 5f8b1be0  
 0002:00018bf8       ??_R2CReflectorWnd@@8      5f8b1bf8  
 0002:00018c10       ??_R3CReflectorWnd@@8      5f8b1c10  
 0002:00018c20       ??_R4CReflectorWnd@@6B@    5f8b1c20  
 0002:00018c38       ??_R1A@?0A@A@CParkingWnd@@8 5f8b1c38  
 0002:00018c50       ??_R2CParkingWnd@@8        5f8b1c50  
 0002:00018c68       ??_R3CParkingWnd@@8        5f8b1c68  
 0002:00018c78       ??_R4CParkingWnd@@6B@      5f8b1c78  
 0002:00018c90       ??_R1A@?0A@A@CControlDataSource@COleControl@@8 5f8b1c90  
 0002:00018ca8       ??_R2CControlDataSource@COleControl@@8 5f8b1ca8  
 0002:00018cc0       ??_R3CControlDataSource@COleControl@@8 5f8b1cc0  
 0002:00018cd0       ??_R4CControlDataSource@COleControl@@6B@ 5f8b1cd0  
 0002:00018ce8       ??_R1A@?0A@A@CControlFrameWnd@@8 5f8b1ce8  
 0002:00018d00       ??_R2CControlFrameWnd@@8   5f8b1d00  
 0002:00018d18       ??_R3CControlFrameWnd@@8   5f8b1d18  
 0002:00018d28       ??_R4CControlFrameWnd@@6B@ 5f8b1d28  
 0002:00018d40       ??_R1A@?0A@A@IConnectionPoint@@8 5f8b1d40  
 0002:00018d58       ??_R1A@?0A@A@XConnPt@CConnectionPoint@@8 5f8b1d58  
 0002:00018d70       ??_R2XConnPt@CConnectionPoint@@8 5f8b1d70  
 0002:00018d80       ??_R3XConnPt@CConnectionPoint@@8 5f8b1d80  
 0002:00018d90       ??_R4XConnPt@CConnectionPoint@@6B@ 5f8b1d90  
 0002:00018da8       ??_R2CConnectionPoint@@8   5f8b1da8  
 0002:00018db8       ??_R3CConnectionPoint@@8   5f8b1db8  
 0002:00018dc8       ??_R4CConnectionPoint@@6B@ 5f8b1dc8  
 0002:00018de0       ??_R1A@?0A@A@CEnumConnections@@8 5f8b1de0  
 0002:00018df8       ??_R2CEnumConnections@@8   5f8b1df8  
 0002:00018e10       ??_R3CEnumConnections@@8   5f8b1e10  
 0002:00018e20       ??_R4CEnumConnections@@6B@ 5f8b1e20  
 0002:00018e38       ??_R1A@?0A@A@CEnumConnPoints@@8 5f8b1e38  
 0002:00018e50       ??_R2CEnumConnPoints@@8    5f8b1e50  
 0002:00018e68       ??_R3CEnumConnPoints@@8    5f8b1e68  
 0002:00018e78       ??_R4CEnumConnPoints@@6B@  5f8b1e78  
 0002:00018e90       ??_R1A@?0A@A@IConnectionPointContainer@@8 5f8b1e90  
 0002:00018ea8       ??_R1A@?0A@A@COleConnPtContainer@@8 5f8b1ea8  
 0002:00018ec0       ??_R2COleConnPtContainer@@8 5f8b1ec0  
 0002:00018ed0       ??_R3COleConnPtContainer@@8 5f8b1ed0  
 0002:00018ee0       ??_R4COleConnPtContainer@@6B@ 5f8b1ee0  
 0002:00018ef8       ??_R1A@?0A@A@CPropExchange@@8 5f8b1ef8  
 0002:00018f10       ??_R1A@?0A@A@CArchivePropExchange@@8 5f8b1f10  
 0002:00018f28       ??_R2CArchivePropExchange@@8 5f8b1f28  
 0002:00018f38       ??_R3CArchivePropExchange@@8 5f8b1f38  
 0002:00018f48       ??_R4CArchivePropExchange@@6B@ 5f8b1f48  
 0002:00018f60       ??_R1A@?0A@A@CResetPropExchange@@8 5f8b1f60  
 0002:00018f78       ??_R2CResetPropExchange@@8 5f8b1f78  
 0002:00018f88       ??_R3CResetPropExchange@@8 5f8b1f88  
 0002:00018f98       ??_R4CResetPropExchange@@6B@ 5f8b1f98  
 0002:00018fb0       ??_R1A@?0A@A@CAsyncPropExchange@@8 5f8b1fb0  
 0002:00018fc8       ??_R2CAsyncPropExchange@@8 5f8b1fc8  
 0002:00018fd8       ??_R3CAsyncPropExchange@@8 5f8b1fd8  
 0002:00018fe8       ??_R4CAsyncPropExchange@@6B@ 5f8b1fe8  
 0002:00019000       ??_R1A@?0A@A@AFX_DDPDATA@@8 5f8b2000  
 0002:00019018       ??_R2AFX_DDPDATA@@8        5f8b2018  
 0002:00019028       ??_R3AFX_DDPDATA@@8        5f8b2028  
 0002:00019038       ??_R4AFX_DDPDATA@@6B@      5f8b2038  
 0002:00019050       ??_R1A@?0A@A@XPropNotifySink@COlePropertyPage@@8 5f8b2050  
 0002:00019068       ??_R2XPropNotifySink@COlePropertyPage@@8 5f8b2068  
 0002:00019078       ??_R3XPropNotifySink@COlePropertyPage@@8 5f8b2078  
 0002:00019088       ??_R4XPropNotifySink@COlePropertyPage@@6B@ 5f8b2088  
 0002:000190a0       ??_R1A@?0A@A@IPropertyPage@@8 5f8b20a0  
 0002:000190b8       ??_R1A@?0A@A@IPropertyPage2@@8 5f8b20b8  
 0002:000190d0       ??_R1A@?0A@A@XPropertyPage@COlePropertyPage@@8 5f8b20d0  
 0002:000190e8       ??_R2XPropertyPage@COlePropertyPage@@8 5f8b20e8  
 0002:00019100       ??_R3XPropertyPage@COlePropertyPage@@8 5f8b2100  
 0002:00019110       ??_R4XPropertyPage@COlePropertyPage@@6B@ 5f8b2110  
 0002:00019128       ??_R1A@?0A@A@COlePropertyPage@@8 5f8b2128  
 0002:00019140       ??_R2COlePropertyPage@@8   5f8b2140  
 0002:00019158       ??_R3COlePropertyPage@@8   5f8b2158  
 0002:00019168       ??_R4COlePropertyPage@@6B@ 5f8b2168  
 0002:00019180       ??_R1A@?0A@A@CPropsetPropExchange@@8 5f8b2180  
 0002:00019198       ??_R2CPropsetPropExchange@@8 5f8b2198  
 0002:000191a8       ??_R3CPropsetPropExchange@@8 5f8b21a8  
 0002:000191b8       ??_R4CPropsetPropExchange@@6B@ 5f8b21b8  
 0002:000191d0       ??_R1A@?0A@A@CControlRectTracker@@8 5f8b21d0  
 0002:000191e8       ??_R2CControlRectTracker@@8 5f8b21e8  
 0002:000191f8       ??_R3CControlRectTracker@@8 5f8b21f8  
 0002:00019208       ??_R4CControlRectTracker@@6B@ 5f8b2208  
 0002:00019220       ??_R1A@?0A@A@IPersistStream@@8 5f8b2220  
 0002:00019238       ??_R1A@?0A@A@CBlobProperty@@8 5f8b2238  
 0002:00019250       ??_R2CBlobProperty@@8      5f8b2250  
 0002:00019268       ??_R3CBlobProperty@@8      5f8b2268  
 0002:00019278       ??_R4CBlobProperty@@6B@    5f8b2278  
 0002:00019290       ??_R1A@?0A@A@CPropbagPropExchange@@8 5f8b2290  
 0002:000192a8       ??_R2CPropbagPropExchange@@8 5f8b22a8  
 0002:000192b8       ??_R3CPropbagPropExchange@@8 5f8b22b8  
 0002:000192c8       ??_R4CPropbagPropExchange@@6B@ 5f8b22c8  
 0002:000192e0       ??_R1A@?0A@A@_AFXCTL_AMBIENT_CACHE@@8 5f8b22e0  
 0002:000192f8       ??_R2_AFXCTL_AMBIENT_CACHE@@8 5f8b22f8  
 0002:00019308       ??_R3_AFXCTL_AMBIENT_CACHE@@8 5f8b2308  
 0002:00019318       ??_R4_AFXCTL_AMBIENT_CACHE@@6B@ 5f8b2318  
 0002:00019330       ??_R1A@?0A@A@CWindowlessDC@@8 5f8b2330  
 0002:00019348       ??_R2CWindowlessDC@@8      5f8b2348  
 0002:00019358       ??_R3CWindowlessDC@@8      5f8b2358  
 0002:00019368       ??_R4CWindowlessDC@@6B@    5f8b2368  
 0002:00019380       ??_R1A@?0A@A@CColorButton@@8 5f8b2380  
 0002:00019398       ??_R2CColorButton@@8       5f8b2398  
 0002:000193b0       ??_R3CColorButton@@8       5f8b23b0  
 0002:000193c0       ??_R4CColorButton@@6B@     5f8b23c0  
 0002:000193d8       ??_R1A@?0A@A@CStockPropPage@@8 5f8b23d8  
 0002:000193f0       ??_R1A@?0A@A@CColorPropPage@@8 5f8b23f0  
 0002:00019408       ??_R2CColorPropPage@@8     5f8b2408  
 0002:00019428       ??_R3CColorPropPage@@8     5f8b2428  
 0002:00019438       ??_R4CColorPropPage@@6B@   5f8b2438  
 0002:00019450       ??_R1A@?0A@A@CFontPropPage@@8 5f8b2450  
 0002:00019468       ??_R2CFontPropPage@@8      5f8b2468  
 0002:00019488       ??_R3CFontPropPage@@8      5f8b2488  
 0002:00019498       ??_R4CFontPropPage@@6B@    5f8b2498  
 0002:000194b0       ??_R1A@?0A@A@CSizeComboBox@@8 5f8b24b0  
 0002:000194c8       ??_R2CSizeComboBox@@8      5f8b24c8  
 0002:000194e0       ??_R3CSizeComboBox@@8      5f8b24e0  
 0002:000194f0       ??_R4CSizeComboBox@@6B@    5f8b24f0  
 0002:00019508       ??_R1A@?0A@A@CFontComboBox@@8 5f8b2508  
 0002:00019520       ??_R2CFontComboBox@@8      5f8b2520  
 0002:00019538       ??_R3CFontComboBox@@8      5f8b2538  
 0002:00019548       ??_R4CFontComboBox@@6B@    5f8b2548  
 0002:00019560       ??_R1A@?0A@A@CPicturePropPage@@8 5f8b2560  
 0002:00019578       ??_R2CPicturePropPage@@8   5f8b2578  
 0002:00019598       ??_R3CPicturePropPage@@8   5f8b2598  
 0002:000195a8       ??_R4CPicturePropPage@@6B@ 5f8b25a8  
 0002:000195c0       ??_R2CStockPropPage@@8     5f8b25c0  
 0002:000195e0       ??_R3CStockPropPage@@8     5f8b25e0  
 0002:000195f0       ??_R4CStockPropPage@@6B@   5f8b25f0  
 0002:00019608       ??_R1A@?0A@A@CDBException@@8 5f8b2608  
 0002:00019620       ??_R2CDBException@@8       5f8b2620  
 0002:00019630       ??_R3CDBException@@8       5f8b2630  
 0002:00019640       ??_R4CDBException@@6B@     5f8b2640  
 0002:00019658       ??_R1A@?0A@A@CDatabase@@8  5f8b2658  
 0002:00019670       ??_R2CDatabase@@8          5f8b2670  
 0002:00019680       ??_R3CDatabase@@8          5f8b2680  
 0002:00019690       ??_R4CDatabase@@6B@        5f8b2690  
 0002:000196a8       ??_R1A@?0A@A@CRecordset@@8 5f8b26a8  
 0002:000196c0       ??_R2CRecordset@@8         5f8b26c0  
 0002:000196d0       ??_R3CRecordset@@8         5f8b26d0  
 0002:000196e0       ??_R4CRecordset@@6B@       5f8b26e0  
 0002:000196f8       ??_R1A@?0A@A@_AFX_DB_STATE@@8 5f8b26f8  
 0002:00019710       ??_R2_AFX_DB_STATE@@8      5f8b2710  
 0002:00019720       ??_R3_AFX_DB_STATE@@8      5f8b2720  
 0002:00019730       ??_R4_AFX_DB_STATE@@6B@    5f8b2730  
 0002:00019748       ??_R1A@?0A@A@CRecordView@@8 5f8b2748  
 0002:00019760       ??_R2CRecordView@@8        5f8b2760  
 0002:00019780       ??_R3CRecordView@@8        5f8b2780  
 0002:00019790       ??_R4CRecordView@@6B@      5f8b2790  
 0002:000197a8       ??_R1A@?0A@A@CLongBinary@@8 5f8b27a8  
 0002:000197c0       ??_R2CLongBinary@@8        5f8b27c0  
 0002:000197d0       ??_R3CLongBinary@@8        5f8b27d0  
 0002:000197e0       ??_R4CLongBinary@@6B@      5f8b27e0  
 0002:000197f8       ??_R1A@?0A@A@CDBVariant@@8 5f8b27f8  
 0002:00019810       ??_R2CDBVariant@@8         5f8b2810  
 0002:00019818       ??_R3CDBVariant@@8         5f8b2818  
 0002:00019828       ??_R4CDBVariant@@6B@       5f8b2828  
 0002:00019840       ??_R1A@?0A@A@_AFX_DAO_STATE@@8 5f8b2840  
 0002:00019858       ??_R2_AFX_DAO_STATE@@8     5f8b2858  
 0002:00019868       ??_R3_AFX_DAO_STATE@@8     5f8b2868  
 0002:00019878       ??_R4_AFX_DAO_STATE@@6B@   5f8b2878  
 0002:00019890       ??_R1A@?0A@A@CDaoIndexInfo@@8 5f8b2890  
 0002:000198a8       ??_R2CDaoIndexInfo@@8      5f8b28a8  
 0002:000198b0       ??_R3CDaoIndexInfo@@8      5f8b28b0  
 0002:000198c0       ??_R4CDaoIndexInfo@@6B@    5f8b28c0  
 0002:000198d8       ??_R1A@?0A@A@CDaoRelationInfo@@8 5f8b28d8  
 0002:000198f0       ??_R2CDaoRelationInfo@@8   5f8b28f0  
 0002:000198f8       ??_R3CDaoRelationInfo@@8   5f8b28f8  
 0002:00019908       ??_R4CDaoRelationInfo@@6B@ 5f8b2908  
 0002:00019920       ??_R1A@?0A@A@CDaoException@@8 5f8b2920  
 0002:00019938       ??_R2CDaoException@@8      5f8b2938  
 0002:00019948       ??_R3CDaoException@@8      5f8b2948  
 0002:00019958       ??_R4CDaoException@@6B@    5f8b2958  
 0002:00019970       ??_R1A@?0A@A@CDaoWorkspace@@8 5f8b2970  
 0002:00019988       ??_R2CDaoWorkspace@@8      5f8b2988  
 0002:00019998       ??_R3CDaoWorkspace@@8      5f8b2998  
 0002:000199a8       ??_R4CDaoWorkspace@@6B@    5f8b29a8  
 0002:000199c0       ??_R1A@?0A@A@CDaoDatabase@@8 5f8b29c0  
 0002:000199d8       ??_R2CDaoDatabase@@8       5f8b29d8  
 0002:000199e8       ??_R3CDaoDatabase@@8       5f8b29e8  
 0002:000199f8       ??_R4CDaoDatabase@@6B@     5f8b29f8  
 0002:00019a10       ??_R1A@?0A@A@CDaoTableDef@@8 5f8b2a10  
 0002:00019a28       ??_R2CDaoTableDef@@8       5f8b2a28  
 0002:00019a38       ??_R3CDaoTableDef@@8       5f8b2a38  
 0002:00019a48       ??_R4CDaoTableDef@@6B@     5f8b2a48  
 0002:00019a60       ??_R1A@?0A@A@CDaoQueryDef@@8 5f8b2a60  
 0002:00019a78       ??_R2CDaoQueryDef@@8       5f8b2a78  
 0002:00019a88       ??_R3CDaoQueryDef@@8       5f8b2a88  
 0002:00019a98       ??_R4CDaoQueryDef@@6B@     5f8b2a98  
 0002:00019ab0       ??_R1A@?0A@A@CDaoRecordset@@8 5f8b2ab0  
 0002:00019ac8       ??_R2CDaoRecordset@@8      5f8b2ac8  
 0002:00019ad8       ??_R3CDaoRecordset@@8      5f8b2ad8  
 0002:00019ae8       ??_R4CDaoRecordset@@6B@    5f8b2ae8  
 0002:00019b00       ??_R1A@?0A@A@CDaoRecordView@@8 5f8b2b00  
 0002:00019b18       ??_R2CDaoRecordView@@8     5f8b2b18  
 0002:00019b38       ??_R3CDaoRecordView@@8     5f8b2b38  
 0002:00019b48       ??_R4CDaoRecordView@@6B@   5f8b2b48  
 0002:00019b60       ??_R1A@?0A@A@CPalette@@8   5f8b2b60  
 0002:00019b78       ??_R2CPalette@@8           5f8b2b78  
 0002:00019b88       ??_R3CPalette@@8           5f8b2b88  
 0002:00019b98       ??_R4CPalette@@6B@         5f8b2b98  
 0002:00019bb0       ??_R1A@?0A@A@CCheckListBox@@8 5f8b2bb0  
 0002:00019bc8       ??_R2CCheckListBox@@8      5f8b2bc8  
 0002:00019be0       ??_R3CCheckListBox@@8      5f8b2be0  
 0002:00019bf0       ??_R4CCheckListBox@@6B@    5f8b2bf0  
 0002:00019c08       ??_R1A@?0A@A@CBitmapButton@@8 5f8b2c08  
 0002:00019c20       ??_R2CBitmapButton@@8      5f8b2c20  
 0002:00019c38       ??_R3CBitmapButton@@8      5f8b2c38  
 0002:00019c48       ??_R4CBitmapButton@@6B@    5f8b2c48  
 0002:00019c60       ??_R1A@?0A@A@CDataPathProperty@@8 5f8b2c60  
 0002:00019c78       ??_R2CDataPathProperty@@8  5f8b2c78  
 0002:00019c98       ??_R3CDataPathProperty@@8  5f8b2c98  
 0002:00019ca8       ??_R4CDataPathProperty@@6B@ 5f8b2ca8  
 0002:00019cc0       ??_R1A@?0A@A@CCachedDataPathProperty@@8 5f8b2cc0  
 0002:00019cd8       ??_R2CCachedDataPathProperty@@8 5f8b2cd8  
 0002:00019cf8       ??_R3CCachedDataPathProperty@@8 5f8b2cf8  
 0002:00019d08       ??_R4CCachedDataPathProperty@@6B@ 5f8b2d08  
 0002:00019d78       __CT??_R0PAX@84            5f8b2d78  
 0002:00019d98       __CT??_R0PAVCObject@@@84   5f8b2d98  
 0002:00019db8       __CT??_R0PAVCException@@@84 5f8b2db8  
 0002:00019dd8       __CT??_R0PAVCSimpleException@@@84 5f8b2dd8  
 0002:00019df8       __CT??_R0PAVCMemoryException@@@84 5f8b2df8  
 0002:00019e18       __CTA5PAVCMemoryException@@ 5f8b2e18  
 0002:00019e30       __TI5PAVCMemoryException@@ 5f8b2e30  
 0002:00019e40       __CT??_R0PAVCNotSupportedException@@@84 5f8b2e40  
 0002:00019e60       __CTA5PAVCNotSupportedException@@ 5f8b2e60  
 0002:00019e78       __TI5PAVCNotSupportedException@@ 5f8b2e78  
 0002:00019fe0       __CT??_R0PAVCArchiveException@@@84 5f8b2fe0  
 0002:0001a000       __CTA4PAVCArchiveException@@ 5f8b3000  
 0002:0001a018       __TI4PAVCArchiveException@@ 5f8b3018  
 0002:0001a3f8       __CT??_R0PAVCFileException@@@84 5f8b33f8  
 0002:0001a418       __CTA4PAVCFileException@@  5f8b3418  
 0002:0001a430       __TI4PAVCFileException@@   5f8b3430  
 0002:0001ce78       __CT??_R0PAVCResourceException@@@84 5f8b5e78  
 0002:0001ce98       __CTA5PAVCResourceException@@ 5f8b5e98  
 0002:0001ceb0       __TI5PAVCResourceException@@ 5f8b5eb0  
 0002:0001cec0       __CT??_R0PAVCUserException@@@84 5f8b5ec0  
 0002:0001cee0       __CTA5PAVCUserException@@  5f8b5ee0  
 0002:0001cef8       __TI5PAVCUserException@@   5f8b5ef8  
 0002:0001ed70       __CT??_R0PAVCInternetException@@@84 5f8b7d70  
 0002:0001ed90       __CTA4PAVCInternetException@@ 5f8b7d90  
 0002:0001eda8       __TI4PAVCInternetException@@ 5f8b7da8  
 0002:0001ff68       __CT??_R0PAVCOleDispatchException@@@84 5f8b8f68  
 0002:0001ff88       __CTA4PAVCOleDispatchException@@ 5f8b8f88  
 0002:0001ffa0       __TI4PAVCOleDispatchException@@ 5f8b8fa0  
 0002:000215b0       __CT??_R0PAVCOleException@@@84 5f8ba5b0  
 0002:000215d0       __CTA4PAVCOleException@@   5f8ba5d0  
 0002:000215e8       __TI4PAVCOleException@@    5f8ba5e8  
 0002:00022e98       __CTA3PAVCException@@      5f8bbe98  
 0002:00022ea8       __TI3PAVCException@@       5f8bbea8  
 0002:00028298       __CT??_R0PAVCDBException@@@84 5f8c1298  
 0002:000282b8       __CTA4PAVCDBException@@    5f8c12b8  
 0002:000282d0       __TI4PAVCDBException@@     5f8c12d0  
 0002:00028f48       __CT??_R0PAVCDaoException@@@84 5f8c1f48  
 0002:00028f68       __CTA4PAVCDaoException@@   5f8c1f68  
 0002:00028f80       __TI4PAVCDaoException@@    5f8c1f80  
 0003:00000000       ?_afxThreadState@@3V?$CThreadLocal@V_AFX_THREAD_STATE@@@@A 5f8cf000  
 0003:00000004       ?_afxThreadData@@3PAVCThreadSlotData@@A 5f8cf004  
 0003:00000008       ?__afxThreadData@@3PAEA    5f8cf008  
 0003:0000003c       ?_afxBaseModuleState@@3V?$CProcessLocal@V_AFX_BASE_MODULE_STATE@@@@A 5f8cf03c  
 0003:00000040       ?_afxLockInitLock@@3U_RTL_CRITICAL_SECTION@@A 5f8cf040  
 0003:00000058       ?_afxCriticalWin32s@@3HA   5f8cf058  
 0003:0000005c       ?_afxCriticalInit@@3HA     5f8cf05c  
 0003:00000060       ?_afxLockInit@@3PAHA       5f8cf060  
 0003:000000a8       ?_afxResourceLock@@3PAU_RTL_CRITICAL_SECTION@@A 5f8cf0a8  
 0003:00000240       ?afxData@@3UAUX_DATA@@A    5f8cf240  
 0003:000002b0       ?_afxMsgCache@@3PAUAFX_MSG_CACHE@@A 5f8cf2b0  
 0003:00001ab0       ??_R0?AVtype_info@@@8      5f8d0ab0  
 0003:00001ac8       ?_afxAlloc64@@3VCFixedAlloc@@A 5f8d0ac8  
 0003:00001af0       ?_afxAlloc128@@3VCFixedAlloc@@A 5f8d0af0  
 0003:00001b18       ?_afxAlloc256@@3VCFixedAlloc@@A 5f8d0b18  
 0003:00001b40       ?_afxAlloc512@@3VCFixedAlloc@@A 5f8d0b40  
 0003:00001b68       ??_R0?AVCObject@@@8        5f8d0b68  
 0003:00001b80       ?m_nMsgDragList@CWnd@@1IB  5f8d0b80  
 0003:00001b88       ??_R0?AVCCmdTarget@@@8     5f8d0b88  
 0003:00001ba8       ??_R0?AVCWnd@@@8           5f8d0ba8  
 0003:00001bbc       ?_afxPchNil@@3PBGB         5f8d0bbc  
 0003:00001bc0       ?_afxInitData@@3PAHA       5f8d0bc0  
 0003:00001bd0       ?_afxDataNil@@3PAUCStringData@@A 5f8d0bd0  
 0003:00001bd8       ??_R0?AVCCmdUI@@@8         5f8d0bd8  
 0003:00001bf0       ?wndTop@CWnd@@2V1@B        5f8d0bf0  
 0003:00001c30       ?wndBottom@CWnd@@2V1@B     5f8d0c30  
 0003:00001c70       ?wndTopMost@CWnd@@2V1@B    5f8d0c70  
 0003:00001cb0       ?wndNoTopMost@CWnd@@2V1@B  5f8d0cb0  
 0003:00001cf0       ?_afxTickCount@@3KA        5f8d0cf0  
 0003:00001cf4       ?_afxTickInit@@3HA         5f8d0cf4  
 0003:00001cf8       ??_R0?AVCStatusCmdUI@@@8   5f8d0cf8  
 0003:00001d18       ??_R0?AVCToolCmdUI@@@8     5f8d0d18  
 0003:00001d38       ?s_alloc@CTempWnd@@1VCFixedAlloc@@A 5f8d0d38  
 0003:00001d60       ?s_alloc@CTempMenu@@1VCFixedAlloc@@A 5f8d0d60  
 0003:00001d88       __imp__OleCreatePropertyFrame@44 5f8d0d88  
 0003:00001d8c       __imp__OleTranslateColor@12 5f8d0d8c  
 0003:00001d90       __imp__OleLoadPicture@20   5f8d0d90  
 0003:00001d94       __imp__OleCreatePictureIndirect@16 5f8d0d94  
 0003:00001d98       __imp__OleCreateFontIndirect@12 5f8d0d98  
 0003:00001da0       __imp__RegDeleteValueW@8   5f8d0da0  
 0003:00001da4       __imp__RegCreateKeyExW@36  5f8d0da4  
 0003:00001da8       __imp__RegOpenKeyExW@20    5f8d0da8  
 0003:00001dac       __imp__RegQueryValueW@16   5f8d0dac  
 0003:00001db0       __imp__RegSetValueW@20     5f8d0db0  
 0003:00001db4       __imp__RegQueryValueExW@24 5f8d0db4  
 0003:00001db8       __imp__RegCreateKeyW@12    5f8d0db8  
 0003:00001dbc       __imp__RegCloseKey@4       5f8d0dbc  
 0003:00001dc0       __imp__RegOpenKeyW@12      5f8d0dc0  
 0003:00001dc4       __imp__SetFileSecurityW@12 5f8d0dc4  
 0003:00001dc8       __imp__GetFileSecurityW@20 5f8d0dc8  
 0003:00001dcc       __imp__RegDeleteKeyW@8     5f8d0dcc  
 0003:00001dd0       __imp__RegEnumKeyW@16      5f8d0dd0  
 0003:00001dd4       __imp__RegSetValueExW@24   5f8d0dd4  
 0003:00001ddc       __imp__StgOpenStorage@24   5f8d0ddc  
 0003:00001de0       __imp__StgIsStorageFile@4  5f8d0de0  
 0003:00001de4       __imp__CoInitialize@4      5f8d0de4  
 0003:00001de8       __imp__StgCreateDocfile@16 5f8d0de8  
 0003:00001dec       __imp__SetConvertStg@8     5f8d0dec  
 0003:00001df0       __imp__RegisterDragDrop@8  5f8d0df0  
 0003:00001df4       __imp__CoLockObjectExternal@12 5f8d0df4  
 0003:00001df8       __imp__RevokeDragDrop@4    5f8d0df8  
 0003:00001dfc       __imp__CoRegisterMessageFilter@8 5f8d0dfc  
 0003:00001e00       __imp__OleRegGetMiscStatus@12 5f8d0e00  
 0003:00001e04       __imp__CoRegisterClassObject@20 5f8d0e04  
 0003:00001e08       __imp__CoRevokeClassObject@4 5f8d0e08  
 0003:00001e0c       __imp__OleTranslateAccelerator@12 5f8d0e0c  
 0003:00001e10       __imp__IsAccelerator@16    5f8d0e10  
 0003:00001e14       __imp__OleCreateMenuDescriptor@8 5f8d0e14  
 0003:00001e18       __imp__OleDestroyMenuDescriptor@4 5f8d0e18  
 0003:00001e1c       __imp__GetRunningObjectTable@8 5f8d0e1c  
 0003:00001e20       __imp__WriteClassStg@8     5f8d0e20  
 0003:00001e24       __imp__OleDuplicateData@12 5f8d0e24  
 0003:00001e28       __imp__ReadClassStg@8      5f8d0e28  
 0003:00001e2c       __imp__WriteFmtUserTypeStg@12 5f8d0e2c  
 0003:00001e30       __imp__CoTreatAsClass@8    5f8d0e30  
 0003:00001e34       __imp__ReadFmtUserTypeStg@12 5f8d0e34  
 0003:00001e38       __imp__OleRegGetUserType@12 5f8d0e38  
 0003:00001e3c       __imp__GetClassFile@8      5f8d0e3c  
 0003:00001e40       __imp__CreateDataAdviseHolder@4 5f8d0e40  
 0003:00001e44       __imp__CreateFileMoniker@8 5f8d0e44  
 0003:00001e48       __imp__CreateBindCtx@8     5f8d0e48  
 0003:00001e4c       __imp__CoCreateInstance@20 5f8d0e4c  
 0003:00001e50       __imp__CLSIDFromString@8   5f8d0e50  
 0003:00001e54       __imp__CLSIDFromProgID@8   5f8d0e54  
 0003:00001e58       __imp__OleIsCurrentClipboard@4 5f8d0e58  
 0003:00001e5c       __imp__OleFlushClipboard@0 5f8d0e5c  
 0003:00001e60       __imp__CoGetClassObject@20 5f8d0e60  
 0003:00001e64       __imp__OleSetClipboard@4   5f8d0e64  
 0003:00001e68       __imp__OleGetClipboard@4   5f8d0e68  
 0003:00001e6c       __imp__CoGetMalloc@8       5f8d0e6c  
 0003:00001e70       __imp__CreateDataCache@16  5f8d0e70  
 0003:00001e74       __imp__ReadClassStm@8      5f8d0e74  
 0003:00001e78       __imp__OleLoadFromStream@12 5f8d0e78  
 0003:00001e7c       __imp__DoDragDrop@16       5f8d0e7c  
 0003:00001e80       __imp__StringFromGUID2@12  5f8d0e80  
 0003:00001e84       __imp__CoUninitialize@0    5f8d0e84  
 0003:00001e88       __imp__CoDisconnectObject@8 5f8d0e88  
 0003:00001e8c       __imp__OleRegEnumVerbs@8   5f8d0e8c  
 0003:00001e90       __imp__CreateOleAdviseHolder@4 5f8d0e90  
 0003:00001e94       __imp__CreateStreamOnHGlobal@12 5f8d0e94  
 0003:00001e98       __imp__OleSaveToStream@8   5f8d0e98  
 0003:00001e9c       __imp__CreateGenericComposite@12 5f8d0e9c  
 0003:00001ea0       __imp__CreateItemMoniker@12 5f8d0ea0  
 0003:00001ea4       __imp__CoTaskMemFree@4     5f8d0ea4  
 0003:00001ea8       __imp__StringFromCLSID@8   5f8d0ea8  
 0003:00001eac       __imp__OleSetContainedObject@8 5f8d0eac  
 0003:00001eb0       __imp__OleCreateFromData@28 5f8d0eb0  
 0003:00001eb4       __imp__OleCreateLinkFromData@28 5f8d0eb4  
 0003:00001eb8       __imp__OleCreateStaticFromData@28 5f8d0eb8  
 0003:00001ebc       __imp__OleCreateFromFile@32 5f8d0ebc  
 0003:00001ec0       __imp__OleInitialize@4     5f8d0ec0  
 0003:00001ec4       __imp__OleUninitialize@0   5f8d0ec4  
 0003:00001ec8       __imp__CoFreeUnusedLibraries@0 5f8d0ec8  
 0003:00001ecc       __imp__OleLockRunning@12   5f8d0ecc  
 0003:00001ed0       __imp__CoTaskMemAlloc@4    5f8d0ed0  
 0003:00001ed4       __imp__OleIsRunning@4      5f8d0ed4  
 0003:00001ed8       __imp__OleRun@4            5f8d0ed8  
 0003:00001edc       __imp__OleQueryLinkFromData@4 5f8d0edc  
 0003:00001ee0       __imp__OleQueryCreateFromData@4 5f8d0ee0  
 0003:00001ee4       __imp__OleSetMenuDescriptor@20 5f8d0ee4  
 0003:00001ee8       __imp__OleCreate@28        5f8d0ee8  
 0003:00001eec       __imp__OleCreateLinkToFile@28 5f8d0eec  
 0003:00001ef0       __imp__GetHGlobalFromILockBytes@8 5f8d0ef0  
 0003:00001ef4       __imp__StgOpenStorageOnILockBytes@24 5f8d0ef4  
 0003:00001ef8       __imp__WriteClassStm@8     5f8d0ef8  
 0003:00001efc       __imp__OleGetIconOfClass@12 5f8d0efc  
 0003:00001f00       __imp__ReleaseStgMedium@4  5f8d0f00  
 0003:00001f04       __imp__OleSave@12          5f8d0f04  
 0003:00001f08       __imp__CreateILockBytesOnHGlobal@12 5f8d0f08  
 0003:00001f0c       __imp__StgCreateDocfileOnILockBytes@16 5f8d0f0c  
 0003:00001f10       __imp__OleLoad@16          5f8d0f10  
 0003:00001f18       __imp__VariantChangeType@16 5f8d0f18  
 0003:00001f1c       __imp__SysAllocStringLen@8 5f8d0f1c  
 0003:00001f20       __imp__SysReAllocStringLen@12 5f8d0f20  
 0003:00001f24       __imp__VarDateFromStr@16   5f8d0f24  
 0003:00001f28       __imp__LoadRegTypeLib@20   5f8d0f28  
 0003:00001f2c       __imp__RegisterTypeLib@12  5f8d0f2c  
 0003:00001f30       __imp__VariantTimeToSystemTime@12 5f8d0f30  
 0003:00001f34       __imp__LoadTypeLib@8       5f8d0f34  
 0003:00001f38       __imp__SafeArrayCreateVector@12 5f8d0f38  
 0003:00001f3c       __imp__SafeArrayDestroyDescriptor@4 5f8d0f3c  
 0003:00001f40       __imp__SafeArrayDestroyData@4 5f8d0f40  
 0003:00001f44       __imp__SafeArrayDestroy@4  5f8d0f44  
 0003:00001f48       __imp__SafeArrayUnlock@4   5f8d0f48  
 0003:00001f4c       __imp__SafeArrayLock@4     5f8d0f4c  
 0003:00001f50       __imp__SafeArrayPutElement@12 5f8d0f50  
 0003:00001f54       __imp__SafeArrayPtrOfIndex@12 5f8d0f54  
 0003:00001f58       __imp__SafeArrayGetElement@12 5f8d0f58  
 0003:00001f5c       __imp__SafeArrayAllocDescriptor@8 5f8d0f5c  
 0003:00001f60       __imp__SafeArrayAllocData@4 5f8d0f60  
 0003:00001f64       __imp__SafeArrayCopy@8     5f8d0f64  
 0003:00001f68       __imp__VarBstrFromDate@20  5f8d0f68  
 0003:00001f6c       __imp__SafeArrayGetLBound@12 5f8d0f6c  
 0003:00001f70       __imp__VarBstrFromCy@20    5f8d0f70  
 0003:00001f74       __imp__VarCyFromStr@16     5f8d0f74  
 0003:00001f78       __imp__SysAllocStringByteLen@8 5f8d0f78  
 0003:00001f7c       __imp__SysStringByteLen@4  5f8d0f7c  
 0003:00001f80       __imp__SafeArrayRedim@8    5f8d0f80  
 0003:00001f84       __imp__SafeArrayCreate@12  5f8d0f84  
 0003:00001f88       __imp__SafeArrayGetDim@4   5f8d0f88  
 0003:00001f8c       __imp__SafeArrayGetElemsize@4 5f8d0f8c  
 0003:00001f90       __imp__SysFreeString@4     5f8d0f90  
 0003:00001f94       __imp__SafeArrayGetUBound@12 5f8d0f94  
 0003:00001f98       __imp__SafeArrayAccessData@8 5f8d0f98  
 0003:00001f9c       __imp__SafeArrayUnaccessData@4 5f8d0f9c  
 0003:00001fa0       __imp__SysAllocString@4    5f8d0fa0  
 0003:00001fa4       __imp__SysStringLen@4      5f8d0fa4  
 0003:00001fa8       __imp__VariantCopy@8       5f8d0fa8  
 0003:00001fac       __imp__VariantClear@4      5f8d0fac  
 0003:00001fb4       __imp__ImageList_Destroy@4 5f8d0fb4  
 0003:00001fb8       __imp__CreatePropertySheetPageW@4 5f8d0fb8  
 0003:00001fbc       __imp__ImageList_LoadImageW@28 5f8d0fbc  
 0003:00001fc0       __imp__ImageList_Create@20 5f8d0fc0  
 0003:00001fc4       __imp__MakeDragList@4      5f8d0fc4  
 0003:00001fc8       __imp__InitCommonControlsEx@4 5f8d0fc8  
 0003:00001fcc       __imp__LBItemFromPt@16     5f8d0fcc  
 0003:00001fd0       __imp__InitCommonControls@0 5f8d0fd0  
 0003:00001fd4       __imp__ImageList_Merge@24  5f8d0fd4  
 0003:00001fd8       __imp__ImageList_Read@4    5f8d0fd8  
 0003:00001fdc       __imp__ImageList_Write@8   5f8d0fdc  
 0003:00001fe0       __imp__PropertySheetW@4    5f8d0fe0  
 0003:00001fe4       __imp__DestroyPropertySheetPage@4 5f8d0fe4  
 0003:00001fe8       __imp__ImageList_Duplicate@4 5f8d0fe8  
 0003:00001fec       __imp__ImageList_DrawIndirect@4 5f8d0fec  
 0003:00001ff4       __imp__DragFinish@4        5f8d0ff4  
 0003:00001ff8       __imp__DragAcceptFiles@8   5f8d0ff8  
 0003:00001ffc       __imp__SHGetFileInfoW@20   5f8d0ffc  
 0003:00002000       __imp__DragQueryFileW@16   5f8d1000  
 0003:00002004       __imp__ExtractIconW@12     5f8d1004  
 0003:0000200c       __imp__CommDlgExtendedError@0 5f8d100c  
 0003:00002010       __imp__FindTextW@4         5f8d1010  
 0003:00002014       __imp__ReplaceTextW@4      5f8d1014  
 0003:00002018       __imp__ChooseFontW@4       5f8d1018  
 0003:0000201c       __imp__ChooseColorW@4      5f8d101c  
 0003:00002020       __imp__PrintDlgW@4         5f8d1020  
 0003:00002024       __imp__PageSetupDlgW@4     5f8d1024  
 0003:00002028       __imp__GetOpenFileNameW@4  5f8d1028  
 0003:0000202c       __imp__GetSaveFileNameW@4  5f8d102c  
 0003:00002030       __imp__GetFileTitleW@12    5f8d1030  
 0003:00002038       __imp__OpenPrinterW@12     5f8d1038  
 0003:0000203c       __imp__DocumentPropertiesW@24 5f8d103c  
 0003:00002040       __imp__ClosePrinter@4      5f8d1040  
 0003:00002048       __imp__FtpGetCurrentDirectoryW@12 5f8d1048  
 0003:0000204c       __imp__GopherGetAttributeW@32 5f8d104c  
 0003:00002050       __imp__InternetCanonicalizeUrlW@16 5f8d1050  
 0003:00002054       __imp__FtpCreateDirectoryW@8 5f8d1054  
 0003:00002058       __imp__InternetGetLastResponseInfoW@12 5f8d1058  
 0003:0000205c       __imp__GopherFindFirstFileW@24 5f8d105c  
 0003:00002060       __imp__InternetFindNextFileW@8 5f8d1060  
 0003:00002064       __imp__FtpFindFirstFileW@20 5f8d1064  
 0003:00002068       __imp__HttpQueryInfoW@20   5f8d1068  
 0003:0000206c       __imp__HttpSendRequestExW@20 5f8d106c  
 0003:00002070       __imp__HttpEndRequestW@16  5f8d1070  
 0003:00002074       __imp__HttpSendRequestW@20 5f8d1074  
 0003:00002078       __imp__HttpAddRequestHeadersW@16 5f8d1078  
 0003:0000207c       __imp__InternetErrorDlg@20 5f8d107c  
 0003:00002080       __imp__HttpOpenRequestW@32 5f8d1080  
 0003:00002084       __imp__GopherOpenFileW@20  5f8d1084  
 0003:00002088       __imp__GopherCreateLocatorW@28 5f8d1088  
 0003:0000208c       __imp__FtpGetFileW@28      5f8d108c  
 0003:00002090       __imp__FtpPutFileW@20      5f8d1090  
 0003:00002094       __imp__FtpOpenFileW@20     5f8d1094  
 0003:00002098       __imp__FtpSetCurrentDirectoryW@8 5f8d1098  
 0003:0000209c       __imp__FtpRemoveDirectoryW@8 5f8d109c  
 0003:000020a0       __imp__InternetSetStatusCallback@8 5f8d10a0  
 0003:000020a4       __imp__FtpRenameFileW@12   5f8d10a4  
 0003:000020a8       __imp__FtpDeleteFileW@8    5f8d10a8  
 0003:000020ac       __imp__InternetConnectW@32 5f8d10ac  
 0003:000020b0       __imp__InternetQueryDataAvailable@16 5f8d10b0  
 0003:000020b4       __imp__InternetReadFile@16 5f8d10b4  
 0003:000020b8       __imp__InternetWriteFile@16 5f8d10b8  
 0003:000020bc       __imp__InternetSetFilePointer@20 5f8d10bc  
 0003:000020c0       __imp__InternetGetCookieW@16 5f8d10c0  
 0003:000020c4       __imp__InternetSetCookieW@12 5f8d10c4  
 0003:000020c8       __imp__InternetQueryOptionW@16 5f8d10c8  
 0003:000020cc       __imp__InternetSetOptionExW@20 5f8d10cc  
 0003:000020d0       __imp__InternetOpenUrlW@24 5f8d10d0  
 0003:000020d4       __imp__InternetCloseHandle@4 5f8d10d4  
 0003:000020d8       __imp__InternetOpenW@20    5f8d10d8  
 0003:000020dc       __imp__InternetCrackUrlW@16 5f8d10dc  
 0003:000020e4       __imp__connect@12          5f8d10e4  
 0003:000020e8       __imp__ioctlsocket@12      5f8d10e8  
 0003:000020ec       __imp__WSAAsyncSelect@16   5f8d10ec  
 0003:000020f0       __imp__socket@12           5f8d10f0  
 0003:000020f4       __imp__htonl@4             5f8d10f4  
 0003:000020f8       __imp__recvfrom@24         5f8d10f8  
 0003:000020fc       __imp__WSACleanup@0        5f8d10fc  
 0003:00002100       __imp__WSAStartup@8        5f8d1100  
 0003:00002104       __imp__WSASetLastError@4   5f8d1104  
 0003:00002108       __imp__WSAGetLastError@0   5f8d1108  
 0003:0000210c       __imp__inet_ntoa@4         5f8d110c  
 0003:00002110       __imp__ntohs@4             5f8d1110  
 0003:00002114       __imp__getpeername@12      5f8d1114  
 0003:00002118       __imp__send@16             5f8d1118  
 0003:0000211c       __imp__recv@16             5f8d111c  
 0003:00002120       __imp__gethostbyname@4     5f8d1120  
 0003:00002124       __imp__closesocket@4       5f8d1124  
 0003:00002128       __imp__getsockname@12      5f8d1128  
 0003:0000212c       __imp__sendto@24           5f8d112c  
 0003:00002130       __imp__htons@4             5f8d1130  
 0003:00002134       __imp__bind@12             5f8d1134  
 0003:00002138       __imp__inet_addr@4         5f8d1138  
 0003:0000213c       __imp__accept@12           5f8d113c  
 0003:00002144       __imp__OleUIConvertW@4     5f8d1144  
 0003:00002148       __imp__OleUIInsertObjectW@4 5f8d1148  
 0003:0000214c       __imp__OleUIAddVerbMenuW@36 5f8d114c  
 0003:00002150       __imp__OleUIChangeSourceW@4 5f8d1150  
 0003:00002154       __imp__OleUIObjectPropertiesW@4 5f8d1154  
 0003:00002158       __imp__OleUIBusyW@4        5f8d1158  
 0003:0000215c       __imp__OleUIPasteSpecialW@4 5f8d115c  
 0003:00002160       __imp__OleUIUpdateLinksW@16 5f8d1160  
 0003:00002164       __imp__OleUIEditLinksW@4   5f8d1164  
 0003:00002168       __imp__OleUIChangeIconW@4  5f8d1168  
 0003:00002170       __imp__RegisterBindStatusCallback@16 5f8d1170  
 0003:00002174       __imp__CreateAsyncBindCtx@16 5f8d1174  
 0003:00002178       __imp__CreateURLMoniker@12 5f8d1178  
 0003:0000217c       __imp__IsAsyncMoniker@4    5f8d117c  
 0003:00002184       __imp__SQLPrepare@12       5f8d1184  
 0003:00002188       __imp__SQLExecute@4        5f8d1188  
 0003:0000218c       __imp__SQLSetPos@16        5f8d118c  
 0003:00002190       __imp__SQLGetFunctions@12  5f8d1190  
 0003:00002194       __imp__SQLGetStmtOption@12 5f8d1194  
 0003:00002198       __imp__SQLAllocEnv@4       5f8d1198  
 0003:0000219c       __imp__SQLAllocConnect@8   5f8d119c  
 0003:000021a0       __imp__SQLTransact@12      5f8d11a0  
 0003:000021a4       __imp__SQLSetConnectOption@12 5f8d11a4  
 0003:000021a8       __imp__SQLGetData@24       5f8d11a8  
 0003:000021ac       __imp__SQLDriverConnect@32 5f8d11ac  
 0003:000021b0       __imp__SQLDescribeCol@36   5f8d11b0  
 0003:000021b4       __imp__SQLDisconnect@4     5f8d11b4  
 0003:000021b8       __imp__SQLFreeConnect@4    5f8d11b8  
 0003:000021bc       __imp__SQLAllocStmt@8      5f8d11bc  
 0003:000021c0       __imp__SQLExecDirect@12    5f8d11c0  
 0003:000021c4       __imp__SQLNumResultCols@8  5f8d11c4  
 0003:000021c8       __imp__SQLFetch@4          5f8d11c8  
 0003:000021cc       __imp__SQLMoreResults@4    5f8d11cc  
 0003:000021d0       __imp__SQLFreeStmt@8       5f8d11d0  
 0003:000021d4       __imp__SQLCancel@4         5f8d11d4  
 0003:000021d8       __imp__SQLError@32         5f8d11d8  
 0003:000021dc       __imp__SQLExtendedFetch@20 5f8d11dc  
 0003:000021e0       __imp__SQLGetCursorName@16 5f8d11e0  
 0003:000021e4       __imp__SQLRowCount@8       5f8d11e4  
 0003:000021e8       __imp__SQLPutData@12       5f8d11e8  
 0003:000021ec       __imp__SQLParamData@8      5f8d11ec  
 0003:000021f0       __imp__SQLBindCol@24       5f8d11f0  
 0003:000021f4       __imp__SQLBindParameter@40 5f8d11f4  
 0003:000021f8       __imp__SQLGetInfo@20       5f8d11f8  
 0003:000021fc       __imp__SQLSetStmtOption@12 5f8d11fc  
 0003:00002200       __imp__SQLFreeEnv@4        5f8d1200  
 0003:00002208       ??_R0?AVCTempWnd@@@8       5f8d1208  
 0003:00002220       ??_R0?AVCMenu@@@8          5f8d1220  
 0003:00002238       ??_R0?AVCTempMenu@@@8      5f8d1238  
 0003:00002250       ??_R0?AVCTestCmdUI@@@8     5f8d1250  
 0003:0000226c       ?_afxIsMailAvail@@3HA      5f8d126c  
 0003:00002270       ?s_alloc@CTempGdiObject@@1VCFixedAlloc@@A 5f8d1270  
 0003:00002298       ??_R0?AVCDC@@@8            5f8d1298  
 0003:000022ac       ?_afxWinState@@3V?$CProcessLocal@V_AFX_WIN_STATE@@@@A 5f8d12ac  
 0003:000022b0       ?s_alloc@CTempDC@@1VCFixedAlloc@@A 5f8d12b0  
 0003:000022d8       ??_R0?AVCMapPtrToPtr@@@8   5f8d12d8  
 0003:000022f8       ??_R0?AVCPtrList@@@8       5f8d12f8  
 0003:00002310       __hmod__OLE32              5f8d1310  
 0003:00002314       ___pfnDliNotifyHook        5f8d1314  
 0003:00002318       ??_R0?AVCGdiObject@@@8     5f8d1318  
 0003:00002338       ??_R0?AVCDialog@@@8        5f8d1338  
 0003:00002350       ??_R0?AVCTempGdiObject@@@8 5f8d1350  
 0003:00002370       ??_R0?AVCTempDC@@@8        5f8d1370  
 0003:00002388       ??_R0?AVCCommonDialog@@@8  5f8d1388  
 0003:000023a4       __pRawDllMain              5f8d13a4  
 0003:000023b0       ??_R0?AVCNoTrackObject@@@8 5f8d13b0  
 0003:000023d0       ??_R0?AV_AFX_THREAD_STATE@@@8 5f8d13d0  
 0003:000023f0       ??_R0?AUCThreadData@@@8    5f8d13f0  
 0003:0000240c       ___xc_a                    5f8d140c  
 0003:0000250c       ___xc_z                    5f8d150c  
 0003:00002510       __adjust_fdiv              5f8d1510  
 0003:00002514       ___onexitend               5f8d1514  
 0003:00002518       ___onexitbegin             5f8d1518  
 0003:00002520       ??_R0?AVCException@@@8     5f8d1520  
 0003:00002540       ??_R0?AVCWinThread@@@8     5f8d1540  
 0003:00002560       ??_R0?AVAFX_MODULE_THREAD_STATE@@@8 5f8d1560  
 0003:00002586       ?afxChNil@@3GA             5f8d1586  
 0003:0000259c       ?_afxCtl3dThread@@3V?$CThreadLocal@V_AFX_CTL3D_THREAD@@@@A 5f8d159c  
 0003:000025a0       ?_afxCtl3dState@@3V?$CProcessLocal@V_AFX_CTL3D_STATE@@@@A 5f8d15a0  
 0003:000025a8       ??_R0?AV_AFX_CTL3D_THREAD@@@8 5f8d15a8  
 0003:000025c8       ??_R0?AVCFile@@@8          5f8d15c8  
 0003:000025e0       ??_R0?AV_AFX_WIN_STATE@@@8 5f8d15e0  
 0003:00002600       ?_afxComCtlVersion@@3HA    5f8d1600  
 0003:00002604       __hmod__SHELL32            5f8d1604  
 0003:00002608       ??_R0?AVCPaintDC@@@8       5f8d1608  
 0003:00002620       __hmod__COMDLG32           5f8d1620  
 0003:00002628       ?_afxMsgMouseWheel@@3IA    5f8d1628  
 0003:00002630       ??_R0?AUIUnknown@@@8       5f8d1630  
 0003:00002648       ?rectDefault@CFrameWnd@@2VCRect@@B 5f8d1648  
 0003:00002658       ??_R0?AVCClientDC@@@8      5f8d1658  
 0003:00002670       ?_oleData@@3UOLE_DATA@@A   5f8d1670  
 0003:000026a0       _g_pfnGetSystemMetrics     5f8d16a0  
 0003:000026a4       _g_pfnMonitorFromWindow    5f8d16a4  
 0003:000026a8       _g_pfnMonitorFromRect      5f8d16a8  
 0003:000026ac       _g_pfnMonitorFromPoint     5f8d16ac  
 0003:000026b0       _g_pfnGetMonitorInfo       5f8d16b0  
 0003:000026b4       _g_pfnEnumDisplayMonitors  5f8d16b4  
 0003:000026b8       _g_fMultiMonInitDone       5f8d16b8  
 0003:000026c0       ??_R0?AVCPrintDialog@@@8   5f8d16c0  
 0003:000026e0       ??_R0?AVCMapStringToPtr@@@8 5f8d16e0  
 0003:00002700       ?_afxMsgSETRGB@@3IA        5f8d1700  
 0003:00002704       ?_afxMsgHELP@@3IA          5f8d1704  
 0003:00002708       ?_afxMsgCOLOROK@@3IA       5f8d1708  
 0003:0000270c       ?_afxMsgFILEOK@@3IA        5f8d170c  
 0003:00002710       ?_afxMsgSHAREVI@@3IA       5f8d1710  
 0003:00002714       ?_afxMsgLBSELCHANGE@@3IA   5f8d1714  
 0003:00002718       ??_R0?AVCPrintingDialog@@@8 5f8d1718  
 0003:00002738       ??_R0?AVCFileException@@@8 5f8d1738  
 0003:00002758       ??_R0?AVCButton@@@8        5f8d1758  
 0003:00002770       ??_R0?AVCRichEditDoc@@@8   5f8d1770  
 0003:00002790       ??_R0?AVCCtrlView@@@8      5f8d1790  
 0003:000027a8       ??_R0?AVCRichEditView@@@8  5f8d17a8  
 0003:000027c8       ??_R0?AUIRichEditOleCallback@@@8 5f8d17c8  
 0003:000027f0       ??_R0?AVXRichEditOleCallback@CRichEditView@@@8 5f8d17f0  
 0003:00002824       ?lMaxSize@CRichEditView@@2KA 5f8d1824  
 0003:00002828       ?_afxTlsRef@@3JA           5f8d1828  
 0003:000048c0       ?s_alloc@CTempImageList@@1VCFixedAlloc@@A 5f8d38c0  
 0003:000048e8       ?_afxSessionMap@@3VCSessionMapPtrToPtr@@A 5f8d38e8  
 0003:00004928       ??_R0?AVCSyncObject@@@8    5f8d3928  
 0003:00004948       ??_R0?AVCSessionMapPtrToPtr@@@8 5f8d3948  
 0003:00004970       ??_R0?AVCCriticalSection@@@8 5f8d3970  
 0003:00004990       ??_R0?AVAFX_MODULE_STATE@@@8 5f8d3990  
 0003:000049b0       ?_simpleMemoryException@@3VCMemoryException@@A 5f8d39b0  
 0003:00004ac8       ??_R0?AVCSimpleException@@@8 5f8d3ac8  
 0003:00004ae8       ??_R0?AVCMemoryException@@@8 5f8d3ae8  
 0003:00004b08       ?_simpleNotSupportedException@@3VCNotSupportedException@@A 5f8d3b08  
 0003:00004c20       ??_R0?AVCNotSupportedException@@@8 5f8d3c20  
 0003:00004c48       ?_simpleResourceException@@3VCResourceException@@A 5f8d3c48  
 0003:00004d60       ??_R0?AVCResourceException@@@8 5f8d3d60  
 0003:00004d88       ?_simpleUserException@@3VCUserException@@A 5f8d3d88  
 0003:00004ea0       ??_R0?AVCUserException@@@8 5f8d3ea0  
 0003:00004ec0       ?factory@CColorPropPage@@1VCColorPropPageFactory@1@A 5f8d3ec0  
 0003:00004f10       ??_R0?AVCOleObjectFactory@@@8 5f8d3f10  
 0003:00004f30       ?factory@CFontPropPage@@1VCFontPropPageFactory@1@A 5f8d3f30  
 0003:00004f80       ?factory@CPicturePropPage@@1VCPicturePropPageFactory@1@A 5f8d3f80  
 0003:00004fd0       ?_afxOleWinApp@@3VCWinApp@@A 5f8d3fd0  
 0003:00005098       ??_R0?AVCWinApp@@@8        5f8d4098  
 0003:000050b0       ??_R0?AVCDynLinkLibrary@@@8 5f8d40b0  
 0003:000050d0       ??_R0?AV_AFX_CTL3D_STATE@@@8 5f8d40d0  
 0003:000050f0       ?pStaticDocManager@CDocManager@@2PAV1@A 5f8d40f0  
 0003:000050f8       ??_R0?AVCOleMessageFilter@@@8 5f8d40f8  
 0003:00005118       ?pStaticList@CDocManager@@2PAVCPtrList@@A 5f8d4118  
 0003:0000511c       ?_afxRichEditState@@3V?$CProcessLocal@V_AFX_RICHEDIT_STATE@@@@A 5f8d411c  
 0003:00005120       ?_afxOleState@@3V?$CProcessLocal@V_AFX_OLE_STATE@@@@A 5f8d4120  
 0003:00005128       ??_R0?AV_AFX_OLE_STATE@@@8 5f8d4128  
 0003:00005160       ?_afxAmbientCache@@3V?$CThreadLocal@V_AFXCTL_AMBIENT_CACHE@@@@A 5f8d4160  
 0003:00005164       ?_afxOccManager@@3V?$CProcessLocal@VCOccManager@@@@A 5f8d4164  
 0003:00005168       ?_afxUnicodeFont@@3PAUHFONT__@@A 5f8d4168  
 0003:0000516c       ?_afxHalftoneBrush@@3PAUHBRUSH__@@A 5f8d416c  
 0003:00005170       ?_afxPropPageFontInfo@@3V?$CProcessLocal@U_AFX_PROPPAGEFONTINFO@@@@A 5f8d4170  
 0003:00005174       ?_afxBlackDottedPen@@3PAUHPEN__@@A 5f8d4174  
 0003:00005178       ?_afxHatchBrush@@3PAUHBRUSH__@@A 5f8d4178  
 0003:0000517c       ?_afx_hfontMiniSys@@3PAUHFONT__@@A 5f8d417c  
 0003:00005180       ?_afx_hbmMiniSys@@3PAUHBITMAP__@@A 5f8d4180  
 0003:00005190       ?_afxDbState@@3V?$CProcessLocal@V_AFX_DB_STATE@@@@A 5f8d4190  
 0003:00005194       ?_afxSockState@@3V?$CProcessLocal@V_AFX_SOCK_STATE@@@@A 5f8d4194  
 0003:00005198       ?_afxMailState@@3V?$CProcessLocal@V_AFX_MAIL_STATE@@@@A 5f8d4198  
 0003:0000519c       ?_afxEditState@@3V?$CProcessLocal@V_AFX_EDIT_STATE@@@@A 5f8d419c  
 0003:000051a0       ?_afxClrState@@3V?$CProcessLocal@V_AFX_COLOR_STATE@@@@A 5f8d41a0  
 0003:000051a4       ?_afxChecklistState@@3V?$CProcessLocal@V_AFX_CHECKLIST_STATE@@@@A 5f8d41a4  
 0003:000051c8       ??_R0?AVCComboBox@@@8      5f8d41c8  
 0003:000051e0       ??_R0?AVCFrameWnd@@@8      5f8d41e0  
 0003:000051f8       ??_R0?AVCDocument@@@8      5f8d41f8  
 0003:00005210       ??_R0?AVCOleDocument@@@8   5f8d4210  
 0003:00005230       ??_R0?AVCOleLinkingDoc@@@8 5f8d4230  
 0003:00005250       ??_R0?AVCObList@@@8        5f8d4250  
 0003:00005268       ??_R0?AVCView@@@8          5f8d4268  
 0003:00005280       ??_R0?AVCOleServerDoc@@@8  5f8d4280  
 0003:000052a0       ??_R0?AVCCommandLineInfo@@@8 5f8d42a0  
 0003:000052c0       __hmod__ADVAPI32           5f8d42c0  
 0003:000052c8       ??_R0?AVCPtrArray@@@8      5f8d42c8  
 0003:000052e0       ??_R0?AVCDocTemplate@@@8   5f8d42e0  
 0003:00005300       ??_R0?AVCRecentFileList@@@8 5f8d4300  
 0003:00005320       ??_R0?AVCDocManager@@@8    5f8d4320  
 0003:00005340       ??_R0?AVCControlBar@@@8    5f8d4340  
 0003:00005360       ??_R0?AVCStatusBar@@@8     5f8d4360  
 0003:00005380       ??_R0?AVCToolBar@@@8       5f8d4380  
 0003:00005398       ??_R0?AVCDockBar@@@8       5f8d4398  
 0003:000053b0       ??_R0?AVCDockContext@@@8   5f8d43b0  
 0003:000053d0       ??_R0?AVCDockState@@@8     5f8d43d0  
 0003:000053f0       ??_R0?AVCSingleDocTemplate@@@8 5f8d43f0  
 0003:00005418       ??_R0?AVCMemFile@@@8       5f8d4418  
 0003:00005430       ??_R0?AVCDWordArray@@@8    5f8d4430  
 0003:00005450       ??_R0?AV_AFX_EDIT_STATE@@@8 5f8d4450  
 0003:00005470       ??_R0?AV_AFX_RICHEDIT_STATE@@@8 5f8d4470  
 0003:00005498       ?classCByteArray@CByteArray@@2UCRuntimeClass@@A 5f8d4498  
 0003:000054b0       ?classCDWordArray@CDWordArray@@2UCRuntimeClass@@A 5f8d44b0  
 0003:000054c8       ?classCObArray@CObArray@@2UCRuntimeClass@@A 5f8d44c8  
 0003:000054e0       ?classCStringArray@CStringArray@@2UCRuntimeClass@@A 5f8d44e0  
 0003:000054f8       ?classCWordArray@CWordArray@@2UCRuntimeClass@@A 5f8d44f8  
 0003:00005510       ?classCObList@CObList@@2UCRuntimeClass@@A 5f8d4510  
 0003:00005528       ?classCStringList@CStringList@@2UCRuntimeClass@@A 5f8d4528  
 0003:00005540       ?classCMapStringToOb@CMapStringToOb@@2UCRuntimeClass@@A 5f8d4540  
 0003:00005558       ?classCMapStringToString@CMapStringToString@@2UCRuntimeClass@@A 5f8d4558  
 0003:00005570       ?classCMapWordToOb@CMapWordToOb@@2UCRuntimeClass@@A 5f8d4570  
 0003:00005588       ?_afxWinminiTerm@@3HA      5f8d4588  
 0003:00005590       ?classCDockState@CDockState@@2UCRuntimeClass@@A 5f8d4590  
 0003:000055a8       ?_afxTrackerTerm@@3DA      5f8d45a8  
 0003:000055a9       ?_afxWingdixTerm@@3DA      5f8d45a9  
 0003:000055ac       ?_afxMsgFindReplace@@3IB   5f8d45ac  
 0003:000055b0       ?_afxEditviewTerm@@3DA     5f8d45b0  
 0003:000055b8       ?classCDocItem@CDocItem@@2UCRuntimeClass@@A 5f8d45b8  
 0003:000055d0       ?_afxMsgFindReplace2@@3IB  5f8d45d0  
 0003:000055d8       ?classCRichEditCntrItem@CRichEditCntrItem@@2UCRuntimeClass@@A 5f8d45d8  
 0003:000055f0       ??_R0?AVCColorPropPageFactory@CColorPropPage@@@8 5f8d45f0  
 0003:00005628       ??_R0?AUIClassFactory@@@8  5f8d4628  
 0003:00005648       ??_R0?AUIClassFactory2@@@8 5f8d4648  
 0003:00005668       ??_R0?AVXClassFactory@COleObjectFactory@@@8 5f8d4668  
 0003:00005698       ??_R0?AVCFontPropPageFactory@CFontPropPage@@@8 5f8d4698  
 0003:000056d0       ??_R0?AVCPicturePropPageFactory@CPicturePropPage@@@8 5f8d46d0  
 0003:00005708       ??_R0?AV_AFX_BASE_MODULE_STATE@@@8 5f8d4708  
 0003:00005730       ?bStaticInit@CDocManager@@2HA 5f8d4730  
 0003:00005738       ??_R0?AUIMessageFilter@@@8 5f8d4738  
 0003:00005758       ??_R0?AVXMessageFilter@COleMessageFilter@@@8 5f8d4758  
 0003:00005788       __hmod__COMCTL32           5f8d4788  
 0003:00005790       ??_R0?AVCOleTemplateServer@@@8 5f8d4790  
 0003:000057b4       ?_afxDropDownWidth@@3HA    5f8d47b4  
 0003:000057b8       ??_R0?AUIPersist@@@8       5f8d47b8  
 0003:000057d0       ??_R0?AUIParseDisplayName@@@8 5f8d47d0  
 0003:000057f0       ??_R0?AUIOleContainer@@@8  5f8d47f0  
 0003:00005810       ??_R0?AUIOleItemContainer@@@8 5f8d4810  
 0003:00005830       ??_R0?AVXOleItemContainer@COleLinkingDoc@@@8 5f8d4830  
 0003:00005860       ??_R0?AUIPersistFile@@@8   5f8d4860  
 0003:00005880       ??_R0?AVXPersistFile@COleLinkingDoc@@@8 5f8d4880  
 0003:000058b0       ??_R0?AVCWindowDC@@@8      5f8d48b0  
 0003:000058c8       ??_R0?AUIOleWindow@@@8     5f8d48c8  
 0003:000058e8       ??_R0?AUIDataObject@@@8    5f8d48e8  
 0003:00005908       ??_R0?AUIPersistStorage@@@8 5f8d4908  
 0003:00005928       ??_R0?AVXPersistStorage@COleServerDoc@@@8 5f8d4928  
 0003:00005958       ??_R0?AUIOleInPlaceActiveObject@@@8 5f8d4958  
 0003:00005980       ??_R0?AVXOleInPlaceActiveObject@COleServerDoc@@@8 5f8d4980  
 0003:000059b8       ??_R0?AUIOleInPlaceObject@@@8 5f8d49b8  
 0003:000059d8       ??_R0?AVXOleInPlaceObject@COleServerDoc@@@8 5f8d49d8  
 0003:00005a08       ??_R0?AVXDataObject@COleServerDoc@@@8 5f8d4a08  
 0003:00005a30       ??_R0?AUIOleObject@@@8     5f8d4a30  
 0003:00005a50       ??_R0?AVXOleObject@COleServerDoc@@@8 5f8d4a50  
 0003:00005a78       ??_R0?AVCScrollView@@@8    5f8d4a78  
 0003:00005a98       ??_R0?AVCOleDropTarget@@@8 5f8d4a98  
 0003:00005ab8       ??_R0?AVCMultiDocTemplate@@@8 5f8d4ab8  
 0003:00005ad8       ??_R0?AVCMDIFrameWnd@@@8   5f8d4ad8  
 0003:00005af8       ??_R0?AVCSplitterWnd@@@8   5f8d4af8  
 0003:00005b18       ??_R0?AVCMDIChildWnd@@@8   5f8d4b18  
 0003:00005b38       ??_R0?AUIDropTarget@@@8    5f8d4b38  
 0003:00005b58       ??_R0?AVXDropTarget@COleDropTarget@@@8 5f8d4b58  
 0003:00005b88       ?nScrollInterval@COleDropTarget@@1IA 5f8d4b88  
 0003:00005b8c       ?nScrollDelay@COleDropTarget@@1IA 5f8d4b8c  
 0003:00005b90       ?nScrollInset@COleDropTarget@@1HA 5f8d4b90  
 0003:00005b98       ??_R0?AVCOleDialog@@@8     5f8d4b98  
 0003:00005bb8       ??_R0?AVCOleLinksDialog@@@8 5f8d4bb8  
 0003:00005bd8       ??_R0?AVCOleUpdateDialog@@@8 5f8d4bd8  
 0003:00005bf8       ??_R0?AUIOleUILinkContainerW@@@8 5f8d4bf8  
 0003:00005c20       ??_R0?AUIOleUILinkInfoW@@@8 5f8d4c20  
 0003:00005c40       ??_R0?AVCOleUILinkInfo@@@8 5f8d4c40  
 0003:00005c60       ??_R0?AUIDispatch@@@8      5f8d4c60  
 0003:00005c78       ??_R0?AVCOleDispatchImpl@@@8 5f8d4c78  
 0003:00005c98       __hmod__OLEAUT32           5f8d4c98  
 0003:00005ca0       ??_R0?AVCEdit@@@8          5f8d4ca0  
 0003:00005cb8       ??_R0?AVCStatic@@@8        5f8d4cb8  
 0003:00005cd0       ??_R0PAVCException@@@8     5f8d4cd0  
 0003:00005cf0       ??_R0PAX@8                 5f8d4cf0  
 0003:00005d00       ??_R0PAVCObject@@@8        5f8d4d00  
 0003:00005d18       ??_R0PAVCSimpleException@@@8 5f8d4d18  
 0003:00005d38       ??_R0PAVCMemoryException@@@8 5f8d4d38  
 0003:00005d58       ??_R0PAVCNotSupportedException@@@8 5f8d4d58  
 0003:00005d80       ??_R0PAVCArchiveException@@@8 5f8d4d80  
 0003:00005da0       ??_R0?AVCArchiveException@@@8 5f8d4da0  
 0003:00005dc0       ??_R0?AUISequentialStream@@@8 5f8d4dc0  
 0003:00005de0       ??_R0?AUIStream@@@8        5f8d4de0  
 0003:00005df8       ??_R0?AVCArchiveStream@@@8 5f8d4df8  
 0003:00005e18       ??_R0?AVCStdioFile@@@8     5f8d4e18  
 0003:00005e38       ??_R0?AVCSharedFile@@@8    5f8d4e38  
 0003:00005e58       ??_R0PAVCFileException@@@8 5f8d4e58  
 0003:00005e78       ??_R0?AVCByteArray@@@8     5f8d4e78  
 0003:00005e98       ??_R0?AVCObArray@@@8       5f8d4e98  
 0003:00005eb0       ??_R0?AVCStringArray@@@8   5f8d4eb0  
 0003:00005ed0       ??_R0?AVCUIntArray@@@8     5f8d4ed0  
 0003:00005ef0       ??_R0?AVCWordArray@@@8     5f8d4ef0  
 0003:00005f10       ??_R0?AVCStringList@@@8    5f8d4f10  
 0003:00005f30       ??_R0?AVCMapPtrToWord@@@8  5f8d4f30  
 0003:00005f50       ??_R0?AVCMapStringToOb@@@8 5f8d4f50  
 0003:00005f70       ??_R0?AVCMapStringToString@@@8 5f8d4f70  
 0003:00005f98       ??_R0?AVCMapWordToOb@@@8   5f8d4f98  
 0003:00005fb8       ??_R0?AVCMapWordToPtr@@@8  5f8d4fb8  
 0003:00005fd8       ??_R0?AVCSemaphore@@@8     5f8d4fd8  
 0003:00005ff8       ??_R0?AVCMutex@@@8         5f8d4ff8  
 0003:00006010       ??_R0?AVCEvent@@@8         5f8d5010  
 0003:00006028       ??_R0PAVCUserException@@@8 5f8d5028  
 0003:00006048       ??_R0?AVCToolTipCtrl@@@8   5f8d5048  
 0003:00006068       ??_R0?AVCMiniFrameWnd@@@8  5f8d5068  
 0003:00006088       ??_R0?AVCBrush@@@8         5f8d5088  
 0003:000060a0       ??_R0?AVCDialogBar@@@8     5f8d50a0  
 0003:000060c0       ??_R0?AVCMiniDockFrameWnd@@@8 5f8d50c0  
 0003:000060e0       ??_R0?AVCPreviewDC@@@8     5f8d50e0  
 0003:00006100       ??_R0?AVCMetaFileDC@@@8    5f8d5100  
 0003:00006120       ??_R0?AVCRectTracker@@@8   5f8d5120  
 0003:00006140       ??_R0?AVCReBar@@@8         5f8d5140  
 0003:00006158       ??_R0?AVCListBox@@@8       5f8d5158  
 0003:00006170       ??_R0?AVCScrollBar@@@8     5f8d5170  
 0003:00006190       ??_R0?AVCDragListBox@@@8   5f8d5190  
 0003:000061b0       ??_R0?AVCRgn@@@8           5f8d51b0  
 0003:000061c8       ??_R0?AVCToolBarCtrl@@@8   5f8d51c8  
 0003:000061e8       ??_R0?AVCStatusBarCtrl@@@8 5f8d51e8  
 0003:00006208       ??_R0?AVCListCtrl@@@8      5f8d5208  
 0003:00006220       ??_R0?AVCTreeCtrl@@@8      5f8d5220  
 0003:00006238       ??_R0?AVCSpinButtonCtrl@@@8 5f8d5238  
 0003:00006258       ??_R0?AVCSliderCtrl@@@8    5f8d5258  
 0003:00006278       ??_R0?AVCProgressCtrl@@@8  5f8d5278  
 0003:00006298       ??_R0?AVCHeaderCtrl@@@8    5f8d5298  
 0003:000062b8       ??_R0?AVCHotKeyCtrl@@@8    5f8d52b8  
 0003:000062d8       ??_R0?AVCTabCtrl@@@8       5f8d52d8  
 0003:000062f0       ??_R0?AVCAnimateCtrl@@@8   5f8d52f0  
 0003:00006310       ??_R0?AVCRichEditCtrl@@@8  5f8d5310  
 0003:00006330       ??_R0?AVCImageList@@@8     5f8d5330  
 0003:00006350       ??_R0?AVCTempImageList@@@8 5f8d5350  
 0003:00006370       ??_R0?AVCBitmap@@@8        5f8d5370  
 0003:00006388       ??_R0?AV_AFX_CHECKLIST_STATE@@@8 5f8d5388  
 0003:000063ac       ?_afxPropSheetButtons@@3PAHA 5f8d53ac  
 0003:000063c0       ??_R0?AVCPropertyPage@@@8  5f8d53c0  
 0003:000063e0       ??_R0?AVCPropertySheet@@@8 5f8d53e0  
 0003:00006400       ??_R0?AVCPropertyPageEx@@@8 5f8d5400  
 0003:00006420       ??_R0?AVCPropertySheetEx@@@8 5f8d5420  
 0003:00006440       ??_R0?AVCFileDialog@@@8    5f8d5440  
 0003:00006460       ??_R0?AVCPageSetupDialog@@@8 5f8d5460  
 0003:00006480       ??_R0?AV_AFX_COLOR_STATE@@@8 5f8d5480  
 0003:000064a0       ??_R0?AVCColorDialog@@@8   5f8d54a0  
 0003:000064c0       ??_R0?AVCFontDialog@@@8    5f8d54c0  
 0003:000064e0       ??_R0?AVCFindReplaceDialog@@@8 5f8d54e0  
 0003:00006508       ??_R0?AU_AFX_PROPPAGEFONTINFO@@@8 5f8d5508  
 0003:00006530       ??_R0?AVCIPAddressCtrl@@@8 5f8d5530  
 0003:00006550       ??_R0?AVCComboBoxEx@@@8    5f8d5550  
 0003:00006570       ??_R0?AVCPen@@@8           5f8d5570  
 0003:00006588       ??_R0PAVCResourceException@@@8 5f8d5588  
 0003:000065ac       ?_dispatchEntryCount@CCmdTarget@@0IA 5f8d55ac  
 0003:000065b0       ?_dwStockPropMask@CCmdTarget@@0KA 5f8d55b0  
 0003:000065b4       ?_eventsinkEntryCount@CCmdTarget@@0IA 5f8d55b4  
 0003:000065b8       ??_R0?AVCMirrorFile@@@8    5f8d55b8  
 0003:000065d8       ??_R0?AVCNewTypeDlg@@@8    5f8d55d8  
 0003:000065f8       ??_R0?AVCFormView@@@8      5f8d55f8  
 0003:00006610       ??_R0?AVCEditView@@@8      5f8d5610  
 0003:00006628       ??_R0?AVCPreviewView@@@8   5f8d5628  
 0003:00006648       ??_R0?AVCListView@@@8      5f8d5648  
 0003:00006660       ??_R0?AVCTreeView@@@8      5f8d5660  
 0003:00006678       ??_R0?AV_AFX_MAIL_STATE@@@8 5f8d5678  
 0003:00006698       ??_R0?AVCInternetSession@@@8 5f8d5698  
 0003:000066b8       ??_R0?AVCInternetFile@@@8  5f8d56b8  
 0003:000066d8       ??_R0?AVCInternetConnection@@@8 5f8d56d8  
 0003:00006700       ??_R0?AVCFtpConnection@@@8 5f8d5700  
 0003:00006720       ??_R0?AVCGopherConnection@@@8 5f8d5720  
 0003:00006740       ??_R0?AVCHttpConnection@@@8 5f8d5740  
 0003:00006760       ??_R0?AVCHttpFile@@@8      5f8d5760  
 0003:00006778       ??_R0?AVCGopherFile@@@8    5f8d5778  
 0003:00006798       ??_R0?AVCFileFind@@@8      5f8d5798  
 0003:000067b0       ??_R0?AVCFtpFileFind@@@8   5f8d57b0  
 0003:000067d0       ??_R0?AVCGopherFileFind@@@8 5f8d57d0  
 0003:000067f0       ??_R0?AVCGopherLocator@@@8 5f8d57f0  
 0003:00006810       ??_R0PAVCInternetException@@@8 5f8d5810  
 0003:00006838       ??_R0?AVCInternetException@@@8 5f8d5838  
 0003:00006860       ??_R0?AV_AFX_SOCK_STATE@@@8 5f8d5860  
 0003:00006880       ??_R0?AVCAsyncSocket@@@8   5f8d5880  
 0003:000068a0       ??_R0?AVCSocket@@@8        5f8d58a0  
 0003:000068b8       ??_R0?AVCSocketFile@@@8    5f8d58b8  
 0003:000068d8       ??_R0?AVCSocketWnd@@@8     5f8d58d8  
 0003:000068f8       ??_R0?AUIOleInPlaceSite@@@8 5f8d58f8  
 0003:00006918       ??_R0?AVXOleIPSite@COleClientItem@@@8 5f8d5918  
 0003:00006940       ??_R0?AVCDocItem@@@8       5f8d5940  
 0003:00006958       ??_R0?AVCOleClientItem@@@8 5f8d5958  
 0003:00006978       ??_R0?AUIAdviseSink@@@8    5f8d5978  
 0003:00006998       ??_R0?AVXAdviseSink@COleClientItem@@@8 5f8d5998  
 0003:000069c8       ??_R0?AUIOleClientSite@@@8 5f8d59c8  
 0003:000069e8       ??_R0?AVXOleClientSite@COleClientItem@@@8 5f8d59e8  
 0003:00006a18       ??_R0?AUIOleCommandTarget@@@8 5f8d5a18  
 0003:00006a38       ??_R0?AVXOleCommandTarget@COleFrameHook@@@8 5f8d5a38  
 0003:00006a68       ??_R0?AUIOleInPlaceUIWindow@@@8 5f8d5a68  
 0003:00006a90       ??_R0?AUIOleInPlaceFrame@@@8 5f8d5a90  
 0003:00006ab0       ??_R0?AVXOleInPlaceFrame@COleFrameHook@@@8 5f8d5ab0  
 0003:00006ae0       ??_R0?AVCOleFrameHook@@@8  5f8d5ae0  
 0003:00006b00       ??_R0?AVXDataObject@COleDataSource@@@8 5f8d5b00  
 0003:00006b30       ??_R0?AVCOleDataSource@@@8 5f8d5b30  
 0003:00006b50       ??_R0?AVCEnumArray@@@8     5f8d5b50  
 0003:00006b70       ??_R0?AVCEnumFormatEtc@@@8 5f8d5b70  
 0003:00006b90       ??_R0PAVCOleException@@@8  5f8d5b90  
 0003:00006bb0       ??_R0?AVCOleDispatchException@@@8 5f8d5bb0  
 0003:00006bd8       ??_R0PAVCOleDispatchException@@@8 5f8d5bd8  
 0003:00006c00       ??_R0?AVCOleInsertDialog@@@8 5f8d5c00  
 0003:00006c20       ??_R0?AVCOleConvertDialog@@@8 5f8d5c20  
 0003:00006c40       ??_R0?AVCOleChangeIconDialog@@@8 5f8d5c40  
 0003:00006c68       ??_R0?AVCOlePasteSpecialDialog@@@8 5f8d5c68  
 0003:00006c90       ??_R0?AVCOleBusyDialog@@@8 5f8d5c90  
 0003:00006cb0       ??_R0?AVCOlePropertiesDialog@@@8 5f8d5cb0  
 0003:00006cd8       ??_R0?AUIOleUIObjInfoW@@@8 5f8d5cd8  
 0003:00006cf8       ??_R0?AVXOleUIObjInfo@COlePropertiesDialog@@@8 5f8d5cf8  
 0003:00006d30       ??_R0?AVCOleChangeSourceDialog@@@8 5f8d5d30  
 0003:00006d58       ?_afxMonthDays@@3PAHA      5f8d5d58  
 0003:00006d90       ??_R0?AVCOleDropSource@@@8 5f8d5d90  
 0003:00006db0       ??_R0?AUIDropSource@@@8    5f8d5db0  
 0003:00006dd0       ??_R0?AVXDropSource@COleDropSource@@@8 5f8d5dd0  
 0003:00006e00       ??_R0?AUIEnumVOID@@@8      5f8d5e00  
 0003:00006e18       ??_R0?AVXEnumVOID@CEnumArray@@@8 5f8d5e18  
 0003:00006e40       ??_R0?AVCOleCntrFrameWnd@@@8 5f8d5e40  
 0003:00006e60       ??_R0?AVCOleIPFrameWnd@@@8 5f8d5e60  
 0003:00006e80       ??_R0?AVCOleException@@@8  5f8d5e80  
 0003:00006ea0       ??_R0?AVCOleStreamFile@@@8 5f8d5ea0  
 0003:00006ec0       ??_R0?AVXOleObject@COleServerItem@@@8 5f8d5ec0  
 0003:00006ee8       ??_R0?AVCItemDataSource@COleServerItem@@@8 5f8d5ee8  
 0003:00006f18       ??_R0?AVCOleServerItem@@@8 5f8d5f18  
 0003:00006f38       ??_R0?AVXDataObject@COleServerItem@@@8 5f8d5f38  
 0003:00006f68       ??_R0?AVCInnerUnknown@@@8  5f8d5f68  
 0003:00006f88       ??_R0?AVCEnumOleVerb@@@8   5f8d5f88  
 0003:00006fa8       ??_R0?AVCRichEditCntrItem@@@8 5f8d5fa8  
 0003:00006fc8       ??_R0?AVCTypeLibCacheMap@@@8 5f8d5fc8  
 0003:00006fe8       ??_R0?AVCMonikerFile@@@8   5f8d5fe8  
 0003:00007008       ??_R0?AUIBindHost@@@8      5f8d6008  
 0003:00007020       ??_R0?AV_AfxBindHost@@@8   5f8d6020  
 0003:00007040       ??_R0?AVCDateTimeCtrl@@@8  5f8d6040  
 0003:00007060       ??_R0?AVCMonthCalCtrl@@@8  5f8d6060  
 0003:0000707c       ?_eventsinkEntryCount@CHtmlView@@0IA 5f8d607c  
 0003:00007088       ??_R0?AVCHtmlView@@@8      5f8d6088  
 0003:000070a0       ??_R0?AVCOccManager@@@8    5f8d60a0  
 0003:000070bc       ?_dwStockPropMask@COleControlContainer@@0KA 5f8d60bc  
 0003:000070c0       ?_dispatchEntryCount@COleControlContainer@@0IA 5f8d60c0  
 0003:000070c8       ??_R0?AVXOleContainer@COleControlContainer@@@8 5f8d60c8  
 0003:00007100       ??_R0?AVXOleIPFrame@COleControlContainer@@@8 5f8d6100  
 0003:00007130       ??_R0?AVCOleControlContainer@@@8 5f8d6130  
 0003:00007158       ??_R0?AVCFont@@@8          5f8d6158  
 0003:00007170       ??_R0?AVCEnumUnknown@@@8   5f8d6170  
 0003:00007190       ??_R0?AVXEventSink@COleControlSite@@@8 5f8d6190  
 0003:000071c0       ??_R0?AUIPropertyNotifySink@@@8 5f8d61c0  
 0003:000071e8       ??_R0?AVXPropertyNotifySink@COleControlSite@@@8 5f8d61e8  
 0003:00007220       ??_R0?AVXAmbientProps@COleControlSite@@@8 5f8d6220  
 0003:00007250       ??_R0?AUIOleControlSite@@@8 5f8d6250  
 0003:00007270       ??_R0?AVXOleControlSite@COleControlSite@@@8 5f8d6270  
 0003:000072a0       ??_R0?AVXOleIPSite@COleControlSite@@@8 5f8d62a0  
 0003:000072d0       ??_R0?AVXOleClientSite@COleControlSite@@@8 5f8d62d0  
 0003:00007300       ??_R0?AVCOleControlSite@@@8 5f8d6300  
 0003:00007320       ??_R0?AUIRowsetNotify@@@8  5f8d6320  
 0003:00007340       ??_R0?AVXRowsetNotify@COleControlSite@@@8 5f8d6340  
 0003:00007370       ??_R0?AUINotifyDBEvents@@@8 5f8d6370  
 0003:00007390       ??_R0?AVXNotifyDBEvents@COleControlSite@@@8 5f8d6390  
 0003:000073c0       ??_R0?AUIBoundObjectSite@@@8 5f8d63c0  
 0003:000073e0       ??_R0?AVXBoundObjectSite@COleControlSite@@@8 5f8d63e0  
 0003:00007410       ??_R0?AVCDataSourceControl@@@8 5f8d6410  
 0003:00007438       __GUID_0c733a05_2a1c_11ce_ade5_00aa0044773d 5f8d6438  
 0003:00007448       __GUID_0c733a11_2a1c_11ce_ade5_00aa0044773d 5f8d6448  
 0003:00007458       __GUID_0c733a8c_2a1c_11ce_ade5_00aa0044773d 5f8d6458  
 0003:00007468       ??_R0?AVCOleControlLock@@@8 5f8d6468  
 0003:00007488       ??_R0?AVXOleObject@CDocObjectServer@@@8 5f8d6488  
 0003:000074b8       ??_R0?AUIPrint@@@8         5f8d64b8  
 0003:000074d0       ??_R0?AVXPrint@CDocObjectServer@@@8 5f8d64d0  
 0003:000074f8       ??_R0?AVXOleCommandTarget@CDocObjectServer@@@8 5f8d64f8  
 0003:00007530       ??_R0?AVCDocObjectServer@@@8 5f8d6530  
 0003:00007550       ??_R0?AUIOleDocumentView@@@8 5f8d6550  
 0003:00007570       ??_R0?AVXOleDocumentView@CDocObjectServer@@@8 5f8d6570  
 0003:000075a0       ??_R0?AUIOleDocument@@@8   5f8d65a0  
 0003:000075c0       ??_R0?AVXOleDocument@CDocObjectServer@@@8 5f8d65c0  
 0003:000075f0       ??_R0?AVCDocObjectServerItem@@@8 5f8d65f0  
 0003:00007618       ??_R0?AVCOleCmdUI@@@8      5f8d6618  
 0003:00007630       ??_R0?AVCOleDocIPFrameWnd@@@8 5f8d6630  
 0003:00007650       ??_R0?AUIOleDocumentSite@@@8 5f8d6650  
 0003:00007670       ??_R0?AVXOleDocumentSite@COleDocObjectItem@@@8 5f8d6670  
 0003:000076a8       ??_R0?AVCOleDocObjectItem@@@8 5f8d66a8  
 0003:000076c8       ??_R0?AVCAsyncMonikerFile@@@8 5f8d66c8  
 0003:000076e8       ??_R0?AUIBindStatusCallback@@@8 5f8d66e8  
 0003:00007710       ??_R0?AV_AfxBindStatusCallback@@@8 5f8d6710  
 0003:00007738       ??_R0?AVCInnerUnknown@_AfxBindStatusCallback@@@8 5f8d6738  
 0003:00007770       ??_R0?AVCOleResizeBar@@@8  5f8d6770  
 0003:00007790       ??_R0?AUIProvideClassInfo@@@8 5f8d6790  
 0003:000077b0       ??_R0?AUIProvideClassInfo2@@@8 5f8d67b0  
 0003:000077d8       ??_R0?AVXProvideClassInfo@COleControl@@@8 5f8d67d8  
 0003:00007808       ??_R0?AUIOleControl@@@8    5f8d6808  
 0003:00007828       ??_R0?AVXOleControl@COleControl@@@8 5f8d6828  
 0003:00007850       ??_R0?AUIOleCache@@@8      5f8d6850  
 0003:00007868       ??_R0?AVXOleCache@COleControl@@@8 5f8d6868  
 0003:00007890       ??_R0?AVXOleInPlaceActiveObject@COleControl@@@8 5f8d6890  
 0003:000078c8       ??_R0?AUIPersistStreamInit@@@8 5f8d68c8  
 0003:000078f0       ??_R0?AVXPersistStreamInit@COleControl@@@8 5f8d68f0  
 0003:00007920       ??_R0?AUIPerPropertyBrowsing@@@8 5f8d6920  
 0003:00007948       ??_R0?AVXPerPropertyBrowsing@COleControl@@@8 5f8d6948  
 0003:00007978       ??_R0?AUIOleInPlaceObjectWindowless@@@8 5f8d6978  
 0003:000079a8       ??_R0?AVXOleInPlaceObject@COleControl@@@8 5f8d69a8  
 0003:000079d8       ??_R0?AUISpecifyPropertyPages@@@8 5f8d69d8  
 0003:00007a00       ??_R0?AVXSpecifyPropertyPages@COleControl@@@8 5f8d6a00  
 0003:00007a30       ??_R0?AVXPersistStorage@COleControl@@@8 5f8d6a30  
 0003:00007a60       ??_R0?AVXDataObject@COleControl@@@8 5f8d6a60  
 0003:00007a88       ??_R0?AVCOleControl@@@8    5f8d6a88  
 0003:00007aa8       ??_R0?AVXPropConnPt@COleControl@@@8 5f8d6aa8  
 0003:00007ad0       ??_R0?AUIViewObject@@@8    5f8d6ad0  
 0003:00007af0       ??_R0?AUIViewObject2@@@8   5f8d6af0  
 0003:00007b10       ??_R0?AUIViewObjectEx@@@8  5f8d6b10  
 0003:00007b30       ??_R0?AVXViewObject@COleControl@@@8 5f8d6b30  
 0003:00007b58       ??_R0?AVCConnectionPoint@@@8 5f8d6b58  
 0003:00007b78       ??_R0?AVXEventConnPt@COleControl@@@8 5f8d6b78  
 0003:00007ba0       ??_R0?AVXOleObject@COleControl@@@8 5f8d6ba0  
 0003:00007bc8       ??_R0?AUIPointerInactive@@@8 5f8d6bc8  
 0003:00007be8       ??_R0?AVXPointerInactive@COleControl@@@8 5f8d6be8  
 0003:00007c18       ??_R0?AUIPersistPropertyBag@@@8 5f8d6c18  
 0003:00007c40       ??_R0?AVXPersistPropertyBag@COleControl@@@8 5f8d6c40  
 0003:00007c70       ??_R0?AUIQuickActivate@@@8 5f8d6c70  
 0003:00007c90       ??_R0?AVXQuickActivate@COleControl@@@8 5f8d6c90  
 0003:00007cc0       ??_R0?AUIPersistMemory@@@8 5f8d6cc0  
 0003:00007ce0       ??_R0?AVXPersistMemory@COleControl@@@8 5f8d6ce0  
 0003:00007d10       ??_R0?AVXFontNotification@COleControl@@@8 5f8d6d10  
 0003:00007d40       ??_R0?AVCReflectorWnd@@@8  5f8d6d40  
 0003:00007d60       ??_R0?AVCParkingWnd@@@8    5f8d6d60  
 0003:00007d80       ??_R0?AVCControlDataSource@COleControl@@@8 5f8d6d80  
 0003:00007db0       ??_R0?AVCControlFrameWnd@@@8 5f8d6db0  
 0003:00007dd0       ??_R0?AUIConnectionPoint@@@8 5f8d6dd0  
 0003:00007df0       ??_R0?AVXConnPt@CConnectionPoint@@@8 5f8d6df0  
 0003:00007e18       ??_R0?AVCEnumConnections@@@8 5f8d6e18  
 0003:00007e38       ??_R0?AVCEnumConnPoints@@@8 5f8d6e38  
 0003:00007e58       ??_R0?AUIConnectionPointContainer@@@8 5f8d6e58  
 0003:00007e80       ??_R0?AVCOleConnPtContainer@@@8 5f8d6e80  
 0003:00007ea8       ??_R0?AVCPropExchange@@@8  5f8d6ea8  
 0003:00007ec8       ??_R0?AVCArchivePropExchange@@@8 5f8d6ec8  
 0003:00007ef0       ??_R0?AVCResetPropExchange@@@8 5f8d6ef0  
 0003:00007f18       ??_R0?AVCAsyncPropExchange@@@8 5f8d6f18  
 0003:00007f40       ??_R0?AUAFX_DDPDATA@@@8    5f8d6f40  
 0003:00007f60       ??_R0?AVXPropNotifySink@COlePropertyPage@@@8 5f8d6f60  
 0003:00007f90       ??_R0?AUIPropertyPage@@@8  5f8d6f90  
 0003:00007fb0       ??_R0?AUIPropertyPage2@@@8 5f8d6fb0  
 0003:00007fd0       ??_R0?AVXPropertyPage@COlePropertyPage@@@8 5f8d6fd0  
 0003:00008000       ??_R0?AVCOlePropertyPage@@@8 5f8d7000  
 0003:00008020       ??_R0?AVCPropsetPropExchange@@@8 5f8d7020  
 0003:00008070       ??_R0?AVCControlRectTracker@@@8 5f8d7070  
 0003:00008098       ??_R0?AUIPersistStream@@@8 5f8d7098  
 0003:000080b8       ??_R0?AVCBlobProperty@@@8  5f8d70b8  
 0003:000080d8       ??_R0?AVCPropbagPropExchange@@@8 5f8d70d8  
 0003:00008100       ??_R0?AV_AFXCTL_AMBIENT_CACHE@@@8 5f8d7100  
 0003:00008128       ??_R0?AVCWindowlessDC@@@8  5f8d7128  
 0003:00008148       ??_R0?AVCColorButton@@@8   5f8d7148  
 0003:00008168       ??_R0?AVCStockPropPage@@@8 5f8d7168  
 0003:00008188       ??_R0?AVCColorPropPage@@@8 5f8d7188  
 0003:000081a8       ?_afxTTDefaults@@3PAHA     5f8d71a8  
 0003:000081e8       ??_R0?AVCFontPropPage@@@8  5f8d71e8  
 0003:00008208       ??_R0?AVCSizeComboBox@@@8  5f8d7208  
 0003:00008228       ??_R0?AVCFontComboBox@@@8  5f8d7228  
 0003:00008248       ?_afxPictDescEmpty@@3UtagPICTDESC@@A 5f8d7248  
 0003:00008260       ??_R0?AVCPicturePropPage@@@8 5f8d7260  
 0003:00008280       ??_R0PAVCDBException@@@8   5f8d7280  
 0003:000082a0       ??_R0?AVCDBException@@@8   5f8d72a0  
 0003:000082c0       ??_R0?AVCDatabase@@@8      5f8d72c0  
 0003:000082d8       ??_R0?AVCRecordset@@@8     5f8d72d8  
 0003:000082f8       ??_R0?AV_AFX_DB_STATE@@@8  5f8d72f8  
 0003:00008318       ??_R0?AVCRecordView@@@8    5f8d7318  
 0003:00008338       ??_R0?AVCLongBinary@@@8    5f8d7338  
 0003:00008358       ??_R0?AVCDBVariant@@@8     5f8d7358  
 0003:00008378       ?_afxNullVariant@@3UtagVARIANT@@A 5f8d7378  
 0003:00008388       ?_afxOptionalVariant@@3UtagVARIANT@@A 5f8d7388  
 0003:00008398       ??_R0?AV_AFX_DAO_STATE@@@8 5f8d7398  
 0003:000083b8       ??_R0?AUCDaoIndexInfo@@@8  5f8d73b8  
 0003:000083d8       ??_R0?AUCDaoRelationInfo@@@8 5f8d73d8  
 0003:000083f8       ??_R0?AVCDaoException@@@8  5f8d73f8  
 0003:00008418       ??_R0PAVCDaoException@@@8  5f8d7418  
 0003:00008438       ??_R0?AVCDaoWorkspace@@@8  5f8d7438  
 0003:00008458       ??_R0?AVCDaoDatabase@@@8   5f8d7458  
 0003:00008478       ??_R0?AVCDaoTableDef@@@8   5f8d7478  
 0003:00008498       ??_R0?AVCDaoQueryDef@@@8   5f8d7498  
 0003:000084b8       ??_R0?AVCDaoRecordset@@@8  5f8d74b8  
 0003:000084d8       ??_R0?AVCDaoRecordView@@@8 5f8d74d8  
 0003:000084f8       ??_R0?AVCPalette@@@8       5f8d74f8  
 0003:00008510       ??_R0?AVCCheckListBox@@@8  5f8d7510  
 0003:00008530       ??_R0?AVCBitmapButton@@@8  5f8d7530  
 0003:00008550       ??_R0?AVCDataPathProperty@@@8 5f8d7550  
 0003:00008570       ??_R0?AVCCachedDataPathProperty@@@8 5f8d7570  
 0003:00008598       ?_afxGotScrollLines@@3HA   5f8d7598  
 0003:000085a0       ?_afx_sizeMiniSys@@3UtagSIZE@@A 5f8d75a0  
 0003:000085a8       ?_afxHandleSize@@3HA       5f8d75a8  
 0003:000085ac       ?_afxCursors@@3PAPAUHICON__@@A 5f8d75ac  
 0003:000085d8       ?_afx_idcPrimaryLast@@3IA  5f8d75d8  
 0003:000085dc       ?_afx_hcurDestroy@@3PAUHICON__@@A 5f8d75dc  
 0003:000085e0       ?_afx_hcurLast@@3PAUHICON__@@A 5f8d75e0  
 0003:00008604       ?nDragDelay@COleDropSource@@1IA 5f8d7604  
 0003:00008608       ?nDragMinDist@COleDropSource@@1IA 5f8d7608  
 0003:00008638       ?_afxLargeZero@@3T_LARGE_INTEGER@@A 5f8d7638  
 0003:00008640       ?hPal@@3PAUHPALETTE__@@A   5f8d7640  
 0003:00008644       ?idClicked@CColorButton@@2IA 5f8d7644  
 0003:00008648       __hmod__OLEPRO32           5f8d7648  
 0003:0000864c       __hmod__WINSPOOL           5f8d764c  
 0003:00008650       __hmod__WININET            5f8d7650  
 0003:00008654       __hmod__WSOCK32            5f8d7654  
 0003:00008658       __hmod__OLEDLG             5f8d7658  
 0003:0000865c       __hmod__URLMON             5f8d765c  
 0003:00008660       __hmod__ODBC32             5f8d7660  
 0003:00008664       ___puiHead                 5f8d7664  
 0003:00008668       ___pfnDliFailureHook       5f8d7668  

 entry point at        0001:00004e9a

 Static symbols

