 MFCO42D

 Timestamp is 381763b4 (Wed Oct 27 13:42:28 1999)

 Preferred load address is 5f500000

 Start         Length     Name                   Class
 0001:00000000 0004cc50H .text                   CODE
 0001:0004cc50 0000004cH .text$AFX_CORE1         CODE
 0001:0004cca0 000055bbH .text$AFX_CORE4         CODE
 0001:00052260 0000278aH .text$AFX_INIT          CODE
 0001:000549f0 00010a71H .text$AFX_OLE1          CODE
 0001:00065470 000092b5H .text$AFX_OLE2          CODE
 0001:0006e730 00007912H .text$AFX_OLE3          CODE
 0001:00076050 0000d60bH .text$AFX_OLE4          CODE
 0001:00083660 00003f01H .text$AFX_OLE5          CODE
 0001:00087570 00000285H .text$AFX_TERM          CODE
 0001:00087800 00001103H .text$AFX_VDEL          CODE
 0001:00088910 0000463cH .text$x                 CODE
 0002:00000000 0000117cH .idata$5                DATA
 0002:00001180 0000ddccH .rdata                  DATA
 0002:0000ef50 00003dccH .rdata$r                DATA
 0002:00012d20 00009c08H .xdata$x                DATA
 0002:0001c928 000000e0H .didat$2                DATA
 0002:0001ca08 00000020H .didat$3                DATA
 0002:0001ca28 0000026cH .didat$4                DATA
 0002:0001cc94 0000074aH .didat$6                DATA
 0002:0001d3e0 0000026cH .didat$7                DATA
 0002:0001d64c 00000064H .idata$2                DATA
 0002:0001d6b0 00000014H .idata$3                DATA
 0002:0001d6c4 0000117cH .idata$4                DATA
 0002:0001e840 00000b3eH .idata$6                DATA
 0002:0001f380 000032a4H .edata                  DATA
 0003:00000000 00000004H .CRT$XCA                DATA
 0003:00000004 0000000cH .CRT$XCL                DATA
 0003:00000010 00000028H .CRT$XCU                DATA
 0003:00000038 00000004H .CRT$XCZ                DATA
 0003:0000003c 00000004H .CRT$XIA                DATA
 0003:00000040 00000004H .CRT$XIZ                DATA
 0003:00000050 00002950H .data                   DATA
 0003:000029a0 0000026cH .didat$5                DATA
 0003:00002c10 0000147cH .bss                    DATA
 0004:00000000 00000448H .rsrc$01                DATA
 0004:00000450 000021d0H .rsrc$02                DATA

  Address         Publics by Value              Rva+Base     Lib:Object

 0001:00000000       __tcsncmp                  5f501000 f i oleinit.obj
 0001:00000020       __tcsinc                   5f501020 f i olecli1.obj
 0001:00000040       ?AtlA2WHelper@@YGPAGPAGPBDH@Z 5f501040 f i olecli1.obj
 0001:00000060       ?AtlA2WHelper@@YGPAGPAGPBDHI@Z 5f501060 f i olecli1.obj
 0001:000000f0       ?AtlW2AHelper@@YGPADPADPBGH@Z 5f5010f0 f i olecli1.obj
 0001:00000110       ?AtlW2AHelper@@YGPADPADPBGHI@Z 5f501110 f i olecli1.obj
 0001:000001a0       ??9@YAHABU_GUID@@0@Z       5f5011a0 f i oledisp1.obj
 0001:000001c0       __tcschr                   5f5011c0 f i oledlgs1.obj
 0001:000001e0       ??1CNoTrackObject@@UAE@XZ  5f5011e0 f i oledata.obj
 0001:00000200       ??_ECNoTrackObject@@UAEPAXI@Z 5f501200 f i oledata.obj
 0001:00000200       ??_GCNoTrackObject@@UAEPAXI@Z 5f501200 f i oledata.obj
 0001:00000230       ?AfxCheckError@@YGXJ@Z     5f501230 f   olevar.obj
 0001:00000256       ?_AfxCompareSafeArrays@@YGHPAUtagSAFEARRAY@@0@Z 5f501256 f   olevar.obj
 0001:000006a4       ?_AfxCreateOneDimArray@@YGXAAUtagVARIANT@@K@Z 5f5016a4 f   olevar.obj
 0001:000007d6       ?_AfxCopyBinaryData@@YGXPAUtagSAFEARRAY@@PBXK@Z 5f5017d6 f   olevar.obj
 0001:00000818       ??0COleVariant@@QAE@ABUtagVARIANT@@@Z 5f501818 f   olevar.obj
 0001:00000845       ??0COleVariant@@QAE@PBUtagVARIANT@@@Z 5f501845 f   olevar.obj
 0001:00000872       ??0COleVariant@@QAE@ABV0@@Z 5f501872 f   olevar.obj
 0001:0000089f       ??0COleVariant@@QAE@PBDG@Z 5f50189f f   olevar.obj
 0001:000009c1       ?SetString@COleVariant@@QAEXPBDG@Z 5f5019c1 f   olevar.obj
 0001:00000ae8       ??0COleVariant@@QAE@FG@Z   5f501ae8 f   olevar.obj
 0001:00000b79       ??0COleVariant@@QAE@JG@Z   5f501b79 f   olevar.obj
 0001:00000c36       ?_ClearCompat@COleVariant@@QAEXXZ 5f501c36 f   olevar.obj
 0001:00000c49       ?ChangeType@COleVariant@@QAEXGPAUtagVARIANT@@@Z 5f501c49 f   olevar.obj
 0001:00000c9a       ?Attach@COleVariant@@QAEXAAUtagVARIANT@@@Z 5f501c9a f   olevar.obj
 0001:00000cc9       ?Detach@COleVariant@@QAE?AUtagVARIANT@@XZ 5f501cc9 f   olevar.obj
 0001:00000d17       ??8COleVariant@@QBEHABUtagVARIANT@@@Z 5f501d17 f   olevar.obj
 0001:00000fd4       ??4COleVariant@@QAEABV0@ABUtagVARIANT@@@Z 5f501fd4 f   olevar.obj
 0001:00000ff8       ??4COleVariant@@QAEABV0@PBUtagVARIANT@@@Z 5f501ff8 f   olevar.obj
 0001:0000101c       ??4COleVariant@@QAEABV0@ABV0@@Z 5f50201c f   olevar.obj
 0001:00001040       ??4COleVariant@@QAEABV0@QBD@Z 5f502040 f   olevar.obj
 0001:000010fc       ??4COleVariant@@QAEABV0@ABVCString@@@Z 5f5020fc f   olevar.obj
 0001:000011ab       ??4COleVariant@@QAEABV0@E@Z 5f5021ab f   olevar.obj
 0001:000011e1       ??4COleVariant@@QAEABV0@F@Z 5f5021e1 f   olevar.obj
 0001:00001251       ??4COleVariant@@QAEABV0@J@Z 5f502251 f   olevar.obj
 0001:000012d3       ??4COleVariant@@QAEABV0@ABVCOleCurrency@@@Z 5f5022d3 f   olevar.obj
 0001:00001311       ??4COleVariant@@QAEABV0@M@Z 5f502311 f   olevar.obj
 0001:00001347       ??4COleVariant@@QAEABV0@N@Z 5f502347 f   olevar.obj
 0001:00001383       ??4COleVariant@@QAEABV0@ABVCOleDateTime@@@Z 5f502383 f   olevar.obj
 0001:000013c1       ??4COleVariant@@QAEABV0@ABVCByteArray@@@Z 5f5023c1 f   olevar.obj
 0001:00001404       ??4COleVariant@@QAEABV0@ABVCLongBinary@@@Z 5f502404 f   olevar.obj
 0001:0000145a       ?AfxVariantInit@@YGXPAUtagVARIANT@@@Z 5f50245a f   olevar.obj
 0001:00001471       ??6@YGAAVCDumpContext@@AAV0@VCOleVariant@@@Z 5f502471 f   olevar.obj
 0001:0000186c       ??6@YGAAVCArchive@@AAV0@VCOleVariant@@@Z 5f50286c f   olevar.obj
 0001:00001cd2       ??5@YGAAVCArchive@@AAV0@AAVCOleVariant@@@Z 5f502cd2 f   olevar.obj
 0001:000020c9       ?ConstructElements@@YGXPAVCOleVariant@@H@Z 5f5030c9 f   olevar.obj
 0001:0000218c       ?DestructElements@@YGXPAVCOleVariant@@H@Z 5f50318c f   olevar.obj
 0001:000021f6       ?CopyElements@@YGXPAVCOleVariant@@PBV1@H@Z 5f5031f6 f   olevar.obj
 0001:000022a1       ?SerializeElements@@YGXAAVCArchive@@PAVCOleVariant@@H@Z 5f5032a1 f   olevar.obj
 0001:0000235b       ?DumpElements@@YGXAAVCDumpContext@@PBVCOleVariant@@H@Z 5f50335b f   olevar.obj
 0001:000023a1       ?HashKey@@YGIABUtagVARIANT@@@Z 5f5033a1 f   olevar.obj
 0001:000024cc       ??0COleCurrency@@QAE@JJ@Z  5f5034cc f   olevar.obj
 0001:000024f6       ??4COleCurrency@@QAEABV0@TtagCY@@@Z 5f5034f6 f   olevar.obj
 0001:0000251e       ??4COleCurrency@@QAEABV0@ABV0@@Z 5f50351e f   olevar.obj
 0001:0000254a       ??4COleCurrency@@QAEABV0@ABUtagVARIANT@@@Z 5f50354a f   olevar.obj
 0001:00002662       ??MCOleCurrency@@QBEHABV0@@Z 5f503662 f   olevar.obj
 0001:000026fb       ??OCOleCurrency@@QBEHABV0@@Z 5f5036fb f   olevar.obj
 0001:00002794       ??NCOleCurrency@@QBEHABV0@@Z 5f503794 f   olevar.obj
 0001:0000282c       ??PCOleCurrency@@QBEHABV0@@Z 5f50382c f   olevar.obj
 0001:000028c4       ??HCOleCurrency@@QBE?AV0@ABV0@@Z 5f5038c4 f   olevar.obj
 0001:000029b8       ??GCOleCurrency@@QBE?AV0@ABV0@@Z 5f5039b8 f   olevar.obj
 0001:00002aac       ??GCOleCurrency@@QBE?AV0@XZ 5f503aac f   olevar.obj
 0001:00002b3b       ??DCOleCurrency@@QBE?AV0@J@Z 5f503b3b f   olevar.obj
 0001:00002e8e       ??KCOleCurrency@@QBE?AV0@J@Z 5f503e8e f   olevar.obj
 0001:000031f6       ?SetCurrency@COleCurrency@@QAEXJJ@Z 5f5041f6 f   olevar.obj
 0001:000032a6       ?ParseCurrency@COleCurrency@@QAEHPBDKK@Z 5f5042a6 f   olevar.obj
 0001:0000344c       ?Format@COleCurrency@@QBE?AVCString@@KK@Z 5f50444c f   olevar.obj
 0001:000035f9       ??6@YGAAVCDumpContext@@AAV0@VCOleCurrency@@@Z 5f5045f9 f   olevar.obj
 0001:00003695       ??6@YGAAVCArchive@@AAV0@VCOleCurrency@@@Z 5f504695 f   olevar.obj
 0001:000036c0       ??5@YGAAVCArchive@@AAV0@AAVCOleCurrency@@@Z 5f5046c0 f   olevar.obj
 0001:000036f1       ?_AfxOleDateFromTm@@YGHGGGGGGAAN@Z 5f5046f1 f   olevar.obj
 0001:0000390c       ?_AfxTmFromOleDate@@YGHNAAUtm@@@Z 5f50490c f   olevar.obj
 0001:00003bf9       ?_AfxTmConvertToStandardFormat@@YGXAAUtm@@@Z 5f504bf9 f   olevar.obj
 0001:00003c3f       ?_AfxDoubleFromDate@@YGNN@Z 5f504c3f f   olevar.obj
 0001:00003c7d       ?_AfxDateFromDouble@@YGNN@Z 5f504c7d f   olevar.obj
 0001:00003cb8       ?GetTickCount@COleDateTime@@SG?AV1@XZ 5f504cb8 f   olevar.obj
 0001:00003cd6       ?GetAsSystemTime@COleDateTime@@QBEHAAU_SYSTEMTIME@@@Z 5f504cd6 f   olevar.obj
 0001:00003d70       ?GetYear@COleDateTime@@QBEHXZ 5f504d70 f   olevar.obj
 0001:00003da8       ?GetMonth@COleDateTime@@QBEHXZ 5f504da8 f   olevar.obj
 0001:00003de0       ?GetDay@COleDateTime@@QBEHXZ 5f504de0 f   olevar.obj
 0001:00003e18       ?GetHour@COleDateTime@@QBEHXZ 5f504e18 f   olevar.obj
 0001:00003e50       ?GetMinute@COleDateTime@@QBEHXZ 5f504e50 f   olevar.obj
 0001:00003e88       ?GetSecond@COleDateTime@@QBEHXZ 5f504e88 f   olevar.obj
 0001:00003ec0       ?GetDayOfWeek@COleDateTime@@QBEHXZ 5f504ec0 f   olevar.obj
 0001:00003ef8       ?GetDayOfYear@COleDateTime@@QBEHXZ 5f504ef8 f   olevar.obj
 0001:00003f30       ??4COleDateTime@@QAEABV0@ABUtagVARIANT@@@Z 5f504f30 f   olevar.obj
 0001:00004045       ??4COleDateTime@@QAEABV0@N@Z 5f505045 f   olevar.obj
 0001:0000406d       ??4COleDateTime@@QAEABV0@ABJ@Z 5f50506d f   olevar.obj
 0001:00004114       ??4COleDateTime@@QAEABV0@ABU_SYSTEMTIME@@@Z 5f505114 f   olevar.obj
 0001:00004167       ??4COleDateTime@@QAEABV0@ABU_FILETIME@@@Z 5f505167 f   olevar.obj
 0001:00004208       ??MCOleDateTime@@QBEHABV0@@Z 5f505208 f   olevar.obj
 0001:000042a7       ??OCOleDateTime@@QBEHABV0@@Z 5f5052a7 f   olevar.obj
 0001:00004346       ??NCOleDateTime@@QBEHABV0@@Z 5f505346 f   olevar.obj
 0001:000043e5       ??PCOleDateTime@@QBEHABV0@@Z 5f5053e5 f   olevar.obj
 0001:00004484       ??HCOleDateTime@@QBE?AV0@ABVCOleDateTimeSpan@@@Z 5f505484 f   olevar.obj
 0001:00004549       ??GCOleDateTime@@QBE?AV0@ABVCOleDateTimeSpan@@@Z 5f505549 f   olevar.obj
 0001:0000460e       ??GCOleDateTime@@QBE?AVCOleDateTimeSpan@@ABV0@@Z 5f50560e f   olevar.obj
 0001:000046c4       ?SetDateTime@COleDateTime@@QAEHHHHHHH@Z 5f5056c4 f   olevar.obj
 0001:00004709       ?ParseDateTime@COleDateTime@@QAEHPBDKK@Z 5f505709 f   olevar.obj
 0001:000048a9       ?Format@COleDateTime@@QBE?AVCString@@KK@Z 5f5058a9 f   olevar.obj
 0001:00004a56       ?Format@COleDateTime@@QBE?AVCString@@PBD@Z 5f505a56 f   olevar.obj
 0001:00004bb0       ?Format@COleDateTime@@QBE?AVCString@@I@Z 5f505bb0 f   olevar.obj
 0001:00004c50       ?CheckRange@COleDateTime@@IAEXXZ 5f505c50 f   olevar.obj
 0001:00004c89       ??6@YGAAVCDumpContext@@AAV0@VCOleDateTime@@@Z 5f505c89 f   olevar.obj
 0001:00004d25       ??6@YGAAVCArchive@@AAV0@VCOleDateTime@@@Z 5f505d25 f   olevar.obj
 0001:00004d48       ??5@YGAAVCArchive@@AAV0@AAVCOleDateTime@@@Z 5f505d48 f   olevar.obj
 0001:00004d6a       ?GetHours@COleDateTimeSpan@@QBEJXZ 5f505d6a f   olevar.obj
 0001:00004de3       ?GetMinutes@COleDateTimeSpan@@QBEJXZ 5f505de3 f   olevar.obj
 0001:00004e63       ?GetSeconds@COleDateTimeSpan@@QBEJXZ 5f505e63 f   olevar.obj
 0001:00004ee9       ??4COleDateTimeSpan@@QAEABV0@N@Z 5f505ee9 f   olevar.obj
 0001:00004f11       ??4COleDateTimeSpan@@QAEABV0@ABV0@@Z 5f505f11 f   olevar.obj
 0001:00004f3d       ??HCOleDateTimeSpan@@QBE?AV0@ABV0@@Z 5f505f3d f   olevar.obj
 0001:00004fe2       ??GCOleDateTimeSpan@@QBE?AV0@ABV0@@Z 5f505fe2 f   olevar.obj
 0001:00005087       ?SetDateTimeSpan@COleDateTimeSpan@@QAEXJHHH@Z 5f506087 f   olevar.obj
 0001:000050c7       ?Format@COleDateTimeSpan@@QBE?AVCString@@PBD@Z 5f5060c7 f   olevar.obj
 0001:00005354       ?Format@COleDateTimeSpan@@QBE?AVCString@@I@Z 5f506354 f   olevar.obj
 0001:000053f4       ?CheckRange@COleDateTimeSpan@@QAEXXZ 5f5063f4 f   olevar.obj
 0001:0000542d       ??6@YGAAVCDumpContext@@AAV0@VCOleDateTimeSpan@@@Z 5f50642d f   olevar.obj
 0001:000054cd       ??6@YGAAVCArchive@@AAV0@VCOleDateTimeSpan@@@Z 5f5064cd f   olevar.obj
 0001:000054f0       ??5@YGAAVCArchive@@AAV0@AAVCOleDateTimeSpan@@@Z 5f5064f0 f   olevar.obj
 0001:00005512       ??0COleSafeArray@@QAE@ABUtagSAFEARRAY@@G@Z 5f506512 f   olevar.obj
 0001:00005570       ??0COleSafeArray@@QAE@PBUtagSAFEARRAY@@G@Z 5f506570 f   olevar.obj
 0001:000055ce       ??0COleSafeArray@@QAE@ABV0@@Z 5f5065ce f   olevar.obj
 0001:0000560f       ??0COleSafeArray@@QAE@ABUtagVARIANT@@@Z 5f50660f f   olevar.obj
 0001:00005650       ??0COleSafeArray@@QAE@PBUtagVARIANT@@@Z 5f506650 f   olevar.obj
 0001:00005691       ?Attach@COleSafeArray@@QAEXAAUtagVARIANT@@@Z 5f506691 f   olevar.obj
 0001:000056f2       ?Detach@COleSafeArray@@QAE?AUtagVARIANT@@XZ 5f5066f2 f   olevar.obj
 0001:00005740       ??4COleSafeArray@@QAEAAV0@ABV0@@Z 5f506740 f   olevar.obj
 0001:00005796       ??4COleSafeArray@@QAEAAV0@ABUtagVARIANT@@@Z 5f506796 f   olevar.obj
 0001:000057ec       ??4COleSafeArray@@QAEAAV0@PBUtagVARIANT@@@Z 5f5067ec f   olevar.obj
 0001:00005842       ??4COleSafeArray@@QAEAAV0@ABVCOleVariant@@@Z 5f506842 f   olevar.obj
 0001:00005898       ??8COleSafeArray@@QBEHABUtagSAFEARRAY@@@Z 5f506898 f   olevar.obj
 0001:000058b5       ??8COleSafeArray@@QBEHPBUtagSAFEARRAY@@@Z 5f5068b5 f   olevar.obj
 0001:000058d2       ??8COleSafeArray@@QBEHABV0@@Z 5f5068d2 f   olevar.obj
 0001:0000590a       ??8COleSafeArray@@QBEHABUtagVARIANT@@@Z 5f50690a f   olevar.obj
 0001:00005942       ??8COleSafeArray@@QBEHPBUtagVARIANT@@@Z 5f506942 f   olevar.obj
 0001:0000597a       ??8COleSafeArray@@QBEHABVCOleVariant@@@Z 5f50697a f   olevar.obj
 0001:000059b2       ?_AfxDumpSafeArrayElement@@YAXAAVCDumpContext@@AAVCOleSafeArray@@PAJ@Z 5f5069b2 f   olevar.obj
 0001:00005c6d       ??6@YGAAVCDumpContext@@AAV0@AAVCOleSafeArray@@@Z 5f506c6d f   olevar.obj
 0001:00005edf       ?CreateOneDim@COleSafeArray@@QAEXGKPBXJ@Z 5f506edf f   olevar.obj
 0001:00005f6a       ?GetOneDimSize@COleSafeArray@@QAEKXZ 5f506f6a f   olevar.obj
 0001:00005fc9       ?ResizeOneDim@COleSafeArray@@QAEXK@Z 5f506fc9 f   olevar.obj
 0001:0000601e       ?Create@COleSafeArray@@QAEXGKPAK@Z 5f50701e f   olevar.obj
 0001:00006149       ?Create@COleSafeArray@@QAEXGKPAUtagSAFEARRAYBOUND@@@Z 5f507149 f   olevar.obj
 0001:000062c7       ?AccessData@COleSafeArray@@QAEXPAPAX@Z 5f5072c7 f   olevar.obj
 0001:000062eb       ?UnaccessData@COleSafeArray@@QAEXXZ 5f5072eb f   olevar.obj
 0001:00006309       ?AllocData@COleSafeArray@@QAEXXZ 5f507309 f   olevar.obj
 0001:00006327       ?AllocDescriptor@COleSafeArray@@QAEXK@Z 5f507327 f   olevar.obj
 0001:0000634b       ?Copy@COleSafeArray@@QAEXPAPAUtagSAFEARRAY@@@Z 5f50734b f   olevar.obj
 0001:0000636f       ?GetLBound@COleSafeArray@@QAEXKPAJ@Z 5f50736f f   olevar.obj
 0001:00006397       ?GetUBound@COleSafeArray@@QAEXKPAJ@Z 5f507397 f   olevar.obj
 0001:000063bf       ?GetElement@COleSafeArray@@QAEXPAJPAX@Z 5f5073bf f   olevar.obj
 0001:000063e7       ?PtrOfIndex@COleSafeArray@@QAEXPAJPAPAX@Z 5f5073e7 f   olevar.obj
 0001:0000640f       ?PutElement@COleSafeArray@@QAEXPAJPAX@Z 5f50740f f   olevar.obj
 0001:00006437       ?Redim@COleSafeArray@@QAEXPAUtagSAFEARRAYBOUND@@@Z 5f507437 f   olevar.obj
 0001:0000645b       ?Lock@COleSafeArray@@QAEXXZ 5f50745b f   olevar.obj
 0001:00006479       ?Unlock@COleSafeArray@@QAEXXZ 5f507479 f   olevar.obj
 0001:00006497       ?Destroy@COleSafeArray@@QAEXXZ 5f507497 f   olevar.obj
 0001:000064b5       ?DestroyData@COleSafeArray@@QAEXXZ 5f5074b5 f   olevar.obj
 0001:000064d3       ?DestroyDescriptor@COleSafeArray@@QAEXXZ 5f5074d3 f   olevar.obj
 0001:000064f1       ?AfxSafeArrayInit@@YGXPAVCOleSafeArray@@@Z 5f5074f1 f   olevar.obj
 0001:00006508       ?DDX_Text@@YGXPAVCDataExchange@@HAAVCOleDateTime@@@Z 5f507508 f   olevar.obj
 0001:00006610       ?DDX_Text@@YGXPAVCDataExchange@@HAAVCOleCurrency@@@Z 5f507610 f   olevar.obj
 0001:00006720       ??_GCOleVariant@@QAEPAXI@Z 5f507720 f i olevar.obj
 0001:00006750       ?HashKey@@YGIK@Z           5f507750 f i olevar.obj
 0001:00006760       ??2@YAPAXIPAX@Z            5f507760 f i olevar.obj
 0001:00006770       ??3@YAXPAX0@Z              5f507770 f i olevar.obj
 0001:00006780       ??0COleVariant@@QAE@PBU_ITEMIDLIST@@@Z 5f507780 f   olevar1.obj
 0001:00006830       ??0AFX_CLASSINIT@@QAE@PAUCRuntimeClass@@@Z 5f507830 f i oledoc1.obj
 0001:00006850       ??_9@$BBAI@AE              5f507850 f i oleipfrm.obj
 0001:00006860       ??0CPushRoutingFrame@@QAE@PAVCFrameWnd@@@Z 5f507860 f i oleipfrm.obj
 0001:000068a0       ??1CPushRoutingFrame@@QAE@XZ 5f5078a0 f i oleipfrm.obj
 0001:000068c0       ?ocslen@@YAIPBG@Z          5f5078c0 f i olemisc.obj
 0001:000068d0       ?ocscpy@@YAPAGPAGPBG@Z     5f5078d0 f i olemisc.obj
 0001:00006900       ?AtlDevModeA2W@@YAPAU_devicemodeW@@PAU1@PAU_devicemodeA@@@Z 5f507900 f i olemisc.obj
 0001:00006a10       ?AtlDevModeW2A@@YGPAU_devicemodeA@@PAU1@PAU_devicemodeW@@@Z 5f507a10 f i olemisc.obj
 0001:00006b20       ?_GetBaseInterfaceMap@CEnumOleVerb@@KGPBUAFX_INTERFACEMAP@@XZ 5f507b20 f   oleverb.obj
 0001:00006b2a       ?GetInterfaceMap@CEnumOleVerb@@MBEPBUAFX_INTERFACEMAP@@XZ 5f507b2a f   oleverb.obj
 0001:00006b3a       ??1CEnumOleVerb@@UAE@XZ    5f507b3a f   oleverb.obj
 0001:00006b9d       ?OnNext@CEnumOleVerb@@MAEHPAX@Z 5f507b9d f   oleverb.obj
 0001:00006bf4       ?EnumOleVerbs@CCmdTarget@@QAEHPAPAUIEnumOLEVERB@@@Z 5f507bf4 f   oleverb.obj
 0001:00006e58       ?DoOleVerb@CCmdTarget@@QAEHJPAUtagMSG@@PAUHWND__@@PBUtagRECT@@@Z 5f507e58 f   oleverb.obj
 0001:00006fe0       ??_ECEnumOleVerb@@UAEPAXI@Z 5f507fe0 f i oleverb.obj
 0001:00006fe0       ??_GCEnumOleVerb@@UAEPAXI@Z 5f507fe0 f i oleverb.obj
 0001:00007010       ??0CEnumOleVerb@@QAE@PBXI@Z 5f508010 f i oleverb.obj
 0001:00007040       ?T2A@@YAPADPAD@Z           5f508040 f i viewrich.obj
 0001:00007040       ?T2CA@@YAPBDPBD@Z          5f508040 f i viewrich.obj
 0001:00007050       ?EnableTypeLib@CCmdTarget@@QAEXXZ 5f508050 f   oletyplb.obj
 0001:000070aa       ?GetTypeInfoOfGuid@CCmdTarget@@QAEJKABU_GUID@@PAPAUITypeInfo@@@Z 5f5080aa f   oletyplb.obj
 0001:0000729b       ?AfxGetTypeLibCache@@YGPAVCTypeLibCache@@PBU_GUID@@@Z 5f50829b f   oletyplb.obj
 0001:0000749e       ?Lock@CTypeLibCache@@QAEXXZ 5f50849e f   oletyplb.obj
 0001:000074f2       ?Lookup@CTypeLibCache@@QAEHKPAPAUITypeLib@@@Z 5f5084f2 f   oletyplb.obj
 0001:0000756b       ?Cache@CTypeLibCache@@QAEXKPAUITypeLib@@@Z 5f50856b f   oletyplb.obj
 0001:00007623       ?LookupTypeInfo@CTypeLibCache@@QAEHKABU_GUID@@PAPAUITypeInfo@@@Z 5f508623 f   oletyplb.obj
 0001:000076eb       ?CacheTypeInfo@CTypeLibCache@@QAEXKABU_GUID@@PAUITypeInfo@@@Z 5f5086eb f   oletyplb.obj
 0001:00007770       ??0CTypeLibCacheMap@@QAE@XZ 5f508770 f i oletyplb.obj
 0001:000077a0       ??_ECTypeLibCacheMap@@UAEPAXI@Z 5f5087a0 f i oletyplb.obj
 0001:000077a0       ??_GCTypeLibCacheMap@@UAEPAXI@Z 5f5087a0 f i oletyplb.obj
 0001:000077d0       ??1CTypeLibCacheMap@@UAE@XZ 5f5087d0 f i oletyplb.obj
 0001:000077f0       ??0CTypeLibCache@@QAE@XZ   5f5087f0 f i oletyplb.obj
 0001:00007830       ?IsEqualGUID@@YAHABU_GUID@@0@Z 5f508830 f i oletyplb.obj
 0001:00007830       ??8@YAHABU_GUID@@0@Z       5f508830 f i oletyplb.obj
 0001:00007850       ?Create@CDateTimeCtrl@@QAEHKABUtagRECT@@PAVCWnd@@I@Z 5f508850 f   winctrl5.obj
 0001:000078b4       ?GetRange@CDateTimeCtrl@@QBEKPAVCTime@@0@Z 5f5088b4 f   winctrl5.obj
 0001:0000796d       ?GetRange@CDateTimeCtrl@@QBEKPAVCOleDateTime@@0@Z 5f50896d f   winctrl5.obj
 0001:00007a3a       ?SetRange@CDateTimeCtrl@@QAEHPBVCTime@@0@Z 5f508a3a f   winctrl5.obj
 0001:00007ad5       ?SetRange@CDateTimeCtrl@@QAEHPBVCOleDateTime@@0@Z 5f508ad5 f   winctrl5.obj
 0001:00007bde       ?SetTime@CDateTimeCtrl@@QAEHPAU_SYSTEMTIME@@@Z 5f508bde f   winctrl5.obj
 0001:00007c44       ?SetTime@CDateTimeCtrl@@QAEHABVCOleDateTime@@@Z 5f508c44 f   winctrl5.obj
 0001:00007cfc       ?SetTime@CDateTimeCtrl@@QAEHPBVCTime@@@Z 5f508cfc f   winctrl5.obj
 0001:00007d87       ?GetTime@CDateTimeCtrl@@QBEHAAVCOleDateTime@@@Z 5f508d87 f   winctrl5.obj
 0001:00007e2e       ?GetTime@CDateTimeCtrl@@QBEKAAVCTime@@@Z 5f508e2e f   winctrl5.obj
 0001:00007e78       ??1CDateTimeCtrl@@UAE@XZ   5f508e78 f   winctrl5.obj
 0001:00007ec9       ?Create@CMonthCalCtrl@@QAEHKABUtagRECT@@PAVCWnd@@I@Z 5f508ec9 f   winctrl5.obj
 0001:00007f30       ?Create@CMonthCalCtrl@@QAEHKABUtagPOINT@@PAVCWnd@@I@Z 5f508f30 f   winctrl5.obj
 0001:00007fc7       ?SizeMinReq@CMonthCalCtrl@@QAEHH@Z 5f508fc7 f   winctrl5.obj
 0001:0000803d       ?SetToday@CMonthCalCtrl@@QAEXABVCOleDateTime@@@Z 5f50903d f   winctrl5.obj
 0001:0000810d       ?SetToday@CMonthCalCtrl@@QAEXPBVCTime@@@Z 5f50910d f   winctrl5.obj
 0001:000081bc       ?SetCurSel@CMonthCalCtrl@@QAEHABVCOleDateTime@@@Z 5f5091bc f   winctrl5.obj
 0001:0000823d       ?SetCurSel@CMonthCalCtrl@@QAEHABVCTime@@@Z 5f50923d f   winctrl5.obj
 0001:000082b2       ?GetCurSel@CMonthCalCtrl@@QBEHAAVCOleDateTime@@@Z 5f5092b2 f   winctrl5.obj
 0001:00008354       ?GetToday@CMonthCalCtrl@@QBEHAAVCOleDateTime@@@Z 5f509354 f   winctrl5.obj
 0001:000083f6       ?GetCurSel@CMonthCalCtrl@@QBEHAAVCTime@@@Z 5f5093f6 f   winctrl5.obj
 0001:0000849a       ?GetToday@CMonthCalCtrl@@QBEHAAVCTime@@@Z 5f50949a f   winctrl5.obj
 0001:0000853e       ??1CMonthCalCtrl@@UAE@XZ   5f50953e f   winctrl5.obj
 0001:0000858f       ?GetFirstDayOfWeek@CMonthCalCtrl@@QBEHPAH@Z 5f50958f f   winctrl5.obj
 0001:0000860d       ?SetFirstDayOfWeek@CMonthCalCtrl@@QAEHHPAH@Z 5f50960d f   winctrl5.obj
 0001:0000868b       ?SetDayState@CMonthCalCtrl@@QAEHHPAK@Z 5f50968b f   winctrl5.obj
 0001:00008713       ?SetRange@CMonthCalCtrl@@QAEHPBVCOleDateTime@@0@Z 5f509713 f   winctrl5.obj
 0001:00008825       ?SetRange@CMonthCalCtrl@@QAEHQAU_SYSTEMTIME@@0@Z 5f509825 f   winctrl5.obj
 0001:000088c8       ?GetRange@CMonthCalCtrl@@QBEKPAVCOleDateTime@@0@Z 5f5098c8 f   winctrl5.obj
 0001:00008980       ?GetRange@CMonthCalCtrl@@QBEKPAU_SYSTEMTIME@@0@Z 5f509980 f   winctrl5.obj
 0001:00008a32       ?SetRange@CMonthCalCtrl@@QAEHPBVCTime@@0@Z 5f509a32 f   winctrl5.obj
 0001:00008ad0       ?GetRange@CMonthCalCtrl@@QBEKPAVCTime@@0@Z 5f509ad0 f   winctrl5.obj
 0001:00008b8c       ?GetMonthRange@CMonthCalCtrl@@QBEHAAVCOleDateTime@@0K@Z 5f509b8c f   winctrl5.obj
 0001:00008c4c       ?GetMonthRange@CMonthCalCtrl@@QBEHPAU_SYSTEMTIME@@0K@Z 5f509c4c f   winctrl5.obj
 0001:00008d32       ?GetMonthRange@CMonthCalCtrl@@QBEHAAVCTime@@0K@Z 5f509d32 f   winctrl5.obj
 0001:00008df6       ?GetSelRange@CMonthCalCtrl@@QBEHPAU_SYSTEMTIME@@0@Z 5f509df6 f   winctrl5.obj
 0001:00008f01       ?SetSelRange@CMonthCalCtrl@@QAEHQAU_SYSTEMTIME@@0@Z 5f509f01 f   winctrl5.obj
 0001:00009000       ?SetSelRange@CMonthCalCtrl@@QAEHABVCOleDateTime@@0@Z 5f50a000 f   winctrl5.obj
 0001:000090c6       ?GetSelRange@CMonthCalCtrl@@QBEHAAVCOleDateTime@@0@Z 5f50a0c6 f   winctrl5.obj
 0001:0000918d       ?SetSelRange@CMonthCalCtrl@@QAEHABVCTime@@0@Z 5f50a18d f   winctrl5.obj
 0001:0000923b       ?GetSelRange@CMonthCalCtrl@@QBEHAAVCTime@@0@Z 5f50a23b f   winctrl5.obj
 0001:00009306       ?DDX_DateTimeCtrl@@YGXPAVCDataExchange@@HAAVCOleDateTime@@@Z 5f50a306 f   winctrl5.obj
 0001:0000934f       ?DDX_DateTimeCtrl@@YGXPAVCDataExchange@@HAAVCTime@@@Z 5f50a34f f   winctrl5.obj
 0001:00009398       ?DDX_MonthCalCtrl@@YGXPAVCDataExchange@@HAAVCOleDateTime@@@Z 5f50a398 f   winctrl5.obj
 0001:000093e1       ?DDX_MonthCalCtrl@@YGXPAVCDataExchange@@HAAVCTime@@@Z 5f50a3e1 f   winctrl5.obj
 0001:0000942a       ?DDV_MinMaxDateTime@@YGXPAVCDataExchange@@AAVCTime@@PBV2@2@Z 5f50a42a f   winctrl5.obj
 0001:00009502       ?DDV_MinMaxDateTime@@YGXPAVCDataExchange@@AAVCOleDateTime@@PBV2@2@Z 5f50a502 f   winctrl5.obj
 0001:000095c2       ?DDV_MinMaxMonth@@YGXPAVCDataExchange@@AAVCTime@@PBV2@2@Z 5f50a5c2 f   winctrl5.obj
 0001:0000969a       ?DDV_MinMaxMonth@@YGXPAVCDataExchange@@AAVCOleDateTime@@PBV2@2@Z 5f50a69a f   winctrl5.obj
 0001:0000975a       ??0CDateTimeCtrl@@QAE@XZ   5f50a75a f   winctrl5.obj
 0001:00009779       ?GetMonthCalFont@CDateTimeCtrl@@QBEPAVCFont@@XZ 5f50a779 f   winctrl5.obj
 0001:000097ce       ?GetMonthCalCtrl@CDateTimeCtrl@@QBEPAVCMonthCalCtrl@@XZ 5f50a7ce f   winctrl5.obj
 0001:00009823       ?SetMonthCalFont@CDateTimeCtrl@@QAEXPAUHFONT__@@H@Z 5f50a823 f   winctrl5.obj
 0001:0000987d       ?SetMonthCalColor@CDateTimeCtrl@@QAEKHK@Z 5f50a87d f   winctrl5.obj
 0001:000098d2       ?GetTime@CDateTimeCtrl@@QBEKPAU_SYSTEMTIME@@@Z 5f50a8d2 f   winctrl5.obj
 0001:00009942       ?GetMonthCalColor@CDateTimeCtrl@@QBEKH@Z 5f50a942 f   winctrl5.obj
 0001:00009995       ?SetFormat@CDateTimeCtrl@@QAEHPBD@Z 5f50a995 f   winctrl5.obj
 0001:000099e8       ??0CMonthCalCtrl@@QAE@XZ   5f50a9e8 f   winctrl5.obj
 0001:00009a07       ?HitTest@CMonthCalCtrl@@QAEKPAUMCHITTESTINFO@@@Z 5f50aa07 f   winctrl5.obj
 0001:00009a5a       ?GetMinReqRect@CMonthCalCtrl@@QBEHPAUtagRECT@@@Z 5f50aa5a f   winctrl5.obj
 0001:00009aa5       ?SetMonthDelta@CMonthCalCtrl@@QAEHH@Z 5f50aaa5 f   winctrl5.obj
 0001:00009af0       ?GetMonthDelta@CMonthCalCtrl@@QBEHXZ 5f50aaf0 f   winctrl5.obj
 0001:00009b37       ?GetColor@CMonthCalCtrl@@QBEKH@Z 5f50ab37 f   winctrl5.obj
 0001:00009b82       ?SetColor@CMonthCalCtrl@@QAEKHK@Z 5f50ab82 f   winctrl5.obj
 0001:00009bcf       ?SetMaxSelCount@CMonthCalCtrl@@QAEHH@Z 5f50abcf f   winctrl5.obj
 0001:00009c1a       ?GetMaxSelCount@CMonthCalCtrl@@QBEHXZ 5f50ac1a f   winctrl5.obj
 0001:00009c61       ?SetToday@CMonthCalCtrl@@QAEXQAU_SYSTEMTIME@@@Z 5f50ac61 f   winctrl5.obj
 0001:00009cac       ?GetToday@CMonthCalCtrl@@QBEHPAU_SYSTEMTIME@@@Z 5f50acac f   winctrl5.obj
 0001:00009cf7       ?SetCurSel@CMonthCalCtrl@@QAEHQAU_SYSTEMTIME@@@Z 5f50acf7 f   winctrl5.obj
 0001:00009d42       ?GetCurSel@CMonthCalCtrl@@QBEHPAU_SYSTEMTIME@@@Z 5f50ad42 f   winctrl5.obj
 0001:00009d90       ??_GCDateTimeCtrl@@UAEPAXI@Z 5f50ad90 f i winctrl5.obj
 0001:00009d90       ??_ECDateTimeCtrl@@UAEPAXI@Z 5f50ad90 f i winctrl5.obj
 0001:00009dc0       ??_ECMonthCalCtrl@@UAEPAXI@Z 5f50adc0 f i winctrl5.obj
 0001:00009dc0       ??_GCMonthCalCtrl@@UAEPAXI@Z 5f50adc0 f i winctrl5.obj
 0001:00009df0       ?_GetBaseMessageMap@CHtmlView@@KGPBUAFX_MSGMAP@@XZ 5f50adf0 f   viewhtml.obj
 0001:00009dfa       ?GetMessageMap@CHtmlView@@MBEPBUAFX_MSGMAP@@XZ 5f50adfa f   viewhtml.obj
 0001:00009e0a       ?_GetBaseEventSinkMap@CHtmlView@@KGPBUAFX_EVENTSINKMAP@@XZ 5f50ae0a f   viewhtml.obj
 0001:00009e14       ?GetEventSinkMap@CHtmlView@@MBEPBUAFX_EVENTSINKMAP@@XZ 5f50ae14 f   viewhtml.obj
 0001:00009e24       ??0CHtmlView@@IAE@XZ       5f50ae24 f   viewhtml.obj
 0001:00009e8d       ??1CHtmlView@@UAE@XZ       5f50ae8d f   viewhtml.obj
 0001:00009f0c       ?OnDraw@CHtmlView@@UAEXPAVCDC@@@Z 5f50af0c f   viewhtml.obj
 0001:00009f3f       ?OnFilePrint@CHtmlView@@QAEXXZ 5f50af3f f   viewhtml.obj
 0001:00009fb6       ?AssertValid@CHtmlView@@UBEXXZ 5f50afb6 f   viewhtml.obj
 0001:00009fc9       ?Dump@CHtmlView@@UBEXAAVCDumpContext@@@Z 5f50afc9 f   viewhtml.obj
 0001:00009fe2       ?OnDestroy@CHtmlView@@IAEXXZ 5f50afe2 f   viewhtml.obj
 0001:0000a024       ?OnSize@CHtmlView@@IAEXIHH@Z 5f50b024 f   viewhtml.obj
 0001:0000a0c5       ?OnPaint@CHtmlView@@IAEXXZ 5f50b0c5 f   viewhtml.obj
 0001:0000a0d8       ?Create@CHtmlView@@UAEHPBD0KABUtagRECT@@PAVCWnd@@IPAUCCreateContext@@@Z 5f50b0d8 f   viewhtml.obj
 0001:0000a1e0       ?GetType@CHtmlView@@QBE?AVCString@@XZ 5f50b1e0 f   viewhtml.obj
 0001:0000a294       ?GetLeft@CHtmlView@@QBEJXZ 5f50b294 f   viewhtml.obj
 0001:0000a2ec       ?GetTop@CHtmlView@@QBEJXZ  5f50b2ec f   viewhtml.obj
 0001:0000a344       ?GetToolBar@CHtmlView@@QBEHXZ 5f50b344 f   viewhtml.obj
 0001:0000a39f       ?GetHeight@CHtmlView@@QBEJXZ 5f50b39f f   viewhtml.obj
 0001:0000a3f7       ?GetVisible@CHtmlView@@QBEHXZ 5f50b3f7 f   viewhtml.obj
 0001:0000a453       ?GetLocationName@CHtmlView@@QBE?AVCString@@XZ 5f50b453 f   viewhtml.obj
 0001:0000a507       ?GetLocationURL@CHtmlView@@QBE?AVCString@@XZ 5f50b507 f   viewhtml.obj
 0001:0000a5bb       ?GetBusy@CHtmlView@@QBEHXZ 5f50b5bb f   viewhtml.obj
 0001:0000a614       ?GetReadyState@CHtmlView@@QBE?AW4tagREADYSTATE@@XZ 5f50b614 f   viewhtml.obj
 0001:0000a66f       ?GetOffline@CHtmlView@@QBEHXZ 5f50b66f f   viewhtml.obj
 0001:0000a6cb       ?GetSilent@CHtmlView@@QBEHXZ 5f50b6cb f   viewhtml.obj
 0001:0000a727       ?GetApplication@CHtmlView@@QBEPAUIDispatch@@XZ 5f50b727 f   viewhtml.obj
 0001:0000a77f       ?GetParentBrowser@CHtmlView@@QBEPAUIDispatch@@XZ 5f50b77f f   viewhtml.obj
 0001:0000a7d7       ?GetContainer@CHtmlView@@QBEPAUIDispatch@@XZ 5f50b7d7 f   viewhtml.obj
 0001:0000a82f       ?GetHtmlDocument@CHtmlView@@QBEPAUIDispatch@@XZ 5f50b82f f   viewhtml.obj
 0001:0000a887       ?GetTopLevelContainer@CHtmlView@@QBEHXZ 5f50b887 f   viewhtml.obj
 0001:0000a8e0       ?GetMenuBar@CHtmlView@@QBEHXZ 5f50b8e0 f   viewhtml.obj
 0001:0000a93c       ?GetFullScreen@CHtmlView@@QBEHXZ 5f50b93c f   viewhtml.obj
 0001:0000a998       ?GetStatusBar@CHtmlView@@QBEHXZ 5f50b998 f   viewhtml.obj
 0001:0000a9f4       ?QueryStatusWB@CHtmlView@@QBE?AW4OLECMDF@@W4OLECMDID@@@Z 5f50b9f4 f   viewhtml.obj
 0001:0000aa55       ?ExecWB@CHtmlView@@QAEXW4OLECMDID@@W4OLECMDEXECOPT@@PAUtagVARIANT@@2@Z 5f50ba55 f   viewhtml.obj
 0001:0000aab9       ?GetRegisterAsBrowser@CHtmlView@@QBEHXZ 5f50bab9 f   viewhtml.obj
 0001:0000ab15       ?GetRegisterAsDropTarget@CHtmlView@@QBEHXZ 5f50bb15 f   viewhtml.obj
 0001:0000ab71       ?GetTheaterMode@CHtmlView@@QBEHXZ 5f50bb71 f   viewhtml.obj
 0001:0000abcd       ?GetAddressBar@CHtmlView@@QBEHXZ 5f50bbcd f   viewhtml.obj
 0001:0000ac29       ?LoadFromResource@CHtmlView@@QAEHPBD@Z 5f50bc29 f   viewhtml.obj
 0001:0000ad39       ?LoadFromResource@CHtmlView@@QAEHI@Z 5f50bd39 f   viewhtml.obj
 0001:0000ae49       ?Navigate@CHtmlView@@QAEXPBDK00PAXK@Z 5f50be49 f   viewhtml.obj
 0001:0000af9e       ?Navigate2@CHtmlView@@QAEXPAU_ITEMIDLIST@@KPBD@Z 5f50bf9e f   viewhtml.obj
 0001:0000b0c8       ?Navigate2@CHtmlView@@QAEXPBDK00PAXK@Z 5f50c0c8 f   viewhtml.obj
 0001:0000b22d       ?Navigate2@CHtmlView@@QAEXPBDKAAVCByteArray@@00@Z 5f50c22d f   viewhtml.obj
 0001:0000b38f       ?PutProperty@CHtmlView@@QAEXPBDABUtagVARIANT@@@Z 5f50c38f f   viewhtml.obj
 0001:0000b45d       ?GetProperty@CHtmlView@@QAEHPBDAAVCString@@@Z 5f50c45d f   viewhtml.obj
 0001:0000b56f       ?GetProperty@CHtmlView@@QAE?AVCOleVariant@@PBD@Z 5f50c56f f   viewhtml.obj
 0001:0000b5ff       ?GetFullName@CHtmlView@@QBE?AVCString@@XZ 5f50c5ff f   viewhtml.obj
 0001:0000b6b6       ?NavigateComplete2@CHtmlView@@MAEXPAUIDispatch@@PAUtagVARIANT@@@Z 5f50c6b6 f   viewhtml.obj
 0001:0000b7b6       ?BeforeNavigate2@CHtmlView@@MAEXPAUIDispatch@@PAUtagVARIANT@@1111PAH@Z 5f50c7b6 f   viewhtml.obj
 0001:0000ba49       ?DocumentComplete@CHtmlView@@MAEXPAUIDispatch@@PAUtagVARIANT@@@Z 5f50ca49 f   viewhtml.obj
 0001:0000bae0       ?OnProgressChange@CHtmlView@@UAEXJJ@Z 5f50cae0 f   viewhtml.obj
 0001:0000baed       ?OnCommandStateChange@CHtmlView@@UAEXJH@Z 5f50caed f   viewhtml.obj
 0001:0000bafa       ?OnDownloadBegin@CHtmlView@@UAEXXZ 5f50cafa f   viewhtml.obj
 0001:0000bb05       ?OnDownloadComplete@CHtmlView@@UAEXXZ 5f50cb05 f   viewhtml.obj
 0001:0000bb10       ?OnTitleChange@CHtmlView@@UAEXPBD@Z 5f50cb10 f   viewhtml.obj
 0001:0000bb1d       ?OnPropertyChange@CHtmlView@@UAEXPBD@Z 5f50cb1d f   viewhtml.obj
 0001:0000bb2a       ?OnNewWindow2@CHtmlView@@UAEXPAPAUIDispatch@@PAH@Z 5f50cb2a f   viewhtml.obj
 0001:0000bb3e       ?OnDocumentComplete@CHtmlView@@UAEXPBD@Z 5f50cb3e f   viewhtml.obj
 0001:0000bb4b       ?OnQuit@CHtmlView@@UAEXXZ  5f50cb4b f   viewhtml.obj
 0001:0000bb56       ?OnVisible@CHtmlView@@UAEXH@Z 5f50cb56 f   viewhtml.obj
 0001:0000bb63       ?OnToolBar@CHtmlView@@UAEXH@Z 5f50cb63 f   viewhtml.obj
 0001:0000bb70       ?OnMenuBar@CHtmlView@@UAEXH@Z 5f50cb70 f   viewhtml.obj
 0001:0000bb7d       ?OnStatusBar@CHtmlView@@UAEXH@Z 5f50cb7d f   viewhtml.obj
 0001:0000bb8a       ?OnFullScreen@CHtmlView@@UAEXH@Z 5f50cb8a f   viewhtml.obj
 0001:0000bb97       ?OnTheaterMode@CHtmlView@@UAEXH@Z 5f50cb97 f   viewhtml.obj
 0001:0000bba4       ?OnNavigateComplete2@CHtmlView@@UAEXPBD@Z 5f50cba4 f   viewhtml.obj
 0001:0000bbb1       ?OnBeforeNavigate2@CHtmlView@@UAEXPBDK0AAVCByteArray@@0PAH@Z 5f50cbb1 f   viewhtml.obj
 0001:0000bbc5       ?OnStatusTextChange@CHtmlView@@UAEXPBD@Z 5f50cbc5 f   viewhtml.obj
 0001:0000bbf1       ?SetRegisterAsBrowser@CHtmlView@@QAEXH@Z 5f50cbf1 f   viewhtml.obj
 0001:0000bc4a       ?SetRegisterAsDropTarget@CHtmlView@@QAEXH@Z 5f50cc4a f   viewhtml.obj
 0001:0000bca3       ?SetTheaterMode@CHtmlView@@QAEXH@Z 5f50cca3 f   viewhtml.obj
 0001:0000bcfc       ?SetVisible@CHtmlView@@QAEXH@Z 5f50ccfc f   viewhtml.obj
 0001:0000bd55       ?SetMenuBar@CHtmlView@@QAEXH@Z 5f50cd55 f   viewhtml.obj
 0001:0000bdae       ?SetToolBar@CHtmlView@@QAEXH@Z 5f50cdae f   viewhtml.obj
 0001:0000be03       ?SetOffline@CHtmlView@@QAEXH@Z 5f50ce03 f   viewhtml.obj
 0001:0000be5c       ?SetSilent@CHtmlView@@QAEXH@Z 5f50ce5c f   viewhtml.obj
 0001:0000beb5       ?GoBack@CHtmlView@@QAEXXZ  5f50ceb5 f   viewhtml.obj
 0001:0000bf01       ?GoForward@CHtmlView@@QAEXXZ 5f50cf01 f   viewhtml.obj
 0001:0000bf4d       ?GoHome@CHtmlView@@QAEXXZ  5f50cf4d f   viewhtml.obj
 0001:0000bf99       ?GoSearch@CHtmlView@@QAEXXZ 5f50cf99 f   viewhtml.obj
 0001:0000bfe5       ?Refresh@CHtmlView@@QAEXXZ 5f50cfe5 f   viewhtml.obj
 0001:0000c031       ?Refresh2@CHtmlView@@QAEXH@Z 5f50d031 f   viewhtml.obj
 0001:0000c0d6       ?Stop@CHtmlView@@QAEXXZ    5f50d0d6 f   viewhtml.obj
 0001:0000c122       ?SetFullScreen@CHtmlView@@QAEXH@Z 5f50d122 f   viewhtml.obj
 0001:0000c17b       ?SetAddressBar@CHtmlView@@QAEXH@Z 5f50d17b f   viewhtml.obj
 0001:0000c1d4       ?SetHeight@CHtmlView@@QAEXJ@Z 5f50d1d4 f   viewhtml.obj
 0001:0000c226       ?PutProperty@CHtmlView@@QAEXPBDJ@Z 5f50d226 f   viewhtml.obj
 0001:0000c2dd       ?PutProperty@CHtmlView@@QAEXPBDF@Z 5f50d2dd f   viewhtml.obj
 0001:0000c395       ?PutProperty@CHtmlView@@QAEXPBD0@Z 5f50d395 f   viewhtml.obj
 0001:0000c44c       ?PutProperty@CHtmlView@@QAEXPBDN@Z 5f50d44c f   viewhtml.obj
 0001:0000c505       ?SetTop@CHtmlView@@QAEXJ@Z 5f50d505 f   viewhtml.obj
 0001:0000c557       ?SetLeft@CHtmlView@@QAEXJ@Z 5f50d557 f   viewhtml.obj
 0001:0000c5a9       ?SetStatusBar@CHtmlView@@QAEXH@Z 5f50d5a9 f   viewhtml.obj
 0001:0000c610       ??_GCHtmlView@@UAEPAXI@Z   5f50d610 f i viewhtml.obj
 0001:0000c610       ??_ECHtmlView@@UAEPAXI@Z   5f50d610 f i viewhtml.obj
 0001:0000c640       ??1CFormView@@UAE@XZ       5f50d640 f i viewhtml.obj
 0001:0000c660       ??_9@$BBDM@AE              5f50d660 f i viewhtml.obj
 0001:0000c670       ??_9@$BBFM@AE              5f50d670 f i viewhtml.obj
 0001:0000c680       ??_9@$BBBM@AE              5f50d680 f i viewhtml.obj
 0001:0000c690       ??_9@$BBEA@AE              5f50d690 f i viewhtml.obj
 0001:0000c6a0       ??_9@$BBGA@AE              5f50d6a0 f i viewhtml.obj
 0001:0000c6b0       ??_9@$BBCA@AE              5f50d6b0 f i viewhtml.obj
 0001:0000c6c0       ??_9@$BBEE@AE              5f50d6c0 f i viewhtml.obj
 0001:0000c6d0       ??_9@$BBCE@AE              5f50d6d0 f i viewhtml.obj
 0001:0000c6e0       ??_9@$BBEI@AE              5f50d6e0 f i viewhtml.obj
 0001:0000c6f0       ??_9@$BBCI@AE              5f50d6f0 f i viewhtml.obj
 0001:0000c700       ??_9@$BBEM@AE              5f50d700 f i viewhtml.obj
 0001:0000c710       ??_9@$BBCM@AE              5f50d710 f i viewhtml.obj
 0001:0000c720       ??_9@$BBFA@AE              5f50d720 f i viewhtml.obj
 0001:0000c730       ??_9@$BBDA@AE              5f50d730 f i viewhtml.obj
 0001:0000c740       ??_9@$BBFE@AE              5f50d740 f i viewhtml.obj
 0001:0000c750       ??_9@$BBDE@AE              5f50d750 f i viewhtml.obj
 0001:0000c760       ??_9@$BBFI@AE              5f50d760 f i viewhtml.obj
 0001:0000c770       ??_9@$BBBI@AE              5f50d770 f i viewhtml.obj
 0001:0000c7b5       ?AfxEnableControlContainer@@YAXPAVCOccManager@@@Z 5f50d7b5 f   occmgr.obj
 0001:0000c7e9       ?_AfxFindFirstDlgItem@@YGPAUDLGITEMTEMPLATE@@PBUDLGTEMPLATE@@@Z 5f50d7e9 f   occmgr.obj
 0001:0000c902       ?_AfxFindNextDlgItem@@YGPAUDLGITEMTEMPLATE@@PAU1@H@Z 5f50d902 f   occmgr.obj
 0001:0000c9af       ?OnEvent@COccManager@@UAEHPAVCCmdTarget@@IPAUAFX_EVENT@@PAUAFX_CMDHANDLERINFO@@@Z 5f50d9af f   occmgr.obj
 0001:0000c9d0       ?CreateContainer@COccManager@@UAEPAVCOleControlContainer@@PAVCWnd@@@Z 5f50d9d0 f   occmgr.obj
 0001:0000ca47       ?CreateSite@COccManager@@UAEPAVCOleControlSite@@PAVCOleControlContainer@@@Z 5f50da47 f   occmgr.obj
 0001:0000cac1       ?PreCreateDialog@COccManager@@UAEPBUDLGTEMPLATE@@PAU_AFX_OCC_DIALOG_INFO@@PBU2@@Z 5f50dac1 f   occmgr.obj
 0001:0000cb86       ?PostCreateDialog@COccManager@@UAEXPAU_AFX_OCC_DIALOG_INFO@@@Z 5f50db86 f   occmgr.obj
 0001:0000cbc0       ?SplitDialogTemplate@COccManager@@UAEPAUDLGTEMPLATE@@PBU2@PAPAUDLGITEMTEMPLATE@@@Z 5f50dbc0 f   occmgr.obj
 0001:0000ce26       ?CreateDlgControls@COccManager@@UAEHPAVCWnd@@PBDPAU_AFX_OCC_DIALOG_INFO@@@Z 5f50de26 f   occmgr.obj
 0001:0000cf80       ?CreateDlgControls@COccManager@@UAEHPAVCWnd@@PAXPAU_AFX_OCC_DIALOG_INFO@@@Z 5f50df80 f   occmgr.obj
 0001:0000d33c       ?BindControls@COccManager@@IAEXPAVCWnd@@@Z 5f50e33c f   occmgr.obj
 0001:0000d582       ?CreateDlgControl@COccManager@@IAEPAUHWND__@@PAVCWnd@@PAU2@HPAUDLGITEMTEMPLATE@@GPAEK@Z 5f50e582 f   occmgr.obj
 0001:0000dbfc       ?PrepareOleCtrl@CDataExchange@@QAEPAVCWnd@@H@Z 5f50ebfc f   occmgr.obj
 0001:0000dcd0       ??1?$CProcessLocal@VCOccManager@@@@QAE@XZ 5f50ecd0 f i occmgr.obj
 0001:0000dcf0       ?UnlockResource@@YGHPAX@Z  5f50ecf0 f i occmgr.obj
 0001:0000dd00       ?GetData@?$CProcessLocal@VCOccManager@@@@QAEPAVCOccManager@@XZ 5f50ed00 f i occmgr.obj
 0001:0000dd50       ?CreateObject@?$CProcessLocal@VCOccManager@@@@SGPAVCNoTrackObject@@XZ 5f50ed50 f i occmgr.obj
 0001:0000ddc0       ??0COccManager@@QAE@XZ     5f50edc0 f i occmgr.obj
 0001:0000dde0       ?OnEvent@CCmdTarget@@QAEHIPAUAFX_EVENT@@PAUAFX_CMDHANDLERINFO@@@Z 5f50ede0 f   occevent.obj
 0001:0000e252       ?GetEventSinkEntry@CCmdTarget@@IAGPBUAFX_EVENTSINKMAP_ENTRY@@IPAUAFX_EVENT@@@Z 5f50f252 f   occevent.obj
 0001:0000e310       ?CreateControl@CWnd@@QAEHPBD0KABUtagRECT@@PAV1@IPAVCFile@@HPAG@Z 5f50f310 f   occcont.obj
 0001:0000e388       ?CreateControl@CWnd@@QAEHABU_GUID@@PBDKABUtagRECT@@PAV1@IPAVCFile@@HPAG@Z 5f50f388 f   occcont.obj
 0001:0000e40d       ?CreateControl@CWnd@@QAEHABU_GUID@@PBDKPBUtagPOINT@@PBUtagSIZE@@PAV1@IPAVCFile@@HPAG@Z 5f50f40d f   occcont.obj
 0001:0000e4ba       ?InitControlContainer@CWnd@@IAEHXZ 5f50f4ba f   occcont.obj
 0001:0000e5da       ?_GetBaseInterfaceMap@COleControlContainer@@KGPBUAFX_INTERFACEMAP@@XZ 5f50f5da f   occcont.obj
 0001:0000e5e4       ?GetInterfaceMap@COleControlContainer@@MBEPBUAFX_INTERFACEMAP@@XZ 5f50f5e4 f   occcont.obj
 0001:0000e5f4       ?_GetBaseDispatchMap@COleControlContainer@@KGPBUAFX_DISPMAP@@XZ 5f50f5f4 f   occcont.obj
 0001:0000e5fe       ?GetDispatchMap@COleControlContainer@@MBEPBUAFX_DISPMAP@@XZ 5f50f5fe f   occcont.obj
 0001:0000e60e       ??0COleControlContainer@@QAE@PAVCWnd@@@Z 5f50f60e f   occcont.obj
 0001:0000e6b4       ??1COleControlContainer@@UAE@XZ 5f50f6b4 f   occcont.obj
 0001:0000e80f       ?CreateControl@COleControlContainer@@QAEHPAVCWnd@@ABU_GUID@@PBDKABUtagRECT@@IPAVCFile@@HPAGPAPAVCOleControlSite@@@Z 5f50f80f f   occcont.obj
 0001:0000e898       ?CreateControl@COleControlContainer@@QAEHPAVCWnd@@ABU_GUID@@PBDKPBUtagPOINT@@PBUtagSIZE@@IPAVCFile@@HPAGPAPAVCOleControlSite@@@Z 5f50f898 f   occcont.obj
 0001:0000ea12       ?FindItem@COleControlContainer@@UBEPAVCOleControlSite@@I@Z 5f50fa12 f   occcont.obj
 0001:0000ea62       ?GetAmbientProp@COleControlContainer@@UAEHPAVCOleControlSite@@JPAUtagVARIANT@@@Z 5f50fa62 f   occcont.obj
 0001:0000ed57       ?CreateOleFont@COleControlContainer@@QAEXPAVCFont@@@Z 5f50fd57 f   occcont.obj
 0001:0000efa5       ?FreezeAllEvents@COleControlContainer@@QAEXH@Z 5f50ffa5 f   occcont.obj
 0001:0000efed       ?ScrollChildren@COleControlContainer@@UAEXHH@Z 5f50ffed f   occcont.obj
 0001:0000f0b9       ?OnUIActivate@COleControlContainer@@UAEXPAVCOleControlSite@@@Z 5f5100b9 f   occcont.obj
 0001:0000f119       ?OnUIDeactivate@COleControlContainer@@UAEXPAVCOleControlSite@@@Z 5f510119 f   occcont.obj
 0001:0000f13b       ?CheckDlgButton@COleControlContainer@@UAEXHI@Z 5f51013b f   occcont.obj
 0001:0000f19f       ?CheckRadioButton@COleControlContainer@@UAEXHHH@Z 5f51019f f   occcont.obj
 0001:0000f22e       ?GetDlgItem@COleControlContainer@@UBEPAVCWnd@@H@Z 5f51022e f   occcont.obj
 0001:0000f259       ?GetDlgItem@COleControlContainer@@UBEXHPAPAUHWND__@@@Z 5f510259 f   occcont.obj
 0001:0000f2b0       ?GetDlgItemInt@COleControlContainer@@UBEIHPAHH@Z 5f5102b0 f   occcont.obj
 0001:0000f3ad       ?GetDlgItemTextA@COleControlContainer@@UBEHHPADH@Z 5f5103ad f   occcont.obj
 0001:0000f3e8       ?SendDlgItemMessageA@COleControlContainer@@UAEJHIIJ@Z 5f5103e8 f   occcont.obj
 0001:0000f427       ?SetDlgItemInt@COleControlContainer@@UAEXHIH@Z 5f510427 f   occcont.obj
 0001:0000f47a       ?SetDlgItemTextA@COleControlContainer@@UAEXHPBD@Z 5f51047a f   occcont.obj
 0001:0000f4af       ?IsDlgButtonChecked@COleControlContainer@@UBEIH@Z 5f5104af f   occcont.obj
 0001:0000f59c       ?QueryInterface@XOleIPFrame@COleControlContainer@@UAGJABU_GUID@@PAPAX@Z 5f51059c f   occcont.obj
 0001:0000f5bf       ?AddRef@XOleIPFrame@COleControlContainer@@UAGKXZ 5f5105bf f   occcont.obj
 0001:0000f5da       ?Release@XOleIPFrame@COleControlContainer@@UAGKXZ 5f5105da f   occcont.obj
 0001:0000f5f5       ?GetWindow@XOleIPFrame@COleControlContainer@@UAGJPAPAUHWND__@@@Z 5f5105f5 f   occcont.obj
 0001:0000f618       ?ContextSensitiveHelp@XOleIPFrame@COleControlContainer@@UAGJH@Z 5f510618 f   occcont.obj
 0001:0000f624       ?GetBorder@XOleIPFrame@COleControlContainer@@UAGJPAUtagRECT@@@Z 5f510624 f   occcont.obj
 0001:0000f630       ?RequestBorderSpace@XOleIPFrame@COleControlContainer@@UAGJPBUtagRECT@@@Z 5f510630 f   occcont.obj
 0001:0000f63c       ?SetBorderSpace@XOleIPFrame@COleControlContainer@@UAGJPBUtagRECT@@@Z 5f51063c f   occcont.obj
 0001:0000f648       ?SetActiveObject@XOleIPFrame@COleControlContainer@@UAGJPAUIOleInPlaceActiveObject@@PBG@Z 5f510648 f   occcont.obj
 0001:0000f6a4       ?InsertMenus@XOleIPFrame@COleControlContainer@@UAGJPAUHMENU__@@PAUtagOleMenuGroupWidths@@@Z 5f5106a4 f   occcont.obj
 0001:0000f6b0       ?SetMenu@XOleIPFrame@COleControlContainer@@UAGJPAUHMENU__@@PAXPAUHWND__@@@Z 5f5106b0 f   occcont.obj
 0001:0000f6bc       ?RemoveMenus@XOleIPFrame@COleControlContainer@@UAGJPAUHMENU__@@@Z 5f5106bc f   occcont.obj
 0001:0000f6c8       ?SetStatusText@XOleIPFrame@COleControlContainer@@UAGJPBG@Z 5f5106c8 f   occcont.obj
 0001:0000f6d4       ?EnableModeless@XOleIPFrame@COleControlContainer@@UAGJH@Z 5f5106d4 f   occcont.obj
 0001:0000f6dd       ?TranslateAcceleratorA@XOleIPFrame@COleControlContainer@@UAGJPAUtagMSG@@G@Z 5f5106dd f   occcont.obj
 0001:0000f6e9       ?_GetBaseInterfaceMap@CEnumUnknown@@KGPBUAFX_INTERFACEMAP@@XZ 5f5106e9 f   occcont.obj
 0001:0000f6f3       ?GetInterfaceMap@CEnumUnknown@@MBEPBUAFX_INTERFACEMAP@@XZ 5f5106f3 f   occcont.obj
 0001:0000f703       ??1CEnumUnknown@@UAE@XZ    5f510703 f   occcont.obj
 0001:0000f7c3       ?OnNext@CEnumUnknown@@MAEHPAX@Z 5f5107c3 f   occcont.obj
 0001:0000f821       ?QueryInterface@XOleContainer@COleControlContainer@@UAGJABU_GUID@@PAPAX@Z 5f510821 f   occcont.obj
 0001:0000f844       ?Release@XOleContainer@COleControlContainer@@UAGKXZ 5f510844 f   occcont.obj
 0001:0000f85f       ?AddRef@XOleContainer@COleControlContainer@@UAGKXZ 5f51085f f   occcont.obj
 0001:0000f87a       ?ParseDisplayName@XOleContainer@COleControlContainer@@UAGJPAUIBindCtx@@PAGPAKPAPAUIMoniker@@@Z 5f51087a f   occcont.obj
 0001:0000f886       ?EnumObjects@XOleContainer@COleControlContainer@@UAGJKPAPAUIEnumUnknown@@@Z 5f510886 f   occcont.obj
 0001:0000fb60       ?LockContainer@XOleContainer@COleControlContainer@@UAGJH@Z 5f510b60 f   occcont.obj
 0001:0000fb70       ??_ECOleControlContainer@@UAEPAXI@Z 5f510b70 f i occcont.obj
 0001:0000fb70       ??_GCOleControlContainer@@UAEPAXI@Z 5f510b70 f i occcont.obj
 0001:0000fba0       ??0XOleIPFrame@COleControlContainer@@QAE@XZ 5f510ba0 f i occcont.obj
 0001:0000fbc0       ??0XOleContainer@COleControlContainer@@QAE@XZ 5f510bc0 f i occcont.obj
 0001:0000fbe0       ??_ECEnumUnknown@@UAEPAXI@Z 5f510be0 f i occcont.obj
 0001:0000fbe0       ??_GCEnumUnknown@@UAEPAXI@Z 5f510be0 f i occcont.obj
 0001:0000fc10       ??0CEnumUnknown@@QAE@PBXI@Z 5f510c10 f i occcont.obj
 0001:0000fc40       ?_GetBaseInterfaceMap@COleControlSite@@KGPBUAFX_INTERFACEMAP@@XZ 5f510c40 f   occsite.obj
 0001:0000fc4a       ?GetInterfaceMap@COleControlSite@@MBEPBUAFX_INTERFACEMAP@@XZ 5f510c4a f   occsite.obj
 0001:0000fc5a       ??0COleControlSite@@QAE@PAVCOleControlContainer@@@Z 5f510c5a f   occsite.obj
 0001:0000fe35       ??1COleControlSite@@UAE@XZ 5f510e35 f   occsite.obj
 0001:00010030       ?SetExtent@COleControlSite@@IAEHXZ 5f511030 f   occsite.obj
 0001:0001010d       ?CreateControl@COleControlSite@@QAEJPAVCWnd@@ABU_GUID@@PBDKABUtagRECT@@IPAVCFile@@HPAG@Z 5f51110d f   occsite.obj
 0001:00010192       ?CreateControl@COleControlSite@@QAEJPAVCWnd@@ABU_GUID@@PBDKPBUtagPOINT@@PBUtagSIZE@@IPAVCFile@@HPAG@Z 5f511192 f   occsite.obj
 0001:00010638       ?DestroyControl@COleControlSite@@UAEHXZ 5f511638 f   occsite.obj
 0001:000106c3       ?_AfxCoCreateInstanceLic@@YGJABU_GUID@@PAUIUnknown@@K0PAPAXPAG@Z 5f5116c3 f   occsite.obj
 0001:000107c6       ?QuickActivate@COleControlSite@@UAEHXZ 5f5117c6 f   occsite.obj
 0001:00010a69       ?CreateOrLoad@COleControlSite@@IAEJABU_GUID@@PAVCFile@@HPAG@Z 5f511a69 f   occsite.obj
 0001:0001121f       ?GetID@COleControlSite@@QAEIXZ 5f51221f f   occsite.obj
 0001:00011230       ?DoVerb@COleControlSite@@UAEJJPAUtagMSG@@@Z 5f512230 f   occsite.obj
 0001:0001127c       ?IsDefaultButton@COleControlSite@@QAEHXZ 5f51227c f   occsite.obj
 0001:000112b9       ?GetDefBtnCode@COleControlSite@@QAEKXZ 5f5122b9 f   occsite.obj
 0001:000112ea       ?SetDefaultButton@COleControlSite@@QAEXH@Z 5f5122ea f   occsite.obj
 0001:0001139b       ?ConnectSink@COleControlSite@@IAEKABU_GUID@@PAUIUnknown@@@Z 5f51239b f   occsite.obj
 0001:0001149b       ?DisconnectSink@COleControlSite@@IAEXABU_GUID@@K@Z 5f51249b f   occsite.obj
 0001:0001156d       ?GetEventIID@COleControlSite@@QAEHPAU_GUID@@@Z 5f51256d f   occsite.obj
 0001:000118f1       ?GetControlInfo@COleControlSite@@QAEXXZ 5f5128f1 f   occsite.obj
 0001:00011985       ?IsMatchingMnemonic@COleControlSite@@QAEHPAUtagMSG@@@Z 5f512985 f   occsite.obj
 0001:00011ac6       ?SendMnemonic@COleControlSite@@QAEXPAUtagMSG@@@Z 5f512ac6 f   occsite.obj
 0001:00011b5a       ?FreezeEvents@COleControlSite@@QAEXH@Z 5f512b5a f   occsite.obj
 0001:00011bd0       ?AttachWindow@COleControlSite@@IAEXXZ 5f512bd0 f   occsite.obj
 0001:00011cc1       ?DetachWindow@COleControlSite@@IAEXXZ 5f512cc1 f   occsite.obj
 0001:00011d6d       ?OnEvent@COleControlSite@@IAEHPAUAFX_EVENT@@@Z 5f512d6d f   occsite.obj
 0001:00011dd4       ?InvokeHelperV@COleControlSite@@UAEXJGGPAXPBEPAD@Z 5f512dd4 f   occsite.obj
 0001:00011e8c       ?SetPropertyV@COleControlSite@@UAEXJGPAD@Z 5f512e8c f   occsite.obj
 0001:00011f44       ?InvokeHelper@COleControlSite@@UAAXJGGPAXPBEZZ 5f512f44 f   occsite.obj
 0001:00011f7e       ?GetProperty@COleControlSite@@UBEXJGPAX@Z 5f512f7e f   occsite.obj
 0001:00011fab       ?SetProperty@COleControlSite@@UAAXJGZZ 5f512fab f   occsite.obj
 0001:00011fd8       ?SafeSetProperty@COleControlSite@@UAAHJGZZ 5f512fd8 f   occsite.obj
 0001:00012092       ?GetStyle@COleControlSite@@UBEKXZ 5f513092 f   occsite.obj
 0001:000121de       ?GetExStyle@COleControlSite@@UBEKXZ 5f5131de f   occsite.obj
 0001:000122a2       ?ModifyStyle@COleControlSite@@UAEHKKI@Z 5f5132a2 f   occsite.obj
 0001:0001238e       ?ModifyStyleEx@COleControlSite@@UAEHKKI@Z 5f51338e f   occsite.obj
 0001:00012402       ?SetWindowTextA@COleControlSite@@UAEXPBD@Z 5f513402 f   occsite.obj
 0001:00012478       ?GetWindowTextA@COleControlSite@@UBEXAAVCString@@@Z 5f513478 f   occsite.obj
 0001:000125a6       ?GetWindowTextA@COleControlSite@@UBEHPADH@Z 5f5135a6 f   occsite.obj
 0001:00012651       ?GetWindowTextLengthA@COleControlSite@@UBEHXZ 5f513651 f   occsite.obj
 0001:000126bb       ?GetDlgCtrlID@COleControlSite@@UBEHXZ 5f5136bb f   occsite.obj
 0001:000126cc       ?SetDlgCtrlID@COleControlSite@@UAEHH@Z 5f5136cc f   occsite.obj
 0001:000126f0       ?MoveWindow@COleControlSite@@UAEXHHHHH@Z 5f5136f0 f   occsite.obj
 0001:00012813       ?SetWindowPos@COleControlSite@@UAEHPBVCWnd@@HHHHI@Z 5f513813 f   occsite.obj
 0001:0001292a       ?ShowWindow@COleControlSite@@UAEHH@Z 5f51392a f   occsite.obj
 0001:000129a8       ?IsWindowEnabled@COleControlSite@@UBEHXZ 5f5139a8 f   occsite.obj
 0001:00012a49       ?EnableWindow@COleControlSite@@UAEHH@Z 5f513a49 f   occsite.obj
 0001:00012b12       ?SetFocus@COleControlSite@@UAEPAVCWnd@@XZ 5f513b12 f   occsite.obj
 0001:00012b5e       ?EnableDSC@COleControlSite@@UAEXXZ 5f513b5e f   occsite.obj
 0001:00012bf9       ?BindDefaultProperty@COleControlSite@@UAEXJGPBDPAVCWnd@@@Z 5f513bf9 f   occsite.obj
 0001:00012d49       ?BindProperty@COleControlSite@@UAEXJPAVCWnd@@@Z 5f513d49 f   occsite.obj
 0001:00012f86       ?AddRef@XOleClientSite@COleControlSite@@UAGKXZ 5f513f86 f   occsite.obj
 0001:00012fa3       ?Release@XOleClientSite@COleControlSite@@UAGKXZ 5f513fa3 f   occsite.obj
 0001:00012fc0       ?QueryInterface@XOleClientSite@COleControlSite@@UAGJABU_GUID@@PAPAX@Z 5f513fc0 f   occsite.obj
 0001:00012fe5       ?SaveObject@XOleClientSite@COleControlSite@@UAGJXZ 5f513fe5 f   occsite.obj
 0001:00012ff1       ?GetMoniker@XOleClientSite@COleControlSite@@UAGJKKPAPAUIMoniker@@@Z 5f513ff1 f   occsite.obj
 0001:00012ffd       ?GetContainer@XOleClientSite@COleControlSite@@UAGJPAPAUIOleContainer@@@Z 5f513ffd f   occsite.obj
 0001:00013026       ?ShowObject@XOleClientSite@COleControlSite@@UAGJXZ 5f514026 f   occsite.obj
 0001:00013093       ?OnShowWindow@XOleClientSite@COleControlSite@@UAGJH@Z 5f514093 f   occsite.obj
 0001:0001309c       ?RequestNewObjectLayout@XOleClientSite@COleControlSite@@UAGJXZ 5f51409c f   occsite.obj
 0001:000130a8       ?AddRef@XOleIPSite@COleControlSite@@UAGKXZ 5f5140a8 f   occsite.obj
 0001:000130c5       ?Release@XOleIPSite@COleControlSite@@UAGKXZ 5f5140c5 f   occsite.obj
 0001:000130e2       ?QueryInterface@XOleIPSite@COleControlSite@@UAGJABU_GUID@@PAPAX@Z 5f5140e2 f   occsite.obj
 0001:00013107       ?GetWindow@XOleIPSite@COleControlSite@@UAGJPAPAUHWND__@@@Z 5f514107 f   occsite.obj
 0001:00013142       ?ContextSensitiveHelp@XOleIPSite@COleControlSite@@UAGJH@Z 5f514142 f   occsite.obj
 0001:0001314e       ?CanInPlaceActivate@XOleIPSite@COleControlSite@@UAGJXZ 5f51414e f   occsite.obj
 0001:00013157       ?OnInPlaceActivate@XOleIPSite@COleControlSite@@UAGJXZ 5f514157 f   occsite.obj
 0001:00013160       ?OnUIActivate@XOleIPSite@COleControlSite@@UAGJXZ 5f514160 f   occsite.obj
 0001:0001318c       ?GetWindowContext@XOleIPSite@COleControlSite@@UAGJPAPAUIOleInPlaceFrame@@PAPAUIOleInPlaceUIWindow@@PAUtagRECT@@2PAUtagOIFI@@@Z 5f51418c f   occsite.obj
 0001:000133a3       ?Scroll@XOleIPSite@COleControlSite@@UAGJUtagSIZE@@@Z 5f5143a3 f   occsite.obj
 0001:000133af       ?OnUIDeactivate@XOleIPSite@COleControlSite@@UAGJH@Z 5f5143af f   occsite.obj
 0001:000133db       ?OnInPlaceDeactivate@XOleIPSite@COleControlSite@@UAGJXZ 5f5143db f   occsite.obj
 0001:00013448       ?DiscardUndoState@XOleIPSite@COleControlSite@@UAGJXZ 5f514448 f   occsite.obj
 0001:00013451       ?DeactivateAndUndo@XOleIPSite@COleControlSite@@UAGJXZ 5f514451 f   occsite.obj
 0001:0001347a       ?OnPosRectChange@XOleIPSite@COleControlSite@@UAGJPBUtagRECT@@@Z 5f51447a f   occsite.obj
 0001:00013500       ?AddRef@XOleControlSite@COleControlSite@@UAGKXZ 5f514500 f   occsite.obj
 0001:0001351d       ?Release@XOleControlSite@COleControlSite@@UAGKXZ 5f51451d f   occsite.obj
 0001:0001353a       ?QueryInterface@XOleControlSite@COleControlSite@@UAGJABU_GUID@@PAPAX@Z 5f51453a f   occsite.obj
 0001:0001355f       ?OnControlInfoChanged@XOleControlSite@COleControlSite@@UAGJXZ 5f51455f f   occsite.obj
 0001:0001357e       ?LockInPlaceActive@XOleControlSite@COleControlSite@@UAGJH@Z 5f51457e f   occsite.obj
 0001:0001358a       ?GetExtendedControl@XOleControlSite@COleControlSite@@UAGJPAPAUIDispatch@@@Z 5f51458a f   occsite.obj
 0001:00013596       ?TransformCoords@XOleControlSite@COleControlSite@@UAGJPAU_POINTL@@PAUtagPOINTF@@K@Z 5f514596 f   occsite.obj
 0001:000136fa       ?TranslateAcceleratorA@XOleControlSite@COleControlSite@@UAGJPAUtagMSG@@K@Z 5f5146fa f   occsite.obj
 0001:00013706       ?OnFocus@XOleControlSite@COleControlSite@@UAGJH@Z 5f514706 f   occsite.obj
 0001:0001370f       ?ShowPropertyFrame@XOleControlSite@COleControlSite@@UAGJXZ 5f51470f f   occsite.obj
 0001:0001371b       ?AddRef@XAmbientProps@COleControlSite@@UAGKXZ 5f51471b f   occsite.obj
 0001:00013738       ?Release@XAmbientProps@COleControlSite@@UAGKXZ 5f514738 f   occsite.obj
 0001:00013755       ?QueryInterface@XAmbientProps@COleControlSite@@UAGJABU_GUID@@PAPAX@Z 5f514755 f   occsite.obj
 0001:0001377a       ?GetTypeInfoCount@XAmbientProps@COleControlSite@@UAGJPAI@Z 5f51477a f   occsite.obj
 0001:00013786       ?GetTypeInfo@XAmbientProps@COleControlSite@@UAGJIKPAPAUITypeInfo@@@Z 5f514786 f   occsite.obj
 0001:00013792       ?GetIDsOfNames@XAmbientProps@COleControlSite@@UAGJABU_GUID@@PAPAGIKPAJ@Z 5f514792 f   occsite.obj
 0001:0001379e       ?Invoke@XAmbientProps@COleControlSite@@UAGJJABU_GUID@@KGPAUtagDISPPARAMS@@PAUtagVARIANT@@PAUtagEXCEPINFO@@PAI@Z 5f51479e f   occsite.obj
 0001:000138ce       ?QueryInterface@XPropertyNotifySink@COleControlSite@@UAGJABU_GUID@@PAPAX@Z 5f5148ce f   occsite.obj
 0001:0001392a       ?AddRef@XPropertyNotifySink@COleControlSite@@UAGKXZ 5f51492a f   occsite.obj
 0001:00013936       ?Release@XPropertyNotifySink@COleControlSite@@UAGKXZ 5f514936 f   occsite.obj
 0001:0001393f       ?OnChanged@XPropertyNotifySink@COleControlSite@@UAGJJ@Z 5f51493f f   occsite.obj
 0001:00013b58       ?OnRequestEdit@XPropertyNotifySink@COleControlSite@@UAGJJ@Z 5f514b58 f   occsite.obj
 0001:00013c30       ?AddRef@XEventSink@COleControlSite@@UAGKXZ 5f514c30 f   occsite.obj
 0001:00013c3c       ?Release@XEventSink@COleControlSite@@UAGKXZ 5f514c3c f   occsite.obj
 0001:00013c45       ?QueryInterface@XEventSink@COleControlSite@@UAGJABU_GUID@@PAPAX@Z 5f514c45 f   occsite.obj
 0001:00013cb8       ?GetTypeInfoCount@XEventSink@COleControlSite@@UAGJPAI@Z 5f514cb8 f   occsite.obj
 0001:00013cc4       ?GetTypeInfo@XEventSink@COleControlSite@@UAGJIKPAPAUITypeInfo@@@Z 5f514cc4 f   occsite.obj
 0001:00013cd0       ?GetIDsOfNames@XEventSink@COleControlSite@@UAGJABU_GUID@@PAPAGIKPAJ@Z 5f514cd0 f   occsite.obj
 0001:00013cdc       ?Invoke@XEventSink@COleControlSite@@UAGJJABU_GUID@@KGPAUtagDISPPARAMS@@PAUtagVARIANT@@PAUtagEXCEPINFO@@PAI@Z 5f514cdc f   occsite.obj
 0001:00013ded       ??0CDataSourceControl@@QAE@PAVCOleControlSite@@@Z 5f514ded f   occsite.obj
 0001:00013efb       ??1CDataSourceControl@@QAE@XZ 5f514efb f   occsite.obj
 0001:000142bf       ?Initialize@CDataSourceControl@@QAEJXZ 5f5152bf f   occsite.obj
 0001:000144dd       ?GetCursor@CDataSourceControl@@UAEPAUIUnknown@@XZ 5f5154dd f   occsite.obj
 0001:000145e0       ?GetMetaData@CDataSourceControl@@QAEJXZ 5f5155e0 f   occsite.obj
 0001:00014c9b       ?CopyColumnID@CDataSourceControl@@QAEHPAUtagDBCOLUMNID@@PBU2@@Z 5f515c9b f   occsite.obj
 0001:00014d66       ?BindProp@CDataSourceControl@@UAEXPAVCOleControlSite@@H@Z 5f515d66 f   occsite.obj
 0001:00014fc0       ?BindProp@CDataSourceControl@@UAEXPAVCDataBoundProperty@@H@Z 5f515fc0 f   occsite.obj
 0001:00015051       ?BindColumns@CDataSourceControl@@UAEXXZ 5f516051 f   occsite.obj
 0001:00015352       ?GetBoundClientRow@CDataSourceControl@@QAEJXZ 5f516352 f   occsite.obj
 0001:000153fa       ?ToVariant@CDataSourceControl@@QAE?AVCOleVariant@@H@Z 5f5163fa f   occsite.obj
 0001:00015d78       ?UpdateControls@CDataSourceControl@@UAEJXZ 5f516d78 f   occsite.obj
 0001:00015fc6       ?UpdateCursor@CDataSourceControl@@UAEJXZ 5f516fc6 f   occsite.obj
 0001:00016baf       ??0CDataBoundProperty@@QAE@PAV0@JG@Z 5f517baf f   occsite.obj
 0001:00016bf9       ?SetClientSite@CDataBoundProperty@@QAEXPAVCOleControlSite@@@Z 5f517bf9 f   occsite.obj
 0001:00016c0e       ?SetDSCSite@CDataBoundProperty@@QAEXPAVCOleControlSite@@@Z 5f517c0e f   occsite.obj
 0001:00016c39       ?GetNext@CDataBoundProperty@@QAEPAV1@XZ 5f517c39 f   occsite.obj
 0001:00016c4a       ?RemoveSource@CDataBoundProperty@@QAEXXZ 5f517c4a f   occsite.obj
 0001:00016c67       ?Notify@CDataBoundProperty@@QAEXXZ 5f517c67 f   occsite.obj
 0001:00016d3b       ?GetCursor@CDataBoundProperty@@QAEPAUIUnknown@@XZ 5f517d3b f   occsite.obj
 0001:00016dd5       ?GetCursor@COleControlSite@@IAEJJPAPAUIUnknown@@PAPAX@Z 5f517dd5 f   occsite.obj
 0001:00016e30       ?AddRef@XBoundObjectSite@COleControlSite@@UAGKXZ 5f517e30 f   occsite.obj
 0001:00016e99       ?Release@XBoundObjectSite@COleControlSite@@UAGKXZ 5f517e99 f   occsite.obj
 0001:00016f02       ?QueryInterface@XBoundObjectSite@COleControlSite@@UAGJABU_GUID@@PAPAX@Z 5f517f02 f   occsite.obj
 0001:00016f73       ?GetCursor@XBoundObjectSite@COleControlSite@@UAGJJPAPAUICursor@@PAPAX@Z 5f517f73 f   occsite.obj
 0001:00016fe8       ?AddRef@XNotifyDBEvents@COleControlSite@@UAGKXZ 5f517fe8 f   occsite.obj
 0001:00016ff4       ?Release@XNotifyDBEvents@COleControlSite@@UAGKXZ 5f517ff4 f   occsite.obj
 0001:00016ffd       ?QueryInterface@XNotifyDBEvents@COleControlSite@@UAGJABU_GUID@@PAPAX@Z 5f517ffd f   occsite.obj
 0001:00017059       ?OKToDo@XNotifyDBEvents@COleControlSite@@UAGJKKQAUtagDBNOTIFYREASON@@@Z 5f518059 f   occsite.obj
 0001:000171c8       ?Cancelled@XNotifyDBEvents@COleControlSite@@UAGJKKQAUtagDBNOTIFYREASON@@@Z 5f5181c8 f   occsite.obj
 0001:00017266       ?SyncBefore@XNotifyDBEvents@COleControlSite@@UAGJKKQAUtagDBNOTIFYREASON@@@Z 5f518266 f   occsite.obj
 0001:00017381       ?AboutToDo@XNotifyDBEvents@COleControlSite@@UAGJKKQAUtagDBNOTIFYREASON@@@Z 5f518381 f   occsite.obj
 0001:0001741f       ?FailedToDo@XNotifyDBEvents@COleControlSite@@UAGJKKQAUtagDBNOTIFYREASON@@@Z 5f51841f f   occsite.obj
 0001:000174bd       ?SyncAfter@XNotifyDBEvents@COleControlSite@@UAGJKKQAUtagDBNOTIFYREASON@@@Z 5f5184bd f   occsite.obj
 0001:00017626       ?DidEvent@XNotifyDBEvents@COleControlSite@@UAGJKKQAUtagDBNOTIFYREASON@@@Z 5f518626 f   occsite.obj
 0001:0001772f       ?FireEvent@XNotifyDBEvents@COleControlSite@@QAEJKKQAUtagDBNOTIFYREASON@@W4DSCSTATE@@@Z 5f51872f f   occsite.obj
 0001:0001786a       ?AddRef@XRowsetNotify@COleControlSite@@UAGKXZ 5f51886a f   occsite.obj
 0001:00017876       ?Release@XRowsetNotify@COleControlSite@@UAGKXZ 5f518876 f   occsite.obj
 0001:0001787f       ?QueryInterface@XRowsetNotify@COleControlSite@@UAGJABU_GUID@@PAPAX@Z 5f51887f f   occsite.obj
 0001:000178db       ?OnFieldChange@XRowsetNotify@COleControlSite@@UAGJPAUIRowset@@KKQAKKKH@Z 5f5188db f   occsite.obj
 0001:00017a59       ?OnRowChange@XRowsetNotify@COleControlSite@@UAGJPAUIRowset@@KQBKKKH@Z 5f518a59 f   occsite.obj
 0001:00017cb8       ?OnRowsetChange@XRowsetNotify@COleControlSite@@UAGJPAUIRowset@@KKH@Z 5f518cb8 f   occsite.obj
 0001:00017e70       ??_ECOleControlSite@@UAEPAXI@Z 5f518e70 f i occsite.obj
 0001:00017e70       ??_GCOleControlSite@@UAEPAXI@Z 5f518e70 f i occsite.obj
 0001:00017ea0       ??0XOleClientSite@COleControlSite@@QAE@XZ 5f518ea0 f i occsite.obj
 0001:00017ec0       ??0XOleIPSite@COleControlSite@@QAE@XZ 5f518ec0 f i occsite.obj
 0001:00017ee0       ??0XOleControlSite@COleControlSite@@QAE@XZ 5f518ee0 f i occsite.obj
 0001:00017f00       ??0XAmbientProps@COleControlSite@@QAE@XZ 5f518f00 f i occsite.obj
 0001:00017f20       ??0XPropertyNotifySink@COleControlSite@@QAE@XZ 5f518f20 f i occsite.obj
 0001:00017f40       ??0XEventSink@COleControlSite@@QAE@XZ 5f518f40 f i occsite.obj
 0001:00017f60       ??0XBoundObjectSite@COleControlSite@@QAE@XZ 5f518f60 f i occsite.obj
 0001:00017f80       ??0XNotifyDBEvents@COleControlSite@@QAE@XZ 5f518f80 f i occsite.obj
 0001:00017fa0       ??0XRowsetNotify@COleControlSite@@QAE@XZ 5f518fa0 f i occsite.obj
 0001:00017fc0       ??0IBoundObjectSite@@QAE@XZ 5f518fc0 f i occsite.obj
 0001:00017fe0       ??0INotifyDBEvents@@QAE@XZ 5f518fe0 f i occsite.obj
 0001:00018000       ??0IRowsetNotify@@QAE@XZ   5f519000 f i occsite.obj
 0001:00018020       ??_GCDataSourceControl@@QAEPAXI@Z 5f519020 f i occsite.obj
 0001:00018050       ??_GCDataBoundProperty@@QAEPAXI@Z 5f519050 f i occsite.obj
 0001:00018080       ??1CDataBoundProperty@@QAE@XZ 5f519080 f i occsite.obj
 0001:00018090       ??0AFX_EVENT@@QAE@HJPAUtagDISPPARAMS@@PAUtagEXCEPINFO@@PAI@Z 5f519090 f i occsite.obj
 0001:000180f0       ?ReleaseAccessors@CAccessorBase@ATL@@QAEJPAUIUnknown@@@Z 5f5190f0 f i occsite.obj
 0001:00018250       ?Close@CDynamicAccessor@ATL@@QAEXXZ 5f519250 f i occsite.obj
 0001:000182d0       ?Close@CAccessorBase@ATL@@QAEXXZ 5f5192d0 f i occsite.obj
 0001:00018350       ??_GCDynamicAccessor@ATL@@QAEPAXI@Z 5f519350 f i occsite.obj
 0001:00018380       ??1CDynamicAccessor@ATL@@QAE@XZ 5f519380 f i occsite.obj
 0001:000183a0       ??_GCRowset@ATL@@QAEPAXI@Z 5f5193a0 f i occsite.obj
 0001:000183d0       ??1CRowset@ATL@@QAE@XZ     5f5193d0 f i occsite.obj
 0001:00018430       ?Close@CRowset@ATL@@QAEXXZ 5f519430 f i occsite.obj
 0001:00018470       ?ReleaseRows@CRowset@ATL@@QAEJXZ 5f519470 f i occsite.obj
 0001:00018500       ??0CRowset@ATL@@QAE@PAUIRowset@@@Z 5f519500 f i occsite.obj
 0001:00018580       ??0CRowset@ATL@@QAE@XZ     5f519580 f i occsite.obj
 0001:000185f0       ?MoveFirst@CRowset@ATL@@QAEJXZ 5f5195f0 f i occsite.obj
 0001:000186a0       ?MoveNext@CRowset@ATL@@QAEJXZ 5f5196a0 f i occsite.obj
 0001:000186c0       ?MoveNext@CRowset@ATL@@QAEJJ_N@Z 5f5196c0 f i occsite.obj
 0001:000187d0       ?AtlTrace2@ATL@@YAXKIPBDZZ 5f5197d0 f i occsite.obj
 0001:00018880       ?GetData@CRowset@ATL@@QAEJXZ 5f519880 f i occsite.obj
 0001:00018930       ?GetNumAccessors@CAccessorBase@ATL@@QBEKXZ 5f519930 f i occsite.obj
 0001:00018950       ?IsAutoAccessor@CAccessorBase@ATL@@QBE_NK@Z 5f519950 f i occsite.obj
 0001:000189e0       ?GetData@CRowset@ATL@@QAEJH@Z 5f5199e0 f i occsite.obj
 0001:00018ad0       ?GetHAccessor@CAccessorBase@ATL@@QBEKK@Z 5f519ad0 f i occsite.obj
 0001:00018b30       ?GetBuffer@CAccessorBase@ATL@@QBEPAEXZ 5f519b30 f i occsite.obj
 0001:00018b50       ?SetupOptionalRowsetInterfaces@CRowset@ATL@@QAEXXZ 5f519b50 f i occsite.obj
 0001:00018b90       ?SetAccessor@CRowset@ATL@@QAEXPAVCAccessorBase@2@@Z 5f519b90 f i occsite.obj
 0001:00018bb0       ??0CDynamicAccessor@ATL@@QAE@XZ 5f519bb0 f i occsite.obj
 0001:00018bf0       ?GetColumnCount@CDynamicAccessor@ATL@@QBEKXZ 5f519bf0 f i occsite.obj
 0001:00018c10       ?BindColumns@CDynamicAccessor@ATL@@QAEJPAUIUnknown@@@Z 5f519c10 f i occsite.obj
 0001:00019160       ?AllocateAccessorMemory@CAccessorBase@ATL@@QAEJH@Z 5f51a160 f i occsite.obj
 0001:00019230       ?BindEntries@CAccessorBase@ATL@@SAJPAUtagDBBINDING@@HPAKKPAUIAccessor@@@Z 5f51a230 f i occsite.obj
 0001:00019410       ?Bind@CAccessorBase@ATL@@SAXPAUtagDBBINDING@@KGKEEKKKKPAUtagDBOBJECT@@@Z 5f51a410 f i occsite.obj
 0001:00019540       ?AddOffset@CDynamicAccessor@ATL@@SAKKK@Z 5f51a540 f i occsite.obj
 0001:00019570       ?GetColumnName@CDynamicAccessor@ATL@@QBEPAGK@Z 5f51a570 f i occsite.obj
 0001:000195b0       ?TranslateColumnNo@CDynamicAccessor@ATL@@QBE_NAAK@Z 5f51a5b0 f i occsite.obj
 0001:00019680       ?GetColumnType@CDynamicAccessor@ATL@@QBE_NKPAG@Z 5f51a680 f i occsite.obj
 0001:000196c0       ?GetValue@CDynamicAccessor@ATL@@QBEPAXK@Z 5f51a6c0 f i occsite.obj
 0001:00019700       ?GetStatus@CDynamicAccessor@ATL@@QBE_NKPAK@Z 5f51a700 f i occsite.obj
 0001:000197a0       ?_GetDataPtr@CDynamicAccessor@ATL@@QBEPAXK@Z 5f51a7a0 f i occsite.obj
 0001:000197d0       ?SetData@CRowset@ATL@@QBEJXZ 5f51a7d0 f i occsite.obj
 0001:00019870       ?SetData@CRowset@ATL@@QBEJH@Z 5f51a870 f i occsite.obj
 0001:00019920       ??0CManualAccessor@ATL@@QAE@XZ 5f51a920 f i occsite.obj
 0001:00019960       ??1CManualAccessor@ATL@@QAE@XZ 5f51a960 f i occsite.obj
 0001:000199a0       ?CreateAccessor@CManualAccessor@ATL@@QAEJHPAXK@Z 5f51a9a0 f i occsite.obj
 0001:00019a70       ?AddBindEntry@CManualAccessor@ATL@@QAEXKGKPAX00@Z 5f51aa70 f i occsite.obj
 0001:00019b50       ?BindColumns@CManualAccessor@ATL@@QAEJPAUIUnknown@@@Z 5f51ab50 f i occsite.obj
 0001:00019c80       ??0AFX_EVENT@@QAE@H@Z      5f51ac80 f i occsite.obj
 0001:00019ce0       ??1?$CComPtr@UIColumnsInfo@@@ATL@@QAE@XZ 5f51ace0 f i occsite.obj
 0001:00019ce0       ??1?$CComPtr@UIRowset@@@ATL@@QAE@XZ 5f51ace0 f i occsite.obj
 0001:00019ce0       ??1?$CComPtr@UIRowsetChange@@@ATL@@QAE@XZ 5f51ace0 f i occsite.obj
 0001:00019ce0       ??1?$CComPtr@UIAccessor@@@ATL@@QAE@XZ 5f51ace0 f i occsite.obj
 0001:00019d10       ??B?$CComPtr@UIAccessor@@@ATL@@QBEPAUIAccessor@@XZ 5f51ad10 f i occsite.obj
 0001:00019d10       ??B?$CComPtr@UIRowset@@@ATL@@QBEPAUIRowset@@XZ 5f51ad10 f i occsite.obj
 0001:00019d10       ?GetHead@CSimpleList@@QBEPAXXZ 5f51ad10 f i occsite.obj
 0001:00019d10       ??B?$CComPtr@UIRowsetChange@@@ATL@@QBEPAUIRowsetChange@@XZ 5f51ad10 f i occsite.obj
 0001:00019d20       ??0?$CComPtr@UIAccessor@@@ATL@@QAE@XZ 5f51ad20 f i occsite.obj
 0001:00019d20       ??0?$CComPtr@UIColumnsInfo@@@ATL@@QAE@XZ 5f51ad20 f i occsite.obj
 0001:00019d20       ??0?$CComPtr@UIRowset@@@ATL@@QAE@XZ 5f51ad20 f i occsite.obj
 0001:00019d20       ??0?$CComPtr@UIRowsetChange@@@ATL@@QAE@XZ 5f51ad20 f i occsite.obj
 0001:00019d40       ??4?$CComPtr@UIRowset@@@ATL@@QAEPAUIRowset@@PAU2@@Z 5f51ad40 f i occsite.obj
 0001:00019d60       ?AtlComPtrAssign@ATL@@YGPAUIUnknown@@PAPAU2@PAU2@@Z 5f51ad60 f i occsite.obj
 0001:00019da0       ?Release@?$CComPtr@UIRowsetChange@@@ATL@@QAEXXZ 5f51ada0 f i occsite.obj
 0001:00019da0       ?Release@?$CComPtr@UIRowset@@@ATL@@QAEXXZ 5f51ada0 f i occsite.obj
 0001:00019dd0       ??I?$CComPtr@UIAccessor@@@ATL@@QAEPAPAUIAccessor@@XZ 5f51add0 f i occsite.obj
 0001:00019dd0       ??I?$CComPtr@UIColumnsInfo@@@ATL@@QAEPAPAUIColumnsInfo@@XZ 5f51add0 f i occsite.obj
 0001:00019dd0       ??I?$CComPtr@UIRowsetChange@@@ATL@@QAEPAPAUIRowsetChange@@XZ 5f51add0 f i occsite.obj
 0001:00019e20       ??C?$CComPtr@UIRowsetChange@@@ATL@@QBEPAV?$_NoAddRefReleaseOnCComPtr@UIRowsetChange@@@1@XZ 5f51ae20 f i occsite.obj
 0001:00019e20       ??C?$CComPtr@UIColumnsInfo@@@ATL@@QBEPAV?$_NoAddRefReleaseOnCComPtr@UIColumnsInfo@@@1@XZ 5f51ae20 f i occsite.obj
 0001:00019e20       ??C?$CComPtr@UIRowset@@@ATL@@QBEPAV?$_NoAddRefReleaseOnCComPtr@UIRowset@@@1@XZ 5f51ae20 f i occsite.obj
 0001:00019e20       ??C?$CComPtr@UIAccessor@@@ATL@@QBEPAV?$_NoAddRefReleaseOnCComPtr@UIAccessor@@@1@XZ 5f51ae20 f i occsite.obj
 0001:00019e70       ?QueryInterface@IUnknown@@QAGJPAPAUIRowsetChange@@@Z 5f51ae70 f i occsite.obj
 0001:00019e90       ?QueryInterface@IUnknown@@QAGJPAPAUIColumnsInfo@@@Z 5f51ae90 f i occsite.obj
 0001:00019eb0       ?QueryInterface@IUnknown@@QAGJPAPAUIAccessor@@@Z 5f51aeb0 f i occsite.obj
 0001:00019ed0       ?GetValue@CDynamicAccessor@ATL@@QBE_NKPAUtagDB_NUMERIC@@@Z 5f51aed0 f i occsite.obj
 0001:00019f10       ?GetValue@CDynamicAccessor@ATL@@QBE_NKPAUtagDBTIME@@@Z 5f51af10 f i occsite.obj
 0001:00019f10       ?GetValue@CDynamicAccessor@ATL@@QBE_NKPAUtagDBDATE@@@Z 5f51af10 f i occsite.obj
 0001:00019f50       ?GetValue@CDynamicAccessor@ATL@@QBE_NKPAUtagDBTIMESTAMP@@@Z 5f51af50 f i occsite.obj
 0001:00019f90       ?SetValue@CDynamicAccessor@ATL@@QAE_NKABG@Z 5f51af90 f i occsite.obj
 0001:00019f90       ?SetValue@CDynamicAccessor@ATL@@QAE_NKABF@Z 5f51af90 f i occsite.obj
 0001:00019fd0       ?SetValue@CDynamicAccessor@ATL@@QAE_NKABK@Z 5f51afd0 f i occsite.obj
 0001:00019fd0       ?SetValue@CDynamicAccessor@ATL@@QAE_NKABM@Z 5f51afd0 f i occsite.obj
 0001:00019fd0       ?SetValue@CDynamicAccessor@ATL@@QAE_NKABJ@Z 5f51afd0 f i occsite.obj
 0001:0001a010       ?SetValue@CDynamicAccessor@ATL@@QAE_NKABN@Z 5f51b010 f i occsite.obj
 0001:0001a050       ?SetValue@CDynamicAccessor@ATL@@QAE_NKABUtagDBTIMESTAMP@@@Z 5f51b050 f i occsite.obj
 0001:0001a050       ?SetValue@CDynamicAccessor@ATL@@QAE_NKABUtagDEC@@@Z 5f51b050 f i occsite.obj
 0001:0001a090       ?SetValue@CDynamicAccessor@ATL@@QAE_NKABE@Z 5f51b090 f i occsite.obj
 0001:0001a090       ?SetValue@CDynamicAccessor@ATL@@QAE_NKABC@Z 5f51b090 f i occsite.obj
 0001:0001a0d0       ?_GetValue@CDynamicAccessor@ATL@@QBEXKPAUtagDB_NUMERIC@@@Z 5f51b0d0 f i occsite.obj
 0001:0001a190       ?_GetValue@CDynamicAccessor@ATL@@QBEXKPAUtagDBDATE@@@Z 5f51b190 f i occsite.obj
 0001:0001a190       ?_GetValue@CDynamicAccessor@ATL@@QBEXKPAUtagDBTIME@@@Z 5f51b190 f i occsite.obj
 0001:0001a230       ?_GetValue@CDynamicAccessor@ATL@@QBEXKPAUtagDBTIMESTAMP@@@Z 5f51b230 f i occsite.obj
 0001:0001a2e0       ?_SetValue@CDynamicAccessor@ATL@@QAEXKABG@Z 5f51b2e0 f i occsite.obj
 0001:0001a2e0       ?_SetValue@CDynamicAccessor@ATL@@QAEXKABF@Z 5f51b2e0 f i occsite.obj
 0001:0001a350       ?_SetValue@CDynamicAccessor@ATL@@QAEXKABM@Z 5f51b350 f i occsite.obj
 0001:0001a350       ?_SetValue@CDynamicAccessor@ATL@@QAEXKABK@Z 5f51b350 f i occsite.obj
 0001:0001a350       ?_SetValue@CDynamicAccessor@ATL@@QAEXKABJ@Z 5f51b350 f i occsite.obj
 0001:0001a3c0       ?_SetValue@CDynamicAccessor@ATL@@QAEXKABN@Z 5f51b3c0 f i occsite.obj
 0001:0001a430       ?_SetValue@CDynamicAccessor@ATL@@QAEXKABE@Z 5f51b430 f i occsite.obj
 0001:0001a430       ?_SetValue@CDynamicAccessor@ATL@@QAEXKABC@Z 5f51b430 f i occsite.obj
 0001:0001a4a0       ?_SetValue@CDynamicAccessor@ATL@@QAEXKABUtagDEC@@@Z 5f51b4a0 f i occsite.obj
 0001:0001a4a0       ?_SetValue@CDynamicAccessor@ATL@@QAEXKABUtagDBTIMESTAMP@@@Z 5f51b4a0 f i occsite.obj
 0001:0001a540       ??0COleControlLock@@QAE@ABU_GUID@@@Z 5f51b540 f   occlock.obj
 0001:0001a625       ??1COleControlLock@@UAE@XZ 5f51b625 f   occlock.obj
 0001:0001a672       ?AfxOleLockControl@@YGHABU_GUID@@@Z 5f51b672 f   occlock.obj
 0001:0001a7c0       ?AfxOleLockControl@@YGHPBD@Z 5f51b7c0 f   occlock.obj
 0001:0001a7ef       ?AfxOleUnlockControl@@YGHPBD@Z 5f51b7ef f   occlock.obj
 0001:0001a81e       ?AfxOleUnlockControl@@YGHABU_GUID@@@Z 5f51b81e f   occlock.obj
 0001:0001a8cc       ?AfxOleUnlockAllControls@@YGXXZ 5f51b8cc f   occlock.obj
 0001:0001a980       ??_ECOleControlLock@@UAEPAXI@Z 5f51b980 f i occlock.obj
 0001:0001a980       ??_GCOleControlLock@@UAEPAXI@Z 5f51b980 f i occlock.obj
 0001:0001a9b0       ?IsEmpty@CSimpleList@@QBEHXZ 5f51b9b0 f i occlock.obj
 0001:0001a9d0       ?AddHead@?$CTypedSimpleList@PAVCOleControlLock@@@@QAEXPAVCOleControlLock@@@Z 5f51b9d0 f i occlock.obj
 0001:0001a9f0       ?Remove@?$CTypedSimpleList@PAVCOleControlLock@@@@QAEHPAVCOleControlLock@@@Z 5f51b9f0 f i occlock.obj
 0001:0001aa10       ??B?$CTypedSimpleList@PAVCOleControlLock@@@@QAEPAVCOleControlLock@@XZ 5f51ba10 f i occlock.obj
 0001:0001aa30       ?DDX_OCText@@YGXPAVCDataExchange@@HJAAVCString@@@Z 5f51ba30 f   occddx.obj
 0001:0001aa80       ?DDX_OCTextRO@@YGXPAVCDataExchange@@HJAAVCString@@@Z 5f51ba80 f   occddx.obj
 0001:0001aad5       ?DDX_OCBool@@YGXPAVCDataExchange@@HJAAH@Z 5f51bad5 f   occddx.obj
 0001:0001ab22       ?DDX_OCBoolRO@@YGXPAVCDataExchange@@HJAAH@Z 5f51bb22 f   occddx.obj
 0001:0001ab43       ?DDX_OCInt@@YGXPAVCDataExchange@@HJAAH@Z 5f51bb43 f   occddx.obj
 0001:0001ab90       ?DDX_OCIntRO@@YGXPAVCDataExchange@@HJAAH@Z 5f51bb90 f   occddx.obj
 0001:0001abb1       ?DDX_OCInt@@YGXPAVCDataExchange@@HJAAJ@Z 5f51bbb1 f   occddx.obj
 0001:0001abfe       ?DDX_OCIntRO@@YGXPAVCDataExchange@@HJAAJ@Z 5f51bbfe f   occddx.obj
 0001:0001ac1f       ?DDX_OCShort@@YGXPAVCDataExchange@@HJAAF@Z 5f51bc1f f   occddx.obj
 0001:0001ac6d       ?DDX_OCShortRO@@YGXPAVCDataExchange@@HJAAF@Z 5f51bc6d f   occddx.obj
 0001:0001ac8e       ?DDX_OCColor@@YGXPAVCDataExchange@@HJAAK@Z 5f51bc8e f   occddx.obj
 0001:0001acdb       ?DDX_OCColorRO@@YGXPAVCDataExchange@@HJAAK@Z 5f51bcdb f   occddx.obj
 0001:0001ad00       ?DDX_OCFloat@@YGXPAVCDataExchange@@HJAAM@Z 5f51bd00 f   occddxf.obj
 0001:0001ad52       ?DDX_OCFloatRO@@YGXPAVCDataExchange@@HJAAM@Z 5f51bd52 f   occddxf.obj
 0001:0001ad85       ?DDX_OCFloat@@YGXPAVCDataExchange@@HJAAN@Z 5f51bd85 f   occddxf.obj
 0001:0001add6       ?DDX_OCFloatRO@@YGXPAVCDataExchange@@HJAAN@Z 5f51bdd6 f   occddxf.obj
 0001:0001ae10       ?_AfxGetDlgCode@@YGKPAVCWnd@@PAUtagMSG@@@Z 5f51be10 f   occdlg.obj
 0001:0001ae5e       ?_AfxDlgSetFocus@@YGXPAVCWnd@@@Z 5f51be5e f   occdlg.obj
 0001:0001ae90       ?_AfxGetChildControl@@YGPAVCWnd@@PAV1@0@Z 5f51be90 f   occdlg.obj
 0001:0001af4d       ?_AfxNextControl@@YGPAVCWnd@@PAV1@0I@Z 5f51bf4d f   occdlg.obj
 0001:0001b067       ?IsMatchingMnemonic@COccManager@@SAHPAVCWnd@@PAUtagMSG@@@Z 5f51c067 f   occdlg.obj
 0001:0001b09e       ?_AfxFindNextMnem@@YGPAVCWnd@@PAV1@0PAUtagMSG@@@Z 5f51c09e f   occdlg.obj
 0001:0001b16a       ?IsLabelControl@COccManager@@SAHPAVCWnd@@@Z 5f51c16a f   occdlg.obj
 0001:0001b1ac       ?_AfxGetNextMnem@@YGPAVCWnd@@PAV1@0PAUtagMSG@@@Z 5f51c1ac f   occdlg.obj
 0001:0001b253       ?UIActivateControl@COccManager@@KAXPAVCWnd@@@Z 5f51c253 f   occdlg.obj
 0001:0001b2d8       ?UIDeactivateIfNecessary@COccManager@@KAXPAVCWnd@@0@Z 5f51c2d8 f   occdlg.obj
 0001:0001b3a1       ?_AfxFindDlgItem@@YGPAVCWnd@@PAV1@K@Z 5f51c3a1 f   occdlg.obj
 0001:0001b41d       ?SetDefaultButton@COccManager@@SAXPAVCWnd@@H@Z 5f51c41d f   occdlg.obj
 0001:0001b47c       ?GetDefBtnCode@COccManager@@SAKPAVCWnd@@@Z 5f51c47c f   occdlg.obj
 0001:0001b4af       ?_AfxRemoveDefaultButton@@YGXPAVCWnd@@0@Z 5f51c4af f   occdlg.obj
 0001:0001b535       ?_AfxOriginalDefButton@@YGHPAVCWnd@@@Z 5f51c535 f   occdlg.obj
 0001:0001b584       ?_AfxCheckDefPushButton@@YGXPAVCWnd@@00@Z 5f51c584 f   occdlg.obj
 0001:0001b6da       ?IsDialogMessageA@COccManager@@UAEHPAVCWnd@@PAUtagMSG@@@Z 5f51c6da f   occdlg.obj
 0001:0001bc30       ?OnSaveViewState@CDocObjectServer@@MAEXAAVCArchive@@@Z 5f51cc30 f   oledocvw.obj
 0001:0001bc3d       ?OnApplyViewState@CDocObjectServer@@MAEXAAVCArchive@@@Z 5f51cc3d f   oledocvw.obj
 0001:0001bc4a       ?OnActivateView@CDocObjectServer@@MAEJXZ 5f51cc4a f   oledocvw.obj
 0001:0001c49c       ?AddRef@XOleDocumentView@CDocObjectServer@@UAGKXZ 5f51d49c f   oledocvw.obj
 0001:0001c506       ?Release@XOleDocumentView@CDocObjectServer@@UAGKXZ 5f51d506 f   oledocvw.obj
 0001:0001c570       ?QueryInterface@XOleDocumentView@CDocObjectServer@@UAGJABU_GUID@@PAPAX@Z 5f51d570 f   oledocvw.obj
 0001:0001c5e2       ?SetInPlaceSite@XOleDocumentView@CDocObjectServer@@UAGJPAUIOleInPlaceSite@@@Z 5f51d5e2 f   oledocvw.obj
 0001:0001c6c1       ?GetInPlaceSite@XOleDocumentView@CDocObjectServer@@UAGJPAPAUIOleInPlaceSite@@@Z 5f51d6c1 f   oledocvw.obj
 0001:0001c783       ?GetDocument@XOleDocumentView@CDocObjectServer@@UAGJPAPAUIUnknown@@@Z 5f51d783 f   oledocvw.obj
 0001:0001c85b       ?OnSetItemRects@CDocObjectServer@@IAEXPAUtagRECT@@0@Z 5f51d85b f   oledocvw.obj
 0001:0001c884       ?SetRect@XOleDocumentView@CDocObjectServer@@UAGJPAUtagRECT@@@Z 5f51d884 f   oledocvw.obj
 0001:0001c989       ?GetRect@XOleDocumentView@CDocObjectServer@@UAGJPAUtagRECT@@@Z 5f51d989 f   oledocvw.obj
 0001:0001ca34       ?SetRectComplex@XOleDocumentView@CDocObjectServer@@UAGJPAUtagRECT@@000@Z 5f51da34 f   oledocvw.obj
 0001:0001caaa       ?Show@XOleDocumentView@CDocObjectServer@@UAGJH@Z 5f51daaa f   oledocvw.obj
 0001:0001cb5a       ?UIActivate@XOleDocumentView@CDocObjectServer@@UAGJH@Z 5f51db5a f   oledocvw.obj
 0001:0001cc0b       ?Open@XOleDocumentView@CDocObjectServer@@UAGJXZ 5f51dc0b f   oledocvw.obj
 0001:0001cca5       ?CloseView@XOleDocumentView@CDocObjectServer@@UAGJK@Z 5f51dca5 f   oledocvw.obj
 0001:0001cd39       ?SaveViewState@XOleDocumentView@CDocObjectServer@@UAGJPAUIStream@@@Z 5f51dd39 f   oledocvw.obj
 0001:0001cef8       ?ApplyViewState@XOleDocumentView@CDocObjectServer@@UAGJPAUIStream@@@Z 5f51def8 f   oledocvw.obj
 0001:0001d0b7       ?Clone@XOleDocumentView@CDocObjectServer@@UAGJPAUIOleInPlaceSite@@PAPAUIOleDocumentView@@@Z 5f51e0b7 f   oledocvw.obj
 0001:0001d130       ?_GetBaseClass@CDocObjectServer@@KGPAUCRuntimeClass@@XZ 5f51e130 f   oledocob.obj
 0001:0001d13a       ?GetRuntimeClass@CDocObjectServer@@UBEPAUCRuntimeClass@@XZ 5f51e13a f   oledocob.obj
 0001:0001d14a       ?_GetBaseMessageMap@CDocObjectServer@@KGPBUAFX_MSGMAP@@XZ 5f51e14a f   oledocob.obj
 0001:0001d154       ?GetMessageMap@CDocObjectServer@@MBEPBUAFX_MSGMAP@@XZ 5f51e154 f   oledocob.obj
 0001:0001d164       ?_GetBaseInterfaceMap@CDocObjectServer@@KGPBUAFX_INTERFACEMAP@@XZ 5f51e164 f   oledocob.obj
 0001:0001d16e       ?GetInterfaceMap@CDocObjectServer@@MBEPBUAFX_INTERFACEMAP@@XZ 5f51e16e f   oledocob.obj
 0001:0001d17e       ??0CDocObjectServer@@QAE@PAVCOleServerDoc@@PAUIOleDocumentSite@@@Z 5f51e17e f   oledocob.obj
 0001:0001d266       ??1CDocObjectServer@@UAE@XZ 5f51e266 f   oledocob.obj
 0001:0001d2b7       ?ReleaseDocSite@CDocObjectServer@@QAEXXZ 5f51e2b7 f   oledocob.obj
 0001:0001d2e7       ?SetDocSite@CDocObjectServer@@QAEXPAUIOleDocumentSite@@@Z 5f51e2e7 f   oledocob.obj
 0001:0001d305       ?OnCloseDocument@CDocObjectServer@@UAEXXZ 5f51e305 f   oledocob.obj
 0001:0001d32c       ?ActivateDocObject@CDocObjectServer@@QAEXXZ 5f51e32c f   oledocob.obj
 0001:0001d3a0       ?OnExecOleCmd@CDocObjectServer@@IAGJPBU_GUID@@KKPAUtagVARIANT@@1@Z 5f51e3a0 f   oledocob.obj
 0001:0001d405       ?GetControllingFrame@CDocObjectServer@@QBEPAVCOleDocIPFrameWnd@@XZ 5f51e405 f   oledocob.obj
 0001:0001d48b       ?DoPreparePrinting@CDocObjectServer@@IAEHPAVCView@@PAUCPrintInfo@@@Z 5f51e48b f   oledocob.obj
 0001:0001d4aa       ?DoPrepareDC@CDocObjectServer@@IAEXPAVCView@@PAVCDC@@PAUCPrintInfo@@@Z 5f51e4aa f   oledocob.obj
 0001:0001d4cd       ?DoPrint@CDocObjectServer@@IAEXPAVCView@@PAVCDC@@PAUCPrintInfo@@@Z 5f51e4cd f   oledocob.obj
 0001:0001d4f0       ?DoBeginPrinting@CDocObjectServer@@IAEXPAVCView@@PAVCDC@@PAUCPrintInfo@@@Z 5f51e4f0 f   oledocob.obj
 0001:0001d513       ?DoEndPrinting@CDocObjectServer@@IAEXPAVCView@@PAVCDC@@PAUCPrintInfo@@@Z 5f51e513 f   oledocob.obj
 0001:0001d536       ?AddRef@XPrint@CDocObjectServer@@UAGKXZ 5f51e536 f   oledocob.obj
 0001:0001d5a0       ?Release@XPrint@CDocObjectServer@@UAGKXZ 5f51e5a0 f   oledocob.obj
 0001:0001d60a       ?QueryInterface@XPrint@CDocObjectServer@@UAGJABU_GUID@@PAPAX@Z 5f51e60a f   oledocob.obj
 0001:0001d679       ?SetInitialPageNum@XPrint@CDocObjectServer@@UAGJJ@Z 5f51e679 f   oledocob.obj
 0001:0001d6f8       ?GetPageInfo@XPrint@CDocObjectServer@@UAGJPAJ0@Z 5f51e6f8 f   oledocob.obj
 0001:0001d896       ?Print@XPrint@CDocObjectServer@@UAGJKPAPAUtagDVTARGETDEVICE@@PAPAUtagPAGESET@@PAUtagSTGMEDIUM@@PAUIContinueCallback@@JPAJ4@Z 5f51e896 f   oledocob.obj
 0001:0001e491       ?AddRef@XOleDocument@CDocObjectServer@@UAGKXZ 5f51f491 f   oledocob.obj
 0001:0001e4fb       ?Release@XOleDocument@CDocObjectServer@@UAGKXZ 5f51f4fb f   oledocob.obj
 0001:0001e565       ?QueryInterface@XOleDocument@CDocObjectServer@@UAGJABU_GUID@@PAPAX@Z 5f51f565 f   oledocob.obj
 0001:0001e5d4       ?CreateView@XOleDocument@CDocObjectServer@@UAGJPAUIOleInPlaceSite@@PAUIStream@@KPAPAUIOleDocumentView@@@Z 5f51f5d4 f   oledocob.obj
 0001:0001e709       ?GetDocMiscStatus@XOleDocument@CDocObjectServer@@UAGJPAK@Z 5f51f709 f   oledocob.obj
 0001:0001e7ae       ?EnumViews@XOleDocument@CDocObjectServer@@UAGJPAPAUIEnumOleDocumentViews@@PAPAUIOleDocumentView@@@Z 5f51f7ae f   oledocob.obj
 0001:0001e889       ?AddRef@XOleObject@CDocObjectServer@@UAGKXZ 5f51f889 f   oledocob.obj
 0001:0001e8f3       ?Release@XOleObject@CDocObjectServer@@UAGKXZ 5f51f8f3 f   oledocob.obj
 0001:0001e95d       ?QueryInterface@XOleObject@CDocObjectServer@@UAGJABU_GUID@@PAPAX@Z 5f51f95d f   oledocob.obj
 0001:0001e9cf       ?SetClientSite@XOleObject@CDocObjectServer@@UAGJPAUIOleClientSite@@@Z 5f51f9cf f   oledocob.obj
 0001:0001eab5       ?GetClientSite@XOleObject@CDocObjectServer@@UAGJPAPAUIOleClientSite@@@Z 5f51fab5 f   oledocob.obj
 0001:0001eb46       ?SetHostNames@XOleObject@CDocObjectServer@@UAGJPBG0@Z 5f51fb46 f   oledocob.obj
 0001:0001ebdc       ?Close@XOleObject@CDocObjectServer@@UAGJK@Z 5f51fbdc f   oledocob.obj
 0001:0001ec6d       ?SetMoniker@XOleObject@CDocObjectServer@@UAGJKPAUIMoniker@@@Z 5f51fc6d f   oledocob.obj
 0001:0001ed03       ?GetMoniker@XOleObject@CDocObjectServer@@UAGJKKPAPAUIMoniker@@@Z 5f51fd03 f   oledocob.obj
 0001:0001ed9d       ?InitFromData@XOleObject@CDocObjectServer@@UAGJPAUIDataObject@@HK@Z 5f51fd9d f   oledocob.obj
 0001:0001ee37       ?GetClipboardData@XOleObject@CDocObjectServer@@UAGJKPAPAUIDataObject@@@Z 5f51fe37 f   oledocob.obj
 0001:0001eecd       ?DoVerb@XOleObject@CDocObjectServer@@UAGJJPAUtagMSG@@PAUIOleClientSite@@JPAUHWND__@@PBUtagRECT@@@Z 5f51fecd f   oledocob.obj
 0001:0001ef73       ?EnumVerbs@XOleObject@CDocObjectServer@@UAGJPAPAUIEnumOLEVERB@@@Z 5f51ff73 f   oledocob.obj
 0001:0001f004       ?Update@XOleObject@CDocObjectServer@@UAGJXZ 5f520004 f   oledocob.obj
 0001:0001f092       ?IsUpToDate@XOleObject@CDocObjectServer@@UAGJXZ 5f520092 f   oledocob.obj
 0001:0001f120       ?GetUserClassID@XOleObject@CDocObjectServer@@UAGJPAU_GUID@@@Z 5f520120 f   oledocob.obj
 0001:0001f1b1       ?GetUserType@XOleObject@CDocObjectServer@@UAGJKPAPAG@Z 5f5201b1 f   oledocob.obj
 0001:0001f247       ?SetExtent@XOleObject@CDocObjectServer@@UAGJKPAUtagSIZE@@@Z 5f520247 f   oledocob.obj
 0001:0001f307       ?GetExtent@XOleObject@CDocObjectServer@@UAGJKPAUtagSIZE@@@Z 5f520307 f   oledocob.obj
 0001:0001f39d       ?Advise@XOleObject@CDocObjectServer@@UAGJPAUIAdviseSink@@PAK@Z 5f52039d f   oledocob.obj
 0001:0001f433       ?Unadvise@XOleObject@CDocObjectServer@@UAGJK@Z 5f520433 f   oledocob.obj
 0001:0001f4c4       ?EnumAdvise@XOleObject@CDocObjectServer@@UAGJPAPAUIEnumSTATDATA@@@Z 5f5204c4 f   oledocob.obj
 0001:0001f555       ?GetMiscStatus@XOleObject@CDocObjectServer@@UAGJKPAK@Z 5f520555 f   oledocob.obj
 0001:0001f5eb       ?SetColorScheme@XOleObject@CDocObjectServer@@UAGJPAUtagLOGPALETTE@@@Z 5f5205eb f   oledocob.obj
 0001:0001f67c       ?AssertValid@CDocObjectServer@@MBEXXZ 5f52067c f   oledocob.obj
 0001:0001f6b8       ?Dump@CDocObjectServer@@MBEXAAVCDumpContext@@@Z 5f5206b8 f   oledocob.obj
 0001:0001f71f       ?_GetBaseClass@CDocObjectServerItem@@KGPAUCRuntimeClass@@XZ 5f52071f f   oledocob.obj
 0001:0001f729       ?GetRuntimeClass@CDocObjectServerItem@@UBEPAUCRuntimeClass@@XZ 5f520729 f   oledocob.obj
 0001:0001f739       ??0CDocObjectServerItem@@IAE@PAVCOleServerDoc@@H@Z 5f520739 f   oledocob.obj
 0001:0001f762       ??1CDocObjectServerItem@@UAE@XZ 5f520762 f   oledocob.obj
 0001:0001f77e       ?OnDoVerb@CDocObjectServerItem@@MAEXJ@Z 5f52077e f   oledocob.obj
 0001:0001f7df       ?OnHide@CDocObjectServerItem@@MAEXXZ 5f5207df f   oledocob.obj
 0001:0001f82a       ?OnOpen@CDocObjectServerItem@@MAEXXZ 5f52082a f   oledocob.obj
 0001:0001f873       ?OnShow@CDocObjectServerItem@@MAEXXZ 5f520873 f   oledocob.obj
 0001:0001f8bc       ?AssertValid@CDocObjectServerItem@@UBEXXZ 5f5208bc f   oledocob.obj
 0001:0001f8cf       ?Dump@CDocObjectServerItem@@UBEXAAVCDumpContext@@@Z 5f5208cf f   oledocob.obj
 0001:0001f8f0       ??_GCDocObjectServer@@UAEPAXI@Z 5f5208f0 f i oledocob.obj
 0001:0001f8f0       ??_ECDocObjectServer@@UAEPAXI@Z 5f5208f0 f i oledocob.obj
 0001:0001f920       ??0XOleObject@CDocObjectServer@@QAE@XZ 5f520920 f i oledocob.obj
 0001:0001f940       ??0XOleDocument@CDocObjectServer@@QAE@XZ 5f520940 f i oledocob.obj
 0001:0001f960       ??0XOleDocumentView@CDocObjectServer@@QAE@XZ 5f520960 f i oledocob.obj
 0001:0001f980       ??0XOleCommandTarget@CDocObjectServer@@QAE@XZ 5f520980 f i oledocob.obj
 0001:0001f9a0       ??0XPrint@CDocObjectServer@@QAE@XZ 5f5209a0 f i oledocob.obj
 0001:0001f9c0       ??_GCDocObjectServerItem@@UAEPAXI@Z 5f5209c0 f i oledocob.obj
 0001:0001f9c0       ??_ECDocObjectServerItem@@UAEPAXI@Z 5f5209c0 f i oledocob.obj
 0001:0001f9f0       ?GetDocument@CDocObjectServerItem@@QBEPAVCOleServerDoc@@XZ 5f5209f0 f i oledocob.obj
 0001:0001fa10       ??0COleCmdUI@@QAE@PAU_tagOLECMD@@KPBU_GUID@@@Z 5f520a10 f   oledoctg.obj
 0001:0001fa57       ?Enable@COleCmdUI@@UAEXH@Z 5f520a57 f   oledoctg.obj
 0001:0001faee       ?SetCheck@COleCmdUI@@UAEXH@Z 5f520aee f   oledoctg.obj
 0001:0001fba7       ?SetText@COleCmdUI@@UAEXPBD@Z 5f520ba7 f   oledoctg.obj
 0001:0001fbc3       ?DoUpdate@COleCmdUI@@UAEHPAVCCmdTarget@@H@Z 5f520bc3 f   oledoctg.obj
 0001:0001fd4a       ?AddRef@XOleCommandTarget@CDocObjectServer@@UAGKXZ 5f520d4a f   oledoctg.obj
 0001:0001fdb4       ?Release@XOleCommandTarget@CDocObjectServer@@UAGKXZ 5f520db4 f   oledoctg.obj
 0001:0001fe1e       ?QueryInterface@XOleCommandTarget@CDocObjectServer@@UAGJABU_GUID@@PAPAX@Z 5f520e1e f   oledoctg.obj
 0001:0001fe90       ?_AfxQueryStatusOleCommandHelper@@YGJPAVCCmdTarget@@PBU_GUID@@KQAU_tagOLECMD@@PAU_tagOLECMDTEXT@@@Z 5f520e90 f   oledoctg.obj
 0001:00020095       ?QueryStatus@XOleCommandTarget@CDocObjectServer@@UAGJPBU_GUID@@KQAU_tagOLECMD@@PAU_tagOLECMDTEXT@@@Z 5f521095 f   oledoctg.obj
 0001:0002012b       ?_AfxExecOleCommandHelper@@YGJPAVCCmdTarget@@PBU_GUID@@KKPAUtagVARIANT@@2@Z 5f52112b f   oledoctg.obj
 0001:0002022f       ?Exec@XOleCommandTarget@CDocObjectServer@@UAGJPBU_GUID@@KKPAUtagVARIANT@@1@Z 5f52122f f   oledoctg.obj
 0001:00020300       ??1COleCmdUI@@QAE@XZ       5f521300 f i oledoctg.obj
 0001:00020320       ?CreateObject@COleDocIPFrameWnd@@SGPAVCObject@@XZ 5f521320 f   oledocip.obj
 0001:0002038e       ?_GetBaseClass@COleDocIPFrameWnd@@KGPAUCRuntimeClass@@XZ 5f52138e f   oledocip.obj
 0001:00020398       ?GetRuntimeClass@COleDocIPFrameWnd@@UBEPAUCRuntimeClass@@XZ 5f521398 f   oledocip.obj
 0001:000203a8       ?_GetBaseMessageMap@COleDocIPFrameWnd@@KGPBUAFX_MSGMAP@@XZ 5f5213a8 f   oledocip.obj
 0001:000203b2       ?GetMessageMap@COleDocIPFrameWnd@@MBEPBUAFX_MSGMAP@@XZ 5f5213b2 f   oledocip.obj
 0001:000203c2       ??0COleDocIPFrameWnd@@QAE@XZ 5f5213c2 f   oledocip.obj
 0001:000203ee       ??1COleDocIPFrameWnd@@UAE@XZ 5f5213ee f   oledocip.obj
 0001:0002040a       ?OnRequestPositionChange@COleDocIPFrameWnd@@MAEXPBUtagRECT@@@Z 5f52140a f   oledocip.obj
 0001:00020482       ?RecalcLayout@COleDocIPFrameWnd@@MAEXH@Z 5f521482 f   oledocip.obj
 0001:000206dc       ?BuildSharedMenu@COleDocIPFrameWnd@@MAEHXZ 5f5216dc f   oledocip.obj
 0001:000208e4       ?DestroySharedMenu@COleDocIPFrameWnd@@MAEXXZ 5f5218e4 f   oledocip.obj
 0001:00020a64       ?AssertValid@COleDocIPFrameWnd@@UBEXXZ 5f521a64 f   oledocip.obj
 0001:00020a77       ?Dump@COleDocIPFrameWnd@@UBEXAAVCDumpContext@@@Z 5f521a77 f   oledocip.obj
 0001:00020a90       ??_GCOleDocIPFrameWnd@@UAEPAXI@Z 5f521a90 f i oledocip.obj
 0001:00020ac0       ?_GetBaseClass@COleDocObjectItem@@KGPAUCRuntimeClass@@XZ 5f521ac0 f   oledoccl.obj
 0001:00020aca       ?GetRuntimeClass@COleDocObjectItem@@UBEPAUCRuntimeClass@@XZ 5f521aca f   oledoccl.obj
 0001:00020ada       ?_GetBaseInterfaceMap@COleDocObjectItem@@KGPBUAFX_INTERFACEMAP@@XZ 5f521ada f   oledoccl.obj
 0001:00020ae4       ?GetInterfaceMap@COleDocObjectItem@@MBEPBUAFX_INTERFACEMAP@@XZ 5f521ae4 f   oledoccl.obj
 0001:00020af4       ??0COleDocObjectItem@@QAE@PAVCOleDocument@@@Z 5f521af4 f   oledoccl.obj
 0001:00020b82       ??1COleDocObjectItem@@UAE@XZ 5f521b82 f   oledoccl.obj
 0001:00020c16       ?AddRef@XOleDocumentSite@COleDocObjectItem@@UAGKXZ 5f521c16 f   oledoccl.obj
 0001:00020c7f       ?Release@XOleDocumentSite@COleDocObjectItem@@UAGKXZ 5f521c7f f   oledoccl.obj
 0001:00020ce8       ?QueryInterface@XOleDocumentSite@COleDocObjectItem@@UAGJABU_GUID@@PAPAX@Z 5f521ce8 f   oledoccl.obj
 0001:00020d59       ?ActivateMe@XOleDocumentSite@COleDocObjectItem@@UAGJPAUIOleDocumentView@@@Z 5f521d59 f   oledoccl.obj
 0001:0002102e       ?ActivateAndShow@COleDocObjectItem@@IAEXXZ 5f52202e f   oledoccl.obj
 0001:00021088       ?OnGetItemPosition@COleDocObjectItem@@MAEXAAVCRect@@@Z 5f522088 f   oledoccl.obj
 0001:000210fe       ?GetActiveView@COleDocObjectItem@@QBEPAUIOleDocumentView@@XZ 5f5220fe f   oledoccl.obj
 0001:0002110f       ?Release@COleDocObjectItem@@UAEXW4tagOLECLOSE@@@Z 5f52210f f   oledoccl.obj
 0001:00021196       ?ExecCommand@COleDocObjectItem@@QAEJKKPBU_GUID@@@Z 5f522196 f   oledoccl.obj
 0001:00021207       ?SupportsIPrint@COleDocObjectItem@@IAEHXZ 5f522207 f   oledoccl.obj
 0001:000212ab       ?GetPageCount@COleDocObjectItem@@QAEHPAJ0@Z 5f5222ab f   oledoccl.obj
 0001:00021318       ?GetHelpMenu@COleDocObjectItem@@MAEPAVCMenu@@AAI@Z 5f522318 f   oledoccl.obj
 0001:0002135d       ?OnInsertMenus@COleDocObjectItem@@UAEXPAVCMenu@@PAUtagOleMenuGroupWidths@@@Z 5f52235d f   oledoccl.obj
 0001:000215c3       ?OnRemoveMenus@COleDocObjectItem@@UAEXPAVCMenu@@@Z 5f5225c3 f   oledoccl.obj
 0001:0002164d       ?OnPreparePrinting@COleDocObjectItem@@SAHPAVCView@@PAUCPrintInfo@@H@Z 5f52264d f   oledoccl.obj
 0001:000217c1       ?OnPrint@COleDocObjectItem@@SAXPAVCView@@PAUCPrintInfo@@H@Z 5f5227c1 f   oledoccl.obj
 0001:00021a50       ??_ECOleDocObjectItem@@UAEPAXI@Z 5f522a50 f i oledoccl.obj
 0001:00021a50       ??_GCOleDocObjectItem@@UAEPAXI@Z 5f522a50 f i oledoccl.obj
 0001:00021a80       ??0XOleDocumentSite@COleDocObjectItem@@QAE@XZ 5f522a80 f i oledoccl.obj
 0001:00021aa0       ??0?$CIP@UIUnknown@@$1?IID_IUnknown@@3U_GUID@@B@@QAE@PAUIUnknown@@H@Z 5f522aa0 f i oleasmon.obj
 0001:00021ac0       ??B?$CIP@UIUnknown@@$1?IID_IUnknown@@3U_GUID@@B@@QAEPAUIUnknown@@XZ 5f522ac0 f i oleasmon.obj
 0001:00021ae0       ?AddRef@XOleCache@COleControl@@UAGKXZ 5f522ae0 f   ctlcache.obj
 0001:00021afd       ?Release@XOleCache@COleControl@@UAGKXZ 5f522afd f   ctlcache.obj
 0001:00021b1a       ?QueryInterface@XOleCache@COleControl@@UAGJABU_GUID@@PAPAX@Z 5f522b1a f   ctlcache.obj
 0001:00021b3f       ?Cache@XOleCache@COleControl@@UAGJPAUtagFORMATETC@@KPAK@Z 5f522b3f f   ctlcache.obj
 0001:00021b9a       ?Uncache@XOleCache@COleControl@@UAGJK@Z 5f522b9a f   ctlcache.obj
 0001:00021bed       ?EnumCache@XOleCache@COleControl@@UAGJPAPAUIEnumSTATDATA@@@Z 5f522bed f   ctlcache.obj
 0001:00021c40       ?InitCache@XOleCache@COleControl@@UAGJPAUIDataObject@@@Z 5f522c40 f   ctlcache.obj
 0001:00021c93       ?SetData@XOleCache@COleControl@@UAGJPAUtagFORMATETC@@PAUtagSTGMEDIUM@@H@Z 5f522c93 f   ctlcache.obj
 0001:00021cf0       ?_AfxGetParkingWindow@@YGPAUHWND__@@XZ 5f522cf0 f   ctlcore.obj
 0001:00021eb1       ?_AfxReleaseParkingWindow@@YGXXZ 5f522eb1 f   ctlcore.obj
 0001:0002201d       ?_GetBaseInterfaceMap@COleControl@@KGPBUAFX_INTERFACEMAP@@XZ 5f52301d f   ctlcore.obj
 0001:00022027       ?GetInterfaceMap@COleControl@@MBEPBUAFX_INTERFACEMAP@@XZ 5f523027 f   ctlcore.obj
 0001:00022037       ?_GetBaseMessageMap@COleControl@@KGPBUAFX_MSGMAP@@XZ 5f523037 f   ctlcore.obj
 0001:00022041       ?GetMessageMap@COleControl@@MBEPBUAFX_MSGMAP@@XZ 5f523041 f   ctlcore.obj
 0001:00022051       ??0COleControl@@QAE@XZ     5f523051 f   ctlcore.obj
 0001:0002257f       ??1COleControl@@UAE@XZ     5f52357f f   ctlcore.obj
 0001:00022719       ?ReleaseCaches@COleControl@@IAEXXZ 5f523719 f   ctlcore.obj
 0001:00022a9b       ?OnFinalRelease@COleControl@@MAEXXZ 5f523a9b f   ctlcore.obj
 0001:00022af0       ?GetInterfaceHook@COleControl@@MAEPAUIUnknown@@PBX@Z 5f523af0 f   ctlcore.obj
 0001:00022b99       ?SetInitialSize@COleControl@@QAEXHH@Z 5f523b99 f   ctlcore.obj
 0001:00022bdb       ?GetDispatchIID@COleControl@@MAEHPAU_GUID@@@Z 5f523bdb f   ctlcore.obj
 0001:00022c1e       ?InitializeIIDs@COleControl@@QAEXPBU_GUID@@0@Z 5f523c1e f   ctlcore.obj
 0001:00022d83       ?AssertValid@COleControl@@UBEXXZ 5f523d83 f   ctlcore.obj
 0001:00022d96       ?_AfxDumpGuid@@YGXAAVCDumpContext@@PBU_GUID@@@Z 5f523d96 f   ctlcore.obj
 0001:00022e3c       ?_AfxDumpHex@@YGXAAVCDumpContext@@K@Z 5f523e3c f   ctlcore.obj
 0001:00022e6a       ?Dump@COleControl@@UBEXAAVCDumpContext@@@Z 5f523e6a f   ctlcore.obj
 0001:00023139       ?_AfxFillPSOnStack@@YGXXZ  5f524139 f   ctlcore.obj
 0001:000231a9       ?DoSuperclassPaint@COleControl@@QAEXPAVCDC@@ABVCRect@@@Z 5f5241a9 f   ctlcore.obj
 0001:000232f2       ?IsSubclassedControl@COleControl@@UAEHXZ 5f5242f2 f   ctlcore.obj
 0001:00023339       ?CreateControlWindow@COleControl@@MAEHPAUHWND__@@ABVCRect@@PBUtagRECT@@@Z 5f524339 f   ctlcore.obj
 0001:000236db       ?ReparentControlWindow@COleControl@@UAEXPAUHWND__@@0@Z 5f5246db f   ctlcore.obj
 0001:000236f6       ?GetControlSize@COleControl@@QAEXPAH0@Z 5f5246f6 f   ctlcore.obj
 0001:000237a4       ?SetControlSize@COleControl@@QAEHHH@Z 5f5247a4 f   ctlcore.obj
 0001:000237f3       ?SetRectInContainer@COleControl@@QAEHPBUtagRECT@@@Z 5f5247f3 f   ctlcore.obj
 0001:0002387f       ?OnResetState@COleControl@@UAEXXZ 5f52487f f   ctlcore.obj
 0001:000238b2       ?_AfxDrawBorders@@YGXPAVCDC@@AAVCRect@@HH@Z 5f5248b2 f   ctlcore.obj
 0001:00023913       ?DrawContent@COleControl@@IAEXPAVCDC@@AAVCRect@@@Z 5f524913 f   ctlcore.obj
 0001:00023a29       ?DrawMetafile@COleControl@@IAEXPAVCDC@@AAVCRect@@@Z 5f524a29 f   ctlcore.obj
 0001:00023af0       ?OnDraw@COleControl@@UAEXPAVCDC@@ABVCRect@@1@Z 5f524af0 f   ctlcore.obj
 0001:00023afd       ?OnDrawMetafile@COleControl@@UAEXPAVCDC@@ABVCRect@@@Z 5f524afd f   ctlcore.obj
 0001:00023b24       ?GetMetafileData@COleControl@@IAEHPAUtagFORMATETC@@PAUtagSTGMEDIUM@@@Z 5f524b24 f   ctlcore.obj
 0001:00023e03       ?OnCreateAggregates@COleControl@@MAEHXZ 5f524e03 f   ctlcore.obj
 0001:00023e13       ?QueryDefHandler@COleControl@@IAEPAXABU_GUID@@@Z 5f524e13 f   ctlcore.obj
 0001:00023ecd       ?InvalidateControl@COleControl@@QAEXPBUtagRECT@@H@Z 5f524ecd f   ctlcore.obj
 0001:00023ff1       ?GetOuterWindow@COleControl@@IBEPAVCWnd@@XZ 5f524ff1 f   ctlcore.obj
 0001:00024021       ?OnReflectorDestroyed@COleControl@@MAEXXZ 5f525021 f   ctlcore.obj
 0001:00024039       ?SaveState@COleControl@@IAEJPAUIStream@@@Z 5f525039 f   ctlcore.obj
 0001:00024128       ?LoadState@COleControl@@IAEJPAUIStream@@@Z 5f525128 f   ctlcore.obj
 0001:0002428f       ?SendAdvise@COleControl@@IAEXI@Z 5f52528f f   ctlcore.obj
 0001:00024461       ?OnHide@COleControl@@MAEJXZ 5f525461 f   ctlcore.obj
 0001:00024548       ?OnOpen@COleControl@@MAEJHPAUtagMSG@@@Z 5f525548 f   ctlcore.obj
 0001:000246c1       ?CreateFrameWindow@COleControl@@MAEPAVCControlFrameWnd@@XZ 5f5256c1 f   ctlcore.obj
 0001:0002478f       ?OnFrameClose@COleControl@@MAEXXZ 5f52578f f   ctlcore.obj
 0001:0002481d       ?ResizeOpenControl@COleControl@@IAEXHH@Z 5f52581d f   ctlcore.obj
 0001:00024879       ?ResizeFrameWindow@COleControl@@MAEXHH@Z 5f525879 f   ctlcore.obj
 0001:0002491e       ?GetRectInContainer@COleControl@@QAEHPAUtagRECT@@@Z 5f52591e f   ctlcore.obj
 0001:0002495e       ?GetPropPageIDs@COleControl@@MAEPAU_GUID@@AAK@Z 5f52595e f   ctlcore.obj
 0001:00024976       ?OnEdit@COleControl@@UAEHPAUtagMSG@@PAUHWND__@@PBUtagRECT@@@Z 5f525976 f   ctlcore.obj
 0001:000249b6       ?_AfxGetTopLevelWindow@@YGPAUHWND__@@PAU1@@Z 5f5259b6 f   ctlcore.obj
 0001:000249dc       ?OnProperties@COleControl@@UAEHPAUtagMSG@@PAUHWND__@@PBUtagRECT@@@Z 5f5259dc f   ctlcore.obj
 0001:00024b7b       ?GetControlFlags@COleControl@@UAEKXZ 5f525b7b f   ctlcore.obj
 0001:00024b8b       ?OnPaint@COleControl@@IAEXPAVCDC@@@Z 5f525b8b f   ctlcore.obj
 0001:00024d95       ?OnEraseBkgnd@COleControl@@IAEHPAVCDC@@@Z 5f525d95 f   ctlcore.obj
 0001:00024dc7       ?Serialize@COleControl@@MAEXAAVCArchive@@@Z 5f525dc7 f   ctlcore.obj
 0001:00024e16       ?DoPropExchange@COleControl@@UAEXPAVCPropExchange@@@Z 5f525e16 f   ctlcore.obj
 0001:00024e72       ?ControlInfoChanged@COleControl@@QAEXXZ 5f525e72 f   ctlcore.obj
 0001:00024ea1       ?LockInPlaceActive@COleControl@@QAEHH@Z 5f525ea1 f   ctlcore.obj
 0001:00024ee3       ?GetExtendedControl@COleControl@@QAEPAUIDispatch@@XZ 5f525ee3 f   ctlcore.obj
 0001:00024f22       ?TransformCoords@COleControl@@QAEXPAU_POINTL@@PAUtagPOINTF@@K@Z 5f525f22 f   ctlcore.obj
 0001:00024fa5       ?AddRef@XOleControl@COleControl@@UAGKXZ 5f525fa5 f   ctlcore.obj
 0001:00024fc2       ?Release@XOleControl@COleControl@@UAGKXZ 5f525fc2 f   ctlcore.obj
 0001:00024fdf       ?QueryInterface@XOleControl@COleControl@@UAGJABU_GUID@@PAPAX@Z 5f525fdf f   ctlcore.obj
 0001:00025004       ?GetControlInfo@XOleControl@COleControl@@UAGJPAUtagCONTROLINFO@@@Z 5f526004 f   ctlcore.obj
 0001:0002507b       ?OnMnemonic@XOleControl@COleControl@@UAGJPAUtagMSG@@@Z 5f52607b f   ctlcore.obj
 0001:000250f2       ?OnAmbientPropertyChange@XOleControl@COleControl@@UAGJJ@Z 5f5260f2 f   ctlcore.obj
 0001:000251ab       ?FreezeEvents@XOleControl@COleControl@@UAGJH@Z 5f5261ab f   ctlcore.obj
 0001:00025291       ?OnGetControlInfo@COleControl@@UAEXPAUtagCONTROLINFO@@@Z 5f526291 f   ctlcore.obj
 0001:000252bb       ?OnMnemonic@COleControl@@UAEXPAUtagMSG@@@Z 5f5262bb f   ctlcore.obj
 0001:000252c8       ?OnAmbientPropertyChange@COleControl@@UAEXJ@Z 5f5262c8 f   ctlcore.obj
 0001:000252d5       ?OnFreezeEvents@COleControl@@UAEXH@Z 5f5262d5 f   ctlcore.obj
 0001:000252e2       ?OnSetClientSite@COleControl@@UAEXXZ 5f5262e2 f   ctlcore.obj
 0001:0002532c       ?GetClientSite@COleControl@@QAEPAUIOleClientSite@@XZ 5f52632c f   ctlcore.obj
 0001:00025340       ?TranslateColor@COleControl@@QAEKKPAUHPALETTE__@@@Z 5f526340 f   ctlcore.obj
 0001:0002536b       ?Refresh@COleControl@@QAEXXZ 5f52636b f   ctlcore.obj
 0001:00025393       ?DoClick@COleControl@@QAEXXZ 5f526393 f   ctlcore.obj
 0001:000253ae       ?OnNcCreate@COleControl@@IAEHPAUtagCREATESTRUCTA@@@Z 5f5263ae f   ctlcore.obj
 0001:000253e5       ?RecreateControlWindow@COleControl@@QAEXXZ 5f5263e5 f   ctlcore.obj
 0001:00025502       ?CreateWindowForSubclassedControl@COleControl@@IAEXXZ 5f526502 f   ctlcore.obj
 0001:0002558b       ?OnMouseActivate@COleControl@@IAEHPAVCWnd@@II@Z 5f52658b f   ctlcore.obj
 0001:000255e7       ?PreModalDialog@COleControl@@QAEXPAUHWND__@@@Z 5f5265e7 f   ctlcore.obj
 0001:0002563c       ?PostModalDialog@COleControl@@QAEXPAUHWND__@@@Z 5f52663c f   ctlcore.obj
 0001:00025691       ?SetModifiedFlag@COleControl@@QAEXH@Z 5f526691 f   ctlcore.obj
 0001:000256c3       ?IsModified@COleControl@@QAEHXZ 5f5266c3 f   ctlcore.obj
 0001:000256dd       ?WillAmbientsBeValidDuringLoad@COleControl@@QAEHXZ 5f5266dd f   ctlcore.obj
 0001:000256f7       ?EnableSimpleFrame@COleControl@@QAEXXZ 5f5266f7 f   ctlcore.obj
 0001:0002571a       ?IgnoreWindowMessage@COleControl@@IAEHIIJPAJ@Z 5f52671a f   ctlcore.obj
 0001:000257b7       ?WindowProc@COleControl@@UAEJIIJ@Z 5f5267b7 f   ctlcore.obj
 0001:00025a98       ?DefWindowProcA@COleControl@@MAEJIIJ@Z 5f526a98 f   ctlcore.obj
 0001:00025ac6       ?OnCreate@COleControl@@IAEHPAUtagCREATESTRUCTA@@@Z 5f526ac6 f   ctlcore.obj
 0001:00025af5       ?OnSize@COleControl@@IAEXIHH@Z 5f526af5 f   ctlcore.obj
 0001:00025b28       ?OnMove@COleControl@@IAEXHH@Z 5f526b28 f   ctlcore.obj
 0001:00025b57       ?OnShowWindow@COleControl@@IAEXHI@Z 5f526b57 f   ctlcore.obj
 0001:00025b86       ?OnInitMenuPopup@COleControl@@IAEXPAVCMenu@@IH@Z 5f526b86 f   ctlcore.obj
 0001:00025dba       ?OnMenuSelect@COleControl@@IAEXIIPAUHMENU__@@@Z 5f526dba f   ctlcore.obj
 0001:00025f0b       ?GetMessageString@COleControl@@UBEXIAAVCString@@@Z 5f526f0b f   ctlcore.obj
 0001:00025f7a       ?OnSetMessageString@COleControl@@IAEJIJ@Z 5f526f7a f   ctlcore.obj
 0001:000260e5       ?OnEnterIdle@COleControl@@IAEXIPAVCWnd@@@Z 5f5270e5 f   ctlcore.obj
 0001:0002615b       ?AddRef@XSpecifyPropertyPages@COleControl@@UAGKXZ 5f52715b f   ctlcore.obj
 0001:00026178       ?Release@XSpecifyPropertyPages@COleControl@@UAGKXZ 5f527178 f   ctlcore.obj
 0001:00026195       ?QueryInterface@XSpecifyPropertyPages@COleControl@@UAGJABU_GUID@@PAPAX@Z 5f527195 f   ctlcore.obj
 0001:000261ba       ?GetPages@XSpecifyPropertyPages@COleControl@@UAGJPAUtagCAUUID@@@Z 5f5271ba f   ctlcore.obj
 0001:0002631c       ?OnDestroy@COleControl@@IAEXXZ 5f52731c f   ctlcore.obj
 0001:0002637b       ?OnKillFocus@COleControl@@IAEXPAVCWnd@@@Z 5f52737b f   ctlcore.obj
 0001:000263ba       ?OnSetFocus@COleControl@@IAEXPAVCWnd@@@Z 5f5273ba f   ctlcore.obj
 0001:000263f9       ?OnOcmCtlColorBtn@COleControl@@IAEJIJ@Z 5f5273f9 f   ctlcore.obj
 0001:00026420       ?OnOcmCtlColorDlg@COleControl@@IAEJIJ@Z 5f527420 f   ctlcore.obj
 0001:00026447       ?OnOcmCtlColorEdit@COleControl@@IAEJIJ@Z 5f527447 f   ctlcore.obj
 0001:0002646e       ?OnOcmCtlColorListBox@COleControl@@IAEJIJ@Z 5f52746e f   ctlcore.obj
 0001:00026495       ?OnOcmCtlColorMsgBox@COleControl@@IAEJIJ@Z 5f527495 f   ctlcore.obj
 0001:000264bc       ?OnOcmCtlColorScrollBar@COleControl@@IAEJIJ@Z 5f5274bc f   ctlcore.obj
 0001:000264e3       ?OnOcmCtlColorStatic@COleControl@@IAEJIJ@Z 5f5274e3 f   ctlcore.obj
 0001:0002650a       ?ThrowError@COleControl@@QAEXJII@Z 5f52750a f   ctlcore.obj
 0001:0002655a       ?ThrowError@COleControl@@QAEXJPBDI@Z 5f52755a f   ctlcore.obj
 0001:000265f7       ?IsInvokeAllowed@COleControl@@MAEHJ@Z 5f5275f7 f   ctlcore.obj
 0001:00026620       ??_ECOleControl@@UAEPAXI@Z 5f527620 f i ctlcore.obj
 0001:00026620       ??_GCOleControl@@UAEPAXI@Z 5f527620 f i ctlcore.obj
 0001:00026650       ??0XPersistStorage@COleControl@@QAE@XZ 5f527650 f i ctlcore.obj
 0001:00026670       ??0XPersistStreamInit@COleControl@@QAE@XZ 5f527670 f i ctlcore.obj
 0001:00026690       ??0XPersistMemory@COleControl@@QAE@XZ 5f527690 f i ctlcore.obj
 0001:000266b0       ??0XPersistPropertyBag@COleControl@@QAE@XZ 5f5276b0 f i ctlcore.obj
 0001:000266d0       ??0XOleObject@COleControl@@QAE@XZ 5f5276d0 f i ctlcore.obj
 0001:000266f0       ??0XViewObject@COleControl@@QAE@XZ 5f5276f0 f i ctlcore.obj
 0001:00026710       ??0XDataObject@COleControl@@QAE@XZ 5f527710 f i ctlcore.obj
 0001:00026730       ??0XOleInPlaceObject@COleControl@@QAE@XZ 5f527730 f i ctlcore.obj
 0001:00026750       ??0XOleInPlaceActiveObject@COleControl@@QAE@XZ 5f527750 f i ctlcore.obj
 0001:00026770       ??0XOleCache@COleControl@@QAE@XZ 5f527770 f i ctlcore.obj
 0001:00026790       ??0XOleControl@COleControl@@QAE@XZ 5f527790 f i ctlcore.obj
 0001:000267b0       ??0XProvideClassInfo@COleControl@@QAE@XZ 5f5277b0 f i ctlcore.obj
 0001:000267d0       ??0XSpecifyPropertyPages@COleControl@@QAE@XZ 5f5277d0 f i ctlcore.obj
 0001:000267f0       ??0XPerPropertyBrowsing@COleControl@@QAE@XZ 5f5277f0 f i ctlcore.obj
 0001:00026810       ??0XFontNotification@COleControl@@QAE@XZ 5f527810 f i ctlcore.obj
 0001:00026830       ??0XQuickActivate@COleControl@@QAE@XZ 5f527830 f i ctlcore.obj
 0001:00026850       ??0XPointerInactive@COleControl@@QAE@XZ 5f527850 f i ctlcore.obj
 0001:00026870       ??0IPersistStreamInit@@QAE@XZ 5f527870 f i ctlcore.obj
 0001:00026870       ??0IPersistMemory@@QAE@XZ  5f527870 f i ctlcore.obj
 0001:00026870       ??0IPersistPropertyBag@@QAE@XZ 5f527870 f i ctlcore.obj
 0001:00026870       ??0IPersistStream@@QAE@XZ  5f527870 f i ctlcore.obj
 0001:00026890       ??0IViewObjectEx@@QAE@XZ   5f527890 f i ctlcore.obj
 0001:000268b0       ??0IOleInPlaceObjectWindowless@@QAE@XZ 5f5278b0 f i ctlcore.obj
 0001:000268d0       ??0IPointerInactive@@QAE@XZ 5f5278d0 f i ctlcore.obj
 0001:000268d0       ??0IProvideClassInfo@@QAE@XZ 5f5278d0 f i ctlcore.obj
 0001:000268d0       ??0IPerPropertyBrowsing@@QAE@XZ 5f5278d0 f i ctlcore.obj
 0001:000268d0       ??0IOleDocumentSite@@QAE@XZ 5f5278d0 f i ctlcore.obj
 0001:000268d0       ??0IPropertyNotifySink@@QAE@XZ 5f5278d0 f i ctlcore.obj
 0001:000268d0       ??0IOleControlSite@@QAE@XZ 5f5278d0 f i ctlcore.obj
 0001:000268d0       ??0IConnectionPointContainer@@QAE@XZ 5f5278d0 f i ctlcore.obj
 0001:000268d0       ??0IOleDocumentView@@QAE@XZ 5f5278d0 f i ctlcore.obj
 0001:000268d0       ??0IPropertyPage@@QAE@XZ   5f5278d0 f i ctlcore.obj
 0001:000268d0       ??0ISpecifyPropertyPages@@QAE@XZ 5f5278d0 f i ctlcore.obj
 0001:000268d0       ??0IOleDocument@@QAE@XZ    5f5278d0 f i ctlcore.obj
 0001:000268d0       ??0IPrint@@QAE@XZ          5f5278d0 f i ctlcore.obj
 0001:000268d0       ??0IQuickActivate@@QAE@XZ  5f5278d0 f i ctlcore.obj
 0001:000268d0       ??0IViewObject@@QAE@XZ     5f5278d0 f i ctlcore.obj
 0001:000268d0       ??0IOleCache@@QAE@XZ       5f5278d0 f i ctlcore.obj
 0001:000268d0       ??0IConnectionPoint@@QAE@XZ 5f5278d0 f i ctlcore.obj
 0001:000268d0       ??0IOleControl@@QAE@XZ     5f5278d0 f i ctlcore.obj
 0001:000268f0       ??0IProvideClassInfo2@@QAE@XZ 5f5278f0 f i ctlcore.obj
 0001:000268f0       ??0IPropertyPage2@@QAE@XZ  5f5278f0 f i ctlcore.obj
 0001:000268f0       ??0IViewObject2@@QAE@XZ    5f5278f0 f i ctlcore.obj
 0001:00026910       ??0XEventConnPt@COleControl@@QAE@XZ 5f527910 f i ctlcore.obj
 0001:00026940       ??0XPropConnPt@COleControl@@QAE@XZ 5f527940 f i ctlcore.obj
 0001:00026970       ?GetIID@XPropConnPt@COleControl@@UAEABU_GUID@@XZ 5f527970 f i ctlcore.obj
 0001:00026980       ??_GXEventConnPt@COleControl@@UAEPAXI@Z 5f527980 f i ctlcore.obj
 0001:00026980       ??_EXPropConnPt@COleControl@@UAEPAXI@Z 5f527980 f i ctlcore.obj
 0001:00026980       ??_GXPropConnPt@COleControl@@UAEPAXI@Z 5f527980 f i ctlcore.obj
 0001:00026980       ??_EXEventConnPt@COleControl@@UAEPAXI@Z 5f527980 f i ctlcore.obj
 0001:000269b0       ??1XEventConnPt@COleControl@@UAE@XZ 5f5279b0 f i ctlcore.obj
 0001:000269b0       ??1XPropConnPt@COleControl@@UAE@XZ 5f5279b0 f i ctlcore.obj
 0001:000269d0       ?_AfxIsEqualGUID@@YAHABU_GUID@@0@Z 5f5279d0 f i ctlcore.obj
 0001:00026a30       ??0CReflectorWnd@@QAE@XZ   5f527a30 f i ctlcore.obj
 0001:00026a60       ??_ECControlFrameWnd@@UAEPAXI@Z 5f527a60 f i ctlcore.obj
 0001:00026a60       ??_ECReflectorWnd@@UAEPAXI@Z 5f527a60 f i ctlcore.obj
 0001:00026a60       ??_GCReflectorWnd@@UAEPAXI@Z 5f527a60 f i ctlcore.obj
 0001:00026a60       ??_GCControlFrameWnd@@UAEPAXI@Z 5f527a60 f i ctlcore.obj
 0001:00026a90       ??0CParkingWnd@@QAE@XZ     5f527a90 f i ctlcore.obj
 0001:00026b30       ??_GCParkingWnd@@UAEPAXI@Z 5f527b30 f i ctlcore.obj
 0001:00026b30       ??_ECParkingWnd@@UAEPAXI@Z 5f527b30 f i ctlcore.obj
 0001:00026b60       ??1CParkingWnd@@UAE@XZ     5f527b60 f i ctlcore.obj
 0001:00026bb0       ?_GetBaseConnectionMap@COleControl@@KGPBUAFX_CONNECTIONMAP@@XZ 5f527bb0 f   ctlconn.obj
 0001:00026bba       ?GetConnectionMap@COleControl@@MBEPBUAFX_CONNECTIONMAP@@XZ 5f527bba f   ctlconn.obj
 0001:00026bca       ?GetConnectionHook@COleControl@@MAEPAUIConnectionPoint@@ABU_GUID@@@Z 5f527bca f   ctlconn.obj
 0001:00026c03       ?GetExtraConnectionPoints@COleControl@@MAEHPAVCPtrArray@@@Z 5f527c03 f   ctlconn.obj
 0001:00026c26       ?AddRef@XProvideClassInfo@COleControl@@UAGKXZ 5f527c26 f   ctlconn.obj
 0001:00026c43       ?Release@XProvideClassInfo@COleControl@@UAGKXZ 5f527c43 f   ctlconn.obj
 0001:00026c60       ?QueryInterface@XProvideClassInfo@COleControl@@UAGJABU_GUID@@PAPAX@Z 5f527c60 f   ctlconn.obj
 0001:00026c85       ?GetClassInfoA@XProvideClassInfo@COleControl@@UAGJPAPAUITypeInfo@@@Z 5f527c85 f   ctlconn.obj
 0001:00026d0f       ?GetGUID@XProvideClassInfo@COleControl@@UAGJKPAU_GUID@@@Z 5f527d0f f   ctlconn.obj
 0001:00026d78       ?OnAdvise@XEventConnPt@COleControl@@UAEXH@Z 5f527d78 f   ctlconn.obj
 0001:00026de8       ?GetIID@XEventConnPt@COleControl@@UAEABU_GUID@@XZ 5f527de8 f   ctlconn.obj
 0001:00026e16       ?QuerySinkInterface@XEventConnPt@COleControl@@UAEPAUIUnknown@@PAU3@@Z 5f527e16 f   ctlconn.obj
 0001:00026e68       ?OnEventAdvise@COleControl@@UAEXH@Z 5f527e68 f   ctlconn.obj
 0001:00026e75       ?AfxConnectionAdvise@@YGHPAUIUnknown@@ABU_GUID@@0HPAK@Z 5f527e75 f   ctlconn.obj
 0001:00027009       ?AfxConnectionUnadvise@@YGHPAUIUnknown@@ABU_GUID@@0HK@Z 5f528009 f   ctlconn.obj
 0001:00027180       ?_AfxRegisterClipFormat@@YGGABU_GUID@@@Z 5f528180 f   ctldata.obj
 0001:0002720a       ?_AfxGetClipboardFormatConvertVBX@@YGGXZ 5f52820a f   ctldata.obj
 0001:0002725b       ?_AfxGetClipboardFormatPersistPropset@@YGGXZ 5f52825b f   ctldata.obj
 0001:000272ac       ?_AfxOleMatchPropsetClipFormat@@YGHGPAU_GUID@@@Z 5f5282ac f   ctldata.obj
 0001:0002733f       ?AddRef@XDataObject@COleControl@@UAGKXZ 5f52833f f   ctldata.obj
 0001:0002735c       ?Release@XDataObject@COleControl@@UAGKXZ 5f52835c f   ctldata.obj
 0001:00027379       ?QueryInterface@XDataObject@COleControl@@UAGJABU_GUID@@PAPAX@Z 5f528379 f   ctldata.obj
 0001:0002739e       ?GetData@XDataObject@COleControl@@UAGJPAUtagFORMATETC@@PAUtagSTGMEDIUM@@@Z 5f52839e f   ctldata.obj
 0001:000273e5       ?GetDataHere@XDataObject@COleControl@@UAGJPAUtagFORMATETC@@PAUtagSTGMEDIUM@@@Z 5f5283e5 f   ctldata.obj
 0001:0002742c       ?QueryGetData@XDataObject@COleControl@@UAGJPAUtagFORMATETC@@@Z 5f52842c f   ctldata.obj
 0001:0002746f       ?GetCanonicalFormatEtc@XDataObject@COleControl@@UAGJPAUtagFORMATETC@@0@Z 5f52846f f   ctldata.obj
 0001:000274b6       ?SetData@XDataObject@COleControl@@UAGJPAUtagFORMATETC@@PAUtagSTGMEDIUM@@H@Z 5f5284b6 f   ctldata.obj
 0001:00027501       ?EnumFormatEtc@XDataObject@COleControl@@UAGJKPAPAUIEnumFORMATETC@@@Z 5f528501 f   ctldata.obj
 0001:00027548       ?DAdvise@XDataObject@COleControl@@UAGJPAUtagFORMATETC@@KPAUIAdviseSink@@PAK@Z 5f528548 f   ctldata.obj
 0001:000275e4       ?DUnadvise@XDataObject@COleControl@@UAGJK@Z 5f5285e4 f   ctldata.obj
 0001:00027654       ?EnumDAdvise@XDataObject@COleControl@@UAGJPAPAUIEnumSTATDATA@@@Z 5f528654 f   ctldata.obj
 0001:000276cd       ??0CControlDataSource@COleControl@@QAE@PAV1@@Z 5f5286cd f   ctldata.obj
 0001:00027701       ?OnRenderGlobalData@CControlDataSource@COleControl@@MAEHPAUtagFORMATETC@@PAPAX@Z 5f528701 f   ctldata.obj
 0001:0002773d       ?OnRenderFileData@CControlDataSource@COleControl@@MAEHPAUtagFORMATETC@@PAVCFile@@@Z 5f52873d f   ctldata.obj
 0001:00027779       ?OnRenderData@CControlDataSource@COleControl@@MAEHPAUtagFORMATETC@@PAUtagSTGMEDIUM@@@Z 5f528779 f   ctldata.obj
 0001:000277d0       ?OnSetData@CControlDataSource@COleControl@@MAEHPAUtagFORMATETC@@PAUtagSTGMEDIUM@@H@Z 5f5287d0 f   ctldata.obj
 0001:00027810       ?OnRenderGlobalData@COleControl@@UAEHPAUtagFORMATETC@@PAPAX@Z 5f528810 f   ctldata.obj
 0001:0002788e       ?OnRenderFileData@COleControl@@UAEHPAUtagFORMATETC@@PAVCFile@@@Z 5f52888e f   ctldata.obj
 0001:000278f4       ?OnRenderData@COleControl@@UAEHPAUtagFORMATETC@@PAUtagSTGMEDIUM@@@Z 5f5288f4 f   ctldata.obj
 0001:000279ca       ?OnSetData@COleControl@@UAEHPAUtagFORMATETC@@PAUtagSTGMEDIUM@@H@Z 5f5289ca f   ctldata.obj
 0001:00027a93       ?GetDataSource@COleControl@@IAEPAVCControlDataSource@1@XZ 5f528a93 f   ctldata.obj
 0001:00027be0       ?SetInitialDataFormats@COleControl@@MAEXXZ 5f528be0 f   ctldata.obj
 0001:00027c90       ??_ECControlDataSource@COleControl@@UAEPAXI@Z 5f528c90 f i ctldata.obj
 0001:00027c90       ??_GCControlDataSource@COleControl@@UAEPAXI@Z 5f528c90 f i ctldata.obj
 0001:00027cc0       ??1CControlDataSource@COleControl@@UAE@XZ 5f528cc0 f i ctldata.obj
 0001:00027ce0       ?InitStockEventMask@COleControl@@IAEXXZ 5f528ce0 f   ctlevent.obj
 0001:00027ddb       ?GetEventMap@COleControl@@MBEPBUAFX_EVENTMAP@@XZ 5f528ddb f   ctlevent.obj
 0001:00027deb       ?GetEventMapEntry@COleControl@@IBEPBUAFX_EVENTMAP_ENTRY@@PBDPAJ@Z 5f528deb f   ctlevent.obj
 0001:00027eef       ?FireEventV@COleControl@@IAEXJPAEPAD@Z 5f528eef f   ctlevent.obj
 0001:00028011       ?FireEvent@COleControl@@QAAXJPAEZZ 5f529011 f   ctlevent.obj
 0001:0002803a       ?_AfxShiftState@@YGFXZ     5f52903a f   ctlevent.obj
 0001:00028092       ?OnSysKeyDown@COleControl@@IAEXIII@Z 5f529092 f   ctlevent.obj
 0001:00028109       ?OnSysKeyUp@COleControl@@IAEXIII@Z 5f529109 f   ctlevent.obj
 0001:00028180       ?OnKeyDown@COleControl@@IAEXIII@Z 5f529180 f   ctlevent.obj
 0001:000281f7       ?OnKeyUp@COleControl@@IAEXIII@Z 5f5291f7 f   ctlevent.obj
 0001:0002826e       ?KeyUp@COleControl@@IAEXPAG@Z 5f52926e f   ctlevent.obj
 0001:000282cc       ?KeyDown@COleControl@@IAEXPAG@Z 5f5292cc f   ctlevent.obj
 0001:0002832a       ?_AfxPostTrailByte@@YGXPAVCWnd@@E@Z 5f52932a f   ctlevent.obj
 0001:000283e4       ?OnGetDlgCode@COleControl@@IAEIXZ 5f5293e4 f   ctlevent.obj
 0001:00028430       ?OnChar@COleControl@@IAEXIII@Z 5f529430 f   ctlevent.obj
 0001:00028712       ?OnKeyPressEvent@COleControl@@UAEXG@Z 5f529712 f   ctlevent.obj
 0001:0002871f       ?OnKeyDownEvent@COleControl@@UAEXGG@Z 5f52971f f   ctlevent.obj
 0001:0002872c       ?OnKeyUpEvent@COleControl@@UAEXGG@Z 5f52972c f   ctlevent.obj
 0001:00028739       ?ButtonDown@COleControl@@IAEXGIVCPoint@@@Z 5f529739 f   ctlevent.obj
 0001:00028827       ?ButtonUp@COleControl@@IAEXGIVCPoint@@@Z 5f529827 f   ctlevent.obj
 0001:00028984       ?ButtonDblClk@COleControl@@IAEXGIVCPoint@@@Z 5f529984 f   ctlevent.obj
 0001:00028a37       ?OnMouseMove@COleControl@@IAEXIVCPoint@@@Z 5f529a37 f   ctlevent.obj
 0001:00028a99       ?OnLButtonDown@COleControl@@IAEXIVCPoint@@@Z 5f529a99 f   ctlevent.obj
 0001:00028abc       ?OnLButtonUp@COleControl@@IAEXIVCPoint@@@Z 5f529abc f   ctlevent.obj
 0001:00028adf       ?OnLButtonDblClk@COleControl@@IAEXIVCPoint@@@Z 5f529adf f   ctlevent.obj
 0001:00028b02       ?OnMButtonDown@COleControl@@IAEXIVCPoint@@@Z 5f529b02 f   ctlevent.obj
 0001:00028b25       ?OnMButtonUp@COleControl@@IAEXIVCPoint@@@Z 5f529b25 f   ctlevent.obj
 0001:00028b48       ?OnMButtonDblClk@COleControl@@IAEXIVCPoint@@@Z 5f529b48 f   ctlevent.obj
 0001:00028b6b       ?OnRButtonDown@COleControl@@IAEXIVCPoint@@@Z 5f529b6b f   ctlevent.obj
 0001:00028b8e       ?OnRButtonUp@COleControl@@IAEXIVCPoint@@@Z 5f529b8e f   ctlevent.obj
 0001:00028bb1       ?OnRButtonDblClk@COleControl@@IAEXIVCPoint@@@Z 5f529bb1 f   ctlevent.obj
 0001:00028bd4       ?OnButtonDown@COleControl@@IAEXGIVCPoint@@@Z 5f529bd4 f   ctlevent.obj
 0001:00028c30       ?OnButtonUp@COleControl@@IAEXGIVCPoint@@@Z 5f529c30 f   ctlevent.obj
 0001:00028d02       ?OnButtonDblClk@COleControl@@IAEXGIVCPoint@@@Z 5f529d02 f   ctlevent.obj
 0001:00028d48       ?OnCancelMode@COleControl@@IAEXXZ 5f529d48 f   ctlevent.obj
 0001:00028db6       ?OnClick@COleControl@@UAEXG@Z 5f529db6 f   ctlevent.obj
 0001:00028dda       ?FireError@COleControl@@QAEXJPBDI@Z 5f529dda f   ctlevent.obj
 0001:00028f61       ?DisplayError@COleControl@@UAEXJPBD00I@Z 5f529f61 f   ctlevent.obj
 0001:00028f80       ?_GetBaseMessageMap@CControlFrameWnd@@KGPBUAFX_MSGMAP@@XZ 5f529f80 f   ctlframe.obj
 0001:00028f8a       ?GetMessageMap@CControlFrameWnd@@MBEPBUAFX_MSGMAP@@XZ 5f529f8a f   ctlframe.obj
 0001:00028f9a       ??0CControlFrameWnd@@QAE@PAVCOleControl@@@Z 5f529f9a f   ctlframe.obj
 0001:00028fc4       ?PreCreateWindow@CControlFrameWnd@@UAEHAAUtagCREATESTRUCTA@@@Z 5f529fc4 f   ctlframe.obj
 0001:00029011       ?Create@CControlFrameWnd@@UAEHPBD@Z 5f52a011 f   ctlframe.obj
 0001:0002906c       ?OnClose@CControlFrameWnd@@IAEXXZ 5f52a06c f   ctlframe.obj
 0001:00029096       ?PostNcDestroy@CControlFrameWnd@@MAEXXZ 5f52a096 f   ctlframe.obj
 0001:000290ce       ?OnActivate@CControlFrameWnd@@IAEXIPAVCWnd@@H@Z 5f52a0ce f   ctlframe.obj
 0001:00029100       ??1CControlFrameWnd@@UAE@XZ 5f52a100 f i ctlframe.obj
 0001:00029100       ??1CReflectorWnd@@UAE@XZ   5f52a100 f i ctlframe.obj
 0001:00029120       ??0CFontHolder@@QAE@PAUIPropertyNotifySink@@@Z 5f52a120 f   ctlfont.obj
 0001:00029180       ?SetFontNotifySink@CFontHolder@@QAEXPAUIPropertyNotifySink@@@Z 5f52a180 f   ctlfont.obj
 0001:000291ca       ??1CFontHolder@@QAE@XZ     5f52a1ca f   ctlfont.obj
 0001:000291dd       ?ReleaseFont@CFontHolder@@QAEXXZ 5f52a1dd f   ctlfont.obj
 0001:00029240       ?InitializeFont@CFontHolder@@QAEXPBUtagFONTDESC@@PAUIDispatch@@@Z 5f52a240 f   ctlfont.obj
 0001:0002938c       ?_AfxIsSameFont@@YGHAAVCFontHolder@@PBUtagFONTDESC@@PAUIFontDisp@@@Z 5f52a38c f   ctlfont.obj
 0001:000295eb       ?GetFontHandle@CFontHolder@@QAEPAUHFONT__@@XZ 5f52a5eb f   ctlfont.obj
 0001:0002960c       ?GetFontHandle@CFontHolder@@QAEPAUHFONT__@@JJ@Z 5f52a60c f   ctlfont.obj
 0001:00029687       ?Select@CFontHolder@@QAEPAVCFont@@PAVCDC@@JJ@Z 5f52a687 f   ctlfont.obj
 0001:00029738       ?QueryTextMetrics@CFontHolder@@QAEXPAUtagTEXTMETRICA@@@Z 5f52a738 f   ctlfont.obj
 0001:000297a8       ?GetFontDispatch@CFontHolder@@QAEPAUIFontDisp@@XZ 5f52a7a8 f   ctlfont.obj
 0001:0002981a       ?SetFont@CFontHolder@@QAEXPAUIFont@@@Z 5f52a81a f   ctlfont.obj
 0001:0002989f       ?GetDisplayString@CFontHolder@@QAEHAAVCString@@@Z 5f52a89f f   ctlfont.obj
 0001:000298c0       ??0_AFXCTL_UIACTIVE_INFO@@QAE@PAUHMENU__@@PAUIOleInPlaceFrame@@@Z 5f52a8c0 f   ctlinplc.obj
 0001:000299e7       ??1_AFXCTL_UIACTIVE_INFO@@QAE@XZ 5f52a9e7 f   ctlinplc.obj
 0001:00029a3f       ?_GetClippingCoordinates@@YGXPBUtagRECT@@0PAU1@PAUtagPOINT@@@Z 5f52aa3f f   ctlinplc.obj
 0001:00029af3       ?OnActivateInPlace@COleControl@@MAEJHPAUtagMSG@@@Z 5f52aaf3 f   ctlinplc.obj
 0001:0002a26b       ?ForwardActivationMsg@COleControl@@IAEXPAUtagMSG@@@Z 5f52b26b f   ctlinplc.obj
 0001:0002a391       ?OnGetInPlaceMenu@COleControl@@UAEPAUHMENU__@@XZ 5f52b391 f   ctlinplc.obj
 0001:0002a39e       ?BuildSharedMenu@COleControl@@MAEHXZ 5f52b39e f   ctlinplc.obj
 0001:0002a523       ?DestroySharedMenu@COleControl@@MAEXXZ 5f52b523 f   ctlinplc.obj
 0001:0002a65e       ?AddFrameLevelUI@COleControl@@MAEXXZ 5f52b65e f   ctlinplc.obj
 0001:0002a6ea       ?RemoveFrameLevelUI@COleControl@@MAEXXZ 5f52b6ea f   ctlinplc.obj
 0001:0002a7b8       ?OnShowToolBars@COleControl@@UAEXXZ 5f52b7b8 f   ctlinplc.obj
 0001:0002a7dd       ?OnHideToolBars@COleControl@@UAEXXZ 5f52b7dd f   ctlinplc.obj
 0001:0002a7e8       ?AddRef@XOleInPlaceObject@COleControl@@UAGKXZ 5f52b7e8 f   ctlinplc.obj
 0001:0002a805       ?Release@XOleInPlaceObject@COleControl@@UAGKXZ 5f52b805 f   ctlinplc.obj
 0001:0002a822       ?QueryInterface@XOleInPlaceObject@COleControl@@UAGJABU_GUID@@PAPAX@Z 5f52b822 f   ctlinplc.obj
 0001:0002a847       ?GetWindow@XOleInPlaceObject@COleControl@@UAGJPAPAUHWND__@@@Z 5f52b847 f   ctlinplc.obj
 0001:0002a8a3       ?ContextSensitiveHelp@XOleInPlaceObject@COleControl@@UAGJH@Z 5f52b8a3 f   ctlinplc.obj
 0001:0002a8af       ?InPlaceDeactivate@XOleInPlaceObject@COleControl@@UAGJXZ 5f52b8af f   ctlinplc.obj
 0001:0002aa0c       ?UIDeactivate@XOleInPlaceObject@COleControl@@UAGJXZ 5f52ba0c f   ctlinplc.obj
 0001:0002ab4e       ?SetObjectRects@XOleInPlaceObject@COleControl@@UAGJPBUtagRECT@@0@Z 5f52bb4e f   ctlinplc.obj
 0001:0002abd3       ?OnSetObjectRects@COleControl@@UAEHPBUtagRECT@@0@Z 5f52bbd3 f   ctlinplc.obj
 0001:0002ad8c       ?ReactivateAndUndo@XOleInPlaceObject@COleControl@@UAGJXZ 5f52bd8c f   ctlinplc.obj
 0001:0002ad98       ?AddRef@XOleInPlaceActiveObject@COleControl@@UAGKXZ 5f52bd98 f   ctlinplc.obj
 0001:0002adb5       ?Release@XOleInPlaceActiveObject@COleControl@@UAGKXZ 5f52bdb5 f   ctlinplc.obj
 0001:0002add2       ?QueryInterface@XOleInPlaceActiveObject@COleControl@@UAGJABU_GUID@@PAPAX@Z 5f52bdd2 f   ctlinplc.obj
 0001:0002adf7       ?GetWindow@XOleInPlaceActiveObject@COleControl@@UAGJPAPAUHWND__@@@Z 5f52bdf7 f   ctlinplc.obj
 0001:0002ae26       ?ContextSensitiveHelp@XOleInPlaceActiveObject@COleControl@@UAGJH@Z 5f52be26 f   ctlinplc.obj
 0001:0002ae32       ?TranslateAcceleratorA@XOleInPlaceActiveObject@COleControl@@UAGJPAUtagMSG@@@Z 5f52be32 f   ctlinplc.obj
 0001:0002af02       ?OnFrameWindowActivate@XOleInPlaceActiveObject@COleControl@@UAGJH@Z 5f52bf02 f   ctlinplc.obj
 0001:0002af0b       ?OnDocWindowActivate@XOleInPlaceActiveObject@COleControl@@UAGJH@Z 5f52bf0b f   ctlinplc.obj
 0001:0002afa7       ?ResizeBorder@XOleInPlaceActiveObject@COleControl@@UAGJPBUtagRECT@@PAUIOleInPlaceUIWindow@@H@Z 5f52bfa7 f   ctlinplc.obj
 0001:0002afb0       ?EnableModeless@XOleInPlaceActiveObject@COleControl@@UAGJH@Z 5f52bfb0 f   ctlinplc.obj
 0001:0002afc0       ??_G_AFXCTL_UIACTIVE_INFO@@QAEPAXI@Z 5f52bfc0 f i ctlinplc.obj
 0001:0002aff0       ?AfxVerifyLicFile@@YGHPAUHINSTANCE__@@PBDPBGI@Z 5f52bff0 f   ctllic.obj
 0001:0002b1e0       __tcsrchr                  5f52c1e0 f i ctllic.obj
 0001:0002b200       ??0CConnectionPoint@@QAE@XZ 5f52c200 f   oleconn.obj
 0001:0002b26b       ??1CConnectionPoint@@UAE@XZ 5f52c26b f   oleconn.obj
 0001:0002b33e       ?GetStartPosition@CConnectionPoint@@QBEPAU__POSITION@@XZ 5f52c33e f   oleconn.obj
 0001:0002b3a7       ?GetNextConnection@CConnectionPoint@@QBEPAUIUnknown@@AAPAU__POSITION@@@Z 5f52c3a7 f   oleconn.obj
 0001:0002b4ca       ?GetConnections@CConnectionPoint@@QAEPBVCPtrArray@@XZ 5f52c4ca f   oleconn.obj
 0001:0002b522       ?OnAdvise@CConnectionPoint@@UAEXH@Z 5f52c522 f   oleconn.obj
 0001:0002b53f       ?GetMaxConnections@CConnectionPoint@@UAEHXZ 5f52c53f f   oleconn.obj
 0001:0002b55d       ?GetContainer@CConnectionPoint@@UAEPAUIConnectionPointContainer@@XZ 5f52c55d f   oleconn.obj
 0001:0002b5c0       ?CreateConnectionArray@CConnectionPoint@@QAEXXZ 5f52c5c0 f   oleconn.obj
 0001:0002b6cb       ?GetConnectionCount@CConnectionPoint@@QAEHXZ 5f52c6cb f   oleconn.obj
 0001:0002b6fe       ?QuerySinkInterface@CConnectionPoint@@UAEPAUIUnknown@@PAU2@@Z 5f52c6fe f   oleconn.obj
 0001:0002b732       ?Release@XConnPt@CConnectionPoint@@UAGKXZ 5f52c732 f   oleconn.obj
 0001:0002b74d       ?AddRef@XConnPt@CConnectionPoint@@UAGKXZ 5f52c74d f   oleconn.obj
 0001:0002b768       ?QueryInterface@XConnPt@CConnectionPoint@@UAGJABU_GUID@@PAPAX@Z 5f52c768 f   oleconn.obj
 0001:0002b7f3       ?GetConnectionInterface@XConnPt@CConnectionPoint@@UAGJPAU_GUID@@@Z 5f52c7f3 f   oleconn.obj
 0001:0002b85d       ?GetConnectionPointContainer@XConnPt@CConnectionPoint@@UAGJPAPAUIConnectionPointContainer@@@Z 5f52c85d f   oleconn.obj
 0001:0002b8c2       ?Advise@XConnPt@CConnectionPoint@@UAGJPAUIUnknown@@PAK@Z 5f52c8c2 f   oleconn.obj
 0001:0002b9ea       ?Unadvise@XConnPt@CConnectionPoint@@UAGJK@Z 5f52c9ea f   oleconn.obj
 0001:0002bad4       ?_GetBaseInterfaceMap@CEnumConnections@@KGPBUAFX_INTERFACEMAP@@XZ 5f52cad4 f   oleconn.obj
 0001:0002bade       ?GetInterfaceMap@CEnumConnections@@MBEPBUAFX_INTERFACEMAP@@XZ 5f52cade f   oleconn.obj
 0001:0002baee       ??0CEnumConnections@@QAE@PBXI@Z 5f52caee f   oleconn.obj
 0001:0002bb25       ??1CEnumConnections@@UAE@XZ 5f52cb25 f   oleconn.obj
 0001:0002bbd8       ?OnNext@CEnumConnections@@MAEHPAX@Z 5f52cbd8 f   oleconn.obj
 0001:0002bc0e       ?OnClone@CEnumConnections@@MAEPAVCEnumArray@@XZ 5f52cc0e f   oleconn.obj
 0001:0002bd18       ?AddConnection@CEnumConnections@@QAEXPAUtagCONNECTDATA@@@Z 5f52cd18 f   oleconn.obj
 0001:0002be41       ?EnumConnections@XConnPt@CConnectionPoint@@UAGJPAPAUIEnumConnections@@@Z 5f52ce41 f   oleconn.obj
 0001:0002c02b       ?_GetBaseInterfaceMap@CEnumConnPoints@@KGPBUAFX_INTERFACEMAP@@XZ 5f52d02b f   oleconn.obj
 0001:0002c035       ?GetInterfaceMap@CEnumConnPoints@@MBEPBUAFX_INTERFACEMAP@@XZ 5f52d035 f   oleconn.obj
 0001:0002c045       ??0CEnumConnPoints@@QAE@PBXI@Z 5f52d045 f   oleconn.obj
 0001:0002c07c       ??1CEnumConnPoints@@UAE@XZ 5f52d07c f   oleconn.obj
 0001:0002c12f       ?OnNext@CEnumConnPoints@@MAEHPAX@Z 5f52d12f f   oleconn.obj
 0001:0002c165       ?AddConnPoint@CEnumConnPoints@@QAEXPAUIConnectionPoint@@@Z 5f52d165 f   oleconn.obj
 0001:0002c281       ?AddRef@COleConnPtContainer@@UAGKXZ 5f52d281 f   oleconn.obj
 0001:0002c29c       ?Release@COleConnPtContainer@@UAGKXZ 5f52d29c f   oleconn.obj
 0001:0002c2b7       ?QueryInterface@COleConnPtContainer@@UAGJABU_GUID@@PAPAX@Z 5f52d2b7 f   oleconn.obj
 0001:0002c2da       ?EnumConnectionPoints@COleConnPtContainer@@UAGJPAPAUIEnumConnectionPoints@@@Z 5f52d2da f   oleconn.obj
 0001:0002c4e3       ?FindConnectionPoint@COleConnPtContainer@@UAGJABU_GUID@@PAPAUIConnectionPoint@@@Z 5f52d4e3 f   oleconn.obj
 0001:0002c5c9       ?EnableConnections@CCmdTarget@@QAEXXZ 5f52d5c9 f   oleconn.obj
 0001:0002c660       ??_ECConnectionPoint@@UAEPAXI@Z 5f52d660 f i oleconn.obj
 0001:0002c660       ??_GCConnectionPoint@@UAEPAXI@Z 5f52d660 f i oleconn.obj
 0001:0002c690       ??0XConnPt@CConnectionPoint@@QAE@XZ 5f52d690 f i oleconn.obj
 0001:0002c6b0       ??_GCEnumConnections@@UAEPAXI@Z 5f52d6b0 f i oleconn.obj
 0001:0002c6b0       ??_ECEnumConnections@@UAEPAXI@Z 5f52d6b0 f i oleconn.obj
 0001:0002c6e0       ??_GCEnumConnPoints@@UAEPAXI@Z 5f52d6e0 f i oleconn.obj
 0001:0002c6e0       ??_ECEnumConnPoints@@UAEPAXI@Z 5f52d6e0 f i oleconn.obj
 0001:0002c710       ??0COleConnPtContainer@@QAE@XZ 5f52d710 f i oleconn.obj
 0001:0002c730       ??4COleConnPtContainer@@QAEAAV0@ABV0@@Z 5f52d730 f i oleconn.obj
 0001:0002c750       ??4IConnectionPointContainer@@QAEAAU0@ABU0@@Z 5f52d750 f i oleconn.obj
 0001:0002c770       ?AddRef@XOleObject@COleControl@@UAGKXZ 5f52d770 f   ctlobj.obj
 0001:0002c78d       ?Release@XOleObject@COleControl@@UAGKXZ 5f52d78d f   ctlobj.obj
 0001:0002c7aa       ?QueryInterface@XOleObject@COleControl@@UAGJABU_GUID@@PAPAX@Z 5f52d7aa f   ctlobj.obj
 0001:0002c7cf       ?SetClientSite@XOleObject@COleControl@@UAGJPAUIOleClientSite@@@Z 5f52d7cf f   ctlobj.obj
 0001:0002cac2       ?GetClientSite@XOleObject@COleControl@@UAGJPAPAUIOleClientSite@@@Z 5f52dac2 f   ctlobj.obj
 0001:0002cb44       ?SetHostNames@XOleObject@COleControl@@UAGJPBG0@Z 5f52db44 f   ctlobj.obj
 0001:0002cb4d       ?Close@XOleObject@COleControl@@UAGJK@Z 5f52db4d f   ctlobj.obj
 0001:0002cbc4       ?OnClose@COleControl@@UAEXK@Z 5f52dbc4 f   ctlobj.obj
 0001:0002cc2d       ?SetMoniker@XOleObject@COleControl@@UAGJKPAUIMoniker@@@Z 5f52dc2d f   ctlobj.obj
 0001:0002cc39       ?GetMoniker@XOleObject@COleControl@@UAGJKKPAPAUIMoniker@@@Z 5f52dc39 f   ctlobj.obj
 0001:0002cc45       ?InitFromData@XOleObject@COleControl@@UAGJPAUIDataObject@@HK@Z 5f52dc45 f   ctlobj.obj
 0001:0002cc51       ?GetClipboardData@XOleObject@COleControl@@UAGJKPAPAUIDataObject@@@Z 5f52dc51 f   ctlobj.obj
 0001:0002cc5d       ?DoVerb@XOleObject@COleControl@@UAGJJPAUtagMSG@@PAUIOleClientSite@@JPAUHWND__@@PBUtagRECT@@@Z 5f52dc5d f   ctlobj.obj
 0001:0002cf83       ?OnDoVerb@COleControl@@UAEHJPAUtagMSG@@PAUHWND__@@PBUtagRECT@@@Z 5f52df83 f   ctlobj.obj
 0001:0002cfa8       ?EnumVerbs@XOleObject@COleControl@@UAGJPAPAUIEnumOLEVERB@@@Z 5f52dfa8 f   ctlobj.obj
 0001:0002d029       ?OnEnumVerbs@COleControl@@UAEHPAPAUIEnumOLEVERB@@@Z 5f52e029 f   ctlobj.obj
 0001:0002d042       ?Update@XOleObject@COleControl@@UAGJXZ 5f52e042 f   ctlobj.obj
 0001:0002d04b       ?IsUpToDate@XOleObject@COleControl@@UAGJXZ 5f52e04b f   ctlobj.obj
 0001:0002d054       ?GetUserClassID@XOleObject@COleControl@@UAGJPAU_GUID@@@Z 5f52e054 f   ctlobj.obj
 0001:0002d07b       ?GetUserType@XOleObject@COleControl@@UAGJKPAPAG@Z 5f52e07b f   ctlobj.obj
 0001:0002d149       ?GetUserType@COleControl@@IAEXPAD@Z 5f52e149 f   ctlobj.obj
 0001:0002d214       ?SetExtent@XOleObject@COleControl@@UAGJKPAUtagSIZE@@@Z 5f52e214 f   ctlobj.obj
 0001:0002d25a       ?OnSetExtent@COleControl@@UAEHPAUtagSIZE@@@Z 5f52e25a f   ctlobj.obj
 0001:0002d3c6       ?GetExtent@XOleObject@COleControl@@UAGJKPAUtagSIZE@@@Z 5f52e3c6 f   ctlobj.obj
 0001:0002d40b       ?Advise@XOleObject@COleControl@@UAGJPAUIAdviseSink@@PAK@Z 5f52e40b f   ctlobj.obj
 0001:0002d46c       ?Unadvise@XOleObject@COleControl@@UAGJK@Z 5f52e46c f   ctlobj.obj
 0001:0002d4b0       ?EnumAdvise@XOleObject@COleControl@@UAGJPAPAUIEnumSTATDATA@@@Z 5f52e4b0 f   ctlobj.obj
 0001:0002d4f4       ?GetMiscStatus@XOleObject@COleControl@@UAGJKPAK@Z 5f52e4f4 f   ctlobj.obj
 0001:0002d566       ?SetColorScheme@XOleObject@COleControl@@UAGJPAUtagLOGPALETTE@@@Z 5f52e566 f   ctlobj.obj
 0001:0002d580       ??0CPictureHolder@@QAE@XZ  5f52e580 f   ctlpict.obj
 0001:0002d597       ??1CPictureHolder@@QAE@XZ  5f52e597 f   ctlpict.obj
 0001:0002d5c9       ?CreateEmpty@CPictureHolder@@QAEHXZ 5f52e5c9 f   ctlpict.obj
 0001:0002d629       ?CreateFromBitmap@CPictureHolder@@QAEHI@Z 5f52e629 f   ctlpict.obj
 0001:0002d69c       ?CreateFromBitmap@CPictureHolder@@QAEHPAVCBitmap@@PAVCPalette@@H@Z 5f52e69c f   ctlpict.obj
 0001:0002d6f7       ?CreateFromBitmap@CPictureHolder@@QAEHPAUHBITMAP__@@PAUHPALETTE__@@H@Z 5f52e6f7 f   ctlpict.obj
 0001:0002d767       ?CreateFromMetafile@CPictureHolder@@QAEHPAUHMETAFILE__@@HHH@Z 5f52e767 f   ctlpict.obj
 0001:0002d7dd       ?CreateFromIcon@CPictureHolder@@QAEHI@Z 5f52e7dd f   ctlpict.obj
 0001:0002d80d       ?CreateFromIcon@CPictureHolder@@QAEHPAUHICON__@@H@Z 5f52e80d f   ctlpict.obj
 0001:0002d877       ?GetPictureDispatch@CPictureHolder@@QAEPAUIPictureDisp@@XZ 5f52e877 f   ctlpict.obj
 0001:0002d8d5       ?SetPictureDispatch@CPictureHolder@@QAEXPAUIPictureDisp@@@Z 5f52e8d5 f   ctlpict.obj
 0001:0002d95a       ?Render@CPictureHolder@@QAEXPAVCDC@@ABVCRect@@1@Z 5f52e95a f   ctlpict.obj
 0001:0002d9eb       ?GetType@CPictureHolder@@QAEFXZ 5f52e9eb f   ctlpict.obj
 0001:0002da1e       ?GetDisplayString@CPictureHolder@@QAEHAAVCString@@@Z 5f52ea1e f   ctlpict.obj
 0001:0002db50       ?_AfxGetArchiveStream@@YGPAUIStream@@AAVCArchive@@AAVCArchiveStream@@@Z 5f52eb50 f   ctlpropx.obj
 0001:0002dc08       ?_AfxInitBlob@@YGHPAPAXPAX@Z 5f52ec08 f   ctlpropx.obj
 0001:0002dcd5       ?_AfxCopyBlob@@YGHPAPAXPAX@Z 5f52ecd5 f   ctlpropx.obj
 0001:0002dd18       ?_AfxCopyPropValue@@YGHGPAXPBX@Z 5f52ed18 f   ctlpropx.obj
 0001:0002de83       ?ExchangeExtent@COleControl@@QAEHPAVCPropExchange@@@Z 5f52ee83 f   ctlpropx.obj
 0001:0002df29       ?SerializeVersion@COleControl@@QAEKAAVCArchive@@KH@Z 5f52ef29 f   ctlpropx.obj
 0001:0002df8a       ?ResetVersion@COleControl@@QAEXK@Z 5f52ef8a f   ctlpropx.obj
 0001:0002dfa0       ?SerializeExtent@COleControl@@QAEXAAVCArchive@@@Z 5f52efa0 f   ctlpropx.obj
 0001:0002e031       ?ExchangeVersion@CPropExchange@@UAEHAAKKH@Z 5f52f031 f   ctlpropx.obj
 0001:0002e0b2       ??0CArchivePropExchange@@QAE@AAVCArchive@@@Z 5f52f0b2 f   ctlpropx.obj
 0001:0002e124       ?ExchangeProp@CArchivePropExchange@@UAEHPBDGPAXPBX@Z 5f52f124 f   ctlpropx.obj
 0001:0002e413       ?ExchangeBlobProp@CArchivePropExchange@@UAEHPBDPAPAXPAX@Z 5f52f413 f   ctlpropx.obj
 0001:0002e5ec       ?_AfxPeekAtClassIDInStream@@YGHPAUIStream@@PAU_GUID@@@Z 5f52f5ec f   ctlpropx.obj
 0001:0002e647       ?_AfxIsSameUnknownObject@@YGHABU_GUID@@PAUIUnknown@@1@Z 5f52f647 f   ctlpropx.obj
 0001:0002e750       ?ExchangePersistentProp@CArchivePropExchange@@UAEHPBDPAPAUIUnknown@@ABU_GUID@@PAU2@@Z 5f52f750 f   ctlpropx.obj
 0001:0002ebf7       ?ExchangeFontProp@CArchivePropExchange@@UAEHPBDAAVCFontHolder@@PBUtagFONTDESC@@PAUIFontDisp@@@Z 5f52fbf7 f   ctlpropx.obj
 0001:0002ee53       ??0CResetPropExchange@@QAE@XZ 5f52fe53 f   ctlpropx.obj
 0001:0002ee7c       ?ExchangeProp@CResetPropExchange@@UAEHPBDGPAXPBX@Z 5f52fe7c f   ctlpropx.obj
 0001:0002ef26       ?ExchangeBlobProp@CResetPropExchange@@UAEHPBDPAPAXPAX@Z 5f52ff26 f   ctlpropx.obj
 0001:0002efd2       ?ExchangePersistentProp@CResetPropExchange@@UAEHPBDPAPAUIUnknown@@ABU_GUID@@PAU2@@Z 5f52ffd2 f   ctlpropx.obj
 0001:0002f0c6       ?ExchangeFontProp@CResetPropExchange@@UAEHPBDAAVCFontHolder@@PBUtagFONTDESC@@PAUIFontDisp@@@Z 5f5300c6 f   ctlpropx.obj
 0001:0002f1aa       ??0CAsyncPropExchange@@QAE@K@Z 5f5301aa f   ctlpropx.obj
 0001:0002f1e8       ?ExchangeVersion@CAsyncPropExchange@@UAEHAAKKH@Z 5f5301e8 f   ctlpropx.obj
 0001:0002f236       ?ExchangeProp@CAsyncPropExchange@@UAEHPBDGPAXPBX@Z 5f530236 f   ctlpropx.obj
 0001:0002f26e       ?ExchangeBlobProp@CAsyncPropExchange@@UAEHPBDPAPAXPAX@Z 5f53026e f   ctlpropx.obj
 0001:0002f2a6       ?ExchangeFontProp@CAsyncPropExchange@@UAEHPBDAAVCFontHolder@@PBUtagFONTDESC@@PAUIFontDisp@@@Z 5f5302a6 f   ctlpropx.obj
 0001:0002f2de       ?ExchangePersistentProp@CAsyncPropExchange@@UAEHPBDPAPAUIUnknown@@ABU_GUID@@PAU2@@Z 5f5302de f   ctlpropx.obj
 0001:0002f316       ?PX_Short@@YAHPAVCPropExchange@@PBDAAF@Z 5f530316 f   ctlpropx.obj
 0001:0002f3d6       ?PX_Short@@YAHPAVCPropExchange@@PBDAAFF@Z 5f5303d6 f   ctlpropx.obj
 0001:0002f498       ?PX_UShort@@YAHPAVCPropExchange@@PBDAAG@Z 5f530498 f   ctlpropx.obj
 0001:0002f558       ?PX_UShort@@YAHPAVCPropExchange@@PBDAAGG@Z 5f530558 f   ctlpropx.obj
 0001:0002f61a       ?PX_Long@@YAHPAVCPropExchange@@PBDAAJ@Z 5f53061a f   ctlpropx.obj
 0001:0002f6da       ?PX_Long@@YAHPAVCPropExchange@@PBDAAJJ@Z 5f5306da f   ctlpropx.obj
 0001:0002f79c       ?PX_ULong@@YAHPAVCPropExchange@@PBDAAK@Z 5f53079c f   ctlpropx.obj
 0001:0002f85c       ?PX_ULong@@YAHPAVCPropExchange@@PBDAAKK@Z 5f53085c f   ctlpropx.obj
 0001:0002f91e       ?PX_Color@@YAHPAVCPropExchange@@PBDAAK@Z 5f53091e f   ctlpropx.obj
 0001:0002f9de       ?PX_Color@@YAHPAVCPropExchange@@PBDAAKK@Z 5f5309de f   ctlpropx.obj
 0001:0002faa0       ?PX_Bool@@YAHPAVCPropExchange@@PBDAAH@Z 5f530aa0 f   ctlpropx.obj
 0001:0002fb60       ?PX_Bool@@YAHPAVCPropExchange@@PBDAAHH@Z 5f530b60 f   ctlpropx.obj
 0001:0002fc22       ?PX_String@@YAHPAVCPropExchange@@PBDAAVCString@@@Z 5f530c22 f   ctlpropx.obj
 0001:0002fce2       ?PX_String@@YAHPAVCPropExchange@@PBDAAVCString@@ABV2@@Z 5f530ce2 f   ctlpropx.obj
 0001:0002fda4       ?PX_String@@YAHPAVCPropExchange@@PBDAAVCString@@1@Z 5f530da4 f   ctlpropx.obj
 0001:0002fe66       ?PX_Currency@@YAHPAVCPropExchange@@PBDAATtagCY@@@Z 5f530e66 f   ctlpropx.obj
 0001:0002ff26       ?PX_Currency@@YAHPAVCPropExchange@@PBDAATtagCY@@T2@@Z 5f530f26 f   ctlpropx.obj
 0001:0002ffe8       ?PX_Float@@YAHPAVCPropExchange@@PBDAAM@Z 5f530fe8 f   ctlpropx.obj
 0001:000300a8       ?PX_Float@@YAHPAVCPropExchange@@PBDAAMM@Z 5f5310a8 f   ctlpropx.obj
 0001:0003016a       ?PX_Double@@YAHPAVCPropExchange@@PBDAAN@Z 5f53116a f   ctlpropx.obj
 0001:0003022a       ?PX_Double@@YAHPAVCPropExchange@@PBDAANN@Z 5f53122a f   ctlpropx.obj
 0001:000302ec       ?PX_Blob@@YAHPAVCPropExchange@@PBDAAPAXPAX@Z 5f5312ec f   ctlpropx.obj
 0001:000303ac       ?PX_Font@@YAHPAVCPropExchange@@PBDAAVCFontHolder@@PBUtagFONTDESC@@PAUIFontDisp@@@Z 5f5313ac f   ctlpropx.obj
 0001:000304d2       ?PX_IUnknown@@YAHPAVCPropExchange@@PBDAAPAUIUnknown@@ABU_GUID@@PAU2@@Z 5f5314d2 f   ctlpropx.obj
 0001:000305fc       ?PX_Picture@@YAHPAVCPropExchange@@PBDAAVCPictureHolder@@@Z 5f5315fc f   ctlpropx.obj
 0001:000306c9       ?PX_Picture@@YAHPAVCPropExchange@@PBDAAVCPictureHolder@@2@Z 5f5316c9 f   ctlpropx.obj
 0001:0003079a       ?PX_VBXFontConvert@@YAHPAVCPropExchange@@AAVCFontHolder@@@Z 5f53179a f   ctlpropx.obj
 0001:00030a08       ?_Afx_PX_DataPath@@YGHPAVCPropExchange@@PBDAAVCDataPathProperty@@GPBX@Z 5f531a08 f   ctlpropx.obj
 0001:00030c2c       ?PX_DataPath@@YAHPAVCPropExchange@@PBDAAVCDataPathProperty@@1@Z 5f531c2c f   ctlpropx.obj
 0001:00030c48       ?PX_DataPath@@YAHPAVCPropExchange@@PBDAAVCDataPathProperty@@ABVCString@@@Z 5f531c48 f   ctlpropx.obj
 0001:00030c70       ?_GetBaseInterfaceMap@COlePropertyPage@@KGPBUAFX_INTERFACEMAP@@XZ 5f531c70 f   ctlppg.obj
 0001:00030c7a       ?GetInterfaceMap@COlePropertyPage@@MBEPBUAFX_INTERFACEMAP@@XZ 5f531c7a f   ctlppg.obj
 0001:00030c8a       ?_GetBaseMessageMap@COlePropertyPage@@KGPBUAFX_MSGMAP@@XZ 5f531c8a f   ctlppg.obj
 0001:00030c94       ?GetMessageMap@COlePropertyPage@@MBEPBUAFX_MSGMAP@@XZ 5f531c94 f   ctlppg.obj
 0001:00030ca4       ??0AFX_DDPDATA@@QAE@PAXHH0IPBD@Z 5f531ca4 f   ctlppg.obj
 0001:00030cfb       ?_AfxCleanupDDPs@@YGXAAVCPtrArray@@@Z 5f531cfb f   ctlppg.obj
 0001:00030d9a       ?_ValidatePageDialog@@YAXAAVCDialogTemplate@@AAVCString@@PAVCOlePropertyPage@@@Z 5f531d9a f   ctlppg.obj
 0001:0003103a       ??0COlePropertyPage@@QAE@II@Z 5f53203a f   ctlppg.obj
 0001:000311ba       ?OnSetPageSite@COlePropertyPage@@UAEXXZ 5f5321ba f   ctlppg.obj
 0001:000313b2       ?OnInitDialog@COlePropertyPage@@UAEHXZ 5f5323b2 f   ctlppg.obj
 0001:000313c7       ?PreTranslateMessage@COlePropertyPage@@MAEHPAUtagMSG@@@Z 5f5323c7 f   ctlppg.obj
 0001:000314f6       ?CleanupObjectArray@COlePropertyPage@@IAEXXZ 5f5324f6 f   ctlppg.obj
 0001:00031632       ??1COlePropertyPage@@UAE@XZ 5f532632 f   ctlppg.obj
 0001:00031771       ?OnFinalRelease@COlePropertyPage@@MAEXXZ 5f532771 f   ctlppg.obj
 0001:000317bd       ?WindowProc@COlePropertyPage@@MAEJIIJ@Z 5f5327bd f   ctlppg.obj
 0001:0003188d       ?OnCtlColor@COlePropertyPage@@IAEPAUHBRUSH__@@PAVCDC@@PAVCWnd@@I@Z 5f53288d f   ctlppg.obj
 0001:000318ff       ?OnHelp@COlePropertyPage@@UAEHPBD@Z 5f5328ff f   ctlppg.obj
 0001:0003190e       ?OnEditProperty@COlePropertyPage@@UAEHJ@Z 5f53290e f   ctlppg.obj
 0001:0003191d       ?OnObjectsChanged@COlePropertyPage@@UAEXXZ 5f53291d f   ctlppg.obj
 0001:00031928       ?GetObjectArray@COlePropertyPage@@QAEPAPAUIDispatch@@PAK@Z 5f532928 f   ctlppg.obj
 0001:00031989       ?SetModifiedFlag@COlePropertyPage@@QAEXH@Z 5f532989 f   ctlppg.obj
 0001:00031a0f       ?IsModified@COlePropertyPage@@QAEHXZ 5f532a0f f   ctlppg.obj
 0001:00031a20       ?SetPageName@COlePropertyPage@@QAEXPBD@Z 5f532a20 f   ctlppg.obj
 0001:00031a6e       ?SetDialogResource@COlePropertyPage@@QAEXPAX@Z 5f532a6e f   ctlppg.obj
 0001:00031b23       ?SetHelpInfo@COlePropertyPage@@QAEXPBD0K@Z 5f532b23 f   ctlppg.obj
 0001:00031bc4       ?GetPageSite@COlePropertyPage@@QAEPAUIPropertyPageSite@@XZ 5f532bc4 f   ctlppg.obj
 0001:00031bd8       ?MessageBoxA@COlePropertyPage@@QAEHPBD0I@Z 5f532bd8 f   ctlppg.obj
 0001:00031c1d       ?AddRef@XPropertyPage@COlePropertyPage@@UAGKXZ 5f532c1d f   ctlppg.obj
 0001:00031c3a       ?Release@XPropertyPage@COlePropertyPage@@UAGKXZ 5f532c3a f   ctlppg.obj
 0001:00031c57       ?QueryInterface@XPropertyPage@COlePropertyPage@@UAGJABU_GUID@@PAPAX@Z 5f532c57 f   ctlppg.obj
 0001:00031c7c       ?SetPageSite@XPropertyPage@COlePropertyPage@@UAGJPAUIPropertyPageSite@@@Z 5f532c7c f   ctlppg.obj
 0001:00031d9a       ?Activate@XPropertyPage@COlePropertyPage@@UAGJPAUHWND__@@PBUtagRECT@@H@Z 5f532d9a f   ctlppg.obj
 0001:00031fef       ?EnumChildProc@COlePropertyPage@@KGHPAUHWND__@@J@Z 5f532fef f   ctlppg.obj
 0001:00032053       ?EnumControls@COlePropertyPage@@KGHPAUHWND__@@J@Z 5f533053 f   ctlppg.obj
 0001:00032116       ?Deactivate@XPropertyPage@COlePropertyPage@@UAGJXZ 5f533116 f   ctlppg.obj
 0001:00032186       ?GetPageInfo@XPropertyPage@COlePropertyPage@@UAGJPAUtagPROPPAGEINFO@@@Z 5f533186 f   ctlppg.obj
 0001:00032249       ?SetObjects@XPropertyPage@COlePropertyPage@@UAGJKPAPAUIUnknown@@@Z 5f533249 f   ctlppg.obj
 0001:00032489       ?Show@XPropertyPage@COlePropertyPage@@UAGJI@Z 5f533489 f   ctlppg.obj
 0001:000324ba       ?Move@XPropertyPage@COlePropertyPage@@UAGJPBUtagRECT@@@Z 5f5334ba f   ctlppg.obj
 0001:00032516       ?IsPageDirty@XPropertyPage@COlePropertyPage@@UAGJXZ 5f533516 f   ctlppg.obj
 0001:00032537       ?Apply@XPropertyPage@COlePropertyPage@@UAGJXZ 5f533537 f   ctlppg.obj
 0001:00032691       ?Help@XPropertyPage@COlePropertyPage@@UAGJPBG@Z 5f533691 f   ctlppg.obj
 0001:000327d8       ?_AfxAtEndOfTabList@@YGHPAVCDialog@@I@Z 5f5337d8 f   ctlppg.obj
 0001:00032871       ?TranslateAcceleratorA@XPropertyPage@COlePropertyPage@@UAGJPAUtagMSG@@@Z 5f533871 f   ctlppg.obj
 0001:00032ad6       ?EditProperty@XPropertyPage@COlePropertyPage@@UAGJJ@Z 5f533ad6 f   ctlppg.obj
 0001:00032b6a       ?AddRef@XPropNotifySink@COlePropertyPage@@UAGKXZ 5f533b6a f   ctlppg.obj
 0001:00032b76       ?Release@XPropNotifySink@COlePropertyPage@@UAGKXZ 5f533b76 f   ctlppg.obj
 0001:00032b7f       ?QueryInterface@XPropNotifySink@COlePropertyPage@@UAGJABU_GUID@@PAPAX@Z 5f533b7f f   ctlppg.obj
 0001:00032bca       ?OnRequestEdit@XPropNotifySink@COlePropertyPage@@UAGJJ@Z 5f533bca f   ctlppg.obj
 0001:00032bd3       ?OnChanged@XPropNotifySink@COlePropertyPage@@UAGJJ@Z 5f533bd3 f   ctlppg.obj
 0001:00032c73       ?_AfxIsRadioButton@@YGHPAUHWND__@@@Z 5f533c73 f   ctlppg.obj
 0001:00032cb0       ?OnCommand@COlePropertyPage@@MAEHIJ@Z 5f533cb0 f   ctlppg.obj
 0001:00032fc3       ?IgnoreApply@COlePropertyPage@@QAEXI@Z 5f533fc3 f   ctlppg.obj
 0001:00032fe2       ?GetControlStatus@COlePropertyPage@@QAEHI@Z 5f533fe2 f   ctlppg.obj
 0001:0003303e       ?SetControlStatus@COlePropertyPage@@QAEHIH@Z 5f53403e f   ctlppg.obj
 0001:0003309f       ?SetPropText@COlePropertyPage@@QAEHPBDAAE@Z 5f53409f f   ctlppg.obj
 0001:00033210       ?GetPropText@COlePropertyPage@@QAEHPBDPAE@Z 5f534210 f   ctlppg.obj
 0001:000333a6       ?SetPropText@COlePropertyPage@@QAEHPBDAAF@Z 5f5343a6 f   ctlppg.obj
 0001:00033516       ?GetPropText@COlePropertyPage@@QAEHPBDPAF@Z 5f534516 f   ctlppg.obj
 0001:000336aa       ?SetPropText@COlePropertyPage@@QAEHPBDAAH@Z 5f5346aa f   ctlppg.obj
 0001:00033819       ?GetPropText@COlePropertyPage@@QAEHPBDPAH@Z 5f534819 f   ctlppg.obj
 0001:000339a4       ?SetPropText@COlePropertyPage@@QAEHPBDAAI@Z 5f5349a4 f   ctlppg.obj
 0001:00033b13       ?GetPropText@COlePropertyPage@@QAEHPBDPAI@Z 5f534b13 f   ctlppg.obj
 0001:00033c9e       ?SetPropText@COlePropertyPage@@QAEHPBDAAJ@Z 5f534c9e f   ctlppg.obj
 0001:00033e0d       ?GetPropText@COlePropertyPage@@QAEHPBDPAJ@Z 5f534e0d f   ctlppg.obj
 0001:00033f98       ?SetPropText@COlePropertyPage@@QAEHPBDAAK@Z 5f534f98 f   ctlppg.obj
 0001:00034107       ?GetPropText@COlePropertyPage@@QAEHPBDPAK@Z 5f535107 f   ctlppg.obj
 0001:00034292       ?SetPropText@COlePropertyPage@@QAEHPBDAAM@Z 5f535292 f   ctlppg.obj
 0001:00034406       ?GetPropText@COlePropertyPage@@QAEHPBDPAM@Z 5f535406 f   ctlppg.obj
 0001:00034597       ?SetPropText@COlePropertyPage@@QAEHPBDAAN@Z 5f535597 f   ctlppg.obj
 0001:0003470a       ?GetPropText@COlePropertyPage@@QAEHPBDPAN@Z 5f53570a f   ctlppg.obj
 0001:000348a9       ?SetPropText@COlePropertyPage@@QAEHPBDAAVCString@@@Z 5f5358a9 f   ctlppg.obj
 0001:00034a1b       ?GetPropText@COlePropertyPage@@QAEHPBDPAVCString@@@Z 5f535a1b f   ctlppg.obj
 0001:00034c19       ?SetPropCheck@COlePropertyPage@@QAEHPBDH@Z 5f535c19 f   ctlppg.obj
 0001:00034d9c       ?GetPropCheck@COlePropertyPage@@QAEHPBDPAH@Z 5f535d9c f   ctlppg.obj
 0001:00034f43       ?SetPropRadio@COlePropertyPage@@QAEHPBDH@Z 5f535f43 f   ctlppg.obj
 0001:000350b9       ?GetPropRadio@COlePropertyPage@@QAEHPBDPAH@Z 5f5360b9 f   ctlppg.obj
 0001:00035245       ?SetPropIndex@COlePropertyPage@@QAEHPBDH@Z 5f536245 f   ctlppg.obj
 0001:00035262       ?GetPropIndex@COlePropertyPage@@QAEHPBDPAH@Z 5f536262 f   ctlppg.obj
 0001:0003527f       ?DDP_EndText@@YGXPAVCDataExchange@@HPAEPBD@Z 5f53627f f   ctlppg.obj
 0001:000352b8       ?DDP_Text@@YGXPAVCDataExchange@@HAAEPBD@Z 5f5362b8 f   ctlppg.obj
 0001:000353dd       ?DDP_EndText@@YGXPAVCDataExchange@@HPAFPBD@Z 5f5363dd f   ctlppg.obj
 0001:00035416       ?DDP_Text@@YGXPAVCDataExchange@@HAAFPBD@Z 5f536416 f   ctlppg.obj
 0001:0003553b       ?DDP_EndText@@YGXPAVCDataExchange@@HPAHPBD@Z 5f53653b f   ctlppg.obj
 0001:00035574       ?DDP_Text@@YGXPAVCDataExchange@@HAAHPBD@Z 5f536574 f   ctlppg.obj
 0001:00035699       ?DDP_EndText@@YGXPAVCDataExchange@@HPAIPBD@Z 5f536699 f   ctlppg.obj
 0001:000356d2       ?DDP_Text@@YGXPAVCDataExchange@@HAAIPBD@Z 5f5366d2 f   ctlppg.obj
 0001:000357f7       ?DDP_EndText@@YGXPAVCDataExchange@@HPAJPBD@Z 5f5367f7 f   ctlppg.obj
 0001:00035830       ?DDP_Text@@YGXPAVCDataExchange@@HAAJPBD@Z 5f536830 f   ctlppg.obj
 0001:00035955       ?DDP_EndText@@YGXPAVCDataExchange@@HPAKPBD@Z 5f536955 f   ctlppg.obj
 0001:0003598e       ?DDP_Text@@YGXPAVCDataExchange@@HAAKPBD@Z 5f53698e f   ctlppg.obj
 0001:00035ab3       ?DDP_EndText@@YGXPAVCDataExchange@@HPAMPBD@Z 5f536ab3 f   ctlppg.obj
 0001:00035aec       ?DDP_Text@@YGXPAVCDataExchange@@HAAMPBD@Z 5f536aec f   ctlppg.obj
 0001:00035c11       ?DDP_EndText@@YGXPAVCDataExchange@@HPANPBD@Z 5f536c11 f   ctlppg.obj
 0001:00035c4a       ?DDP_Text@@YGXPAVCDataExchange@@HAANPBD@Z 5f536c4a f   ctlppg.obj
 0001:00035d6f       ?DDP_EndText@@YGXPAVCDataExchange@@HPAVCString@@PBD@Z 5f536d6f f   ctlppg.obj
 0001:00035da8       ?DDP_Text@@YGXPAVCDataExchange@@HAAVCString@@PBD@Z 5f536da8 f   ctlppg.obj
 0001:00035ecd       ?DDP_EndCheck@@YGXPAVCDataExchange@@HPAHPBD@Z 5f536ecd f   ctlppg.obj
 0001:00035f08       ?DDP_Check@@YGXPAVCDataExchange@@HAAHPBD@Z 5f536f08 f   ctlppg.obj
 0001:0003602d       ?DDP_EndRadio@@YGXPAVCDataExchange@@HPAHPBD@Z 5f53702d f   ctlppg.obj
 0001:00036068       ?DDP_Radio@@YGXPAVCDataExchange@@HAAHPBD@Z 5f537068 f   ctlppg.obj
 0001:0003618d       ?DDP_PostProcessing@@YGXPAVCDataExchange@@@Z 5f53718d f   ctlppg.obj
 0001:000364f0       ??_GAFX_DDPDATA@@UAEPAXI@Z 5f5374f0 f i ctlppg.obj
 0001:000364f0       ??_EAFX_DDPDATA@@UAEPAXI@Z 5f5374f0 f i ctlppg.obj
 0001:00036520       ??1AFX_DDPDATA@@UAE@XZ     5f537520 f i ctlppg.obj
 0001:00036540       ??_GCOlePropertyPage@@UAEPAXI@Z 5f537540 f i ctlppg.obj
 0001:00036540       ??_ECOlePropertyPage@@UAEPAXI@Z 5f537540 f i ctlppg.obj
 0001:00036570       ??0XPropertyPage@COlePropertyPage@@QAE@XZ 5f537570 f i ctlppg.obj
 0001:00036590       ??0XPropNotifySink@COlePropertyPage@@QAE@XZ 5f537590 f i ctlppg.obj
 0001:000365b0       ?InitStockPropMask@COleControl@@IAEXXZ 5f5375b0 f   ctlprop.obj
 0001:00036692       ?_AfxToggleBorderStyle@@YGXPAVCWnd@@@Z 5f537692 f   ctlprop.obj
 0001:000366d8       ?_AfxToggleAppearance@@YGXPAVCWnd@@@Z 5f5376d8 f   ctlprop.obj
 0001:0003671e       ?ExchangeStockProps@COleControl@@QAEXPAVCPropExchange@@@Z 5f53771e f   ctlprop.obj
 0001:00036b23       ?SerializeStockProps@COleControl@@QAEXAAVCArchive@@@Z 5f537b23 f   ctlprop.obj
 0001:000370ef       ?ResetStockProps@COleControl@@QAEXXZ 5f5380ef f   ctlprop.obj
 0001:0003726a       ?GetAppearance@COleControl@@QAEFXZ 5f53826a f   ctlprop.obj
 0001:0003727f       ?SetAppearance@COleControl@@QAEXF@Z 5f53827f f   ctlprop.obj
 0001:00037376       ?OnAppearanceChanged@COleControl@@UAEXXZ 5f538376 f   ctlprop.obj
 0001:0003738d       ?GetBackColor@COleControl@@QAEKXZ 5f53838d f   ctlprop.obj
 0001:000373a1       ?SetBackColor@COleControl@@QAEXK@Z 5f5383a1 f   ctlprop.obj
 0001:00037438       ?OnBackColorChanged@COleControl@@UAEXXZ 5f538438 f   ctlprop.obj
 0001:0003744f       ?GetBorderStyle@COleControl@@QAEFXZ 5f53844f f   ctlprop.obj
 0001:00037464       ?SetBorderStyle@COleControl@@QAEXF@Z 5f538464 f   ctlprop.obj
 0001:0003755b       ?OnBorderStyleChanged@COleControl@@UAEXXZ 5f53855b f   ctlprop.obj
 0001:00037572       ?InternalGetText@COleControl@@QAEABVCString@@XZ 5f538572 f   ctlprop.obj
 0001:0003762a       ?GetText@COleControl@@QAEPAGXZ 5f53862a f   ctlprop.obj
 0001:00037644       ?SetText@COleControl@@QAEXPBD@Z 5f538644 f   ctlprop.obj
 0001:00037690       ?OnSetText@COleControl@@IAEJIJ@Z 5f538690 f   ctlprop.obj
 0001:0003787a       ?OnTextChanged@COleControl@@UAEXXZ 5f53887a f   ctlprop.obj
 0001:00037891       ?GetEnabled@COleControl@@QAEHXZ 5f538891 f   ctlprop.obj
 0001:000378a5       ?SetEnabled@COleControl@@QAEXH@Z 5f5388a5 f   ctlprop.obj
 0001:00037969       ?OnEnabledChanged@COleControl@@UAEXXZ 5f538969 f   ctlprop.obj
 0001:00037980       ?InternalGetFont@COleControl@@QAEAAVCFontHolder@@XZ 5f538980 f   ctlprop.obj
 0001:00037993       ?GetFont@COleControl@@QAEPAUIFontDisp@@XZ 5f538993 f   ctlprop.obj
 0001:000379ac       ?SetFont@COleControl@@QAEXPAUIFontDisp@@@Z 5f5389ac f   ctlprop.obj
 0001:00037a34       ?OnFontChanged@COleControl@@UAEXXZ 5f538a34 f   ctlprop.obj
 0001:00037b51       ?GetForeColor@COleControl@@QAEKXZ 5f538b51 f   ctlprop.obj
 0001:00037b65       ?SetForeColor@COleControl@@QAEXK@Z 5f538b65 f   ctlprop.obj
 0001:00037bfc       ?OnForeColorChanged@COleControl@@UAEXXZ 5f538bfc f   ctlprop.obj
 0001:00037c13       ?GetHwnd@COleControl@@QAEIXZ 5f538c13 f   ctlprop.obj
 0001:00037c5b       ?GetReadyState@COleControl@@QAEJXZ 5f538c5b f   ctlprop.obj
 0001:00037c6f       ?AddRef@XFontNotification@COleControl@@UAGKXZ 5f538c6f f   ctlprop.obj
 0001:00037c7b       ?Release@XFontNotification@COleControl@@UAGKXZ 5f538c7b f   ctlprop.obj
 0001:00037c84       ?QueryInterface@XFontNotification@COleControl@@UAGJABU_GUID@@PAPAX@Z 5f538c84 f   ctlprop.obj
 0001:00037cec       ?OnChanged@XFontNotification@COleControl@@UAGJJ@Z 5f538cec f   ctlprop.obj
 0001:00037d81       ?OnRequestEdit@XFontNotification@COleControl@@UAGJJ@Z 5f538d81 f   ctlprop.obj
 0001:00037d8a       ?SelectStockFont@COleControl@@QAEPAVCFont@@PAVCDC@@@Z 5f538d8a f   ctlprop.obj
 0001:00037dac       ?SelectFontObject@COleControl@@QAEPAVCFont@@PAVCDC@@AAVCFontHolder@@@Z 5f538dac f   ctlprop.obj
 0001:00037ddb       ?GetStockTextMetrics@COleControl@@QAEXPAUtagTEXTMETRICA@@@Z 5f538ddb f   ctlprop.obj
 0001:00037dfa       ?GetFontTextMetrics@COleControl@@QAEXPAUtagTEXTMETRICA@@AAVCFontHolder@@@Z 5f538dfa f   ctlprop.obj
 0001:00037e13       ?_GetI4Property@@YGHPAUIDispatch@@JPAK@Z 5f538e13 f   ctlprop.obj
 0001:00037efd       ?GetAmbientDispatchDriver@COleControl@@IAEPAVCOleDispatchDriver@@XZ 5f538efd f   ctlprop.obj
 0001:00037f87       ?GetAmbientProperty@COleControl@@QAEHJGPAX@Z 5f538f87 f   ctlprop.obj
 0001:000381e3       ?AmbientAppearance@COleControl@@QAEFXZ 5f5391e3 f   ctlprop.obj
 0001:00038212       ?AmbientBackColor@COleControl@@QAEKXZ 5f539212 f   ctlprop.obj
 0001:00038244       ?AmbientDisplayName@COleControl@@QAE?AVCString@@XZ 5f539244 f   ctlprop.obj
 0001:000382bf       ?AmbientFont@COleControl@@QAEPAUIFontDisp@@XZ 5f5392bf f   ctlprop.obj
 0001:000382ed       ?AmbientForeColor@COleControl@@QAEKXZ 5f5392ed f   ctlprop.obj
 0001:0003831f       ?AmbientLocaleID@COleControl@@QAEKXZ 5f53931f f   ctlprop.obj
 0001:0003834d       ?AmbientScaleUnits@COleControl@@QAE?AVCString@@XZ 5f53934d f   ctlprop.obj
 0001:000383c8       ?AmbientTextAlign@COleControl@@QAEFXZ 5f5393c8 f   ctlprop.obj
 0001:000383f6       ?AmbientUserMode@COleControl@@QAEHXZ 5f5393f6 f   ctlprop.obj
 0001:00038424       ?AmbientUIDead@COleControl@@QAEHXZ 5f539424 f   ctlprop.obj
 0001:00038452       ?AmbientShowGrabHandles@COleControl@@QAEHXZ 5f539452 f   ctlprop.obj
 0001:00038480       ?AmbientShowHatching@COleControl@@QAEHXZ 5f539480 f   ctlprop.obj
 0001:000384ae       ?BoundPropertyChanged@COleControl@@QAEXJ@Z 5f5394ae f   ctlprop.obj
 0001:00038521       ?BoundPropertyRequestEdit@COleControl@@QAEHJ@Z 5f539521 f   ctlprop.obj
 0001:000385a1       ?SetNotPermitted@COleControl@@QAEXXZ 5f5395a1 f   ctlprop.obj
 0001:000385c0       ?SetNotSupported@COleControl@@QAEXXZ 5f5395c0 f   ctlprop.obj
 0001:000385df       ?GetNotSupported@COleControl@@QAEXXZ 5f5395df f   ctlprop.obj
 0001:000385fe       ?AddRef@XPerPropertyBrowsing@COleControl@@UAGKXZ 5f5395fe f   ctlprop.obj
 0001:0003861b       ?Release@XPerPropertyBrowsing@COleControl@@UAGKXZ 5f53961b f   ctlprop.obj
 0001:00038638       ?QueryInterface@XPerPropertyBrowsing@COleControl@@UAGJABU_GUID@@PAPAX@Z 5f539638 f   ctlprop.obj
 0001:0003865d       ?GetDisplayString@XPerPropertyBrowsing@COleControl@@UAGJJPAPAG@Z 5f53965d f   ctlprop.obj
 0001:00038757       ?OnGetDisplayString@COleControl@@UAEHJAAVCString@@@Z 5f539757 f   ctlprop.obj
 0001:00038836       ?MapPropertyToPage@XPerPropertyBrowsing@COleControl@@UAGJJPAU_GUID@@@Z 5f539836 f   ctlprop.obj
 0001:00038970       ?OnMapPropertyToPage@COleControl@@UAEHJPAU_GUID@@PAH@Z 5f539970 f   ctlprop.obj
 0001:00038a0c       ?GetPredefinedStrings@XPerPropertyBrowsing@COleControl@@UAGJJPAUtagCALPOLESTR@@PAUtagCADWORD@@@Z 5f539a0c f   ctlprop.obj
 0001:00038d5d       ?OnGetPredefinedStrings@COleControl@@UAEHJPAVCStringArray@@PAVCDWordArray@@@Z 5f539d5d f   ctlprop.obj
 0001:00038e74       ?GetPredefinedValue@XPerPropertyBrowsing@COleControl@@UAGJJKPAUtagVARIANT@@@Z 5f539e74 f   ctlprop.obj
 0001:00038f34       ?OnGetPredefinedValue@COleControl@@UAEHJKPAUtagVARIANT@@@Z 5f539f34 f   ctlprop.obj
 0001:00038f84       ?Load@COleControl@@QAEXPBDAAVCDataPathProperty@@@Z 5f539f84 f   ctlprop.obj
 0001:00038fae       ?Open@CDataPathProperty@@UAEHPAVCFileException@@@Z 5f539fae f   ctlprop.obj
 0001:00038ff9       ?Open@CDataPathProperty@@UAEHPBDPAVCFileException@@@Z 5f539ff9 f   ctlprop.obj
 0001:00039024       ?Open@CDataPathProperty@@UAEHPAVCOleControl@@PAVCFileException@@@Z 5f53a024 f   ctlprop.obj
 0001:0003904f       ?Open@CDataPathProperty@@UAEHPBDPAVCOleControl@@PAVCFileException@@@Z 5f53a04f f   ctlprop.obj
 0001:00039086       ?ResetData@CDataPathProperty@@UAEXXZ 5f53a086 f   ctlprop.obj
 0001:00039091       ?AssertValid@CDataPathProperty@@UBEXXZ 5f53a091 f   ctlprop.obj
 0001:000390a4       ?Dump@CDataPathProperty@@UBEXAAVCDumpContext@@@Z 5f53a0a4 f   ctlprop.obj
 0001:000390ff       ?OnDataAvailable@CCachedDataPathProperty@@UAEXKK@Z 5f53a0ff f   ctlprop.obj
 0001:000391d7       ?Close@CCachedDataPathProperty@@UAEXXZ 5f53a1d7 f   ctlprop.obj
 0001:000391fb       ?ResetData@CCachedDataPathProperty@@UAEXXZ 5f53a1fb f   ctlprop.obj
 0001:00039217       ?AssertValid@CCachedDataPathProperty@@UBEXXZ 5f53a217 f   ctlprop.obj
 0001:00039239       ?Dump@CCachedDataPathProperty@@UBEXAAVCDumpContext@@@Z 5f53a239 f   ctlprop.obj
 0001:00039270       ?_AfxCopyString@@YGPAGPBD@Z 5f53a270 f i ctlprop.obj
 0001:000392d0       ?_AfxTransferFileContent@@YAKPAVCFile@@0@Z 5f53a2d0 f i ctlprop.obj
 0001:00039330       ?_AfxCreateMemoryStream@@YGPAUIStream@@XZ 5f53a330 f   ctlpset.obj
 0001:000393da       ?GetPropsetData@COleControl@@IAEHPAUtagFORMATETC@@PAUtagSTGMEDIUM@@ABU_GUID@@@Z 5f53a3da f   ctlpset.obj
 0001:000399f0       ?SetPropsetData@COleControl@@IAEHPAUtagFORMATETC@@PAUtagSTGMEDIUM@@ABU_GUID@@@Z 5f53a9f0 f   ctlpset.obj
 0001:00039dda       ??0CPropsetPropExchange@@QAE@AAVCPropertySection@@PAUIStorage@@H@Z 5f53adda f   ctlpset.obj
 0001:00039e88       ?_AfxGetSizeOfVarType@@YGIG@Z 5f53ae88 f   ctlpset.obj
 0001:00039f03       ?_AfxCoerceNumber@@YGHPAXG0G@Z 5f53af03 f   ctlpset.obj
 0001:00039fc3       ?_AfxIsSamePropValue@@YGHGPBX0@Z 5f53afc3 f   ctlpset.obj
 0001:0003a0ac       ?ExchangeProp@CPropsetPropExchange@@UAEHPBDGPAXPBX@Z 5f53b0ac f   ctlpset.obj
 0001:0003a50c       ?ExchangeBlobProp@CPropsetPropExchange@@UAEHPBDPAPAXPAX@Z 5f53b50c f   ctlpset.obj
 0001:0003a6f1       ?_AfxSaveStreamDataAsBlobProp@@YGHPAUIStream@@AAVCPropertySection@@KK@Z 5f53b6f1 f   ctlpset.obj
 0001:0003a7fe       ?_AfxInitStreamDataFromBlobProp@@YGHPAUIStream@@PAVCProperty@@@Z 5f53b7fe f   ctlpset.obj
 0001:0003a878       ?_AfxCreateFontFromStream@@YGPAUIFont@@PAUIStream@@@Z 5f53b878 f   ctlpset.obj
 0001:0003aa17       ?_AfxLoadObjectFromStreamedPropset@@YGHPAUIUnknown@@PAUIStream@@@Z 5f53ba17 f   ctlpset.obj
 0001:0003ab4e       ?_AfxGetClassIDFromStreamedPropset@@YGHPAU_GUID@@PAUIStream@@@Z 5f53bb4e f   ctlpset.obj
 0001:0003abe9       ?_AfxCreateObjectFromStreamedPropset@@YGPAUIUnknown@@PAUIStream@@ABU_GUID@@@Z 5f53bbe9 f   ctlpset.obj
 0001:0003ad05       ?_AfxLoadStreamFromPropset@@YGPAUIStream@@AAVCPropertySection@@PBDAAK@Z 5f53bd05 f   ctlpset.obj
 0001:0003add2       ?_AfxSaveObjectInPropset@@YGHPAUIUnknown@@AAVCPropertySection@@K@Z 5f53bdd2 f   ctlpset.obj
 0001:0003afb9       ?ExchangePersistentProp@CPropsetPropExchange@@UAEHPBDPAPAUIUnknown@@ABU_GUID@@PAU2@@Z 5f53bfb9 f   ctlpset.obj
 0001:0003b24d       ?ExchangeFontProp@CPropsetPropExchange@@UAEHPBDAAVCFontHolder@@PBUtagFONTDESC@@PAUIFontDisp@@@Z 5f53c24d f   ctlpset.obj
 0001:0003b450       ?AddRef@XPersistStorage@COleControl@@UAGKXZ 5f53c450 f   ctlpstg.obj
 0001:0003b46d       ?Release@XPersistStorage@COleControl@@UAGKXZ 5f53c46d f   ctlpstg.obj
 0001:0003b48a       ?QueryInterface@XPersistStorage@COleControl@@UAGJABU_GUID@@PAPAX@Z 5f53c48a f   ctlpstg.obj
 0001:0003b4af       ?GetClassID@XPersistStorage@COleControl@@UAGJPAU_GUID@@@Z 5f53c4af f   ctlpstg.obj
 0001:0003b4d6       ?IsDirty@XPersistStorage@COleControl@@UAGJXZ 5f53c4d6 f   ctlpstg.obj
 0001:0003b55b       ?InitNew@XPersistStorage@COleControl@@UAGJPAUIStorage@@@Z 5f53c55b f   ctlpstg.obj
 0001:0003b64c       ?Load@XPersistStorage@COleControl@@UAGJPAUIStorage@@@Z 5f53c64c f   ctlpstg.obj
 0001:0003b805       ?Save@XPersistStorage@COleControl@@UAGJPAUIStorage@@H@Z 5f53c805 f   ctlpstg.obj
 0001:0003b98f       ?SaveCompleted@XPersistStorage@COleControl@@UAGJPAUIStorage@@@Z 5f53c98f f   ctlpstg.obj
 0001:0003b9fd       ?HandsOffStorage@XPersistStorage@COleControl@@UAGJXZ 5f53c9fd f   ctlpstg.obj
 0001:0003ba50       ?AddRef@XPersistStreamInit@COleControl@@UAGKXZ 5f53ca50 f   ctlpstm.obj
 0001:0003ba6d       ?Release@XPersistStreamInit@COleControl@@UAGKXZ 5f53ca6d f   ctlpstm.obj
 0001:0003ba8a       ?QueryInterface@XPersistStreamInit@COleControl@@UAGJABU_GUID@@PAPAX@Z 5f53ca8a f   ctlpstm.obj
 0001:0003baaf       ?GetClassID@XPersistStreamInit@COleControl@@UAGJPAU_GUID@@@Z 5f53caaf f   ctlpstm.obj
 0001:0003bad6       ?IsDirty@XPersistStreamInit@COleControl@@UAGJXZ 5f53cad6 f   ctlpstm.obj
 0001:0003baff       ?Load@XPersistStreamInit@COleControl@@UAGJPAUIStream@@@Z 5f53caff f   ctlpstm.obj
 0001:0003bb6c       ?Save@XPersistStreamInit@COleControl@@UAGJPAUIStream@@H@Z 5f53cb6c f   ctlpstm.obj
 0001:0003bbfa       ?GetSizeMax@XPersistStreamInit@COleControl@@UAGJPAT_ULARGE_INTEGER@@@Z 5f53cbfa f   ctlpstm.obj
 0001:0003bc06       ?InitNew@XPersistStreamInit@COleControl@@UAGJXZ 5f53cc06 f   ctlpstm.obj
 0001:0003bcb9       ?AddRef@XPersistMemory@COleControl@@UAGKXZ 5f53ccb9 f   ctlpstm.obj
 0001:0003bcd6       ?Release@XPersistMemory@COleControl@@UAGKXZ 5f53ccd6 f   ctlpstm.obj
 0001:0003bcf3       ?QueryInterface@XPersistMemory@COleControl@@UAGJABU_GUID@@PAPAX@Z 5f53ccf3 f   ctlpstm.obj
 0001:0003bd18       ?GetClassID@XPersistMemory@COleControl@@UAGJPAU_GUID@@@Z 5f53cd18 f   ctlpstm.obj
 0001:0003bd3f       ?IsDirty@XPersistMemory@COleControl@@UAGJXZ 5f53cd3f f   ctlpstm.obj
 0001:0003bd68       ?Load@XPersistMemory@COleControl@@UAGJPAXK@Z 5f53cd68 f   ctlpstm.obj
 0001:0003bf27       ?Save@XPersistMemory@COleControl@@UAGJPAXHK@Z 5f53cf27 f   ctlpstm.obj
 0001:0003bf33       ?GetSizeMax@XPersistMemory@COleControl@@UAGJPAK@Z 5f53cf33 f   ctlpstm.obj
 0001:0003bf3f       ?InitNew@XPersistMemory@COleControl@@UAGJXZ 5f53cf3f f   ctlpstm.obj
 0001:0003c000       ?Create@CReflectorWnd@@QAEHABVCRect@@PAUHWND__@@@Z 5f53d000 f   ctlrefl.obj
 0001:0003c079       ?PostNcDestroy@CReflectorWnd@@MAEXXZ 5f53d079 f   ctlrefl.obj
 0001:0003c0ce       ?WindowProc@CReflectorWnd@@MAEJIIJ@Z 5f53d0ce f   ctlrefl.obj
 0001:0003c2ec       ?SetControl@CReflectorWnd@@QAEXPAVCOleControl@@@Z 5f53d2ec f   ctlrefl.obj
 0001:0003c302       ?WindowProc@CParkingWnd@@UAEJIIJ@Z 5f53d302 f   ctlrefl.obj
 0001:0003c4f0       ?_AfxRecursiveRegDeleteKey@@YGJPAUHKEY__@@PAD@Z 5f53d4f0 f   ctlreg.obj
 0001:0003c550       ?_AfxUnregisterInterfaces@@YAXPAUITypeLib@@@Z 5f53d550 f   ctlreg.obj
 0001:0003c6a0       ?AfxOleRegisterTypeLib@@YGHPAUHINSTANCE__@@ABU_GUID@@PBD2@Z 5f53d6a0 f   ctlreg.obj
 0001:0003ca03       ?AfxOleUnregisterTypeLib@@YGHABU_GUID@@GGK@Z 5f53da03 f   ctlreg.obj
 0001:0003ce6d       ?AfxOleRegisterControlClass@@YGHPAUHINSTANCE__@@ABU_GUID@@PBDIIHK1GG@Z 5f53de6d f   ctlreg.obj
 0001:0003d3e5       ?AfxOleUnregisterClass@@YGHABU_GUID@@PBD@Z 5f53e3e5 f   ctlreg.obj
 0001:0003d6d3       ?AfxOleRegisterPropertyPageClass@@YGHPAUHINSTANCE__@@ABU_GUID@@I@Z 5f53e6d3 f   ctlreg.obj
 0001:0003d6ed       ?AfxOleRegisterPropertyPageClass@@YGHPAUHINSTANCE__@@ABU_GUID@@IH@Z 5f53e6ed f   ctlreg.obj
 0001:0003d9e0       ?_AfxRegDeleteKeySucceeded@@YAHJ@Z 5f53e9e0 f i ctlreg.obj
 0001:0003da10       ?_AfxOffsetTrackerRect@@YGXAAVCRect@@PAVCWnd@@@Z 5f53ea10 f   ctltrack.obj
 0001:0003dab4       ?CreateTracker@COleControl@@IAEXHH@Z 5f53eab4 f   ctltrack.obj
 0001:0003dad3       ?CreateTracker@COleControl@@IAEXHHPBUtagRECT@@@Z 5f53ead3 f   ctltrack.obj
 0001:0003dd44       ?DestroyTracker@COleControl@@IAEXXZ 5f53ed44 f   ctltrack.obj
 0001:0003de31       ?OnNcPaint@COleControl@@IAEXXZ 5f53ee31 f   ctltrack.obj
 0001:0003dff7       ?OnNcCalcSize@COleControl@@IAEXHPAUtagNCCALCSIZE_PARAMS@@@Z 5f53eff7 f   ctltrack.obj
 0001:0003e089       ?OnNcHitTest@COleControl@@IAEIVCPoint@@@Z 5f53f089 f   ctltrack.obj
 0001:0003e1d2       ?OnNcLButtonDown@COleControl@@IAEXIVCPoint@@@Z 5f53f1d2 f   ctltrack.obj
 0001:0003e45d       ?OnSetCursor@COleControl@@IAEHPAVCWnd@@II@Z 5f53f45d f   ctltrack.obj
 0001:0003e4f0       ??0CControlRectTracker@@QAE@PBUtagRECT@@I@Z 5f53f4f0 f i ctltrack.obj
 0001:0003e560       ??_ECControlRectTracker@@UAEPAXI@Z 5f53f560 f i ctltrack.obj
 0001:0003e560       ??_GCControlRectTracker@@UAEPAXI@Z 5f53f560 f i ctltrack.obj
 0001:0003e590       ??1CControlRectTracker@@UAE@XZ 5f53f590 f i ctltrack.obj
 0001:0003e5b0       ?OnGetColorSet@COleControl@@UAEHPAUtagDVTARGETDEVICE@@PAUHDC__@@PAPAUtagLOGPALETTE@@@Z 5f53f5b0 f   ctlview.obj
 0001:0003e5bf       ?OnGetViewExtent@COleControl@@UAEHKJPAUtagDVTARGETDEVICE@@PAUtagSIZE@@@Z 5f53f5bf f   ctlview.obj
 0001:0003e606       ?OnGetViewRect@COleControl@@UAEHKPAU_RECTL@@@Z 5f53f606 f   ctlview.obj
 0001:0003e65b       ?OnGetViewStatus@COleControl@@UAEKXZ 5f53f65b f   ctlview.obj
 0001:0003e66b       ?OnQueryHitPoint@COleControl@@UAEHKPBUtagRECT@@UtagPOINT@@JPAK@Z 5f53f66b f   ctlview.obj
 0001:0003e690       ?OnQueryHitRect@COleControl@@UAEHKPBUtagRECT@@0JPAK@Z 5f53f690 f   ctlview.obj
 0001:0003e6b5       ?OnGetNaturalExtent@COleControl@@UAEHKJPAUtagDVTARGETDEVICE@@PAUHDC__@@PAUtagExtentInfo@@PAUtagSIZE@@@Z 5f53f6b5 f   ctlview.obj
 0001:0003e6c4       ?AddRef@XViewObject@COleControl@@UAGKXZ 5f53f6c4 f   ctlview.obj
 0001:0003e6e1       ?Release@XViewObject@COleControl@@UAGKXZ 5f53f6e1 f   ctlview.obj
 0001:0003e6fe       ?QueryInterface@XViewObject@COleControl@@UAGJABU_GUID@@PAPAX@Z 5f53f6fe f   ctlview.obj
 0001:0003e723       ?Draw@XViewObject@COleControl@@UAGJKJPAXPAUtagDVTARGETDEVICE@@PAUHDC__@@2PBU_RECTL@@3P6GHK@ZK@Z 5f53f723 f   ctlview.obj
 0001:0003e99c       ?GetColorSet@XViewObject@COleControl@@UAGJKJPAXPAUtagDVTARGETDEVICE@@PAUHDC__@@PAPAUtagLOGPALETTE@@@Z 5f53f99c f   ctlview.obj
 0001:0003ea38       ?Freeze@XViewObject@COleControl@@UAGJKJPAXPAK@Z 5f53fa38 f   ctlview.obj
 0001:0003ea44       ?Unfreeze@XViewObject@COleControl@@UAGJK@Z 5f53fa44 f   ctlview.obj
 0001:0003ea50       ?SetAdvise@XViewObject@COleControl@@UAGJKKPAUIAdviseSink@@@Z 5f53fa50 f   ctlview.obj
 0001:0003eba6       ?GetAdvise@XViewObject@COleControl@@UAGJPAK0PAPAUIAdviseSink@@@Z 5f53fba6 f   ctlview.obj
 0001:0003ec53       ?GetExtent@XViewObject@COleControl@@UAGJKJPAUtagDVTARGETDEVICE@@PAUtagSIZE@@@Z 5f53fc53 f   ctlview.obj
 0001:0003ec94       ?GetRect@XViewObject@COleControl@@UAGJKPAU_RECTL@@@Z 5f53fc94 f   ctlview.obj
 0001:0003eccd       ?GetViewStatus@XViewObject@COleControl@@UAGJPAK@Z 5f53fccd f   ctlview.obj
 0001:0003ecf7       ?QueryHitPoint@XViewObject@COleControl@@UAGJKPBUtagRECT@@UtagPOINT@@JPAK@Z 5f53fcf7 f   ctlview.obj
 0001:0003ed40       ?QueryHitRect@XViewObject@COleControl@@UAGJKPBUtagRECT@@0JPAK@Z 5f53fd40 f   ctlview.obj
 0001:0003ed85       ?GetNaturalExtent@XViewObject@COleControl@@UAGJKJPAUtagDVTARGETDEVICE@@PAUHDC__@@PAUtagExtentInfo@@PAUtagSIZE@@@Z 5f53fd85 f   ctlview.obj
 0001:0003edd0       ??0CAccessorBase@ATL@@QAE@XZ 5f53fdd0 f i ctlview.obj
 0001:0003edd0       ??0_AFXCTL_ADVISE_INFO@@QAE@XZ 5f53fdd0 f i ctlview.obj
 0001:0003ee00       ?_AfxCountPrefixedStringA@@YGPAXPBD@Z 5f53fe00 f   olepset.obj
 0001:0003ee51       ?_AfxCountPrefixedStringW@@YGPAXPBG@Z 5f53fe51 f   olepset.obj
 0001:0003eea9       ??0CProperty@@QAE@XZ       5f53fea9 f   olepset.obj
 0001:0003eed4       ??0CProperty@@QAE@KQAXK@Z  5f53fed4 f   olepset.obj
 0001:0003ef13       ??1CProperty@@QAE@XZ       5f53ff13 f   olepset.obj
 0001:0003ef26       ?Set@CProperty@@QAEHKQAXK@Z 5f53ff26 f   olepset.obj
 0001:0003ef50       ?Set@CProperty@@QAEHQAXK@Z 5f53ff50 f   olepset.obj
 0001:0003ef72       ?Set@CProperty@@QAEHQAX@Z  5f53ff72 f   olepset.obj
 0001:0003f276       ?Get@CProperty@@QAEPAXXZ   5f540276 f   olepset.obj
 0001:0003f28b       ?Get@CProperty@@QAEPAXPAK@Z 5f54028b f   olepset.obj
 0001:0003f3af       ?GetType@CProperty@@QAEKXZ 5f5403af f   olepset.obj
 0001:0003f3c0       ?SetType@CProperty@@QAEXK@Z 5f5403c0 f   olepset.obj
 0001:0003f3d6       ?GetID@CProperty@@QAEKXZ   5f5403d6 f   olepset.obj
 0001:0003f3e6       ?SetID@CProperty@@QAEXK@Z  5f5403e6 f   olepset.obj
 0001:0003f3fb       ?GetRawValue@CProperty@@QAEPAXXZ 5f5403fb f   olepset.obj
 0001:0003f40c       ?WriteToStream@CProperty@@QAEHPAUIStream@@@Z 5f54040c f   olepset.obj
 0001:0003f632       ?ReadFromStream@CProperty@@QAEHPAUIStream@@@Z 5f540632 f   olepset.obj
 0001:0003f93c       ?AllocValue@CProperty@@AAEPAXK@Z 5f54093c f   olepset.obj
 0001:0003f962       ?FreeValue@CProperty@@AAEXXZ 5f540962 f   olepset.obj
 0001:0003f990       ??0CPropertySection@@QAE@XZ 5f540990 f   olepset.obj
 0001:0003fa2e       ??0CPropertySection@@QAE@U_GUID@@@Z 5f540a2e f   olepset.obj
 0001:0003fac2       ??1CPropertySection@@QAE@XZ 5f540ac2 f   olepset.obj
 0001:0003fb2b       ?GetFormatID@CPropertySection@@QAE?AU_GUID@@XZ 5f540b2b f   olepset.obj
 0001:0003fb57       ?SetFormatID@CPropertySection@@QAEXU_GUID@@@Z 5f540b57 f   olepset.obj
 0001:0003fb7e       ?Set@CPropertySection@@QAEHKPAXK@Z 5f540b7e f   olepset.obj
 0001:0003fc4e       ?Set@CPropertySection@@QAEHKPAX@Z 5f540c4e f   olepset.obj
 0001:0003fc9b       ?Get@CPropertySection@@QAEPAXK@Z 5f540c9b f   olepset.obj
 0001:0003fcb6       ?Get@CPropertySection@@QAEPAXKPAK@Z 5f540cb6 f   olepset.obj
 0001:0003fcea       ?Remove@CPropertySection@@QAEXK@Z 5f540cea f   olepset.obj
 0001:0003fd7b       ?RemoveAll@CPropertySection@@QAEXXZ 5f540d7b f   olepset.obj
 0001:0003fde9       ?GetProperty@CPropertySection@@QAEPAVCProperty@@K@Z 5f540de9 f   olepset.obj
 0001:0003fe33       ?AddProperty@CPropertySection@@QAEXPAVCProperty@@@Z 5f540e33 f   olepset.obj
 0001:0003fe5e       ?GetSize@CPropertySection@@QAEKXZ 5f540e5e f   olepset.obj
 0001:0003fe6f       ?GetCount@CPropertySection@@QAEKXZ 5f540e6f f   olepset.obj
 0001:0003fe85       ?GetList@CPropertySection@@QAEPAVCPtrList@@XZ 5f540e85 f   olepset.obj
 0001:0003fe96       ?WriteToStream@CPropertySection@@QAEHPAUIStream@@@Z 5f540e96 f   olepset.obj
 0001:00040141       ?ReadFromStream@CPropertySection@@QAEHPAUIStream@@T_LARGE_INTEGER@@@Z 5f541141 f   olepset.obj
 0001:00040317       ?GetID@CPropertySection@@QAEHPBDPAK@Z 5f541317 f   olepset.obj
 0001:000403b8       ?SetName@CPropertySection@@QAEHKPBD@Z 5f5413b8 f   olepset.obj
 0001:000404fc       ?ReadNameDictFromStream@CPropertySection@@QAEHPAUIStream@@@Z 5f5414fc f   olepset.obj
 0001:00040652       ?_AfxWriteNameDictEntry@@YGHPAUIStream@@KAAVCString@@@Z 5f541652 f   olepset.obj
 0001:00040722       ?WriteNameDictToStream@CPropertySection@@QAEHPAUIStream@@@Z 5f541722 f   olepset.obj
 0001:0004084c       ?SetSectionName@CPropertySection@@QAEHPBD@Z 5f54184c f   olepset.obj
 0001:0004086d       ?GetSectionName@CPropertySection@@QAEPBDXZ 5f54186d f   olepset.obj
 0001:00040883       ??0CPropertySet@@QAE@XZ    5f541883 f   olepset.obj
 0001:000408f8       ??0CPropertySet@@QAE@U_GUID@@@Z 5f5418f8 f   olepset.obj
 0001:00040963       ??1CPropertySet@@QAE@XZ    5f541963 f   olepset.obj
 0001:000409ae       ?Set@CPropertySet@@QAEHU_GUID@@KPAXK@Z 5f5419ae f   olepset.obj
 0001:00040a9b       ?Set@CPropertySet@@QAEHU_GUID@@KPAX@Z 5f541a9b f   olepset.obj
 0001:00040aeb       ?Get@CPropertySet@@QAEPAXU_GUID@@KPAK@Z 5f541aeb f   olepset.obj
 0001:00040b3b       ?Get@CPropertySet@@QAEPAXU_GUID@@K@Z 5f541b3b f   olepset.obj
 0001:00040b72       ?Remove@CPropertySet@@QAEXU_GUID@@K@Z 5f541b72 f   olepset.obj
 0001:00040bba       ?Remove@CPropertySet@@QAEXU_GUID@@@Z 5f541bba f   olepset.obj
 0001:00040c5b       ?RemoveAll@CPropertySet@@QAEXXZ 5f541c5b f   olepset.obj
 0001:00040cc9       ?GetSection@CPropertySet@@QAEPAVCPropertySection@@U_GUID@@@Z 5f541cc9 f   olepset.obj
 0001:00040d1d       ?AddSection@CPropertySet@@QAEPAVCPropertySection@@U_GUID@@@Z 5f541d1d f   olepset.obj
 0001:00040df9       ?AddSection@CPropertySet@@QAEXPAVCPropertySection@@@Z 5f541df9 f   olepset.obj
 0001:00040e24       ?GetProperty@CPropertySet@@QAEPAVCProperty@@U_GUID@@K@Z 5f541e24 f   olepset.obj
 0001:00040e70       ?AddProperty@CPropertySet@@QAEXU_GUID@@PAVCProperty@@@Z 5f541e70 f   olepset.obj
 0001:00040eb8       ?GetByteOrder@CPropertySet@@QAEGXZ 5f541eb8 f   olepset.obj
 0001:00040ec9       ?GetFormatVersion@CPropertySet@@QAEGXZ 5f541ec9 f   olepset.obj
 0001:00040edb       ?SetFormatVersion@CPropertySet@@QAEXG@Z 5f541edb f   olepset.obj
 0001:00040ef3       ?GetOSVersion@CPropertySet@@QAEKXZ 5f541ef3 f   olepset.obj
 0001:00040f04       ?SetOSVersion@CPropertySet@@QAEXK@Z 5f541f04 f   olepset.obj
 0001:00040f1a       ?GetClassID@CPropertySet@@QAE?AU_GUID@@XZ 5f541f1a f   olepset.obj
 0001:00040f49       ?SetClassID@CPropertySet@@QAEXU_GUID@@@Z 5f541f49 f   olepset.obj
 0001:00040f73       ?GetCount@CPropertySet@@QAEKXZ 5f541f73 f   olepset.obj
 0001:00040f89       ?GetList@CPropertySet@@QAEPAVCPtrList@@XZ 5f541f89 f   olepset.obj
 0001:00040f9a       ?WriteToStream@CPropertySet@@QAEHPAUIStream@@@Z 5f541f9a f   olepset.obj
 0001:00041152       ?ReadFromStream@CPropertySet@@QAEHPAUIStream@@@Z 5f542152 f   olepset.obj
 0001:00041330       ??_GCProperty@@QAEPAXI@Z   5f542330 f i olepset.obj
 0001:00041360       ??_GCPropertySection@@QAEPAXI@Z 5f542360 f i olepset.obj
 0001:00041390       ??0CBlobProperty@@QAE@PAX@Z 5f542390 f   ctlpbag.obj
 0001:000413c4       ?GetBlob@CBlobProperty@@QAEPAXXZ 5f5423c4 f   ctlpbag.obj
 0001:000413d5       ?AddRef@CBlobProperty@@UAGKXZ 5f5423d5 f   ctlpbag.obj
 0001:000413e9       ?Release@CBlobProperty@@UAGKXZ 5f5423e9 f   ctlpbag.obj
 0001:00041420       ?QueryInterface@CBlobProperty@@UAGJABU_GUID@@PAPAX@Z 5f542420 f   ctlpbag.obj
 0001:0004148c       ?GetClassID@CBlobProperty@@UAGJPAU_GUID@@@Z 5f54248c f   ctlpbag.obj
 0001:000414bb       ?IsDirty@CBlobProperty@@UAGJXZ 5f5424bb f   ctlpbag.obj
 0001:000414c4       ?Load@CBlobProperty@@UAGJPAUIStream@@@Z 5f5424c4 f   ctlpbag.obj
 0001:000415ac       ?Save@CBlobProperty@@UAGJPAUIStream@@H@Z 5f5425ac f   ctlpbag.obj
 0001:00041624       ?GetSizeMax@CBlobProperty@@UAGJPAT_ULARGE_INTEGER@@@Z 5f542624 f   ctlpbag.obj
 0001:00041671       ??0CPropbagPropExchange@@QAE@PAUIPropertyBag@@PAUIErrorLog@@HH@Z 5f542671 f   ctlpbag.obj
 0001:000416da       ??1CPropbagPropExchange@@QAE@XZ 5f5426da f   ctlpbag.obj
 0001:00041744       ?ExchangeProp@CPropbagPropExchange@@UAEHPBDGPAXPBX@Z 5f542744 f   ctlpbag.obj
 0001:00041c2b       ?ExchangeBlobProp@CPropbagPropExchange@@UAEHPBDPAPAXPAX@Z 5f542c2b f   ctlpbag.obj
 0001:00041f24       ?ExchangeFontProp@CPropbagPropExchange@@UAEHPBDAAVCFontHolder@@PBUtagFONTDESC@@PAUIFontDisp@@@Z 5f542f24 f   ctlpbag.obj
 0001:00042220       ?ExchangePersistentProp@CPropbagPropExchange@@UAEHPBDPAPAUIUnknown@@ABU_GUID@@PAU2@@Z 5f543220 f   ctlpbag.obj
 0001:000424f2       ?AddRef@XPersistPropertyBag@COleControl@@UAGKXZ 5f5434f2 f   ctlpbag.obj
 0001:0004250f       ?Release@XPersistPropertyBag@COleControl@@UAGKXZ 5f54350f f   ctlpbag.obj
 0001:0004252c       ?QueryInterface@XPersistPropertyBag@COleControl@@UAGJABU_GUID@@PAPAX@Z 5f54352c f   ctlpbag.obj
 0001:00042551       ?GetClassID@XPersistPropertyBag@COleControl@@UAGJPAU_GUID@@@Z 5f543551 f   ctlpbag.obj
 0001:00042578       ?InitNew@XPersistPropertyBag@COleControl@@UAGJXZ 5f543578 f   ctlpbag.obj
 0001:0004262b       ?Load@XPersistPropertyBag@COleControl@@UAGJPAUIPropertyBag@@PAUIErrorLog@@@Z 5f54362b f   ctlpbag.obj
 0001:00042783       ?Save@XPersistPropertyBag@COleControl@@UAGJPAUIPropertyBag@@HH@Z 5f543783 f   ctlpbag.obj
 0001:000428d5       ??0_AFXCTL_AMBIENT_CACHE@@QAE@XZ 5f5438d5 f   ctlquick.obj
 0001:000428f4       ?Cache@_AFXCTL_AMBIENT_CACHE@@QAEXPAUtagQACONTAINER@@@Z 5f5438f4 f   ctlquick.obj
 0001:0004297c       ?AddRef@XQuickActivate@COleControl@@UAGKXZ 5f54397c f   ctlquick.obj
 0001:00042999       ?Release@XQuickActivate@COleControl@@UAGKXZ 5f543999 f   ctlquick.obj
 0001:000429b6       ?QueryInterface@XQuickActivate@COleControl@@UAGJABU_GUID@@PAPAX@Z 5f5439b6 f   ctlquick.obj
 0001:000429db       ?QuickActivate@XQuickActivate@COleControl@@UAGJPAUtagQACONTAINER@@PAUtagQACONTROL@@@Z 5f5439db f   ctlquick.obj
 0001:00042b69       ?SetContentExtent@XQuickActivate@COleControl@@UAGJPAUtagSIZE@@@Z 5f543b69 f   ctlquick.obj
 0001:00042b9a       ?GetContentExtent@XQuickActivate@COleControl@@UAGJPAUtagSIZE@@@Z 5f543b9a f   ctlquick.obj
 0001:00042bd0       ??1?$CThreadLocal@V_AFXCTL_AMBIENT_CACHE@@@@QAE@XZ 5f543bd0 f i ctlquick.obj
 0001:00042bf0       ??_ECOccManager@@UAEPAXI@Z 5f543bf0 f i ctlquick.obj
 0001:00042bf0       ??_G_AFXCTL_AMBIENT_CACHE@@UAEPAXI@Z 5f543bf0 f i ctlquick.obj
 0001:00042bf0       ??_GCOccManager@@UAEPAXI@Z 5f543bf0 f i ctlquick.obj
 0001:00042bf0       ??_E_AFXCTL_AMBIENT_CACHE@@UAEPAXI@Z 5f543bf0 f i ctlquick.obj
 0001:00042c20       ??1COccManager@@UAE@XZ     5f543c20 f i ctlquick.obj
 0001:00042c20       ??1_AFXCTL_AMBIENT_CACHE@@UAE@XZ 5f543c20 f i ctlquick.obj
 0001:00042c40       ?_GetBaseClass@CWindowlessDC@@KGPAUCRuntimeClass@@XZ 5f543c40 f   ctlnownd.obj
 0001:00042c4a       ?GetRuntimeClass@CWindowlessDC@@UBEPAUCRuntimeClass@@XZ 5f543c4a f   ctlnownd.obj
 0001:00042c5a       ??0CWindowlessDC@@QAE@PAUHDC__@@AAVCPoint@@@Z 5f543c5a f   ctlnownd.obj
 0001:00042d25       ?Detach@CWindowlessDC@@QAEPAUHDC__@@XZ 5f543d25 f   ctlnownd.obj
 0001:00042d75       ?GetClientOffset@COleControl@@UBEXPAJ0@Z 5f543d75 f   ctlnownd.obj
 0001:00042dee       ?ParentToClient@COleControl@@UBEIPBUtagRECT@@PAUtagPOINT@@H@Z 5f543dee f   ctlnownd.obj
 0001:00042eb3       ?ClientToParent@COleControl@@UBEXPBUtagRECT@@PAUtagPOINT@@@Z 5f543eb3 f   ctlnownd.obj
 0001:00042f03       ?GetActivationPolicy@COleControl@@UAEKXZ 5f543f03 f   ctlnownd.obj
 0001:00042f10       ?OnInactiveSetCursor@COleControl@@UAEHPBUtagRECT@@JJKH@Z 5f543f10 f   ctlnownd.obj
 0001:00042fac       ?OnInactiveMouseMove@COleControl@@UAEXPBUtagRECT@@JJK@Z 5f543fac f   ctlnownd.obj
 0001:00043013       ?AddRef@XPointerInactive@COleControl@@UAGKXZ 5f544013 f   ctlnownd.obj
 0001:00043030       ?Release@XPointerInactive@COleControl@@UAGKXZ 5f544030 f   ctlnownd.obj
 0001:0004304d       ?QueryInterface@XPointerInactive@COleControl@@UAGJABU_GUID@@PAPAX@Z 5f54404d f   ctlnownd.obj
 0001:00043072       ?GetActivationPolicy@XPointerInactive@COleControl@@UAGJPAK@Z 5f544072 f   ctlnownd.obj
 0001:0004309c       ?OnInactiveSetCursor@XPointerInactive@COleControl@@UAGJPBUtagRECT@@JJKH@Z 5f54409c f   ctlnownd.obj
 0001:000430d8       ?OnInactiveMouseMove@XPointerInactive@COleControl@@UAGJPBUtagRECT@@JJK@Z 5f5440d8 f   ctlnownd.obj
 0001:0004310d       ?OnWindowlessMessage@COleControl@@UAEHIIJPAJ@Z 5f54410d f   ctlnownd.obj
 0001:000431ae       ?GetWindowlessDropTarget@COleControl@@UAEPAUIDropTarget@@XZ 5f5441ae f   ctlnownd.obj
 0001:000431bb       ?OnWindowMessage@XOleInPlaceObject@COleControl@@UAGJIIJPAJ@Z 5f5441bb f   ctlnownd.obj
 0001:000431f3       ?GetDropTarget@XOleInPlaceObject@COleControl@@UAGJPAPAUIDropTarget@@@Z 5f5441f3 f   ctlnownd.obj
 0001:0004322e       ?SetCapture@COleControl@@QAEPAVCWnd@@XZ 5f54422e f   ctlnownd.obj
 0001:000432e2       ?ReleaseCapture@COleControl@@QAEHXZ 5f5442e2 f   ctlnownd.obj
 0001:00043389       ?GetCapture@COleControl@@QAEPAVCWnd@@XZ 5f544389 f   ctlnownd.obj
 0001:00043431       ?SetFocus@COleControl@@QAEPAVCWnd@@XZ 5f544431 f   ctlnownd.obj
 0001:000434e5       ?GetFocus@COleControl@@QAEPAVCWnd@@XZ 5f5444e5 f   ctlnownd.obj
 0001:0004358d       ?GetDC@COleControl@@QAEPAVCDC@@PBUtagRECT@@K@Z 5f54458d f   ctlnownd.obj
 0001:000437d9       ?ReleaseDC@COleControl@@QAEHPAVCDC@@@Z 5f5447d9 f   ctlnownd.obj
 0001:000438f9       ?InvalidateRgn@COleControl@@QAEXPAVCRgn@@H@Z 5f5448f9 f   ctlnownd.obj
 0001:00043a51       ?ScrollWindow@COleControl@@QAEXHHPBUtagRECT@@0@Z 5f544a51 f   ctlnownd.obj
 0001:00043bd1       ?ClipCaretRect@COleControl@@QAEHPAUtagRECT@@@Z 5f544bd1 f   ctlnownd.obj
 0001:00043ca7       ?GetClientRect@COleControl@@UBEXPAUtagRECT@@@Z 5f544ca7 f   ctlnownd.obj
 0001:00043e10       ??_ECWindowlessDC@@UAEPAXI@Z 5f544e10 f i ctlnownd.obj
 0001:00043e10       ??_GCWindowlessDC@@UAEPAXI@Z 5f544e10 f i ctlnownd.obj
 0001:00043e40       ??1CWindowlessDC@@UAE@XZ   5f544e40 f i ctlnownd.obj
 0001:00043e60       ??0CColorButton@@QAE@XZ    5f544e60 f   ppgcolor.obj
 0001:00043e89       ?SetFaceColor@CColorButton@@QAEXK@Z 5f544e89 f   ppgcolor.obj
 0001:00043e9f       ?colGetFaceColor@CColorButton@@QAEKXZ 5f544e9f f   ppgcolor.obj
 0001:00043eb0       ?SetState@CColorButton@@QAEXH@Z 5f544eb0 f   ppgcolor.obj
 0001:00043ec6       ?DrawItem@CColorButton@@MAEXPAUtagDRAWITEMSTRUCT@@@Z 5f544ec6 f   ppgcolor.obj
 0001:00044161       ?_GetBaseMessageMap@CColorPropPage@@KGPBUAFX_MSGMAP@@XZ 5f545161 f   ppgcolor.obj
 0001:0004416b       ?GetMessageMap@CColorPropPage@@MBEPBUAFX_MSGMAP@@XZ 5f54516b f   ppgcolor.obj
 0001:0004417b       ??0CColorPropPage@@QAE@XZ  5f54517b f   ppgcolor.obj
 0001:0004421f       ?OnInitDialog@CColorPropPage@@MAEHXZ 5f54521f f   ppgcolor.obj
 0001:000442ed       ?FillSysColors@CColorPropPage@@IAEXXZ 5f5452ed f   ppgcolor.obj
 0001:000443a8       ?DoDataExchange@CColorPropPage@@MAEXPAVCDataExchange@@@Z 5f5453a8 f   ppgcolor.obj
 0001:000445ce       ?SetColorProp@CColorPropPage@@IAEHPAVCDataExchange@@KPBD@Z 5f5455ce f   ppgcolor.obj
 0001:000447da       ?GetColorProp@CColorPropPage@@IAEHPAVCDataExchange@@PAKPBD@Z 5f5457da f   ppgcolor.obj
 0001:000449b5       ?OnSelect@CColorPropPage@@AAEXXZ 5f5459b5 f   ppgcolor.obj
 0001:000449d7       ?SetButton@CColorPropPage@@AAEXPAVCColorButton@@@Z 5f5459d7 f   ppgcolor.obj
 0001:00044a4c       ?OnSelchangeColorprop@CColorPropPage@@AAEXXZ 5f545a4c f   ppgcolor.obj
 0001:00044a68       ?_AfxDraw3DFrame@@YAXPAVCDC@@VCRect@@KK@Z 5f545a68 f   ppgcolor.obj
 0001:00044c2b       ?_AfxDraw3DButtonFrame@@YAXPAVCDC@@VCRect@@H@Z 5f545c2b f   ppgcolor.obj
 0001:00044e35       ?_AfxInitPalette@@YAPAUHPALETTE__@@XZ 5f545e35 f   ppgcolor.obj
 0001:00045068       ?OnSelchangeSystemcolors@CColorPropPage@@AAEXXZ 5f546068 f   ppgcolor.obj
 0001:000450ac       ?OnEditProperty@CColorPropPage@@MAEHJ@Z 5f5460ac f   ppgcolor.obj
 0001:000450ce       ?OnObjectsChanged@CColorPropPage@@MAEXXZ 5f5460ce f   ppgcolor.obj
 0001:000451de       ?GetClassID@CColorPropPage@@UAEJPAU_GUID@@@Z 5f5461de f   ppgcolor.obj
 0001:00045213       ?UpdateRegistry@CColorPropPageFactory@CColorPropPage@@UAEHH@Z 5f546213 f   ppgcolor.obj
 0001:00045250       ??_GCColorButton@@UAEPAXI@Z 5f546250 f i ppgcolor.obj
 0001:00045250       ??_ECColorButton@@UAEPAXI@Z 5f546250 f i ppgcolor.obj
 0001:00045280       ??1CColorButton@@UAE@XZ    5f546280 f i ppgcolor.obj
 0001:000452a0       ??_GCColorPropPage@@UAEPAXI@Z 5f5462a0 f i ppgcolor.obj
 0001:000452a0       ??_ECColorPropPage@@UAEPAXI@Z 5f5462a0 f i ppgcolor.obj
 0001:000452d0       ??1CStockPropPage@@UAE@XZ  5f5462d0 f i ppgcolor.obj
 0001:00045320       ??1CColorPropPage@@UAE@XZ  5f546320 f i ppgcolor.obj
 0001:000453a0       ??0CColorPropPageFactory@CColorPropPage@@QAE@ABU_GUID@@PAUCRuntimeClass@@HPBD@Z 5f5463a0 f i ppgcolor.obj
 0001:000453e0       ?_GetBaseMessageMap@CFontPropPage@@KGPBUAFX_MSGMAP@@XZ 5f5463e0 f   ppgfont.obj
 0001:000453ea       ?GetMessageMap@CFontPropPage@@MBEPBUAFX_MSGMAP@@XZ 5f5463ea f   ppgfont.obj
 0001:000453fa       ??0CFontPropPage@@QAE@XZ   5f5463fa f   ppgfont.obj
 0001:000454ca       ?_AfxStringFromCy@@YAHAAVCString@@AATtagCY@@@Z 5f5464ca f   ppgfont.obj
 0001:0004554d       ?_AfxCyFromString@@YAHAATtagCY@@PBD@Z 5f54654d f   ppgfont.obj
 0001:0004563b       ?_AfxDrawMaskedBitmap@@YAXPAVCDC@@PAVCBitmap@@1HHHH@Z 5f54663b f   ppgfont.obj
 0001:00045771       ?_AfxInitMaskFromBitmap@@YAXPAVCBitmap@@0@Z 5f546771 f   ppgfont.obj
 0001:00045883       ?DoDataExchange@CFontPropPage@@MAEXPAVCDataExchange@@@Z 5f546883 f   ppgfont.obj
 0001:00045b94       ?SetFontProps@CFontPropPage@@IAEHPAVCDataExchange@@UtagFONTOBJECT@@PBD@Z 5f546b94 f   ppgfont.obj
 0001:00045ee9       ?GetFontProps@CFontPropPage@@IAEHPAVCDataExchange@@PAUtagFONTOBJECT@@PBDPAUtagMERGEOBJECT@@@Z 5f546ee9 f   ppgfont.obj
 0001:000462a4       ?OnInitDialog@CFontPropPage@@MAEHXZ 5f5472a4 f   ppgfont.obj
 0001:000462d7       ?FillFacenameList@CFontPropPage@@IAEXXZ 5f5472d7 f   ppgfont.obj
 0001:000463c6       ?EnumFontFamiliesCallBack@CFontPropPage@@KGHPAUtagENUMLOGFONTA@@PAUtagNEWTEXTMETRICA@@HJ@Z 5f5473c6 f   ppgfont.obj
 0001:00046417       ?FillSizeList@CFontPropPage@@IAEXXZ 5f547417 f   ppgfont.obj
 0001:00046825       ?EnumFontFamiliesCallBack2@CFontPropPage@@KGHPAUtagENUMLOGFONTA@@PAUtagNEWTEXTMETRICA@@HJ@Z 5f547825 f   ppgfont.obj
 0001:0004699e       ??0CFontComboBox@@QAE@XZ   5f54799e f   ppgfont.obj
 0001:00046a2e       ??1CFontComboBox@@UAE@XZ   5f547a2e f   ppgfont.obj
 0001:00046a91       ?AddFont@CFontComboBox@@QAEHPAUtagLOGFONTA@@K@Z 5f547a91 f   ppgfont.obj
 0001:00046bd6       ?GetFontItem@CFontComboBox@@QAEPAUFONTITEM_PPG@@H@Z 5f547bd6 f   ppgfont.obj
 0001:00046ca4       ?GetLogFont@CFontComboBox@@QAEPAUtagLOGFONTA@@H@Z 5f547ca4 f   ppgfont.obj
 0001:00046cc0       ?GetFontType@CFontComboBox@@QAEKH@Z 5f547cc0 f   ppgfont.obj
 0001:00046cdb       ?GetCurrentName@CFontComboBox@@QAE?AVCString@@XZ 5f547cdb f   ppgfont.obj
 0001:00046d4f       ?DrawItem@CFontComboBox@@UAEXPAUtagDRAWITEMSTRUCT@@@Z 5f547d4f f   ppgfont.obj
 0001:00046f09       ?DeleteItem@CFontComboBox@@UAEXPAUtagDELETEITEMSTRUCT@@@Z 5f547f09 f   ppgfont.obj
 0001:00046f8f       ?AddSize@CSizeComboBox@@QAEHHJ@Z 5f547f8f f   ppgfont.obj
 0001:00047131       ?GetPointSize@CSizeComboBox@@QAEXAATtagCY@@@Z 5f548131 f   ppgfont.obj
 0001:00047171       ?GetHeight@CSizeComboBox@@QAEJH@Z 5f548171 f   ppgfont.obj
 0001:00047220       ?UpdateLogFont@CSizeComboBox@@QAEXPAUtagLOGFONTA@@H@Z 5f548220 f   ppgfont.obj
 0001:0004726e       ?OnEditupdateFontnames@CFontPropPage@@IAEXXZ 5f54826e f   ppgfont.obj
 0001:00047318       ?OnEditupdateFontsizes@CFontPropPage@@IAEXXZ 5f548318 f   ppgfont.obj
 0001:00047390       ?OnSelchangeFontnames@CFontPropPage@@IAEXXZ 5f548390 f   ppgfont.obj
 0001:000473a3       ?UpdateSampleFont@CFontPropPage@@IAEXXZ 5f5483a3 f   ppgfont.obj
 0001:000474c7       ?OnPaint@CFontPropPage@@MAEXXZ 5f5484c7 f   ppgfont.obj
 0001:0004772d       ?OnSelchangeFontsizes@CFontPropPage@@IAEXXZ 5f54872d f   ppgfont.obj
 0001:00047774       ?OnSelchangeFontstyles@CFontPropPage@@IAEXXZ 5f548774 f   ppgfont.obj
 0001:000477c7       ?OnEditchangeFontstyles@CFontPropPage@@IAEXXZ 5f5487c7 f   ppgfont.obj
 0001:0004789e       ?SelectFontFromList@CFontPropPage@@IAEXVCString@@PAUtagMERGEOBJECT@@@Z 5f54889e f   ppgfont.obj
 0001:00047a68       ?OnStrikeout@CFontPropPage@@IAEXXZ 5f548a68 f   ppgfont.obj
 0001:00047ab6       ?OnUnderline@CFontPropPage@@IAEXXZ 5f548ab6 f   ppgfont.obj
 0001:00047b04       ?OnSelchangeFontprop@CFontPropPage@@IAEXXZ 5f548b04 f   ppgfont.obj
 0001:00047b20       ?OnEditProperty@CFontPropPage@@MAEHJ@Z 5f548b20 f   ppgfont.obj
 0001:00047b42       ?OnObjectsChanged@CFontPropPage@@MAEXXZ 5f548b42 f   ppgfont.obj
 0001:00047c7f       ?GetClassID@CFontPropPage@@UAEJPAU_GUID@@@Z 5f548c7f f   ppgfont.obj
 0001:00047cb4       ?UpdateRegistry@CFontPropPageFactory@CFontPropPage@@UAEHH@Z 5f548cb4 f   ppgfont.obj
 0001:00047cf0       ??_ECFontPropPage@@UAEPAXI@Z 5f548cf0 f i ppgfont.obj
 0001:00047cf0       ??_GCFontPropPage@@UAEPAXI@Z 5f548cf0 f i ppgfont.obj
 0001:00047d20       ??0CSizeComboBox@@QAE@XZ   5f548d20 f i ppgfont.obj
 0001:00047d40       ??1CSizeComboBox@@UAE@XZ   5f548d40 f i ppgfont.obj
 0001:00047d60       ??1CFontPropPage@@UAE@XZ   5f548d60 f i ppgfont.obj
 0001:00047e20       ??_ECSizeComboBox@@UAEPAXI@Z 5f548e20 f i ppgfont.obj
 0001:00047e20       ??_GCSizeComboBox@@UAEPAXI@Z 5f548e20 f i ppgfont.obj
 0001:00047e50       ??0tagFONTOBJECT@@QAE@XZ   5f548e50 f i ppgfont.obj
 0001:00047e70       ??1tagFONTOBJECT@@QAE@XZ   5f548e70 f i ppgfont.obj
 0001:00047e90       ??0tagFONTOBJECT@@QAE@ABU0@@Z 5f548e90 f i ppgfont.obj
 0001:00047f00       ??_ECFontComboBox@@UAEPAXI@Z 5f548f00 f i ppgfont.obj
 0001:00047f00       ??_GCFontComboBox@@UAEPAXI@Z 5f548f00 f i ppgfont.obj
 0001:00047f30       ??_9@$BOM@AE               5f548f30 f i ppgfont.obj
 0001:00047f40       ??0CFontPropPageFactory@CFontPropPage@@QAE@ABU_GUID@@PAUCRuntimeClass@@HPBD@Z 5f548f40 f i ppgfont.obj
 0001:00047f80       ??_GCColorPropPageFactory@CColorPropPage@@UAEPAXI@Z 5f548f80 f i ppgfont.obj
 0001:00047f80       ??_ECFontPropPageFactory@CFontPropPage@@UAEPAXI@Z 5f548f80 f i ppgfont.obj
 0001:00047f80       ??_GCFontPropPageFactory@CFontPropPage@@UAEPAXI@Z 5f548f80 f i ppgfont.obj
 0001:00047f80       ??_ECColorPropPageFactory@CColorPropPage@@UAEPAXI@Z 5f548f80 f i ppgfont.obj
 0001:00047f80       ??_ECPicturePropPageFactory@CPicturePropPage@@UAEPAXI@Z 5f548f80 f i ppgfont.obj
 0001:00047f80       ??_GCPicturePropPageFactory@CPicturePropPage@@UAEPAXI@Z 5f548f80 f i ppgfont.obj
 0001:00047fb0       ?_GetBaseMessageMap@CPicturePropPage@@KGPBUAFX_MSGMAP@@XZ 5f548fb0 f   ppgpict.obj
 0001:00047fba       ?GetMessageMap@CPicturePropPage@@MBEPBUAFX_MSGMAP@@XZ 5f548fba f   ppgpict.obj
 0001:00047fca       ??0CPicturePropPage@@QAE@XZ 5f548fca f   ppgpict.obj
 0001:0004804d       ??1CPicturePropPage@@UAE@XZ 5f54904d f   ppgpict.obj
 0001:000480eb       ?OnInitDialog@CPicturePropPage@@MAEHXZ 5f5490eb f   ppgpict.obj
 0001:0004814a       ?DoDataExchange@CPicturePropPage@@MAEXPAVCDataExchange@@@Z 5f54914a f   ppgpict.obj
 0001:00048219       ?SetPictureProp@CPicturePropPage@@IAEHPAVCDataExchange@@PAUIPictureDisp@@PBD@Z 5f549219 f   ppgpict.obj
 0001:00048436       ?GetPictureProp@CPicturePropPage@@IAEHPAVCDataExchange@@PAPAUIPictureDisp@@PBD@Z 5f549436 f   ppgpict.obj
 0001:0004866e       ?OnPaint@CPicturePropPage@@IAEXXZ 5f54966e f   ppgpict.obj
 0001:000488e3       ?_AfxCreateStreamOnFile@@YAJPBDPAPAUIStream@@PAJ@Z 5f5498e3 f   ppgpict.obj
 0001:00048af6       ?OnBrowse@CPicturePropPage@@IAEXXZ 5f549af6 f   ppgpict.obj
 0001:00048eaa       ?OnClear@CPicturePropPage@@IAEXXZ 5f549eaa f   ppgpict.obj
 0001:00048f08       ?ChangePicture@CPicturePropPage@@IAEXPAUIPicture@@@Z 5f549f08 f   ppgpict.obj
 0001:00048ff1       ?OnSelchangePictProp@CPicturePropPage@@IAEXXZ 5f549ff1 f   ppgpict.obj
 0001:000490a9       ?OnEditProperty@CPicturePropPage@@MAEHJ@Z 5f54a0a9 f   ppgpict.obj
 0001:000490cb       ?OnObjectsChanged@CPicturePropPage@@MAEXXZ 5f54a0cb f   ppgpict.obj
 0001:00049188       ?GetClassID@CPicturePropPage@@UAEJPAU_GUID@@@Z 5f54a188 f   ppgpict.obj
 0001:000491bd       ?UpdateRegistry@CPicturePropPageFactory@CPicturePropPage@@UAEHH@Z 5f54a1bd f   ppgpict.obj
 0001:00049200       ??_ECPicturePropPage@@UAEPAXI@Z 5f54a200 f i ppgpict.obj
 0001:00049200       ??_GCPicturePropPage@@UAEPAXI@Z 5f54a200 f i ppgpict.obj
 0001:00049230       ??0CFileStatus@@QAE@XZ     5f54a230 f i ppgpict.obj
 0001:00049260       ??1CFileDialog@@UAE@XZ     5f54a260 f i ppgpict.obj
 0001:000492b0       ??0CPicturePropPageFactory@CPicturePropPage@@QAE@ABU_GUID@@PAUCRuntimeClass@@HPBD@Z 5f54a2b0 f i ppgpict.obj
 0001:000492f0       ??1CColorPropPageFactory@CColorPropPage@@UAE@XZ 5f54a2f0 f i ppgpict.obj
 0001:000492f0       ??1CFontPropPageFactory@CFontPropPage@@UAE@XZ 5f54a2f0 f i ppgpict.obj
 0001:000492f0       ??1CPicturePropPageFactory@CPicturePropPage@@UAE@XZ 5f54a2f0 f i ppgpict.obj
 0001:00049310       ?_GetBaseMessageMap@CStockPropPage@@KGPBUAFX_MSGMAP@@XZ 5f54a310 f   ppgstock.obj
 0001:0004931a       ?GetMessageMap@CStockPropPage@@MBEPBUAFX_MSGMAP@@XZ 5f54a31a f   ppgstock.obj
 0001:0004932a       ?_AfxSizeComboToContent@@YAXPAVCComboBox@@@Z 5f54a32a f   ppgstock.obj
 0001:000493b8       ??0CStockPropPage@@QAE@II@Z 5f54a3b8 f   ppgstock.obj
 0001:00049429       ?FillPropnameList@CStockPropPage@@IAEXABU_GUID@@HAAVCComboBox@@@Z 5f54a429 f   ppgstock.obj
 0001:0004975e       ?OnSelchangePropname@CStockPropPage@@IAEXAAVCComboBox@@@Z 5f54a75e f   ppgstock.obj
 0001:000497e1       ?OnEditProperty@CStockPropPage@@IAEHJAAVCComboBox@@@Z 5f54a7e1 f   ppgstock.obj
 0001:00049849       ?AfxOleTypeMatchGuid@@YGHPAUITypeInfo@@PAUtagTYPEDESC@@ABU_GUID@@K@Z 5f54a849 f   ppgstock.obj
 0001:00049a10       ??_ECStockPropPage@@UAEPAXI@Z 5f54aa10 f i ppgstock.obj
 0001:00049a10       ??_GCStockPropPage@@UAEPAXI@Z 5f54aa10 f i ppgstock.obj
 0001:00049a40       ?IsOptimizedDraw@COleControl@@QAEHXZ 5f54aa40 f   ctlinl.obj
 0001:00049a5a       ?IsConvertingVBX@COleControl@@QAEHXZ 5f54aa5a f   ctlinl.obj
 0001:00049a74       ?FireKeyDown@COleControl@@QAEXPAGF@Z 5f54aa74 f   ctlinl.obj
 0001:00049aa0       ?FireKeyUp@COleControl@@QAEXPAGF@Z 5f54aaa0 f   ctlinl.obj
 0001:00049acc       ?FireKeyPress@COleControl@@QAEXPAG@Z 5f54aacc f   ctlinl.obj
 0001:00049af3       ?FireMouseDown@COleControl@@QAEXFFJJ@Z 5f54aaf3 f   ctlinl.obj
 0001:00049b28       ?FireMouseUp@COleControl@@QAEXFFJJ@Z 5f54ab28 f   ctlinl.obj
 0001:00049b5d       ?FireMouseMove@COleControl@@QAEXFFJJ@Z 5f54ab5d f   ctlinl.obj
 0001:00049b92       ?FireClick@COleControl@@QAEXXZ 5f54ab92 f   ctlinl.obj
 0001:00049bb0       ?FireDblClick@COleControl@@QAEXXZ 5f54abb0 f   ctlinl.obj
 0001:00049bce       ?FireReadyStateChange@COleControl@@QAEXXZ 5f54abce f   ctlinl.obj
 0001:00049bf9       ?InternalSetReadyState@COleControl@@QAEXJ@Z 5f54abf9 f   ctlinl.obj
 0001:00049c51       ?ExchangeVersion@COleControl@@QAEHPAVCPropExchange@@KH@Z 5f54ac51 f   ctlinl.obj
 0001:00049c77       ?GetStockEventMask@COleControl@@IBEKXZ 5f54ac77 f   ctlinl.obj
 0001:00049c95       ?GetStockPropMask@COleControl@@IBEKXZ 5f54ac95 f   ctlinl.obj
 0001:00049cb0       ?RequestAsynchronousExchange@COleControl@@QAEXK@Z 5f54acb0 f   ctlinl.obj
 0001:00049cd6       ??0CPropExchange@@IAE@XZ   5f54acd6 f   ctlinl.obj
 0001:00049d01       ?IsLoading@CPropExchange@@QAEHXZ 5f54ad01 f   ctlinl.obj
 0001:00049d12       ?GetVersion@CPropExchange@@QAEKXZ 5f54ad12 f   ctlinl.obj
 0001:00049d23       ?IsAsynchronous@CPropExchange@@QAEHXZ 5f54ad23 f   ctlinl.obj
 0001:00049d34       ??0CDataPathProperty@@QAE@PAVCOleControl@@@Z 5f54ad34 f   ctlinl.obj
 0001:00049d96       ??0CDataPathProperty@@QAE@PBDPAVCOleControl@@@Z 5f54ad96 f   ctlinl.obj
 0001:00049dfc       ?SetPath@CDataPathProperty@@QAEXPBD@Z 5f54adfc f   ctlinl.obj
 0001:00049e28       ?GetPath@CDataPathProperty@@QBE?AVCString@@XZ 5f54ae28 f   ctlinl.obj
 0001:00049e69       ?GetControl@CDataPathProperty@@QAEPAVCOleControl@@XZ 5f54ae69 f   ctlinl.obj
 0001:00049e8a       ?SetControl@CDataPathProperty@@QAEXPAVCOleControl@@@Z 5f54ae8a f   ctlinl.obj
 0001:00049eb0       ??0CCachedDataPathProperty@@QAE@PAVCOleControl@@@Z 5f54aeb0 f   ctlinl.obj
 0001:00049f12       ??0CCachedDataPathProperty@@QAE@PBDPAVCOleControl@@@Z 5f54af12 f   ctlinl.obj
 0001:00049f78       ?DDP_LBString@@YGXPAVCDataExchange@@HAAVCString@@PBD@Z 5f54af78 f   ctlinl.obj
 0001:00049f94       ?DDP_LBStringExact@@YGXPAVCDataExchange@@HAAVCString@@PBD@Z 5f54af94 f   ctlinl.obj
 0001:00049fb0       ?DDP_LBIndex@@YGXPAVCDataExchange@@HAAHPBD@Z 5f54afb0 f   ctlinl.obj
 0001:00049fcc       ?DDP_CBString@@YGXPAVCDataExchange@@HAAVCString@@PBD@Z 5f54afcc f   ctlinl.obj
 0001:00049fe8       ?DDP_CBStringExact@@YGXPAVCDataExchange@@HAAVCString@@PBD@Z 5f54afe8 f   ctlinl.obj
 0001:0004a004       ?DDP_CBIndex@@YGXPAVCDataExchange@@HAAHPBD@Z 5f54b004 f   ctlinl.obj
 0001:0004a020       ??_GCDataPathProperty@@UAEPAXI@Z 5f54b020 f i ctlinl.obj
 0001:0004a050       ??_GCCachedDataPathProperty@@UAEPAXI@Z 5f54b050 f i ctlinl.obj
 0001:0004a07c       ?AfxAssertFailedLine@@YGHPBDH@Z 5f54b07c f   MFC42D:MFC42D.DLL
 0001:0004a082       ?AfxSetModuleState@@YGPAVAFX_MODULE_STATE@@PAV1@@Z 5f54b082 f   MFC42D:MFC42D.DLL
 0001:0004a088       ?AfxGetThreadState@@YGPAV_AFX_THREAD_STATE@@XZ 5f54b088 f   MFC42D:MFC42D.DLL
 0001:0004a08e       ?AfxGetModuleState@@YGPAVAFX_MODULE_STATE@@XZ 5f54b08e f   MFC42D:MFC42D.DLL
 0001:0004a094       ?AfxTermThread@@YGXPAUHINSTANCE__@@@Z 5f54b094 f   MFC42D:MFC42D.DLL
 0001:0004a09a       ?AfxTermExtensionModule@@YGXAAUAFX_EXTENSION_MODULE@@H@Z 5f54b09a f   MFC42D:MFC42D.DLL
 0001:0004a0a0       ??0CDynLinkLibrary@@QAE@AAUAFX_EXTENSION_MODULE@@H@Z 5f54b0a0 f   MFC42D:MFC42D.DLL
 0001:0004a0a6       ??2CObject@@SGPAXI@Z       5f54b0a6 f   MFC42D:MFC42D.DLL
 0001:0004a0ac       ?AfxWinInit@@YGHPAUHINSTANCE__@@0PADH@Z 5f54b0ac f   MFC42D:MFC42D.DLL
 0001:0004a0b2       ?AfxCoreInitModule@@YGXXZ  5f54b0b2 f   MFC42D:MFC42D.DLL
 0001:0004a0b8       ?AfxInitExtensionModule@@YGHAAUAFX_EXTENSION_MODULE@@PAUHINSTANCE__@@@Z 5f54b0b8 f   MFC42D:MFC42D.DLL
 0001:0004a0be       ??3CObject@@SGXPAX@Z       5f54b0be f   MFC42D:MFC42D.DLL
 0001:0004a0c4       ?AfxGetAppModuleState@@YGPAVAFX_MODULE_STATE@@XZ 5f54b0c4 f   MFC42D:MFC42D.DLL
 0001:0004a0ca       ??1AFX_MAINTAIN_STATE2@@QAE@XZ 5f54b0ca f   MFC42D:MFC42D.DLL
 0001:0004a0d0       ??0AFX_MAINTAIN_STATE2@@QAE@PAVAFX_MODULE_STATE@@@Z 5f54b0d0 f   MFC42D:MFC42D.DLL
 0001:0004a0d6       ??0CWinApp@@QAE@PBD@Z      5f54b0d6 f   MFC42D:MFC42D.DLL
 0001:0004a0dc       ??1CWinApp@@UAE@XZ         5f54b0dc f   MFC42D:MFC42D.DLL
 0001:0004a0e2       ?AfxWndProc@@YGJPAUHWND__@@IIJ@Z 5f54b0e2 f   MFC42D:MFC42D.DLL
 0001:0004a0e8       ??0AFX_MODULE_STATE@@QAE@HP6GJPAUHWND__@@IIJ@ZKH@Z 5f54b0e8 f   MFC42D:MFC42D.DLL
 0001:0004a0ee       ??1AFX_MODULE_STATE@@UAE@XZ 5f54b0ee f   MFC42D:MFC42D.DLL
 0001:0004a0f4       ??3@YAXPAX@Z               5f54b0f4 f   MFC42D:MFC42D.DLL
 0001:0004a0fa       ??2@YAPAXI@Z               5f54b0fa f   MFC42D:MFC42D.DLL
 0001:0004a100       ??1CCmdTarget@@UAE@XZ      5f54b100 f   MFC42D:MFC42D.DLL
 0001:0004a106       ??1CMemFile@@UAE@XZ        5f54b106 f   MFC42D:MFC42D.DLL
 0001:0004a10c       ??1CString@@QAE@XZ         5f54b10c f   MFC42D:MFC42D.DLL
 0001:0004a112       ??1CDC@@UAE@XZ             5f54b112 f   MFC42D:MFC42D.DLL
 0001:0004a118       ??1CDWordArray@@UAE@XZ     5f54b118 f   MFC42D:MFC42D.DLL
 0001:0004a11e       ??1CView@@UAE@XZ           5f54b11e f   MFC42D:MFC42D.DLL
 0001:0004a124       ??3CObject@@SGXPAXPBDH@Z   5f54b124 f   MFC42D:MFC42D.DLL
 0001:0004a12a       ?AfxOleGetMessageFilter@@YGPAVCOleMessageFilter@@XZ 5f54b12a f   MFC42D:MFC42D.DLL
 0001:0004a130       ??2CObject@@SGPAXIPBDH@Z   5f54b130 f   MFC42D:MFC42D.DLL
 0001:0004a136       ?AfxGetThread@@YGPAVCWinThread@@XZ 5f54b136 f   MFC42D:MFC42D.DLL
 0001:0004a13c       ?AfxTrace@@YAXPBDZZ        5f54b13c f   MFC42D:MFC42D.DLL
 0001:0004a142       ?AfxOleSetUserCtrl@@YGXH@Z 5f54b142 f   MFC42D:MFC42D.DLL
 0001:0004a148       ?GetConnectionHook@CCmdTarget@@MAEPAUIConnectionPoint@@ABU_GUID@@@Z 5f54b148 f   MFC42D:MFC42D.DLL
 0001:0004a14e       ?GetExtraConnectionPoints@CCmdTarget@@MAEHPAVCPtrArray@@@Z 5f54b14e f   MFC42D:MFC42D.DLL
 0001:0004a154       ?GetInterfaceHook@CCmdTarget@@UAEPAUIUnknown@@PBX@Z 5f54b154 f   MFC42D:MFC42D.DLL
 0001:0004a15a       ?OnCreateAggregates@CCmdTarget@@UAEHXZ 5f54b15a f   MFC42D:MFC42D.DLL
 0001:0004a160       ?GetEventSinkMap@CCmdTarget@@MBEPBUAFX_EVENTSINKMAP@@XZ 5f54b160 f   MFC42D:MFC42D.DLL
 0001:0004a166       ?GetConnectionMap@CCmdTarget@@MBEPBUAFX_CONNECTIONMAP@@XZ 5f54b166 f   MFC42D:MFC42D.DLL
 0001:0004a16c       ?GetDispatchMap@CCmdTarget@@MBEPBUAFX_DISPMAP@@XZ 5f54b16c f   MFC42D:MFC42D.DLL
 0001:0004a172       ?GetCommandMap@CCmdTarget@@MBEPBUAFX_OLECMDMAP@@XZ 5f54b172 f   MFC42D:MFC42D.DLL
 0001:0004a178       ?GetMessageMap@CCmdTarget@@MBEPBUAFX_MSGMAP@@XZ 5f54b178 f   MFC42D:MFC42D.DLL
 0001:0004a17e       ?GetTypeLib@CCmdTarget@@UAEJKPAPAUITypeLib@@@Z 5f54b17e f   MFC42D:MFC42D.DLL
 0001:0004a184       ?GetTypeLibCache@CCmdTarget@@UAEPAVCTypeLibCache@@XZ 5f54b184 f   MFC42D:MFC42D.DLL
 0001:0004a18a       ?GetTypeInfoCount@CCmdTarget@@UAEIXZ 5f54b18a f   MFC42D:MFC42D.DLL
 0001:0004a190       ?GetDispatchIID@CCmdTarget@@UAEHPAU_GUID@@@Z 5f54b190 f   MFC42D:MFC42D.DLL
 0001:0004a196       ?IsInvokeAllowed@CCmdTarget@@UAEHJ@Z 5f54b196 f   MFC42D:MFC42D.DLL
 0001:0004a19c       ?OnFinalRelease@CCmdTarget@@UAEXXZ 5f54b19c f   MFC42D:MFC42D.DLL
 0001:0004a1a2       ?OnCmdMsg@CCmdTarget@@UAEHIHPAXPAUAFX_CMDHANDLERINFO@@@Z 5f54b1a2 f   MFC42D:MFC42D.DLL
 0001:0004a1a8       ?AfxOleLockApp@@YGXXZ      5f54b1a8 f   MFC42D:MFC42D.DLL
 0001:0004a1ae       ?AfxAssertValidObject@@YGXPBVCObject@@PBDH@Z 5f54b1ae f   MFC42D:MFC42D.DLL
 0001:0004a1b4       ?AfxOleUnlockApp@@YGXXZ    5f54b1b4 f   MFC42D:MFC42D.DLL
 0001:0004a1ba       ?AfxGetApp@@YGPAVCWinApp@@XZ 5f54b1ba f   MFC42D:MFC42D.DLL
 0001:0004a1c0       ?Delete@CException@@QAEXXZ 5f54b1c0 f   MFC42D:MFC42D.DLL
 0001:0004a1c6       ?IsKindOf@CObject@@QBEHPBUCRuntimeClass@@@Z 5f54b1c6 f   MFC42D:MFC42D.DLL
 0001:0004a1cc       ?AfxGetAppName@@YGPBDXZ    5f54b1cc f   MFC42D:MFC42D.DLL
 0001:0004a1d2       ??BCString@@QBEPBDXZ       5f54b1d2 f   MFC42D:MFC42D.DLL
 0001:0004a1d8       ?GetTitle@CDocument@@QBEABVCString@@XZ 5f54b1d8 f   MFC42D:MFC42D.DLL
 0001:0004a1de       ?AfxIsValidAddress@@YGHPBXIH@Z 5f54b1de f   MFC42D:MFC42D.DLL
 0001:0004a1e4       ?AfxThrowArchiveException@@YGXHPBD@Z 5f54b1e4 f   MFC42D:MFC42D.DLL
 0001:0004a1ea       ?Read@CArchive@@QAEIPAXI@Z 5f54b1ea f   MFC42D:MFC42D.DLL
 0001:0004a1f0       ?AfxThrowMemoryException@@YGXXZ 5f54b1f0 f   MFC42D:MFC42D.DLL
 0001:0004a1f6       ??5CArchive@@QAEAAV0@AAK@Z 5f54b1f6 f   MFC42D:MFC42D.DLL
 0001:0004a1fc       ?Write@CArchive@@QAEXPBXI@Z 5f54b1fc f   MFC42D:MFC42D.DLL
 0001:0004a202       ??6CArchive@@QAEAAV0@K@Z   5f54b202 f   MFC42D:MFC42D.DLL
 0001:0004a208       ??5CArchive@@QAEAAV0@AAG@Z 5f54b208 f   MFC42D:MFC42D.DLL
 0001:0004a20e       ??6CArchive@@QAEAAV0@G@Z   5f54b20e f   MFC42D:MFC42D.DLL
 0001:0004a214       ?IsStoring@CArchive@@QBEHXZ 5f54b214 f   MFC42D:MFC42D.DLL
 0001:0004a21a       ?GetClientRect@CWnd@@QBEXPAUtagRECT@@@Z 5f54b21a f   MFC42D:MFC42D.DLL
 0001:0004a220       ?IsEmpty@CString@@QBEHXZ   5f54b220 f   MFC42D:MFC42D.DLL
 0001:0004a226       ?GetPathName@CDocument@@QBEABVCString@@XZ 5f54b226 f   MFC42D:MFC42D.DLL
 0001:0004a22c       ?GetParentFrame@CWnd@@QBEPAVCFrameWnd@@XZ 5f54b22c f   MFC42D:MFC42D.DLL
 0001:0004a232       ?AfxGetFileTitle@@YGIPBDPADI@Z 5f54b232 f   MFC42D:MFC42D.DLL
 0001:0004a238       ?IsPrinting@CDC@@QBEHXZ    5f54b238 f   MFC42D:MFC42D.DLL
 0001:0004a23e       ?GetWindowExt@CDC@@QBE?AVCSize@@XZ 5f54b23e f   MFC42D:MFC42D.DLL
 0001:0004a244       ?GetWindowOrg@CDC@@QBE?AVCPoint@@XZ 5f54b244 f   MFC42D:MFC42D.DLL
 0001:0004a24a       ?DPtoHIMETRIC@CDC@@QBEXPAUtagSIZE@@@Z 5f54b24a f   MFC42D:MFC42D.DLL
 0001:0004a250       ?AfxIsValidString@@YGHPBDH@Z 5f54b250 f   MFC42D:MFC42D.DLL
 0001:0004a256       ??6CDumpContext@@QAEAAV0@E@Z 5f54b256 f   MFC42D:MFC42D.DLL
 0001:0004a25c       ??6CDumpContext@@QAEAAV0@J@Z 5f54b25c f   MFC42D:MFC42D.DLL
 0001:0004a262       ??6CDumpContext@@QAEAAV0@H@Z 5f54b262 f   MFC42D:MFC42D.DLL
 0001:0004a268       ??6CDumpContext@@QAEAAV0@K@Z 5f54b268 f   MFC42D:MFC42D.DLL
 0001:0004a26e       ??6CDumpContext@@QAEAAV0@PBX@Z 5f54b26e f   MFC42D:MFC42D.DLL
 0001:0004a274       ??6CDumpContext@@QAEAAV0@PBD@Z 5f54b274 f   MFC42D:MFC42D.DLL
 0001:0004a27a       ?Dump@CCmdTarget@@UBEXAAVCDumpContext@@@Z 5f54b27a f   MFC42D:MFC42D.DLL
 0001:0004a280       ?AssertValid@CCmdTarget@@UBEXXZ 5f54b280 f   MFC42D:MFC42D.DLL
 0001:0004a286       ?Serialize@CObject@@UAEXAAVCArchive@@@Z 5f54b286 f   MFC42D:MFC42D.DLL
 0001:0004a28c       ?GetRuntimeClass@CCmdTarget@@UBEPAUCRuntimeClass@@XZ 5f54b28c f   MFC42D:MFC42D.DLL
 0001:0004a292       ??0CString@@QAE@XZ         5f54b292 f   MFC42D:MFC42D.DLL
 0001:0004a298       ??0CCmdTarget@@QAE@XZ      5f54b298 f   MFC42D:MFC42D.DLL
 0001:0004a29e       ?DelayUpdateFrameTitle@CFrameWnd@@QAEXXZ 5f54b29e f   MFC42D:MFC42D.DLL
 0001:0004a2a4       ?SendMessageA@CWnd@@QAEJIIJ@Z 5f54b2a4 f   MFC42D:MFC42D.DLL
 0001:0004a2aa       ?GetSafeHmenu@CMenu@@QBEPAUHMENU__@@XZ 5f54b2aa f   MFC42D:MFC42D.DLL
 0001:0004a2b0       ?AfxDynamicDownCast@@YAPAVCObject@@PAUCRuntimeClass@@PAV1@@Z 5f54b2b0 f   MFC42D:MFC42D.DLL
 0001:0004a2b6       ?IsWindowEnabled@CWnd@@QBEHXZ 5f54b2b6 f   MFC42D:MFC42D.DLL
 0001:0004a2bc       ?GetSafeHwnd@CWnd@@QBEPAUHWND__@@XZ 5f54b2bc f   MFC42D:MFC42D.DLL
 0001:0004a2c2       ?AfxIsDescendant@@YGHPAUHWND__@@0@Z 5f54b2c2 f   MFC42D:MFC42D.DLL
 0001:0004a2c8       ?AfxStaticDownCast@@YAPAVCObject@@PAUCRuntimeClass@@PAV1@@Z 5f54b2c8 f   MFC42D:MFC42D.DLL
 0001:0004a2ce       ?GetParent@CWnd@@QBEPAV1@XZ 5f54b2ce f   MFC42D:MFC42D.DLL
 0001:0004a2d4       ?GetFocus@CWnd@@SGPAV1@XZ  5f54b2d4 f   MFC42D:MFC42D.DLL
 0001:0004a2da       ?GetDocument@CView@@QBEPAVCDocument@@XZ 5f54b2da f   MFC42D:MFC42D.DLL
 0001:0004a2e0       ?ModifyStyle@CWnd@@QAEHKKI@Z 5f54b2e0 f   MFC42D:MFC42D.DLL
 0001:0004a2e6       ?GetStyle@CWnd@@QBEKXZ     5f54b2e6 f   MFC42D:MFC42D.DLL
 0001:0004a2ec       ?ShowControlBar@CFrameWnd@@QAEXPAVCControlBar@@HH@Z 5f54b2ec f   MFC42D:MFC42D.DLL
 0001:0004a2f2       ?GetBarStyle@CControlBar@@QAEKXZ 5f54b2f2 f   MFC42D:MFC42D.DLL
 0001:0004a2f8       ?GetNext@CPtrList@@QAEAAPAXAAPAU__POSITION@@@Z 5f54b2f8 f   MFC42D:MFC42D.DLL
 0001:0004a2fe       ?GetHeadPosition@CPtrList@@QBEPAU__POSITION@@XZ 5f54b2fe f   MFC42D:MFC42D.DLL
 0001:0004a304       ?GetDocTemplate@CDocument@@QBEPAVCDocTemplate@@XZ 5f54b304 f   MFC42D:MFC42D.DLL
 0001:0004a30a       ?GetTopLevelFrame@CWnd@@QBEPAVCFrameWnd@@XZ 5f54b30a f   MFC42D:MFC42D.DLL
 0001:0004a310       ?GetParentSplitter@CView@@SGPAVCSplitterWnd@@PBVCWnd@@H@Z 5f54b310 f   MFC42D:MFC42D.DLL
 0001:0004a316       ?SetFocus@CWnd@@QAEPAV1@XZ 5f54b316 f   MFC42D:MFC42D.DLL
 0001:0004a31c       ?GetTopLevelParent@CWnd@@QBEPAV1@XZ 5f54b31c f   MFC42D:MFC42D.DLL
 0001:0004a322       ?AfxGetMainWnd@@YGPAVCWnd@@XZ 5f54b322 f   MFC42D:MFC42D.DLL
 0001:0004a328       ?DelayRecalcLayout@CFrameWnd@@QAEXH@Z 5f54b328 f   MFC42D:MFC42D.DLL
 0001:0004a32e       ?IsRectEmpty@CRect@@QBEHXZ 5f54b32e f   MFC42D:MFC42D.DLL
 0001:0004a334       ?IntersectRect@CRect@@QAEHPBUtagRECT@@0@Z 5f54b334 f   MFC42D:MFC42D.DLL
 0001:0004a33a       ??BCRect@@QAEPAUtagRECT@@XZ 5f54b33a f   MFC42D:MFC42D.DLL
 0001:0004a340       ??BCRect@@QBEPBUtagRECT@@XZ 5f54b340 f   MFC42D:MFC42D.DLL
 0001:0004a346       ??0CRect@@QAE@XZ           5f54b346 f   MFC42D:MFC42D.DLL
 0001:0004a34c       ?FromHandle@CWnd@@SGPAV1@PAUHWND__@@@Z 5f54b34c f   MFC42D:MFC42D.DLL
 0001:0004a352       ?PostMessageA@CWnd@@QAEHIIJ@Z 5f54b352 f   MFC42D:MFC42D.DLL
 0001:0004a358       ?CanEnterHelpMode@CFrameWnd@@QAEHXZ 5f54b358 f   MFC42D:MFC42D.DLL
 0001:0004a35e       ??4CString@@QAEABV0@PBG@Z  5f54b35e f   MFC42D:MFC42D.DLL
 0001:0004a364       ?Empty@CString@@QAEXXZ     5f54b364 f   MFC42D:MFC42D.DLL
 0001:0004a36a       ?FromHandle@CMenu@@SGPAV1@PAUHMENU__@@@Z 5f54b36a f   MFC42D:MFC42D.DLL
 0001:0004a370       ??0CSize@@QAE@UtagSIZE@@@Z 5f54b370 f   MFC42D:MFC42D.DLL
 0001:0004a376       ?CopyRect@CRect@@QAEXPBUtagRECT@@@Z 5f54b376 f   MFC42D:MFC42D.DLL
 0001:0004a37c       ?GetData@CProcessLocalObject@@QAEPAVCNoTrackObject@@P6GPAV2@XZ@Z 5f54b37c f   MFC42D:MFC42D.DLL
 0001:0004a382       ??3CNoTrackObject@@SGXPAX@Z 5f54b382 f   MFC42D:MFC42D.DLL
 0001:0004a388       ??2CNoTrackObject@@SGPAXI@Z 5f54b388 f   MFC42D:MFC42D.DLL
 0001:0004a38e       ?SetRectEmpty@CRect@@QAEXXZ 5f54b38e f   MFC42D:MFC42D.DLL
 0001:0004a394       ?SetRect@CRect@@QAEXHHHH@Z 5f54b394 f   MFC42D:MFC42D.DLL
 0001:0004a39a       ??0CSize@@QAE@HH@Z         5f54b39a f   MFC42D:MFC42D.DLL
 0001:0004a3a0       ?AfxIsValidString@@YGHPBGH@Z 5f54b3a0 f   MFC42D:MFC42D.DLL
 0001:0004a3a6       ?GetBufferSetLength@CString@@QAEPADH@Z 5f54b3a6 f   MFC42D:MFC42D.DLL
 0001:0004a3ac       ?AfxA2WHelper@@YGPAGPAGPBDH@Z 5f54b3ac f   MFC42D:MFC42D.DLL
 0001:0004a3b2       ?AfxW2AHelper@@YGPADPADPBGH@Z 5f54b3b2 f   MFC42D:MFC42D.DLL
 0001:0004a3b8       ?SetHandle@CSharedFile@@QAEXPAXH@Z 5f54b3b8 f   MFC42D:MFC42D.DLL
 0001:0004a3be       ??0CSharedFile@@QAE@II@Z   5f54b3be f   MFC42D:MFC42D.DLL
 0001:0004a3c4       ??0CFile@@QAE@XZ           5f54b3c4 f   MFC42D:MFC42D.DLL
 0001:0004a3ca       ??2@YAPAXIPBDH@Z           5f54b3ca f   MFC42D:MFC42D.DLL
 0001:0004a3d0       ??1CSharedFile@@UAE@XZ     5f54b3d0 f   MFC42D:MFC42D.DLL
 0001:0004a3d6       ?Detach@CSharedFile@@QAEPAXXZ 5f54b3d6 f   MFC42D:MFC42D.DLL
 0001:0004a3dc       ??6CDumpContext@@QAEAAV0@G@Z 5f54b3dc f   MFC42D:MFC42D.DLL
 0001:0004a3e2       ??6CDumpContext@@QAEAAV0@I@Z 5f54b3e2 f   MFC42D:MFC42D.DLL
 0001:0004a3e8       ?GetData@CString@@IBEPAUCStringData@@XZ 5f54b3e8 f   MFC42D:MFC42D.DLL
 0001:0004a3ee       ?ReportError@CException@@UAEHII@Z 5f54b3ee f   MFC42D:MFC42D.DLL
 0001:0004a3f4       ?Dump@CObject@@UBEXAAVCDumpContext@@@Z 5f54b3f4 f   MFC42D:MFC42D.DLL
 0001:0004a3fa       ?AssertValid@CObject@@UBEXXZ 5f54b3fa f   MFC42D:MFC42D.DLL
 0001:0004a400       ??1CException@@UAE@XZ      5f54b400 f   MFC42D:MFC42D.DLL
 0001:0004a406       ??3CException@@SGXPAX@Z    5f54b406 f   MFC42D:MFC42D.DLL
 0001:0004a40c       ?AfxLoadString@@YGHIPADI@Z 5f54b40c f   MFC42D:MFC42D.DLL
 0001:0004a412       ??4CString@@QAEABV0@PBD@Z  5f54b412 f   MFC42D:MFC42D.DLL
 0001:0004a418       ??0CException@@QAE@XZ      5f54b418 f   MFC42D:MFC42D.DLL
 0001:0004a41e       ??3CException@@SGXPAXPBDH@Z 5f54b41e f   MFC42D:MFC42D.DLL
 0001:0004a424       ?PreInitDialog@CDialog@@MAEXXZ 5f54b424 f   MFC42D:MFC42D.DLL
 0001:0004a42a       ?OnCancel@CCommonDialog@@MAEXXZ 5f54b42a f   MFC42D:MFC42D.DLL
 0001:0004a430       ?OnOK@CCommonDialog@@MAEXXZ 5f54b430 f   MFC42D:MFC42D.DLL
 0001:0004a436       ?OnSetFont@CDialog@@UAEXPAVCFont@@@Z 5f54b436 f   MFC42D:MFC42D.DLL
 0001:0004a43c       ?OnInitDialog@CDialog@@UAEHXZ 5f54b43c f   MFC42D:MFC42D.DLL
 0001:0004a442       ?SetOccDialogInfo@CDialog@@MAEHPAU_AFX_OCC_DIALOG_INFO@@@Z 5f54b442 f   MFC42D:MFC42D.DLL
 0001:0004a448       ?IsFrameWnd@CWnd@@UBEHXZ   5f54b448 f   MFC42D:MFC42D.DLL
 0001:0004a44e       ?CheckAutoCenter@CDialog@@UAEHXZ 5f54b44e f   MFC42D:MFC42D.DLL
 0001:0004a454       ?OnChildNotify@CWnd@@MAEHIIJPAJ@Z 5f54b454 f   MFC42D:MFC42D.DLL
 0001:0004a45a       ?PostNcDestroy@CWnd@@MAEXXZ 5f54b45a f   MFC42D:MFC42D.DLL
 0001:0004a460       ?DefWindowProcA@CWnd@@MAEJIIJ@Z 5f54b460 f   MFC42D:MFC42D.DLL
 0001:0004a466       ?OnWndMsg@CWnd@@MAEHIIJPAJ@Z 5f54b466 f   MFC42D:MFC42D.DLL
 0001:0004a46c       ?WindowProc@CWnd@@MAEJIIJ@Z 5f54b46c f   MFC42D:MFC42D.DLL
 0001:0004a472       ?OnAmbientProperty@CWnd@@UAEHPAVCOleControlSite@@JPAUtagVARIANT@@@Z 5f54b472 f   MFC42D:MFC42D.DLL
 0001:0004a478       ?PreTranslateMessage@CDialog@@UAEHPAUtagMSG@@@Z 5f54b478 f   MFC42D:MFC42D.DLL
 0001:0004a47e       ?EndModalState@CWnd@@UAEXXZ 5f54b47e f   MFC42D:MFC42D.DLL
 0001:0004a484       ?BeginModalState@CWnd@@UAEXXZ 5f54b484 f   MFC42D:MFC42D.DLL
 0001:0004a48a       ?DoDataExchange@CWnd@@MAEXPAVCDataExchange@@@Z 5f54b48a f   MFC42D:MFC42D.DLL
 0001:0004a490       ?GetSuperWndProcAddr@CWnd@@MAEPAP6GJPAUHWND__@@IIJ@ZXZ 5f54b490 f   MFC42D:MFC42D.DLL
 0001:0004a496       ?OnNotify@CWnd@@MAEHIJPAJ@Z 5f54b496 f   MFC42D:MFC42D.DLL
 0001:0004a49c       ?OnCommand@CWnd@@MAEHIJ@Z  5f54b49c f   MFC42D:MFC42D.DLL
 0001:0004a4a2       ?EndModalLoop@CWnd@@UAEXH@Z 5f54b4a2 f   MFC42D:MFC42D.DLL
 0001:0004a4a8       ?ContinueModal@CWnd@@UAEHXZ 5f54b4a8 f   MFC42D:MFC42D.DLL
 0001:0004a4ae       ?WinHelpA@CWnd@@UAEXKI@Z   5f54b4ae f   MFC42D:MFC42D.DLL
 0001:0004a4b4       ?GetScrollBarCtrl@CWnd@@UBEPAVCScrollBar@@H@Z 5f54b4b4 f   MFC42D:MFC42D.DLL
 0001:0004a4ba       ?OnToolHitTest@CWnd@@UBEHVCPoint@@PAUtagTOOLINFOA@@@Z 5f54b4ba f   MFC42D:MFC42D.DLL
 0001:0004a4c0       ?CalcWindowRect@CWnd@@UAEXPAUtagRECT@@I@Z 5f54b4c0 f   MFC42D:MFC42D.DLL
 0001:0004a4c6       ?PreCreateWindow@CWnd@@UAEHAAUtagCREATESTRUCTA@@@Z 5f54b4c6 f   MFC42D:MFC42D.DLL
 0001:0004a4cc       ?DestroyWindow@CWnd@@UAEHXZ 5f54b4cc f   MFC42D:MFC42D.DLL
 0001:0004a4d2       ?Create@CWnd@@UAEHPBD0KABUtagRECT@@PAV1@IPAUCCreateContext@@@Z 5f54b4d2 f   MFC42D:MFC42D.DLL
 0001:0004a4d8       ?PreSubclassWindow@CWnd@@UAEXXZ 5f54b4d8 f   MFC42D:MFC42D.DLL
 0001:0004a4de       ?GetInterfaceMap@CCmdTarget@@MBEPBUAFX_INTERFACEMAP@@XZ 5f54b4de f   MFC42D:MFC42D.DLL
 0001:0004a4e4       ?GetMessageMap@CCommonDialog@@MBEPBUAFX_MSGMAP@@XZ 5f54b4e4 f   MFC42D:MFC42D.DLL
 0001:0004a4ea       ?OnFinalRelease@CWnd@@UAEXXZ 5f54b4ea f   MFC42D:MFC42D.DLL
 0001:0004a4f0       ?OnCmdMsg@CDialog@@UAEHIHPAXPAUAFX_CMDHANDLERINFO@@@Z 5f54b4f0 f   MFC42D:MFC42D.DLL
 0001:0004a4f6       ?AssertValid@CDialog@@UBEXXZ 5f54b4f6 f   MFC42D:MFC42D.DLL
 0001:0004a4fc       ?AfxHelpEnabled@@YGHXZ     5f54b4fc f   MFC42D:MFC42D.DLL
 0001:0004a502       ??1CDialog@@UAE@XZ         5f54b502 f   MFC42D:MFC42D.DLL
 0001:0004a508       ?AfxMessageBox@@YGHIII@Z   5f54b508 f   MFC42D:MFC42D.DLL
 0001:0004a50e       ?Format@CString@@QAAXPBDZZ 5f54b50e f   MFC42D:MFC42D.DLL
 0001:0004a514       ?AfxStringFromCLSID@@YG?AVCString@@ABU_GUID@@@Z 5f54b514 f   MFC42D:MFC42D.DLL
 0001:0004a51a       ?PostModal@CDialog@@IAEXXZ 5f54b51a f   MFC42D:MFC42D.DLL
 0001:0004a520       ?PreModal@CDialog@@IAEPAUHWND__@@XZ 5f54b520 f   MFC42D:MFC42D.DLL
 0001:0004a526       ??1CWaitCursor@@QAE@XZ     5f54b526 f   MFC42D:MFC42D.DLL
 0001:0004a52c       ??0CWaitCursor@@QAE@XZ     5f54b52c f   MFC42D:MFC42D.DLL
 0001:0004a532       ?LoadStringA@CString@@QAEHI@Z 5f54b532 f   MFC42D:MFC42D.DLL
 0001:0004a538       ??6@YGAAVCDumpContext@@AAV0@ABVCString@@@Z 5f54b538 f   MFC42D:MFC42D.DLL
 0001:0004a53e       ?AfxThrowResourceException@@YGXXZ 5f54b53e f   MFC42D:MFC42D.DLL
 0001:0004a544       ??0CString@@QAE@PBD@Z      5f54b544 f   MFC42D:MFC42D.DLL
 0001:0004a54a       ??0CString@@QAE@PBDH@Z     5f54b54a f   MFC42D:MFC42D.DLL
 0001:0004a550       ?AfxDlgProc@@YGHPAUHWND__@@IIJ@Z 5f54b550 f   MFC42D:MFC42D.DLL
 0001:0004a556       ?DoModal@CDialog@@UAEHXZ   5f54b556 f   MFC42D:MFC42D.DLL
 0001:0004a55c       ??0CCommonDialog@@QAE@PAVCWnd@@@Z 5f54b55c f   MFC42D:MFC42D.DLL
 0001:0004a562       ?Dump@CDialog@@UBEXAAVCDumpContext@@@Z 5f54b562 f   MFC42D:MFC42D.DLL
 0001:0004a568       ?Detach@CWnd@@QAEPAUHWND__@@XZ 5f54b568 f   MFC42D:MFC42D.DLL
 0001:0004a56e       ?AfxUnhookWindowCreate@@YGHXZ 5f54b56e f   MFC42D:MFC42D.DLL
 0001:0004a574       ?AfxHookWindowCreate@@YGXPAVCWnd@@@Z 5f54b574 f   MFC42D:MFC42D.DLL
 0001:0004a57a       ?GetSafeOwner_@CWnd@@SGPAUHWND__@@PAU2@PAPAU2@@Z 5f54b57a f   MFC42D:MFC42D.DLL
 0001:0004a580       ?CenterWindow@CWnd@@QAEXPAV1@@Z 5f54b580 f   MFC42D:MFC42D.DLL
 0001:0004a586       ??4CString@@QAEABV0@ABV0@@Z 5f54b586 f   MFC42D:MFC42D.DLL
 0001:0004a58c       ??0CString@@QAE@ABV0@@Z    5f54b58c f   MFC42D:MFC42D.DLL
 0001:0004a592       ??1CProcessLocalObject@@QAE@XZ 5f54b592 f   MFC42D:MFC42D.DLL
 0001:0004a598       ?GetData@CByteArray@@QBEPBEXZ 5f54b598 f   MFC42D:MFC42D.DLL
 0001:0004a59e       ?GetSize@CByteArray@@QBEHXZ 5f54b59e f   MFC42D:MFC42D.DLL
 0001:0004a5a4       ??6CDumpContext@@QAEAAV0@N@Z 5f54b5a4 f   MFC42D:MFC42D.DLL
 0001:0004a5aa       ??6CDumpContext@@QAEAAV0@M@Z 5f54b5aa f   MFC42D:MFC42D.DLL
 0001:0004a5b0       ??6CDumpContext@@QAEAAV0@PBG@Z 5f54b5b0 f   MFC42D:MFC42D.DLL
 0001:0004a5b6       ??0CArchiveStream@@QAE@PAVCArchive@@@Z 5f54b5b6 f   MFC42D:MFC42D.DLL
 0001:0004a5bc       ??6CArchive@@QAEAAV0@N@Z   5f54b5bc f   MFC42D:MFC42D.DLL
 0001:0004a5c2       ??6CArchive@@QAEAAV0@M@Z   5f54b5c2 f   MFC42D:MFC42D.DLL
 0001:0004a5c8       ??6CArchive@@QAEAAV0@J@Z   5f54b5c8 f   MFC42D:MFC42D.DLL
 0001:0004a5ce       ??6CArchive@@QAEAAV0@E@Z   5f54b5ce f   MFC42D:MFC42D.DLL
 0001:0004a5d4       ??5CArchive@@QAEAAV0@AAN@Z 5f54b5d4 f   MFC42D:MFC42D.DLL
 0001:0004a5da       ??5CArchive@@QAEAAV0@AAM@Z 5f54b5da f   MFC42D:MFC42D.DLL
 0001:0004a5e0       ??5CArchive@@QAEAAV0@AAJ@Z 5f54b5e0 f   MFC42D:MFC42D.DLL
 0001:0004a5e6       ??5CArchive@@QAEAAV0@AAE@Z 5f54b5e6 f   MFC42D:MFC42D.DLL
 0001:0004a5ec       ?HashKey@@YGIPBG@Z         5f54b5ec f   MFC42D:MFC42D.DLL
 0001:0004a5f2       ?ReleaseBuffer@CString@@QAEXH@Z 5f54b5f2 f   MFC42D:MFC42D.DLL
 0001:0004a5f8       ?GetLength@CString@@QBEHXZ 5f54b5f8 f   MFC42D:MFC42D.DLL
 0001:0004a5fe       ??YCString@@QAEABV0@PBD@Z  5f54b5fe f   MFC42D:MFC42D.DLL
 0001:0004a604       ?GetBuffer@CString@@QAEPADH@Z 5f54b604 f   MFC42D:MFC42D.DLL
 0001:0004a60a       ?GetDepth@CDumpContext@@QBEHXZ 5f54b60a f   MFC42D:MFC42D.DLL
 0001:0004a610       ?AfxSetWindowText@@YGXPAUHWND__@@PBD@Z 5f54b610 f   MFC42D:MFC42D.DLL
 0001:0004a616       ?Fail@CDataExchange@@QAEXXZ 5f54b616 f   MFC42D:MFC42D.DLL
 0001:0004a61c       ?PrepareEditCtrl@CDataExchange@@QAEPAUHWND__@@H@Z 5f54b61c f   MFC42D:MFC42D.DLL
 0001:0004a622       ?GetDefaultAccelerator@CDocument@@UAEPAUHACCEL__@@XZ 5f54b622 f   MFC42D:MFC42D.DLL
 0001:0004a628       ?GetDefaultMenu@CDocument@@UAEPAUHMENU__@@XZ 5f54b628 f   MFC42D:MFC42D.DLL
 0001:0004a62e       ?UpdateFrameCounts@CDocument@@UAEXXZ 5f54b62e f   MFC42D:MFC42D.DLL
 0001:0004a634       ?DoFileSave@CDocument@@UAEHXZ 5f54b634 f   MFC42D:MFC42D.DLL
 0001:0004a63a       ?DoSave@CDocument@@UAEHPBDH@Z 5f54b63a f   MFC42D:MFC42D.DLL
 0001:0004a640       ?CanCloseFrame@CDocument@@UAEHPAVCFrameWnd@@@Z 5f54b640 f   MFC42D:MFC42D.DLL
 0001:0004a646       ?ReleaseFile@CDocument@@UAEXPAVCFile@@H@Z 5f54b646 f   MFC42D:MFC42D.DLL
 0001:0004a64c       ?GetFile@CDocument@@UAEPAVCFile@@PBDIPAVCFileException@@@Z 5f54b64c f   MFC42D:MFC42D.DLL
 0001:0004a652       ?ReportSaveLoadException@CDocument@@UAEXPBDPAVCException@@HI@Z 5f54b652 f   MFC42D:MFC42D.DLL
 0001:0004a658       ?OnChangedViewList@CDocument@@UAEXXZ 5f54b658 f   MFC42D:MFC42D.DLL
 0001:0004a65e       ?GetNextView@CDocument@@UBEPAVCView@@AAPAU__POSITION@@@Z 5f54b65e f   MFC42D:MFC42D.DLL
 0001:0004a664       ?GetFirstViewPosition@CDocument@@UBEPAU__POSITION@@XZ 5f54b664 f   MFC42D:MFC42D.DLL
 0001:0004a66a       ?SetModifiedFlag@CDocument@@UAEXH@Z 5f54b66a f   MFC42D:MFC42D.DLL
 0001:0004a670       ?IsModified@CDocument@@UAEHXZ 5f54b670 f   MFC42D:MFC42D.DLL
 0001:0004a676       ?SetTitle@CDocument@@UAEXPBD@Z 5f54b676 f   MFC42D:MFC42D.DLL
 0001:0004a67c       ?GetMessageMap@CDocument@@MBEPBUAFX_MSGMAP@@XZ 5f54b67c f   MFC42D:MFC42D.DLL
 0001:0004a682       ?OnFinalRelease@CDocument@@UAEXXZ 5f54b682 f   MFC42D:MFC42D.DLL
 0001:0004a688       ??1CObList@@UAE@XZ         5f54b688 f   MFC42D:MFC42D.DLL
 0001:0004a68e       ??1CDocument@@UAE@XZ       5f54b68e f   MFC42D:MFC42D.DLL
 0001:0004a694       ?IsEmpty@CObList@@QBEHXZ   5f54b694 f   MFC42D:MFC42D.DLL
 0001:0004a69a       ?IsEmpty@CPtrList@@QBEHXZ  5f54b69a f   MFC42D:MFC42D.DLL
 0001:0004a6a0       ??0CObList@@QAE@H@Z        5f54b6a0 f   MFC42D:MFC42D.DLL
 0001:0004a6a6       ??0CDocument@@QAE@XZ       5f54b6a6 f   MFC42D:MFC42D.DLL
 0001:0004a6ac       ?GetCount@CObList@@QBEHXZ  5f54b6ac f   MFC42D:MFC42D.DLL
 0001:0004a6b2       ?AddTail@CObList@@QAEPAU__POSITION@@PAVCObject@@@Z 5f54b6b2 f   MFC42D:MFC42D.DLL
 0001:0004a6b8       ?RemoveAt@CObList@@QAEXPAU__POSITION@@@Z 5f54b6b8 f   MFC42D:MFC42D.DLL
 0001:0004a6be       ?Find@CObList@@QBEPAU__POSITION@@PAVCObject@@PAU2@@Z 5f54b6be f   MFC42D:MFC42D.DLL
 0001:0004a6c4       ?GetHeadPosition@CObList@@QBEPAU__POSITION@@XZ 5f54b6c4 f   MFC42D:MFC42D.DLL
 0001:0004a6ca       ?GetNext@CObList@@QBEPAVCObject@@AAPAU__POSITION@@@Z 5f54b6ca f   MFC42D:MFC42D.DLL
 0001:0004a6d0       ?SetPathName@CDocument@@UAEXPBDH@Z 5f54b6d0 f   MFC42D:MFC42D.DLL
 0001:0004a6d6       ??6@YGAAVCArchive@@AAV0@PBVCObject@@@Z 5f54b6d6 f   MFC42D:MFC42D.DLL
 0001:0004a6dc       ?SaveModified@CDocument@@UAEHXZ 5f54b6dc f   MFC42D:MFC42D.DLL
 0001:0004a6e2       ?AfxMessageBox@@YGHPBDII@Z 5f54b6e2 f   MFC42D:MFC42D.DLL
 0001:0004a6e8       ?AfxFormatString1@@YGXAAVCString@@IPBD@Z 5f54b6e8 f   MFC42D:MFC42D.DLL
 0001:0004a6ee       ?OnNewDocument@CDocument@@UAEHXZ 5f54b6ee f   MFC42D:MFC42D.DLL
 0001:0004a6f4       ?OnOpenDocument@CDocument@@UAEHPBD@Z 5f54b6f4 f   MFC42D:MFC42D.DLL
 0001:0004a6fa       ?AfxComparePath@@YGHPBD0@Z 5f54b6fa f   MFC42D:MFC42D.DLL
 0001:0004a700       ?OnSaveDocument@CDocument@@UAEHPBD@Z 5f54b700 f   MFC42D:MFC42D.DLL
 0001:0004a706       ?OnCloseDocument@CDocument@@UAEXXZ 5f54b706 f   MFC42D:MFC42D.DLL
 0001:0004a70c       ??1CFileException@@UAE@XZ  5f54b70c f   MFC42D:MFC42D.DLL
 0001:0004a712       ??1CArchive@@QAE@XZ        5f54b712 f   MFC42D:MFC42D.DLL
 0001:0004a718       ?Close@CArchive@@QAEXXZ    5f54b718 f   MFC42D:MFC42D.DLL
 0001:0004a71e       ??0CArchive@@QAE@PAVCFile@@IHPAX@Z 5f54b71e f   MFC42D:MFC42D.DLL
 0001:0004a724       ?AfxThrowFileException@@YGXHJPBD@Z 5f54b724 f   MFC42D:MFC42D.DLL
 0001:0004a72a       ??0CFileException@@QAE@HJPBD@Z 5f54b72a f   MFC42D:MFC42D.DLL
 0001:0004a730       ?AssertValid@CDocument@@UBEXXZ 5f54b730 f   MFC42D:MFC42D.DLL
 0001:0004a736       ?Dump@CDocument@@UBEXAAVCDumpContext@@@Z 5f54b736 f   MFC42D:MFC42D.DLL
 0001:0004a73c       ?AfxClassInit@@YGXPAUCRuntimeClass@@@Z 5f54b73c f   MFC42D:MFC42D.DLL
 0001:0004a742       ?ReadObject@CArchive@@QAEPAVCObject@@PBUCRuntimeClass@@@Z 5f54b742 f   MFC42D:MFC42D.DLL
 0001:0004a748       ?AfxUnlockGlobals@@YGXH@Z  5f54b748 f   MFC42D:MFC42D.DLL
 0001:0004a74e       ?AfxLockGlobals@@YGXH@Z    5f54b74e f   MFC42D:MFC42D.DLL
 0001:0004a754       ?PtInRect@CRect@@QBEHUtagPOINT@@@Z 5f54b754 f   MFC42D:MFC42D.DLL
 0001:0004a75a       ?GetCapture@CWnd@@SGPAV1@XZ 5f54b75a f   MFC42D:MFC42D.DLL
 0001:0004a760       ?SetCapture@CWnd@@QAEPAV1@XZ 5f54b760 f   MFC42D:MFC42D.DLL
 0001:0004a766       ?InflateRect@CRect@@QAEXHH@Z 5f54b766 f   MFC42D:MFC42D.DLL
 0001:0004a76c       ?IsRectNull@CRect@@QBEHXZ  5f54b76c f   MFC42D:MFC42D.DLL
 0001:0004a772       ??0CPoint@@QAE@XZ          5f54b772 f   MFC42D:MFC42D.DLL
 0001:0004a778       ?ScreenToClient@CWnd@@QBEXPAUtagPOINT@@@Z 5f54b778 f   MFC42D:MFC42D.DLL
 0001:0004a77e       ??0CPoint@@QAE@HH@Z        5f54b77e f   MFC42D:MFC42D.DLL
 0001:0004a784       ?IsDerivedFrom@CRuntimeClass@@QBEHPBU1@@Z 5f54b784 f   MFC42D:MFC42D.DLL
 0001:0004a78a       ?CreateObject@CRuntimeClass@@QAEPAVCObject@@XZ 5f54b78a f   MFC42D:MFC42D.DLL
 0001:0004a790       ?AddHead@CSimpleList@@QAEXPAX@Z 5f54b790 f   MFC42D:MFC42D.DLL
 0001:0004a796       ?Remove@CSimpleList@@QAEHPAX@Z 5f54b796 f   MFC42D:MFC42D.DLL
 0001:0004a79c       ?ExitHelpMode@CFrameWnd@@UAEXXZ 5f54b79c f   MFC42D:MFC42D.DLL
 0001:0004a7a2       ?DelayUpdateFrameMenu@CFrameWnd@@UAEXPAUHMENU__@@@Z 5f54b7a2 f   MFC42D:MFC42D.DLL
 0001:0004a7a8       ?GetDefaultAccelerator@CFrameWnd@@UAEPAUHACCEL__@@XZ 5f54b7a8 f   MFC42D:MFC42D.DLL
 0001:0004a7ae       ?OnUpdateFrameMenu@CFrameWnd@@UAEXPAUHMENU__@@@Z 5f54b7ae f   MFC42D:MFC42D.DLL
 0001:0004a7b4       ?OnUpdateFrameTitle@CFrameWnd@@UAEXH@Z 5f54b7b4 f   MFC42D:MFC42D.DLL
 0001:0004a7ba       ?OnCreateClient@CFrameWnd@@MAEHPAUtagCREATESTRUCTA@@PAUCCreateContext@@@Z 5f54b7ba f   MFC42D:MFC42D.DLL
 0001:0004a7c0       ?NegotiateBorderSpace@CFrameWnd@@UAEHIPAUtagRECT@@@Z 5f54b7c0 f   MFC42D:MFC42D.DLL
 0001:0004a7c6       ?GetMessageBar@CFrameWnd@@UAEPAVCWnd@@XZ 5f54b7c6 f   MFC42D:MFC42D.DLL
 0001:0004a7cc       ?OnSetPreviewMode@CFrameWnd@@UAEXHPAUCPrintPreviewState@@@Z 5f54b7cc f   MFC42D:MFC42D.DLL
 0001:0004a7d2       ?ActivateFrame@CFrameWnd@@UAEXH@Z 5f54b7d2 f   MFC42D:MFC42D.DLL
 0001:0004a7d8       ?GetMessageString@CFrameWnd@@UBEXIAAVCString@@@Z 5f54b7d8 f   MFC42D:MFC42D.DLL
 0001:0004a7de       ?GetActiveFrame@CFrameWnd@@UAEPAV1@XZ 5f54b7de f   MFC42D:MFC42D.DLL
 0001:0004a7e4       ?GetActiveDocument@CFrameWnd@@UAEPAVCDocument@@XZ 5f54b7e4 f   MFC42D:MFC42D.DLL
 0001:0004a7ea       ?LoadFrame@CFrameWnd@@UAEHIKPAVCWnd@@PAUCCreateContext@@@Z 5f54b7ea f   MFC42D:MFC42D.DLL
 0001:0004a7f0       ?SetOccDialogInfo@CWnd@@MAEHPAU_AFX_OCC_DIALOG_INFO@@@Z 5f54b7f0 f   MFC42D:MFC42D.DLL
 0001:0004a7f6       ?IsFrameWnd@CFrameWnd@@UBEHXZ 5f54b7f6 f   MFC42D:MFC42D.DLL
 0001:0004a7fc       ?CheckAutoCenter@CWnd@@UAEHXZ 5f54b7fc f   MFC42D:MFC42D.DLL
 0001:0004a802       ?PreTranslateMessage@CFrameWnd@@UAEHPAUtagMSG@@@Z 5f54b802 f   MFC42D:MFC42D.DLL
 0001:0004a808       ?EndModalState@CFrameWnd@@UAEXXZ 5f54b808 f   MFC42D:MFC42D.DLL
 0001:0004a80e       ?BeginModalState@CFrameWnd@@UAEXXZ 5f54b80e f   MFC42D:MFC42D.DLL
 0001:0004a814       ?OnCommand@CFrameWnd@@MAEHIJ@Z 5f54b814 f   MFC42D:MFC42D.DLL
 0001:0004a81a       ?PreCreateWindow@CFrameWnd@@MAEHAAUtagCREATESTRUCTA@@@Z 5f54b81a f   MFC42D:MFC42D.DLL
 0001:0004a820       ?GetMessageMap@CFrameWnd@@MBEPBUAFX_MSGMAP@@XZ 5f54b820 f   MFC42D:MFC42D.DLL
 0001:0004a826       ?Dump@CFrameWnd@@UBEXAAVCDumpContext@@@Z 5f54b826 f   MFC42D:MFC42D.DLL
 0001:0004a82c       ?GetRuntimeClass@CFrameWnd@@UBEPAUCRuntimeClass@@XZ 5f54b82c f   MFC42D:MFC42D.DLL
 0001:0004a832       ??1CFrameWnd@@UAE@XZ       5f54b832 f   MFC42D:MFC42D.DLL
 0001:0004a838       ?RemoveFrameWnd@CFrameWnd@@IAEXXZ 5f54b838 f   MFC42D:MFC42D.DLL
 0001:0004a83e       ??0CFrameWnd@@QAE@XZ       5f54b83e f   MFC42D:MFC42D.DLL
 0001:0004a844       ?AddFrameWnd@CFrameWnd@@IAEXXZ 5f54b844 f   MFC42D:MFC42D.DLL
 0001:0004a84a       ?AfxCallWndProc@@YGJPAVCWnd@@PAUHWND__@@IIJ@Z 5f54b84a f   MFC42D:MFC42D.DLL
 0001:0004a850       ?PostNcDestroy@CFrameWnd@@MAEXXZ 5f54b850 f   MFC42D:MFC42D.DLL
 0001:0004a856       ?OnCmdMsg@CFrameWnd@@UAEHIHPAXPAUAFX_CMDHANDLERINFO@@@Z 5f54b856 f   MFC42D:MFC42D.DLL
 0001:0004a85c       ?ModifyStyleEx@CWnd@@QAEHKKI@Z 5f54b85c f   MFC42D:MFC42D.DLL
 0001:0004a862       ?OnCreate@CFrameWnd@@IAEHPAUtagCREATESTRUCTA@@@Z 5f54b862 f   MFC42D:MFC42D.DLL
 0001:0004a868       ?OnDestroy@CFrameWnd@@IAEXXZ 5f54b868 f   MFC42D:MFC42D.DLL
 0001:0004a86e       ?DestroyDockBars@CFrameWnd@@QAEXXZ 5f54b86e f   MFC42D:MFC42D.DLL
 0001:0004a874       ?DisconnectViews@CDocument@@QAEXXZ 5f54b874 f   MFC42D:MFC42D.DLL
 0001:0004a87a       ?OnWindowPosChanging@CWnd@@IAEXPAUtagWINDOWPOS@@@Z 5f54b87a f   MFC42D:MFC42D.DLL
 0001:0004a880       ?LoadAccelTable@CFrameWnd@@QAEHPBD@Z 5f54b880 f   MFC42D:MFC42D.DLL
 0001:0004a886       ??0CRect@@QAE@HHHH@Z       5f54b886 f   MFC42D:MFC42D.DLL
 0001:0004a88c       ?GetDlgItem@CWnd@@QBEPAV1@H@Z 5f54b88c f   MFC42D:MFC42D.DLL
 0001:0004a892       ?ScreenToClient@CWnd@@QBEXPAUtagRECT@@@Z 5f54b892 f   MFC42D:MFC42D.DLL
 0001:0004a898       ?ClientToScreen@CWnd@@QBEXPAUtagRECT@@@Z 5f54b898 f   MFC42D:MFC42D.DLL
 0001:0004a89e       ?AfxRepositionWindow@@YGXPAUAFX_SIZEPARENTPARAMS@@PAUHWND__@@PBUtagRECT@@@Z 5f54b89e f   MFC42D:MFC42D.DLL
 0001:0004a8a4       ?RepositionBars@CWnd@@QAEXIIIIPAUtagRECT@@PBU2@H@Z 5f54b8a4 f   MFC42D:MFC42D.DLL
 0001:0004a8aa       ?ContinueRouting@CCmdUI@@QAEXXZ 5f54b8aa f   MFC42D:MFC42D.DLL
 0001:0004a8b0       ?OnUpdateControlBarMenu@CFrameWnd@@QAEXPAVCCmdUI@@@Z 5f54b8b0 f   MFC42D:MFC42D.DLL
 0001:0004a8b6       ?GetControlBar@CFrameWnd@@QAEPAVCControlBar@@I@Z 5f54b8b6 f   MFC42D:MFC42D.DLL
 0001:0004a8bc       ?OnBarCheck@CFrameWnd@@QAEHI@Z 5f54b8bc f   MFC42D:MFC42D.DLL
 0001:0004a8c2       ?OnContextHelp@CFrameWnd@@QAEXXZ 5f54b8c2 f   MFC42D:MFC42D.DLL
 0001:0004a8c8       ?AssertValid@CFrameWnd@@UBEXXZ 5f54b8c8 f   MFC42D:MFC42D.DLL
 0001:0004a8ce       ??6@YGAAVCDumpContext@@AAV0@ABUtagRECT@@@Z 5f54b8ce f   MFC42D:MFC42D.DLL
 0001:0004a8d4       ??9@YG_NABVCString@@PBD@Z  5f54b8d4 f   MFC42D:MFC42D.DLL
 0001:0004a8da       ?SendInitialUpdate@CDocument@@QAEXXZ 5f54b8da f   MFC42D:MFC42D.DLL
 0001:0004a8e0       ?AfxOleGetUserCtrl@@YGHXZ  5f54b8e0 f   MFC42D:MFC42D.DLL
 0001:0004a8e6       ??6CDumpContext@@QAEAAV0@PBVCObject@@@Z 5f54b8e6 f   MFC42D:MFC42D.DLL
 0001:0004a8ec       ??YCString@@QAEABV0@D@Z    5f54b8ec f   MFC42D:MFC42D.DLL
 0001:0004a8f2       ?GetBufferPtr@CFile@@UAEIIIPAPAX0@Z 5f54b8f2 f   MFC42D:MFC42D.DLL
 0001:0004a8f8       ?Open@CFile@@UAEHPBDIPAVCFileException@@@Z 5f54b8f8 f   MFC42D:MFC42D.DLL
 0001:0004a8fe       ?SetFilePath@CFile@@UAEXPBD@Z 5f54b8fe f   MFC42D:MFC42D.DLL
 0001:0004a904       ?GetFilePath@CFile@@UBE?AVCString@@XZ 5f54b904 f   MFC42D:MFC42D.DLL
 0001:0004a90a       ?GetFileTitle@CFile@@UBE?AVCString@@XZ 5f54b90a f   MFC42D:MFC42D.DLL
 0001:0004a910       ?GetFileName@CFile@@UBE?AVCString@@XZ 5f54b910 f   MFC42D:MFC42D.DLL
 0001:0004a916       ??1CFile@@UAE@XZ           5f54b916 f   MFC42D:MFC42D.DLL
 0001:0004a91c       ?AfxFullPath@@YGHPADPBD@Z  5f54b91c f   MFC42D:MFC42D.DLL
 0001:0004a922       ?OsErrorToException@CFileException@@SGHJ@Z 5f54b922 f   MFC42D:MFC42D.DLL
 0001:0004a928       ??4CTime@@QAEABV0@ABV0@@Z  5f54b928 f   MFC42D:MFC42D.DLL
 0001:0004a92e       ??0CTime@@QAE@ABU_FILETIME@@H@Z 5f54b92e f   MFC42D:MFC42D.DLL
 0001:0004a934       ?AssertValid@CFile@@UBEXXZ 5f54b934 f   MFC42D:MFC42D.DLL
 0001:0004a93a       ?Dump@CFile@@UBEXAAVCDumpContext@@@Z 5f54b93a f   MFC42D:MFC42D.DLL
 0001:0004a940       ??9CSize@@QBEHUtagSIZE@@@Z 5f54b940 f   MFC42D:MFC42D.DLL
 0001:0004a946       ?HIMETRICtoDP@CDC@@QBEXPAUtagSIZE@@@Z 5f54b946 f   MFC42D:MFC42D.DLL
 0001:0004a94c       ?Size@CRect@@QBE?AVCSize@@XZ 5f54b94c f   MFC42D:MFC42D.DLL
 0001:0004a952       ??0CSize@@QAE@XZ           5f54b952 f   MFC42D:MFC42D.DLL
 0001:0004a958       ?IsWindowVisible@CWnd@@QBEHXZ 5f54b958 f   MFC42D:MFC42D.DLL
 0001:0004a95e       ?AfxFormatString2@@YGXAAVCString@@IPBD1@Z 5f54b95e f   MFC42D:MFC42D.DLL
 0001:0004a964       ?HideApplication@CWinApp@@QAEXXZ 5f54b964 f   MFC42D:MFC42D.DLL
 0001:0004a96a       ?SetActiveWindow@CWnd@@QAEPAV1@XZ 5f54b96a f   MFC42D:MFC42D.DLL
 0001:0004a970       ?ShowWindow@CWnd@@QAEHH@Z  5f54b970 f   MFC42D:MFC42D.DLL
 0001:0004a976       ?SetForegroundWindow@CWnd@@QAEHXZ 5f54b976 f   MFC42D:MFC42D.DLL
 0001:0004a97c       ?GetLastActivePopup@CWnd@@QBEPAV1@XZ 5f54b97c f   MFC42D:MFC42D.DLL
 0001:0004a982       ?UpdateWindow@CWnd@@QAEXXZ 5f54b982 f   MFC42D:MFC42D.DLL
 0001:0004a988       ?ShowOwnedWindows@CFrameWnd@@QAEXH@Z 5f54b988 f   MFC42D:MFC42D.DLL
 0001:0004a98e       ?Attach@CWnd@@QAEHPAUHWND__@@@Z 5f54b98e f   MFC42D:MFC42D.DLL
 0001:0004a994       ?CreateOleFrame@CDocTemplate@@QAEPAVCFrameWnd@@PAVCWnd@@PAVCDocument@@H@Z 5f54b994 f   MFC42D:MFC42D.DLL
 0001:0004a99a       ?GetExStyle@CWnd@@QBEKXZ   5f54b99a f   MFC42D:MFC42D.DLL
 0001:0004a9a0       ?GetDescendantWindow@CWnd@@QBEPAV1@HH@Z 5f54b9a0 f   MFC42D:MFC42D.DLL
 0001:0004a9a6       ?SetActiveView@CFrameWnd@@QAEXPAVCView@@H@Z 5f54b9a6 f   MFC42D:MFC42D.DLL
 0001:0004a9ac       ?SetParent@CWnd@@QAEPAV1@PAV1@@Z 5f54b9ac f   MFC42D:MFC42D.DLL
 0001:0004a9b2       ?GetActiveView@CFrameWnd@@QBEPAVCView@@XZ 5f54b9b2 f   MFC42D:MFC42D.DLL
 0001:0004a9b8       ?IsFloating@CControlBar@@QBEHXZ 5f54b9b8 f   MFC42D:MFC42D.DLL
 0001:0004a9be       ?EnableWindow@CWnd@@QAEHH@Z 5f54b9be f   MFC42D:MFC42D.DLL
 0001:0004a9c4       ?InModalState@CFrameWnd@@QBEHXZ 5f54b9c4 f   MFC42D:MFC42D.DLL
 0001:0004a9ca       ?Close@CMetaFileDC@@QAEPAUHMETAFILE__@@XZ 5f54b9ca f   MFC42D:MFC42D.DLL
 0001:0004a9d0       ?SetAttribDC@CMetaFileDC@@UAEXPAUHDC__@@@Z 5f54b9d0 f   MFC42D:MFC42D.DLL
 0001:0004a9d6       ??1CMetaFileDC@@UAE@XZ     5f54b9d6 f   MFC42D:MFC42D.DLL
 0001:0004a9dc       ?Create@CMetaFileDC@@QAEHPBD@Z 5f54b9dc f   MFC42D:MFC42D.DLL
 0001:0004a9e2       ??0CMetaFileDC@@QAE@XZ     5f54b9e2 f   MFC42D:MFC42D.DLL
 0001:0004a9e8       ?Left@CString@@QBE?AV1@H@Z 5f54b9e8 f   MFC42D:MFC42D.DLL
 0001:0004a9ee       ?Mid@CString@@QBE?AV1@H@Z  5f54b9ee f   MFC42D:MFC42D.DLL
 0001:0004a9f4       ?Find@CString@@QBEHD@Z     5f54b9f4 f   MFC42D:MFC42D.DLL
 0001:0004a9fa       ?AfxGetModuleShortFileName@@YGXPAUHINSTANCE__@@AAVCString@@@Z 5f54b9fa f   MFC42D:MFC42D.DLL
 0001:0004aa00       ?AfxGetInstanceHandle@@YGPAUHINSTANCE__@@XZ 5f54ba00 f   MFC42D:MFC42D.DLL
 0001:0004aa06       ?_AfxDeleteRegKey@@YGHPBD@Z 5f54ba06 f   MFC42D:MFC42D.DLL
 0001:0004aa0c       ?AfxFormatStrings@@YGXAAVCString@@PBDPBQBDH@Z 5f54ba0c f   MFC42D:MFC42D.DLL
 0001:0004aa12       ?GetNextDocTemplate@CWinApp@@QBEPAVCDocTemplate@@AAPAU__POSITION@@@Z 5f54ba12 f   MFC42D:MFC42D.DLL
 0001:0004aa18       ?GetFirstDocTemplatePosition@CWinApp@@QBEPAU__POSITION@@XZ 5f54ba18 f   MFC42D:MFC42D.DLL
 0001:0004aa1e       ?OnCmdMsg@CDocument@@UAEHIHPAXPAUAFX_CMDHANDLERINFO@@@Z 5f54ba1e f   MFC42D:MFC42D.DLL
 0001:0004aa24       ?GetRoutingView_@CCmdTarget@@KGPAVCView@@XZ 5f54ba24 f   MFC42D:MFC42D.DLL
 0001:0004aa2a       ?InsertMenuA@CMenu@@QAEHIIIPBD@Z 5f54ba2a f   MFC42D:MFC42D.DLL
 0001:0004aa30       ?DeleteMenu@CMenu@@QAEHII@Z 5f54ba30 f   MFC42D:MFC42D.DLL
 0001:0004aa36       ?GetMenuStringA@CMenu@@QBEHIPADHI@Z 5f54ba36 f   MFC42D:MFC42D.DLL
 0001:0004aa3c       ?AfxFindMessageEntry@@YGPBUAFX_MSGMAP_ENTRY@@PBU1@III@Z 5f54ba3c f   MFC42D:MFC42D.DLL
 0001:0004aa42       ?OnSize@CWnd@@IAEXIHH@Z    5f54ba42 f   MFC42D:MFC42D.DLL
 0001:0004aa48       ?OnEndPrintPreview@CView@@MAEXPAVCDC@@PAUCPrintInfo@@UtagPOINT@@PAVCPreviewView@@@Z 5f54ba48 f   MFC42D:MFC42D.DLL
 0001:0004aa4e       ?OnPreparePrinting@CView@@MAEHPAUCPrintInfo@@@Z 5f54ba4e f   MFC42D:MFC42D.DLL
 0001:0004aa54       ?OnDraw@CCtrlView@@MAEXPAVCDC@@@Z 5f54ba54 f   MFC42D:MFC42D.DLL
 0001:0004aa5a       ?OnUpdate@CView@@MAEXPAV1@JPAVCObject@@@Z 5f54ba5a f   MFC42D:MFC42D.DLL
 0001:0004aa60       ?OnActivateFrame@CView@@MAEXIPAVCFrameWnd@@@Z 5f54ba60 f   MFC42D:MFC42D.DLL
 0001:0004aa66       ?OnActivateView@CView@@MAEXHPAV1@0@Z 5f54ba66 f   MFC42D:MFC42D.DLL
 0001:0004aa6c       ?OnDragScroll@CView@@UAEKKVCPoint@@@Z 5f54ba6c f   MFC42D:MFC42D.DLL
 0001:0004aa72       ?OnDropEx@CView@@UAEKPAVCOleDataObject@@KKVCPoint@@@Z 5f54ba72 f   MFC42D:MFC42D.DLL
 0001:0004aa78       ?OnDrop@CView@@UAEHPAVCOleDataObject@@KVCPoint@@@Z 5f54ba78 f   MFC42D:MFC42D.DLL
 0001:0004aa7e       ?OnDragLeave@CView@@UAEXXZ 5f54ba7e f   MFC42D:MFC42D.DLL
 0001:0004aa84       ?OnDragOver@CView@@UAEKPAVCOleDataObject@@KVCPoint@@@Z 5f54ba84 f   MFC42D:MFC42D.DLL
 0001:0004aa8a       ?OnDragEnter@CView@@UAEKPAVCOleDataObject@@KVCPoint@@@Z 5f54ba8a f   MFC42D:MFC42D.DLL
 0001:0004aa90       ?OnScrollBy@CView@@UAEHVCSize@@H@Z 5f54ba90 f   MFC42D:MFC42D.DLL
 0001:0004aa96       ?OnScroll@CView@@UAEHIIH@Z 5f54ba96 f   MFC42D:MFC42D.DLL
 0001:0004aa9c       ?PostNcDestroy@CView@@MAEXXZ 5f54ba9c f   MFC42D:MFC42D.DLL
 0001:0004aaa2       ?PreTranslateMessage@CWnd@@UAEHPAUtagMSG@@@Z 5f54baa2 f   MFC42D:MFC42D.DLL
 0001:0004aaa8       ?GetScrollBarCtrl@CView@@UBEPAVCScrollBar@@H@Z 5f54baa8 f   MFC42D:MFC42D.DLL
 0001:0004aaae       ?CalcWindowRect@CView@@UAEXPAUtagRECT@@I@Z 5f54baae f   MFC42D:MFC42D.DLL
 0001:0004aab4       ?OnCmdMsg@CView@@UAEHIHPAXPAUAFX_CMDHANDLERINFO@@@Z 5f54bab4 f   MFC42D:MFC42D.DLL
 0001:0004aaba       ??0CDWordArray@@QAE@XZ     5f54baba f   MFC42D:MFC42D.DLL
 0001:0004aac0       ??0CDC@@QAE@XZ             5f54bac0 f   MFC42D:MFC42D.DLL
 0001:0004aac6       ??0CCtrlView@@QAE@PBDK@Z   5f54bac6 f   MFC42D:MFC42D.DLL
 0001:0004aacc       ?PreCreateWindow@CCtrlView@@MAEHAAUtagCREATESTRUCTA@@@Z 5f54bacc f   MFC42D:MFC42D.DLL
 0001:0004aad2       ?AfxInitRichEdit@@YGHXZ    5f54bad2 f   MFC42D:MFC42D.DLL
 0001:0004aad8       ?SetOptions@CRichEditCtrl@@QAEXGK@Z 5f54bad8 f   MFC42D:MFC42D.DLL
 0001:0004aade       ?DragAcceptFiles@CWnd@@QAEXH@Z 5f54bade f   MFC42D:MFC42D.DLL
 0001:0004aae4       ?GetIRichEditOle@CRichEditCtrl@@QBEPAUIRichEditOle@@XZ 5f54bae4 f   MFC42D:MFC42D.DLL
 0001:0004aaea       ?SetOLECallback@CRichEditCtrl@@QAEHPAUIRichEditOleCallback@@@Z 5f54baea f   MFC42D:MFC42D.DLL
 0001:0004aaf0       ?SetEventMask@CRichEditCtrl@@QAEKK@Z 5f54baf0 f   MFC42D:MFC42D.DLL
 0001:0004aaf6       ?LimitText@CRichEditCtrl@@QAEXJ@Z 5f54baf6 f   MFC42D:MFC42D.DLL
 0001:0004aafc       ?OnCreate@CView@@IAEHPAUtagCREATESTRUCTA@@@Z 5f54bafc f   MFC42D:MFC42D.DLL
 0001:0004ab02       ?OnInitialUpdate@CView@@UAEXXZ 5f54bb02 f   MFC42D:MFC42D.DLL
 0001:0004ab08       ?EmptyUndoBuffer@CRichEditCtrl@@QAEXXZ 5f54bb08 f   MFC42D:MFC42D.DLL
 0001:0004ab0e       ?SetWindowTextA@CWnd@@QAEXPBD@Z 5f54bb0e f   MFC42D:MFC42D.DLL
 0001:0004ab14       ?SetTargetDevice@CRichEditCtrl@@QAEHAAVCDC@@J@Z 5f54bb14 f   MFC42D:MFC42D.DLL
 0001:0004ab1a       ?CreateDCA@CDC@@QAEHPBD00PBX@Z 5f54bb1a f   MFC42D:MFC42D.DLL
 0001:0004ab20       ?CreatePrinterDC@CWinApp@@QAEHAAVCDC@@@Z 5f54bb20 f   MFC42D:MFC42D.DLL
 0001:0004ab26       ?SetTargetDevice@CRichEditCtrl@@QAEHPAUHDC__@@J@Z 5f54bb26 f   MFC42D:MFC42D.DLL
 0001:0004ab2c       ?Invalidate@CWnd@@QAEXH@Z  5f54bb2c f   MFC42D:MFC42D.DLL
 0001:0004ab32       ?StreamIn@CRichEditCtrl@@QAEJHAAU_editstream@@@Z 5f54bb32 f   MFC42D:MFC42D.DLL
 0001:0004ab38       ?StreamOut@CRichEditCtrl@@QAEJHAAU_editstream@@@Z 5f54bb38 f   MFC42D:MFC42D.DLL
 0001:0004ab3e       ?ReadHuge@CFile@@QAEKPAXK@Z 5f54bb3e f   MFC42D:MFC42D.DLL
 0001:0004ab44       ?WriteHuge@CFile@@QAEXPBXK@Z 5f54bb44 f   MFC42D:MFC42D.DLL
 0001:0004ab4a       ?GetFile@CArchive@@QBEPAVCFile@@XZ 5f54bb4a f   MFC42D:MFC42D.DLL
 0001:0004ab50       ?Flush@CArchive@@QAEXXZ    5f54bb50 f   MFC42D:MFC42D.DLL
 0001:0004ab56       ?FormatRange@CRichEditCtrl@@QAEJPAU_formatrange@@H@Z 5f54bb56 f   MFC42D:MFC42D.DLL
 0001:0004ab5c       ?Add@CDWordArray@@QAEHK@Z  5f54bb5c f   MFC42D:MFC42D.DLL
 0001:0004ab62       ?GetSize@CDWordArray@@QBEHXZ 5f54bb62 f   MFC42D:MFC42D.DLL
 0001:0004ab68       ?DPtoLP@CDC@@QBEXPAUtagRECT@@@Z 5f54bb68 f   MFC42D:MFC42D.DLL
 0001:0004ab6e       ?GetDeviceCaps@CDC@@QBEHH@Z 5f54bb6e f   MFC42D:MFC42D.DLL
 0001:0004ab74       ?IntersectClipRect@CDC@@QAEHHHHH@Z 5f54bb74 f   MFC42D:MFC42D.DLL
 0001:0004ab7a       ?SetMaxPage@CPrintInfo@@QAEXI@Z 5f54bb7a f   MFC42D:MFC42D.DLL
 0001:0004ab80       ??ACDWordArray@@QAEAAKH@Z  5f54bb80 f   MFC42D:MFC42D.DLL
 0001:0004ab86       ?RemoveAll@CDWordArray@@QAEXXZ 5f54bb86 f   MFC42D:MFC42D.DLL
 0001:0004ab8c       ?GetSel@CRichEditCtrl@@QBEXAAJ0@Z 5f54bb8c f   MFC42D:MFC42D.DLL
 0001:0004ab92       ?CanUndo@CRichEditCtrl@@QBEHXZ 5f54bb92 f   MFC42D:MFC42D.DLL
 0001:0004ab98       ?Cut@CRichEditCtrl@@QAEXXZ 5f54bb98 f   MFC42D:MFC42D.DLL
 0001:0004ab9e       ?Copy@CRichEditCtrl@@QAEXXZ 5f54bb9e f   MFC42D:MFC42D.DLL
 0001:0004aba4       ?Paste@CRichEditCtrl@@QAEXXZ 5f54bba4 f   MFC42D:MFC42D.DLL
 0001:0004abaa       ?Clear@CRichEditCtrl@@QAEXXZ 5f54bbaa f   MFC42D:MFC42D.DLL
 0001:0004abb0       ?Undo@CRichEditCtrl@@QAEHXZ 5f54bbb0 f   MFC42D:MFC42D.DLL
 0001:0004abb6       ?SetSel@CRichEditCtrl@@QAEXJJ@Z 5f54bbb6 f   MFC42D:MFC42D.DLL
 0001:0004abbc       ?OnDestroy@CView@@IAEXXZ   5f54bbbc f   MFC42D:MFC42D.DLL
 0001:0004abc2       ?GetCharFormat@CFontDialog@@QBEXAAU_charformat@@@Z 5f54bbc2 f   MFC42D:MFC42D.DLL
 0001:0004abc8       ?DoModal@CFontDialog@@UAEHXZ 5f54bbc8 f   MFC42D:MFC42D.DLL
 0001:0004abce       ??0CFontDialog@@QAE@ABU_charformat@@KPAVCDC@@PAVCWnd@@@Z 5f54bbce f   MFC42D:MFC42D.DLL
 0001:0004abd4       ?PasteSpecial@CRichEditCtrl@@QAEXIKPAUHMETAFILE__@@@Z 5f54bbd4 f   MFC42D:MFC42D.DLL
 0001:0004abda       ?OnKeyDown@CWnd@@IAEXIII@Z 5f54bbda f   MFC42D:MFC42D.DLL
 0001:0004abe0       ?CenterPoint@CRect@@QBE?AVCPoint@@XZ 5f54bbe0 f   MFC42D:MFC42D.DLL
 0001:0004abe6       ?SetSel@CRichEditCtrl@@QAEXAAU_charrange@@@Z 5f54bbe6 f   MFC42D:MFC42D.DLL
 0001:0004abec       ?GetSel@CRichEditCtrl@@QBEXAAU_charrange@@@Z 5f54bbec f   MFC42D:MFC42D.DLL
 0001:0004abf2       ?CanPaste@CRichEditCtrl@@QBEHI@Z 5f54bbf2 f   MFC42D:MFC42D.DLL
 0001:0004abf8       ?GetSelectionCharFormat@CRichEditCtrl@@QBEKAAU_charformat@@@Z 5f54bbf8 f   MFC42D:MFC42D.DLL
 0001:0004abfe       ?GetParaFormat@CRichEditCtrl@@QBEKAAU_paraformat@@@Z 5f54bbfe f   MFC42D:MFC42D.DLL
 0001:0004ac04       ?SetSelectionCharFormat@CRichEditCtrl@@QAEHAAU_charformat@@@Z 5f54bc04 f   MFC42D:MFC42D.DLL
 0001:0004ac0a       ?SetParaFormat@CRichEditCtrl@@QAEHAAU_paraformat@@@Z 5f54bc0a f   MFC42D:MFC42D.DLL
 0001:0004ac10       ?MoveWindow@CWnd@@QAEXPBUtagRECT@@H@Z 5f54bc10 f   MFC42D:MFC42D.DLL
 0001:0004ac16       ?OffsetRect@CRect@@QAEXHH@Z 5f54bc16 f   MFC42D:MFC42D.DLL
 0001:0004ac1c       ?Height@CRect@@QBEHXZ      5f54bc1c f   MFC42D:MFC42D.DLL
 0001:0004ac22       ?GetWindowRect@CWnd@@QBEXPAUtagRECT@@@Z 5f54bc22 f   MFC42D:MFC42D.DLL
 0001:0004ac28       ?ClientToScreen@CWnd@@QBEXPAUtagPOINT@@@Z 5f54bc28 f   MFC42D:MFC42D.DLL
 0001:0004ac2e       ?GetCharPos@CRichEditCtrl@@QBE?AVCPoint@@J@Z 5f54bc2e f   MFC42D:MFC42D.DLL
 0001:0004ac34       ?Create@CFindReplaceDialog@@QAEHHPBD0KPAVCWnd@@@Z 5f54bc34 f   MFC42D:MFC42D.DLL
 0001:0004ac3a       ??0CFindReplaceDialog@@QAE@XZ 5f54bc3a f   MFC42D:MFC42D.DLL
 0001:0004ac40       ?FindOneOf@CString@@QBEHPBD@Z 5f54bc40 f   MFC42D:MFC42D.DLL
 0001:0004ac46       ?GetSelText@CRichEditCtrl@@QBE?AVCString@@XZ 5f54bc46 f   MFC42D:MFC42D.DLL
 0001:0004ac4c       ?ReplaceSel@CRichEditCtrl@@QAEXPBDH@Z 5f54bc4c f   MFC42D:MFC42D.DLL
 0001:0004ac52       ?HideSelection@CRichEditCtrl@@QAEXHH@Z 5f54bc52 f   MFC42D:MFC42D.DLL
 0001:0004ac58       ?ReplaceAll@CFindReplaceDialog@@QBEHXZ 5f54bc58 f   MFC42D:MFC42D.DLL
 0001:0004ac5e       ?GetReplaceString@CFindReplaceDialog@@QBE?AVCString@@XZ 5f54bc5e f   MFC42D:MFC42D.DLL
 0001:0004ac64       ?ReplaceCurrent@CFindReplaceDialog@@QBEHXZ 5f54bc64 f   MFC42D:MFC42D.DLL
 0001:0004ac6a       ?GetFindString@CFindReplaceDialog@@QBE?AVCString@@XZ 5f54bc6a f   MFC42D:MFC42D.DLL
 0001:0004ac70       ?SearchDown@CFindReplaceDialog@@QBEHXZ 5f54bc70 f   MFC42D:MFC42D.DLL
 0001:0004ac76       ?MatchCase@CFindReplaceDialog@@QBEHXZ 5f54bc76 f   MFC42D:MFC42D.DLL
 0001:0004ac7c       ?MatchWholeWord@CFindReplaceDialog@@QBEHXZ 5f54bc7c f   MFC42D:MFC42D.DLL
 0001:0004ac82       ?FindNext@CFindReplaceDialog@@QBEHXZ 5f54bc82 f   MFC42D:MFC42D.DLL
 0001:0004ac88       ?IsTerminating@CFindReplaceDialog@@QBEHXZ 5f54bc88 f   MFC42D:MFC42D.DLL
 0001:0004ac8e       ?GetNotifier@CFindReplaceDialog@@SGPAV1@J@Z 5f54bc8e f   MFC42D:MFC42D.DLL
 0001:0004ac94       ?FindTextA@CRichEditCtrl@@QBEJKPAU_findtextexa@@@Z 5f54bc94 f   MFC42D:MFC42D.DLL
 0001:0004ac9a       ?AssertValid@CCtrlView@@UBEXXZ 5f54bc9a f   MFC42D:MFC42D.DLL
 0001:0004aca0       ?Dump@CCtrlView@@UBEXAAVCDumpContext@@@Z 5f54bca0 f   MFC42D:MFC42D.DLL
 0001:0004aca6       ?GetModify@CRichEditCtrl@@QBEHXZ 5f54bca6 f   MFC42D:MFC42D.DLL
 0001:0004acac       ?SetModify@CRichEditCtrl@@QAEXH@Z 5f54bcac f   MFC42D:MFC42D.DLL
 0001:0004acb2       ??0CRect@@QAE@UtagPOINT@@UtagSIZE@@@Z 5f54bcb2 f   MFC42D:MFC42D.DLL
 0001:0004acb8       ?GetTextLength@CRichEditCtrl@@QBEJXZ 5f54bcb8 f   MFC42D:MFC42D.DLL
 0001:0004acbe       ??0_AFX_EDIT_STATE@@QAE@XZ 5f54bcbe f   MFC42D:MFC42D.DLL
 0001:0004acc4       ??1_AFX_RICHEDIT_STATE@@UAE@XZ 5f54bcc4 f   MFC42D:MFC42D.DLL
 0001:0004acca       ?AfxOleCanExitApp@@YGHXZ   5f54bcca f   MFC42D:MFC42D.DLL
 0001:0004acd0       ??3@YAXPAXPBDH@Z           5f54bcd0 f   MFC42D:MFC42D.DLL
 0001:0004acd6       ?Lookup@CMapPtrToPtr@@QBEHPAXAAPAX@Z 5f54bcd6 f   MFC42D:MFC42D.DLL
 0001:0004acdc       ?SetAt@CMapPtrToPtr@@QAEXPAX0@Z 5f54bcdc f   MFC42D:MFC42D.DLL
 0001:0004ace2       ?RemoveAll@CTypeLibCacheMap@@UAEXPAX@Z 5f54bce2 f   MFC42D:MFC42D.DLL
 0001:0004ace8       ?Dump@CMapPtrToPtr@@UBEXAAVCDumpContext@@@Z 5f54bce8 f   MFC42D:MFC42D.DLL
 0001:0004acee       ?AssertValid@CMapPtrToPtr@@UBEXXZ 5f54bcee f   MFC42D:MFC42D.DLL
 0001:0004acf4       ?GetRuntimeClass@CMapPtrToPtr@@UBEPAUCRuntimeClass@@XZ 5f54bcf4 f   MFC42D:MFC42D.DLL
 0001:0004acfa       ??0CMapPtrToPtr@@QAE@H@Z   5f54bcfa f   MFC42D:MFC42D.DLL
 0001:0004ad00       ??1CMapPtrToPtr@@UAE@XZ    5f54bd00 f   MFC42D:MFC42D.DLL
 0001:0004ad06       ?AfxEndDeferRegisterClass@@YGHJ@Z 5f54bd06 f   MFC42D:MFC42D.DLL
 0001:0004ad0c       ??0CTime@@QAE@ABU_SYSTEMTIME@@H@Z 5f54bd0c f   MFC42D:MFC42D.DLL
 0001:0004ad12       ?GetAsSystemTime@CTime@@QBEHAAU_SYSTEMTIME@@@Z 5f54bd12 f   MFC42D:MFC42D.DLL
 0001:0004ad18       ?GetMessageMap@CWnd@@MBEPBUAFX_MSGMAP@@XZ 5f54bd18 f   MFC42D:MFC42D.DLL
 0001:0004ad1e       ?Dump@CWnd@@UBEXAAVCDumpContext@@@Z 5f54bd1e f   MFC42D:MFC42D.DLL
 0001:0004ad24       ?AssertValid@CWnd@@UBEXXZ  5f54bd24 f   MFC42D:MFC42D.DLL
 0001:0004ad2a       ??1CWnd@@UAE@XZ            5f54bd2a f   MFC42D:MFC42D.DLL
 0001:0004ad30       ?SetWindowPos@CWnd@@QAEHPBV1@HHHHI@Z 5f54bd30 f   MFC42D:MFC42D.DLL
 0001:0004ad36       ?Width@CRect@@QBEHXZ       5f54bd36 f   MFC42D:MFC42D.DLL
 0001:0004ad3c       ?PrepareCtrl@CDataExchange@@QAEPAUHWND__@@H@Z 5f54bd3c f   MFC42D:MFC42D.DLL
 0001:0004ad42       ??MCTime@@QBEHV0@@Z        5f54bd42 f   MFC42D:MFC42D.DLL
 0001:0004ad48       ??OCTime@@QBEHV0@@Z        5f54bd48 f   MFC42D:MFC42D.DLL
 0001:0004ad4e       ??NCTime@@QBEHV0@@Z        5f54bd4e f   MFC42D:MFC42D.DLL
 0001:0004ad54       ??0CTime@@QAE@ABV0@@Z      5f54bd54 f   MFC42D:MFC42D.DLL
 0001:0004ad5a       ??0CWnd@@QAE@XZ            5f54bd5a f   MFC42D:MFC42D.DLL
 0001:0004ad60       ?FromHandle@CFont@@SGPAV1@PAUHFONT__@@@Z 5f54bd60 f   MFC42D:MFC42D.DLL
 0001:0004ad66       ?OnEndPrinting@CView@@MAEXPAVCDC@@PAUCPrintInfo@@@Z 5f54bd66 f   MFC42D:MFC42D.DLL
 0001:0004ad6c       ?OnPrint@CView@@MAEXPAVCDC@@PAUCPrintInfo@@@Z 5f54bd6c f   MFC42D:MFC42D.DLL
 0001:0004ad72       ?OnBeginPrinting@CView@@MAEXPAVCDC@@PAUCPrintInfo@@@Z 5f54bd72 f   MFC42D:MFC42D.DLL
 0001:0004ad78       ?OnActivateFrame@CFormView@@MAEXIPAVCFrameWnd@@@Z 5f54bd78 f   MFC42D:MFC42D.DLL
 0001:0004ad7e       ?OnActivateView@CFormView@@MAEXHPAVCView@@0@Z 5f54bd7e f   MFC42D:MFC42D.DLL
 0001:0004ad84       ?OnInitialUpdate@CFormView@@UAEXXZ 5f54bd84 f   MFC42D:MFC42D.DLL
 0001:0004ad8a       ?OnPrepareDC@CScrollView@@UAEXPAVCDC@@PAUCPrintInfo@@@Z 5f54bd8a f   MFC42D:MFC42D.DLL
 0001:0004ad90       ?OnScrollBy@CScrollView@@UAEHVCSize@@H@Z 5f54bd90 f   MFC42D:MFC42D.DLL
 0001:0004ad96       ?OnScroll@CScrollView@@UAEHIIH@Z 5f54bd96 f   MFC42D:MFC42D.DLL
 0001:0004ad9c       ?IsSelected@CView@@UBEHPBVCObject@@@Z 5f54bd9c f   MFC42D:MFC42D.DLL
 0001:0004ada2       ?SetOccDialogInfo@CFormView@@MAEHPAU_AFX_OCC_DIALOG_INFO@@@Z 5f54bda2 f   MFC42D:MFC42D.DLL
 0001:0004ada8       ?PreTranslateMessage@CFormView@@MAEHPAUtagMSG@@@Z 5f54bda8 f   MFC42D:MFC42D.DLL
 0001:0004adae       ?CalcWindowRect@CScrollView@@UAEXPAUtagRECT@@I@Z 5f54bdae f   MFC42D:MFC42D.DLL
 0001:0004adb4       ?PreCreateWindow@CView@@MAEHAAUtagCREATESTRUCTA@@@Z 5f54bdb4 f   MFC42D:MFC42D.DLL
 0001:0004adba       ??0CFormView@@IAE@PBD@Z    5f54bdba f   MFC42D:MFC42D.DLL
 0001:0004adc0       ??1CScrollView@@UAE@XZ     5f54bdc0 f   MFC42D:MFC42D.DLL
 0001:0004adc6       ?AssertValid@CFormView@@UBEXXZ 5f54bdc6 f   MFC42D:MFC42D.DLL
 0001:0004adcc       ?Dump@CFormView@@UBEXAAVCDumpContext@@@Z 5f54bdcc f   MFC42D:MFC42D.DLL
 0001:0004add2       ?OnSize@CScrollView@@QAEXIHH@Z 5f54bdd2 f   MFC42D:MFC42D.DLL
 0001:0004add8       ?Default@CWnd@@IAEJXZ      5f54bdd8 f   MFC42D:MFC42D.DLL
 0001:0004adde       ?GetControlUnknown@CWnd@@QAEPAUIUnknown@@XZ 5f54bdde f   MFC42D:MFC42D.DLL
 0001:0004ade4       ??0CString@@QAE@PBG@Z      5f54bde4 f   MFC42D:MFC42D.DLL
 0001:0004adea       ?AfxGetResourceHandle@@YGPAUHINSTANCE__@@XZ 5f54bdea f   MFC42D:MFC42D.DLL
 0001:0004adf0       ?InvokeHelper@CWnd@@QAAXJGGPAXPBEZZ 5f54bdf0 f   MFC42D:MFC42D.DLL
 0001:0004adf6       ??1CByteArray@@UAE@XZ      5f54bdf6 f   MFC42D:MFC42D.DLL
 0001:0004adfc       ?GetData@CByteArray@@QAEPAEXZ 5f54bdfc f   MFC42D:MFC42D.DLL
 0001:0004ae02       ?SetSize@CByteArray@@QAEXHH@Z 5f54be02 f   MFC42D:MFC42D.DLL
 0001:0004ae08       ??0CByteArray@@QAE@XZ      5f54be08 f   MFC42D:MFC42D.DLL
 0001:0004ae0e       ?SetMessageText@CFrameWnd@@QAEXPBD@Z 5f54be0e f   MFC42D:MFC42D.DLL
 0001:0004ae14       ?AfxFindResourceHandle@@YGPAUHINSTANCE__@@PBD0@Z 5f54be14 f   MFC42D:MFC42D.DLL
 0001:0004ae1a       ?GetNextAssoc@CMapPtrToPtr@@QBEXAAPAU__POSITION@@AAPAX1@Z 5f54be1a f   MFC42D:MFC42D.DLL
 0001:0004ae20       ?GetStartPosition@CMapPtrToPtr@@QBEPAU__POSITION@@XZ 5f54be20 f   MFC42D:MFC42D.DLL
 0001:0004ae26       ??0CMemFile@@QAE@PAEII@Z   5f54be26 f   MFC42D:MFC42D.DLL
 0001:0004ae2c       ?AfxThrowNotSupportedException@@YGXXZ 5f54be2c f   MFC42D:MFC42D.DLL
 0001:0004ae32       ?TopLeft@CRect@@QAEAAVCPoint@@XZ 5f54be32 f   MFC42D:MFC42D.DLL
 0001:0004ae38       ??0CRect@@QAE@ABUtagRECT@@@Z 5f54be38 f   MFC42D:MFC42D.DLL
 0001:0004ae3e       ?RemoveAll@CMapPtrToPtr@@QAEXXZ 5f54be3e f   MFC42D:MFC42D.DLL
 0001:0004ae44       ?RemoveKey@CMapPtrToPtr@@QAEHPAX@Z 5f54be44 f   MFC42D:MFC42D.DLL
 0001:0004ae4a       ?GetFont@CWnd@@QBEPAVCFont@@XZ 5f54be4a f   MFC42D:MFC42D.DLL
 0001:0004ae50       ??1CWindowDC@@UAE@XZ       5f54be50 f   MFC42D:MFC42D.DLL
 0001:0004ae56       ?GetTextColor@CDC@@QBEKXZ  5f54be56 f   MFC42D:MFC42D.DLL
 0001:0004ae5c       ?GetBkColor@CDC@@QBEKXZ    5f54be5c f   MFC42D:MFC42D.DLL
 0001:0004ae62       ??0CWindowDC@@QAE@PAVCWnd@@@Z 5f54be62 f   MFC42D:MFC42D.DLL
 0001:0004ae68       ?AfxGetCtl3dState@@YGPAV_AFX_CTL3D_STATE@@XZ 5f54be68 f   MFC42D:MFC42D.DLL
 0001:0004ae6e       ?GetLogFont@CFont@@QAEHPAUtagLOGFONTA@@@Z 5f54be6e f   MFC42D:MFC42D.DLL
 0001:0004ae74       ??1CFont@@UAE@XZ           5f54be74 f   MFC42D:MFC42D.DLL
 0001:0004ae7a       ?CreateStockObject@CGdiObject@@QAEHH@Z 5f54be7a f   MFC42D:MFC42D.DLL
 0001:0004ae80       ??0CFont@@QAE@XZ           5f54be80 f   MFC42D:MFC42D.DLL
 0001:0004ae86       ?GetWindowTextA@CWnd@@QBEHPADH@Z 5f54be86 f   MFC42D:MFC42D.DLL
 0001:0004ae8c       ?GetProperty@CWnd@@QBEXJGPAX@Z 5f54be8c f   MFC42D:MFC42D.DLL
 0001:0004ae92       ?GetCount@CMapPtrToPtr@@QBEHXZ 5f54be92 f   MFC42D:MFC42D.DLL
 0001:0004ae98       ??1CClientDC@@UAE@XZ       5f54be98 f   MFC42D:MFC42D.DLL
 0001:0004ae9e       ??0CClientDC@@QAE@PAVCWnd@@@Z 5f54be9e f   MFC42D:MFC42D.DLL
 0001:0004aea4       ?UnsubclassWindow@CWnd@@QAEPAUHWND__@@XZ 5f54bea4 f   MFC42D:MFC42D.DLL
 0001:0004aeaa       ?ModifyStyle@CWnd@@SGHPAUHWND__@@KKI@Z 5f54beaa f   MFC42D:MFC42D.DLL
 0001:0004aeb0       ?ModifyStyleEx@CWnd@@SGHPAUHWND__@@KKI@Z 5f54beb0 f   MFC42D:MFC42D.DLL
 0001:0004aeb6       ??0CRect@@QAE@PBUtagRECT@@@Z 5f54beb6 f   MFC42D:MFC42D.DLL
 0001:0004aebc       ??1CPtrList@@UAE@XZ        5f54bebc f   MFC42D:MFC42D.DLL
 0001:0004aec2       ??0CPtrList@@QAE@H@Z       5f54bec2 f   MFC42D:MFC42D.DLL
 0001:0004aec8       ?RemoveAll@CPtrList@@QAEXXZ 5f54bec8 f   MFC42D:MFC42D.DLL
 0001:0004aece       ?GetHead@CPtrList@@QAEAAPAXXZ 5f54bece f   MFC42D:MFC42D.DLL
 0001:0004aed4       ?MoveWindow@CWnd@@QAEXHHHHH@Z 5f54bed4 f   MFC42D:MFC42D.DLL
 0001:0004aeda       ?GetDesktopWindow@CWnd@@SGPAV1@XZ 5f54beda f   MFC42D:MFC42D.DLL
 0001:0004aee0       ?RemoveAt@CPtrList@@QAEXPAU__POSITION@@@Z 5f54bee0 f   MFC42D:MFC42D.DLL
 0001:0004aee6       ??8@YG_NABVCString@@PBD@Z  5f54bee6 f   MFC42D:MFC42D.DLL
 0001:0004aeec       ?AddTail@CPtrList@@QAEPAU__POSITION@@PAX@Z 5f54beec f   MFC42D:MFC42D.DLL
 0001:0004aef2       ??8@YG_NABVCString@@0@Z    5f54bef2 f   MFC42D:MFC42D.DLL
 0001:0004aef8       ?Find@CPtrList@@QBEPAU__POSITION@@PAXPAU2@@Z 5f54bef8 f   MFC42D:MFC42D.DLL
 0001:0004aefe       ?GetCount@CPtrList@@QBEHXZ 5f54befe f   MFC42D:MFC42D.DLL
 0001:0004af04       ?SetProperty@CWnd@@QAAXJGZZ 5f54bf04 f   MFC42D:MFC42D.DLL
 0001:0004af0a       ?GetNextWindow@CWnd@@QBEPAV1@I@Z 5f54bf0a f   MFC42D:MFC42D.DLL
 0001:0004af10       ?GetTopWindow@CWnd@@QBEPAV1@XZ 5f54bf10 f   MFC42D:MFC42D.DLL
 0001:0004af16       ?GetNextDlgGroupItem@CWnd@@QBEPAV1@PAV1@H@Z 5f54bf16 f   MFC42D:MFC42D.DLL
 0001:0004af1c       ?GetNextDlgTabItem@CWnd@@QBEPAV1@PAV1@H@Z 5f54bf1c f   MFC42D:MFC42D.DLL
 0001:0004af22       ?IsChild@CWnd@@QBEHPBV1@@Z 5f54bf22 f   MFC42D:MFC42D.DLL
 0001:0004af28       ?GetDlgCtrlID@CWnd@@QBEHXZ 5f54bf28 f   MFC42D:MFC42D.DLL
 0001:0004af2e       ?GetFromPage@CPrintInfo@@QBEIXZ 5f54bf2e f   MFC42D:MFC42D.DLL
 0001:0004af34       ?GetToPage@CPrintInfo@@QBEIXZ 5f54bf34 f   MFC42D:MFC42D.DLL
 0001:0004af3a       ?GetMinPage@CPrintInfo@@QBEIXZ 5f54bf3a f   MFC42D:MFC42D.DLL
 0001:0004af40       ??1CPrintInfo@@QAE@XZ      5f54bf40 f   MFC42D:MFC42D.DLL
 0001:0004af46       ??0CPrintInfo@@QAE@XZ      5f54bf46 f   MFC42D:MFC42D.DLL
 0001:0004af4c       ?AbortDoc@CDC@@QAEHXZ      5f54bf4c f   MFC42D:MFC42D.DLL
 0001:0004af52       ?EndDoc@CDC@@QAEHXZ        5f54bf52 f   MFC42D:MFC42D.DLL
 0001:0004af58       ?EndPage@CDC@@QAEHXZ       5f54bf58 f   MFC42D:MFC42D.DLL
 0001:0004af5e       ?StartPage@CDC@@QAEHXZ     5f54bf5e f   MFC42D:MFC42D.DLL
 0001:0004af64       ?GetMaxPage@CPrintInfo@@QBEIXZ 5f54bf64 f   MFC42D:MFC42D.DLL
 0001:0004af6a       ?Detach@CDC@@QAEPAUHDC__@@XZ 5f54bf6a f   MFC42D:MFC42D.DLL
 0001:0004af70       ?StartDocA@CDC@@QAEHPAU_DOCINFOA@@@Z 5f54bf70 f   MFC42D:MFC42D.DLL
 0001:0004af76       ?SetAbortProc@CDC@@QAEHP6GHPAUHDC__@@H@Z@Z 5f54bf76 f   MFC42D:MFC42D.DLL
 0001:0004af7c       ?_AfxAbortProc@@YGHPAUHDC__@@H@Z 5f54bf7c f   MFC42D:MFC42D.DLL
 0001:0004af82       ?Attach@CDC@@QAEHPAUHDC__@@@Z 5f54bf82 f   MFC42D:MFC42D.DLL
 0001:0004af88       ?GetWindowTextA@CWnd@@QBEXAAVCString@@@Z 5f54bf88 f   MFC42D:MFC42D.DLL
 0001:0004af8e       ?SetRadio@CCmdUI@@UAEXH@Z  5f54bf8e f   MFC42D:MFC42D.DLL
 0001:0004af94       ??0CCmdUI@@QAE@XZ          5f54bf94 f   MFC42D:MFC42D.DLL
 0001:0004af9a       ?Right@CString@@QBE?AV1@H@Z 5f54bf9a f   MFC42D:MFC42D.DLL
 0001:0004afa0       ?RemoveMenu@CMenu@@QAEHII@Z 5f54bfa0 f   MFC42D:MFC42D.DLL
 0001:0004afa6       ?GetMenuItemCount@CMenu@@QBEIXZ 5f54bfa6 f   MFC42D:MFC42D.DLL
 0001:0004afac       ?CreateMenu@CMenu@@QAEHXZ  5f54bfac f   MFC42D:MFC42D.DLL
 0001:0004afb2       ??0CMenu@@QAE@XZ           5f54bfb2 f   MFC42D:MFC42D.DLL
 0001:0004afb8       ?Remove@CString@@QAEHD@Z   5f54bfb8 f   MFC42D:MFC42D.DLL
 0001:0004afbe       ?GetMenuStringA@CMenu@@QBEHIAAVCString@@I@Z 5f54bfbe f   MFC42D:MFC42D.DLL
 0001:0004afc4       ?GetSubMenu@CMenu@@QBEPAV1@H@Z 5f54bfc4 f   MFC42D:MFC42D.DLL
 0001:0004afca       ?SetStatusText@CControlBar@@UAEHH@Z 5f54bfca f   MFC42D:MFC42D.DLL
 0001:0004afd0       ?DoPaint@CControlBar@@UAEXPAVCDC@@@Z 5f54bfd0 f   MFC42D:MFC42D.DLL
 0001:0004afd6       ?OnBarStyleChange@CControlBar@@UAEXKK@Z 5f54bfd6 f   MFC42D:MFC42D.DLL
 0001:0004afdc       ?IsDockBar@CControlBar@@UBEHXZ 5f54bfdc f   MFC42D:MFC42D.DLL
 0001:0004afe2       ?RecalcDelayShow@CControlBar@@UAEKPAUAFX_SIZEPARENTPARAMS@@@Z 5f54bfe2 f   MFC42D:MFC42D.DLL
 0001:0004afe8       ?IsVisible@CControlBar@@UBEHXZ 5f54bfe8 f   MFC42D:MFC42D.DLL
 0001:0004afee       ?DelayShow@CControlBar@@UAEXH@Z 5f54bfee f   MFC42D:MFC42D.DLL
 0001:0004aff4       ?CalcDynamicLayout@CControlBar@@UAE?AVCSize@@HK@Z 5f54bff4 f   MFC42D:MFC42D.DLL
 0001:0004affa       ?CalcFixedLayout@CControlBar@@UAE?AVCSize@@HH@Z 5f54bffa f   MFC42D:MFC42D.DLL
 0001:0004b000       ?PostNcDestroy@CControlBar@@UAEXXZ 5f54c000 f   MFC42D:MFC42D.DLL
 0001:0004b006       ?WindowProc@CControlBar@@UAEJIIJ@Z 5f54c006 f   MFC42D:MFC42D.DLL
 0001:0004b00c       ?PreTranslateMessage@CControlBar@@UAEHPAUtagMSG@@@Z 5f54c00c f   MFC42D:MFC42D.DLL
 0001:0004b012       ?PreCreateWindow@CControlBar@@UAEHAAUtagCREATESTRUCTA@@@Z 5f54c012 f   MFC42D:MFC42D.DLL
 0001:0004b018       ?DestroyWindow@CControlBar@@UAEHXZ 5f54c018 f   MFC42D:MFC42D.DLL
 0001:0004b01e       ?Dump@CControlBar@@UBEXAAVCDumpContext@@@Z 5f54c01e f   MFC42D:MFC42D.DLL
 0001:0004b024       ?AssertValid@CControlBar@@UBEXXZ 5f54c024 f   MFC42D:MFC42D.DLL
 0001:0004b02a       ??1CControlBar@@UAE@XZ     5f54c02a f   MFC42D:MFC42D.DLL
 0001:0004b030       ??0CRectTracker@@QAE@XZ    5f54c030 f   MFC42D:MFC42D.DLL
 0001:0004b036       ??0CControlBar@@IAE@XZ     5f54c036 f   MFC42D:MFC42D.DLL
 0001:0004b03c       ??1CRectTracker@@UAE@XZ    5f54c03c f   MFC42D:MFC42D.DLL
 0001:0004b042       ??1CPaintDC@@UAE@XZ        5f54c042 f   MFC42D:MFC42D.DLL
 0001:0004b048       ?Draw@CRectTracker@@QBEXPAVCDC@@@Z 5f54c048 f   MFC42D:MFC42D.DLL
 0001:0004b04e       ?SetBrushOrg@CDC@@QAE?AVCPoint@@HH@Z 5f54c04e f   MFC42D:MFC42D.DLL
 0001:0004b054       ??0CPaintDC@@QAE@PAVCWnd@@@Z 5f54c054 f   MFC42D:MFC42D.DLL
 0001:0004b05a       ?SetCursor@CRectTracker@@QBEHPAVCWnd@@I@Z 5f54c05a f   MFC42D:MFC42D.DLL
 0001:0004b060       ?OnSetCursor@CWnd@@IAEHPAV1@II@Z 5f54c060 f   MFC42D:MFC42D.DLL
 0001:0004b066       ?HitTest@CRectTracker@@QBEHVCPoint@@@Z 5f54c066 f   MFC42D:MFC42D.DLL
 0001:0004b06c       ?GetOwner@CWnd@@QBEPAV1@XZ 5f54c06c f   MFC42D:MFC42D.DLL
 0001:0004b072       ?Track@CRectTracker@@QAEHPAVCWnd@@VCPoint@@H0@Z 5f54c072 f   MFC42D:MFC42D.DLL
 0001:0004b078       ?SetWindowOrg@CDC@@QAE?AVCPoint@@HH@Z 5f54c078 f   MFC42D:MFC42D.DLL
 0001:0004b07e       ?SetViewportExt@CDC@@QAE?AVCSize@@UtagSIZE@@@Z 5f54c07e f   MFC42D:MFC42D.DLL
 0001:0004b084       ?CreateEx@CWnd@@QAEHKPBD0KHHHHPAUHWND__@@PAUHMENU__@@PAX@Z 5f54c084 f   MFC42D:MFC42D.DLL
 0001:0004b08a       ?LPtoDP@CDC@@QBEXPAUtagRECT@@@Z 5f54c08a f   MFC42D:MFC42D.DLL
 0001:0004b090       ?SetWindowExt@CDC@@UAE?AVCSize@@HH@Z 5f54c090 f   MFC42D:MFC42D.DLL
 0001:0004b096       ?SetMapMode@CDC@@UAEHH@Z   5f54c096 f   MFC42D:MFC42D.DLL
 0001:0004b09c       ?InvalidateRect@CWnd@@QAEXPBUtagRECT@@H@Z 5f54c09c f   MFC42D:MFC42D.DLL
 0001:0004b0a2       ?OffsetRect@CRect@@QAEXUtagPOINT@@@Z 5f54c0a2 f   MFC42D:MFC42D.DLL
 0001:0004b0a8       ?AfxUnlockTempMaps@@YGHH@Z 5f54c0a8 f   MFC42D:MFC42D.DLL
 0001:0004b0ae       ?AfxLockTempMaps@@YGXXZ    5f54c0ae f   MFC42D:MFC42D.DLL
 0001:0004b0b4       ?ValidateRect@CWnd@@QAEXPBUtagRECT@@@Z 5f54c0b4 f   MFC42D:MFC42D.DLL
 0001:0004b0ba       ?OnEraseBkgnd@CWnd@@IAEHPAVCDC@@@Z 5f54c0ba f   MFC42D:MFC42D.DLL
 0001:0004b0c0       ?IsLoading@CArchive@@QBEHXZ 5f54c0c0 f   MFC42D:MFC42D.DLL
 0001:0004b0c6       ?OnNcCreate@CWnd@@IAEHPAUtagCREATESTRUCTA@@@Z 5f54c0c6 f   MFC42D:MFC42D.DLL
 0001:0004b0cc       ?OnMouseActivate@CWnd@@IAEHPAV1@II@Z 5f54c0cc f   MFC42D:MFC42D.DLL
 0001:0004b0d2       ?ReflectChildNotify@CWnd@@IAEHIIJPAJ@Z 5f54c0d2 f   MFC42D:MFC42D.DLL
 0001:0004b0d8       ?OnCreate@CWnd@@IAEHPAUtagCREATESTRUCTA@@@Z 5f54c0d8 f   MFC42D:MFC42D.DLL
 0001:0004b0de       ?OnMove@CWnd@@IAEXHH@Z     5f54c0de f   MFC42D:MFC42D.DLL
 0001:0004b0e4       ?OnShowWindow@CWnd@@IAEXHI@Z 5f54c0e4 f   MFC42D:MFC42D.DLL
 0001:0004b0ea       ?DoUpdate@CCmdUI@@QAEHPAVCCmdTarget@@H@Z 5f54c0ea f   MFC42D:MFC42D.DLL
 0001:0004b0f0       ?GetMenuItemID@CMenu@@QBEIH@Z 5f54c0f0 f   MFC42D:MFC42D.DLL
 0001:0004b0f6       ?AfxCancelModes@@YGXPAUHWND__@@@Z 5f54c0f6 f   MFC42D:MFC42D.DLL
 0001:0004b0fc       ?OnDestroy@CWnd@@IAEXXZ    5f54c0fc f   MFC42D:MFC42D.DLL
 0001:0004b102       ?OnKillFocus@CWnd@@IAEXPAV1@@Z 5f54c102 f   MFC42D:MFC42D.DLL
 0001:0004b108       ?OnSetFocus@CWnd@@IAEXPAV1@@Z 5f54c108 f   MFC42D:MFC42D.DLL
 0001:0004b10e       ?GetData@CThreadLocalObject@@QAEPAVCNoTrackObject@@P6GPAV2@XZ@Z 5f54c10e f   MFC42D:MFC42D.DLL
 0001:0004b114       ?GetRuntimeClass@CWnd@@UBEPAUCRuntimeClass@@XZ 5f54c114 f   MFC42D:MFC42D.DLL
 0001:0004b11a       ?Add@CPtrArray@@QAEHPAX@Z  5f54c11a f   MFC42D:MFC42D.DLL
 0001:0004b120       ?OnGetDlgCode@CWnd@@IAEIXZ 5f54c120 f   MFC42D:MFC42D.DLL
 0001:0004b126       ?OnCancelMode@CWnd@@IAEXXZ 5f54c126 f   MFC42D:MFC42D.DLL
 0001:0004b12c       ?MessageBoxA@CWnd@@QAEHPBD0I@Z 5f54c12c f   MFC42D:MFC42D.DLL
 0001:0004b132       ?ExitInstance@CWinApp@@UAEHXZ 5f54c132 f   MFC42D:MFC42D.DLL
 0001:0004b138       ?OnActivate@CWnd@@IAEXIPAV1@H@Z 5f54c138 f   MFC42D:MFC42D.DLL
 0001:0004b13e       ??4CRect@@QAEXABUtagRECT@@@Z 5f54c13e f   MFC42D:MFC42D.DLL
 0001:0004b144       ?Read@CFile@@UAEIPAXI@Z    5f54c144 f   MFC42D:MFC42D.DLL
 0001:0004b14a       ?_wcstombsz@@YAHPADPBGI@Z  5f54c14a f   MFC42D:MFC42D.DLL
 0001:0004b150       ??0CFile@@QAE@PBDI@Z       5f54c150 f   MFC42D:MFC42D.DLL
 0001:0004b156       ?GetSize@CPtrArray@@QBEHXZ 5f54c156 f   MFC42D:MFC42D.DLL
 0001:0004b15c       ?GetAt@CPtrArray@@QBEPAXH@Z 5f54c15c f   MFC42D:MFC42D.DLL
 0001:0004b162       ??0CPtrArray@@QAE@XZ       5f54c162 f   MFC42D:MFC42D.DLL
 0001:0004b168       ?RemoveAt@CPtrArray@@QAEXHH@Z 5f54c168 f   MFC42D:MFC42D.DLL
 0001:0004b16e       ??1CPtrArray@@UAE@XZ       5f54c16e f   MFC42D:MFC42D.DLL
 0001:0004b174       ??1CBitmap@@UAE@XZ         5f54c174 f   MFC42D:MFC42D.DLL
 0001:0004b17a       ?Detach@CGdiObject@@QAEPAXXZ 5f54c17a f   MFC42D:MFC42D.DLL
 0001:0004b180       ?LoadBitmapA@CBitmap@@QAEHI@Z 5f54c180 f   MFC42D:MFC42D.DLL
 0001:0004b186       ??0CBitmap@@QAE@XZ         5f54c186 f   MFC42D:MFC42D.DLL
 0001:0004b18c       ?GetSafeHandle@CGdiObject@@QBEPAXXZ 5f54c18c f   MFC42D:MFC42D.DLL
 0001:0004b192       ?LoadIconA@CWinApp@@QBEPAUHICON__@@I@Z 5f54c192 f   MFC42D:MFC42D.DLL
 0001:0004b198       ??6@YGAAVCArchive@@AAV0@ABVCString@@@Z 5f54c198 f   MFC42D:MFC42D.DLL
 0001:0004b19e       ??5@YGAAVCArchive@@AAV0@AAVCString@@@Z 5f54c19e f   MFC42D:MFC42D.DLL
 0001:0004b1a4       ?OnQuery3dControls@CWnd@@IAEJIJ@Z 5f54c1a4 f   MFC42D:MFC42D.DLL
 0001:0004b1aa       ?GetRuntimeClass@CObject@@UBEPAUCRuntimeClass@@XZ 5f54c1aa f   MFC42D:MFC42D.DLL
 0001:0004b1b0       ??0CObject@@IAE@XZ         5f54c1b0 f   MFC42D:MFC42D.DLL
 0001:0004b1b6       ??1CObject@@UAE@XZ         5f54c1b6 f   MFC42D:MFC42D.DLL
 0001:0004b1bc       ?RemoveAll@CPtrArray@@QAEXXZ 5f54c1bc f   MFC42D:MFC42D.DLL
 0001:0004b1c2       ??ACPtrArray@@QAEAAPAXH@Z  5f54c1c2 f   MFC42D:MFC42D.DLL
 0001:0004b1c8       ?GetFont@CDialogTemplate@@QBEHAAVCString@@AAG@Z 5f54c1c8 f   MFC42D:MFC42D.DLL
 0001:0004b1ce       ?GetSizeInDialogUnits@CDialogTemplate@@QBEXPAUtagSIZE@@@Z 5f54c1ce f   MFC42D:MFC42D.DLL
 0001:0004b1d4       ?AddHead@CPtrList@@QAEPAU__POSITION@@PAX@Z 5f54c1d4 f   MFC42D:MFC42D.DLL
 0001:0004b1da       ?AfxEnableMemoryTracking@@YGHH@Z 5f54c1da f   MFC42D:MFC42D.DLL
 0001:0004b1e0       ?OnCancel@CDialog@@MAEXXZ  5f54c1e0 f   MFC42D:MFC42D.DLL
 0001:0004b1e6       ?OnOK@CDialog@@MAEXXZ      5f54c1e6 f   MFC42D:MFC42D.DLL
 0001:0004b1ec       ??0CDialog@@QAE@XZ         5f54c1ec f   MFC42D:MFC42D.DLL
 0001:0004b1f2       ??1CDialogTemplate@@QAE@XZ 5f54c1f2 f   MFC42D:MFC42D.DLL
 0001:0004b1f8       ?Detach@CDialogTemplate@@QAEPAXXZ 5f54c1f8 f   MFC42D:MFC42D.DLL
 0001:0004b1fe       ?GetSizeInPixels@CDialogTemplate@@QBEXPAUtagSIZE@@@Z 5f54c1fe f   MFC42D:MFC42D.DLL
 0001:0004b204       ?SetFont@CDialogTemplate@@QAEHPBDG@Z 5f54c204 f   MFC42D:MFC42D.DLL
 0001:0004b20a       ?AfxGetPropSheetFont@@YGHAAVCString@@AAGH@Z 5f54c20a f   MFC42D:MFC42D.DLL
 0001:0004b210       ?HasFont@CDialogTemplate@@QBEHXZ 5f54c210 f   MFC42D:MFC42D.DLL
 0001:0004b216       ?Load@CDialogTemplate@@QAEHPBD@Z 5f54c216 f   MFC42D:MFC42D.DLL
 0001:0004b21c       ??0CDialogTemplate@@QAE@PBUDLGTEMPLATE@@@Z 5f54c21c f   MFC42D:MFC42D.DLL
 0001:0004b222       ?GetCurrentMessage@CWnd@@KGPBUtagMSG@@XZ 5f54c222 f   MFC42D:MFC42D.DLL
 0001:0004b228       ?SendChildNotifyLastMsg@CWnd@@QAEHPAJ@Z 5f54c228 f   MFC42D:MFC42D.DLL
 0001:0004b22e       ??0CDialogTemplate@@QAE@PAX@Z 5f54c22e f   MFC42D:MFC42D.DLL
 0001:0004b234       ?UpdateData@CWnd@@QAEHH@Z  5f54c234 f   MFC42D:MFC42D.DLL
 0001:0004b23a       ?Create@CDialog@@QAEHIPAVCWnd@@@Z 5f54c23a f   MFC42D:MFC42D.DLL
 0001:0004b240       ?CreateIndirect@CDialog@@QAEHPAXPAVCWnd@@@Z 5f54c240 f   MFC42D:MFC42D.DLL
 0001:0004b246       ?GetWindow@CWnd@@QBEPAV1@I@Z 5f54c246 f   MFC42D:MFC42D.DLL
 0001:0004b24c       ?GotoDlgCtrl@CDialog@@QAEXPAVCWnd@@@Z 5f54c24c f   MFC42D:MFC42D.DLL
 0001:0004b252       ?GetDefID@CDialog@@QBEKXZ  5f54c252 f   MFC42D:MFC42D.DLL
 0001:0004b258       ?GetAt@CDWordArray@@QBEKH@Z 5f54c258 f   MFC42D:MFC42D.DLL
 0001:0004b25e       ??9@YG_NABVCString@@0@Z    5f54c25e f   MFC42D:MFC42D.DLL
 0001:0004b264       ??6CArchive@@QAEAAV0@H@Z   5f54c264 f   MFC42D:MFC42D.DLL
 0001:0004b26a       ??6CArchive@@QAEAAV0@F@Z   5f54c26a f   MFC42D:MFC42D.DLL
 0001:0004b270       ??5CArchive@@QAEAAV0@AAH@Z 5f54c270 f   MFC42D:MFC42D.DLL
 0001:0004b276       ??5CArchive@@QAEAAV0@AAF@Z 5f54c276 f   MFC42D:MFC42D.DLL
 0001:0004b27c       ?GetAt@CStringArray@@QBE?AVCString@@H@Z 5f54c27c f   MFC42D:MFC42D.DLL
 0001:0004b282       ??1CStringArray@@UAE@XZ    5f54c282 f   MFC42D:MFC42D.DLL
 0001:0004b288       ?GetSize@CStringArray@@QBEHXZ 5f54c288 f   MFC42D:MFC42D.DLL
 0001:0004b28e       ??0CStringArray@@QAE@XZ    5f54c28e f   MFC42D:MFC42D.DLL
 0001:0004b294       ?RemoveAll@CStringArray@@QAEXXZ 5f54c294 f   MFC42D:MFC42D.DLL
 0001:0004b29a       ?Add@CStringArray@@QAEHABVCString@@@Z 5f54c29a f   MFC42D:MFC42D.DLL
 0001:0004b2a0       ?SeekToEnd@CFile@@QAEKXZ   5f54c2a0 f   MFC42D:MFC42D.DLL
 0001:0004b2a6       ?Compare@CString@@QBEHPBD@Z 5f54c2a6 f   MFC42D:MFC42D.DLL
 0001:0004b2ac       ?AfxDelRegTreeHelper@@YGJPAUHKEY__@@ABVCString@@@Z 5f54c2ac f   MFC42D:MFC42D.DLL
 0001:0004b2b2       ?ReverseFind@CString@@QBEHD@Z 5f54c2b2 f   MFC42D:MFC42D.DLL
 0001:0004b2b8       ??1CBrush@@UAE@XZ          5f54c2b8 f   MFC42D:MFC42D.DLL
 0001:0004b2be       ?FillRect@CDC@@QAEXPBUtagRECT@@PAVCBrush@@@Z 5f54c2be f   MFC42D:MFC42D.DLL
 0001:0004b2c4       ??0CBrush@@QAE@K@Z         5f54c2c4 f   MFC42D:MFC42D.DLL
 0001:0004b2ca       ??9CRect@@QBEHABUtagRECT@@@Z 5f54c2ca f   MFC42D:MFC42D.DLL
 0001:0004b2d0       ?GetHandleSize@CRectTracker@@MBEHPBUtagRECT@@@Z 5f54c2d0 f   MFC42D:MFC42D.DLL
 0001:0004b2d6       ?GetHandleMask@CRectTracker@@UBEIXZ 5f54c2d6 f   MFC42D:MFC42D.DLL
 0001:0004b2dc       ?OnChangedRect@CRectTracker@@UAEXABVCRect@@@Z 5f54c2dc f   MFC42D:MFC42D.DLL
 0001:0004b2e2       ?AdjustRect@CRectTracker@@UAEXHPAUtagRECT@@@Z 5f54c2e2 f   MFC42D:MFC42D.DLL
 0001:0004b2e8       ?DrawTrackerRect@CRectTracker@@UAEXPBUtagRECT@@PAVCWnd@@PAVCDC@@1@Z 5f54c2e8 f   MFC42D:MFC42D.DLL
 0001:0004b2ee       ??0CRectTracker@@QAE@PBUtagRECT@@I@Z 5f54c2ee f   MFC42D:MFC42D.DLL
 0001:0004b2f4       ?FromHandle@CDC@@SGPAV1@PAUHDC__@@@Z 5f54c2f4 f   MFC42D:MFC42D.DLL
 0001:0004b2fa       ??1CMapStringToPtr@@UAE@XZ 5f54c2fa f   MFC42D:MFC42D.DLL
 0001:0004b300       ??0CMapStringToPtr@@QAE@H@Z 5f54c300 f   MFC42D:MFC42D.DLL
 0001:0004b306       ?Lookup@CMapStringToPtr@@QBEHPBDAAPAX@Z 5f54c306 f   MFC42D:MFC42D.DLL
 0001:0004b30c       ?MakeLower@CString@@QAEXXZ 5f54c30c f   MFC42D:MFC42D.DLL
 0001:0004b312       ?SetAt@CMapStringToPtr@@QAEXPBDPAX@Z 5f54c312 f   MFC42D:MFC42D.DLL
 0001:0004b318       ?GetNextAssoc@CMapStringToPtr@@QBEXAAPAU__POSITION@@AAVCString@@AAPAX@Z 5f54c318 f   MFC42D:MFC42D.DLL
 0001:0004b31e       ?GetStartPosition@CMapStringToPtr@@QBEPAU__POSITION@@XZ 5f54c31e f   MFC42D:MFC42D.DLL
 0001:0004b324       ?GetCount@CMapStringToPtr@@QBEHXZ 5f54c324 f   MFC42D:MFC42D.DLL
 0001:0004b32a       ??1CThreadLocalObject@@QAE@XZ 5f54c32a f   MFC42D:MFC42D.DLL
 0001:0004b330       ?Escape@CDC@@UAEHHHPBDPAX@Z 5f54c330 f   MFC42D:MFC42D.DLL
 0001:0004b336       ?GrayStringA@CDC@@UAEHPAVCBrush@@P6GHPAUHDC__@@JH@ZJHHHHH@Z 5f54c336 f   MFC42D:MFC42D.DLL
 0001:0004b33c       ?DrawTextA@CDC@@UAEHPBDHPAUtagRECT@@I@Z 5f54c33c f   MFC42D:MFC42D.DLL
 0001:0004b342       ?TabbedTextOutA@CDC@@UAE?AVCSize@@HHPBDHHPAHH@Z 5f54c342 f   MFC42D:MFC42D.DLL
 0001:0004b348       ?ExtTextOutA@CDC@@UAEHHHIPBUtagRECT@@PBDIPAH@Z 5f54c348 f   MFC42D:MFC42D.DLL
 0001:0004b34e       ?TextOutA@CDC@@UAEHHHPBDH@Z 5f54c34e f   MFC42D:MFC42D.DLL
 0001:0004b354       ?RectVisible@CDC@@UBEHPBUtagRECT@@@Z 5f54c354 f   MFC42D:MFC42D.DLL
 0001:0004b35a       ?PtVisible@CDC@@UBEHHH@Z   5f54c35a f   MFC42D:MFC42D.DLL
 0001:0004b360       ?GetClipBox@CDC@@UBEHPAUtagRECT@@@Z 5f54c360 f   MFC42D:MFC42D.DLL
 0001:0004b366       ?ScaleWindowExt@CDC@@UAE?AVCSize@@HHHH@Z 5f54c366 f   MFC42D:MFC42D.DLL
 0001:0004b36c       ?ScaleViewportExt@CDC@@UAE?AVCSize@@HHHH@Z 5f54c36c f   MFC42D:MFC42D.DLL
 0001:0004b372       ?SetViewportExt@CDC@@UAE?AVCSize@@HH@Z 5f54c372 f   MFC42D:MFC42D.DLL
 0001:0004b378       ?OffsetViewportOrg@CDC@@UAE?AVCPoint@@HH@Z 5f54c378 f   MFC42D:MFC42D.DLL
 0001:0004b37e       ?SetViewportOrg@CDC@@UAE?AVCPoint@@HH@Z 5f54c37e f   MFC42D:MFC42D.DLL
 0001:0004b384       ?SetTextColor@CDC@@UAEKK@Z 5f54c384 f   MFC42D:MFC42D.DLL
 0001:0004b38a       ?SetBkColor@CDC@@UAEKK@Z   5f54c38a f   MFC42D:MFC42D.DLL
 0001:0004b390       ?SelectObject@CDC@@UAEPAVCFont@@PAV2@@Z 5f54c390 f   MFC42D:MFC42D.DLL
 0001:0004b396       ?SelectStockObject@CDC@@UAEPAVCGdiObject@@H@Z 5f54c396 f   MFC42D:MFC42D.DLL
 0001:0004b39c       ?RestoreDC@CDC@@UAEHH@Z    5f54c39c f   MFC42D:MFC42D.DLL
 0001:0004b3a2       ?SaveDC@CDC@@UAEHXZ        5f54c3a2 f   MFC42D:MFC42D.DLL
 0001:0004b3a8       ?ReleaseOutputDC@CDC@@UAEXXZ 5f54c3a8 f   MFC42D:MFC42D.DLL
 0001:0004b3ae       ?ReleaseAttribDC@CDC@@UAEXXZ 5f54c3ae f   MFC42D:MFC42D.DLL
 0001:0004b3b4       ?SetOutputDC@CDC@@UAEXPAUHDC__@@@Z 5f54c3b4 f   MFC42D:MFC42D.DLL
 0001:0004b3ba       ?SetAttribDC@CDC@@UAEXPAUHDC__@@@Z 5f54c3ba f   MFC42D:MFC42D.DLL
 0001:0004b3c0       ?Dump@CDC@@UBEXAAVCDumpContext@@@Z 5f54c3c0 f   MFC42D:MFC42D.DLL
 0001:0004b3c6       ?AssertValid@CDC@@UBEXXZ   5f54c3c6 f   MFC42D:MFC42D.DLL
 0001:0004b3cc       ?SetViewportOrg@CDC@@QAE?AVCPoint@@UtagPOINT@@@Z 5f54c3cc f   MFC42D:MFC42D.DLL
 0001:0004b3d2       ??HCPoint@@QBE?AV0@UtagPOINT@@@Z 5f54c3d2 f   MFC42D:MFC42D.DLL
 0001:0004b3d8       ?GetViewportOrg@CDC@@QBE?AVCPoint@@XZ 5f54c3d8 f   MFC42D:MFC42D.DLL
 0001:0004b3de       ?GetDC@CWnd@@QAEPAVCDC@@XZ 5f54c3de f   MFC42D:MFC42D.DLL
 0001:0004b3e4       ?ReleaseDC@CWnd@@QAEHPAVCDC@@@Z 5f54c3e4 f   MFC42D:MFC42D.DLL
 0001:0004b3ea       ?InvalidateRgn@CWnd@@QAEXPAVCRgn@@H@Z 5f54c3ea f   MFC42D:MFC42D.DLL
 0001:0004b3f0       ??1CRgn@@UAE@XZ            5f54c3f0 f   MFC42D:MFC42D.DLL
 0001:0004b3f6       ??BCRgn@@QBEPAUHRGN__@@XZ  5f54c3f6 f   MFC42D:MFC42D.DLL
 0001:0004b3fc       ?OffsetRgn@CRgn@@QAEHUtagPOINT@@@Z 5f54c3fc f   MFC42D:MFC42D.DLL
 0001:0004b402       ?CopyRgn@CRgn@@QAEHPAV1@@Z 5f54c402 f   MFC42D:MFC42D.DLL
 0001:0004b408       ??0CRgn@@QAE@XZ            5f54c408 f   MFC42D:MFC42D.DLL
 0001:0004b40e       ?ScrollWindow@CWnd@@QAEXHHPBUtagRECT@@0@Z 5f54c40e f   MFC42D:MFC42D.DLL
 0001:0004b414       ?OnChildNotify@CButton@@MAEHIIJPAJ@Z 5f54c414 f   MFC42D:MFC42D.DLL
 0001:0004b41a       ?GetRuntimeClass@CButton@@UBEPAUCRuntimeClass@@XZ 5f54c41a f   MFC42D:MFC42D.DLL
 0001:0004b420       ??0CButton@@QAE@XZ         5f54c420 f   MFC42D:MFC42D.DLL
 0001:0004b426       ??1CButton@@UAE@XZ         5f54c426 f   MFC42D:MFC42D.DLL
 0001:0004b42c       ?GetNearestColor@CDC@@QBEKK@Z 5f54c42c f   MFC42D:MFC42D.DLL
 0001:0004b432       ?GetState@CButton@@QBEIXZ  5f54c432 f   MFC42D:MFC42D.DLL
 0001:0004b438       ?RealizePalette@CDC@@QAEIXZ 5f54c438 f   MFC42D:MFC42D.DLL
 0001:0004b43e       ?SelectPalette@CDC@@QAEPAVCPalette@@PAV2@H@Z 5f54c43e f   MFC42D:MFC42D.DLL
 0001:0004b444       ?FromHandle@CPalette@@SGPAV1@PAUHPALETTE__@@@Z 5f54c444 f   MFC42D:MFC42D.DLL
 0001:0004b44a       ??1CComboBox@@UAE@XZ       5f54c44a f   MFC42D:MFC42D.DLL
 0001:0004b450       ??0CComboBox@@QAE@XZ       5f54c450 f   MFC42D:MFC42D.DLL
 0001:0004b456       ?SubclassDlgItem@CWnd@@QAEHIPAV1@@Z 5f54c456 f   MFC42D:MFC42D.DLL
 0001:0004b45c       ?SetCurSel@CComboBox@@QAEHH@Z 5f54c45c f   MFC42D:MFC42D.DLL
 0001:0004b462       ?SetItemData@CComboBox@@QAEHHK@Z 5f54c462 f   MFC42D:MFC42D.DLL
 0001:0004b468       ?AddString@CComboBox@@QAEHPBD@Z 5f54c468 f   MFC42D:MFC42D.DLL
 0001:0004b46e       ?GetCount@CComboBox@@QBEHXZ 5f54c46e f   MFC42D:MFC42D.DLL
 0001:0004b474       ?GetItemData@CComboBox@@QBEKH@Z 5f54c474 f   MFC42D:MFC42D.DLL
 0001:0004b47a       ?GetCurSel@CComboBox@@QBEHXZ 5f54c47a f   MFC42D:MFC42D.DLL
 0001:0004b480       ?DDX_Control@@YGXPAVCDataExchange@@HAAVCWnd@@@Z 5f54c480 f   MFC42D:MFC42D.DLL
 0001:0004b486       ?LineTo@CDC@@QAEHHH@Z      5f54c486 f   MFC42D:MFC42D.DLL
 0001:0004b48c       ?MoveTo@CDC@@QAE?AVCPoint@@HH@Z 5f54c48c f   MFC42D:MFC42D.DLL
 0001:0004b492       ?SelectObject@CDC@@QAEPAVCPen@@PAV2@@Z 5f54c492 f   MFC42D:MFC42D.DLL
 0001:0004b498       ??0CPen@@QAE@HHK@Z         5f54c498 f   MFC42D:MFC42D.DLL
 0001:0004b49e       ?FrameRect@CDC@@QAEXPBUtagRECT@@PAVCBrush@@@Z 5f54c49e f   MFC42D:MFC42D.DLL
 0001:0004b4a4       ??1CStatic@@UAE@XZ         5f54c4a4 f   MFC42D:MFC42D.DLL
 0001:0004b4aa       ??0CStatic@@QAE@XZ         5f54c4aa f   MFC42D:MFC42D.DLL
 0001:0004b4b0       ?DeleteItem@CComboBox@@UAEXPAUtagDELETEITEMSTRUCT@@@Z 5f54c4b0 f   MFC42D:MFC42D.DLL
 0001:0004b4b6       ?CompareItem@CComboBox@@UAEHPAUtagCOMPAREITEMSTRUCT@@@Z 5f54c4b6 f   MFC42D:MFC42D.DLL
 0001:0004b4bc       ?MeasureItem@CComboBox@@UAEXPAUtagMEASUREITEMSTRUCT@@@Z 5f54c4bc f   MFC42D:MFC42D.DLL
 0001:0004b4c2       ?DrawItem@CComboBox@@UAEXPAUtagDRAWITEMSTRUCT@@@Z 5f54c4c2 f   MFC42D:MFC42D.DLL
 0001:0004b4c8       ?OnChildNotify@CComboBox@@MAEHIIJPAJ@Z 5f54c4c8 f   MFC42D:MFC42D.DLL
 0001:0004b4ce       ?GetRuntimeClass@CComboBox@@UBEPAUCRuntimeClass@@XZ 5f54c4ce f   MFC42D:MFC42D.DLL
 0001:0004b4d4       ?BitBlt@CDC@@QAEHHHHHPAV1@HHK@Z 5f54c4d4 f   MFC42D:MFC42D.DLL
 0001:0004b4da       ?SelectObject@CDC@@QAEPAVCBitmap@@PAV2@@Z 5f54c4da f   MFC42D:MFC42D.DLL
 0001:0004b4e0       ?CreateCompatibleDC@CDC@@QAEHPAV1@@Z 5f54c4e0 f   MFC42D:MFC42D.DLL
 0001:0004b4e6       ?GetPixel@CDC@@QBEKHH@Z    5f54c4e6 f   MFC42D:MFC42D.DLL
 0001:0004b4ec       ?CreateBitmap@CBitmap@@QAEHHHIIPBX@Z 5f54c4ec f   MFC42D:MFC42D.DLL
 0001:0004b4f2       ?GetObjectA@CGdiObject@@QBEHHPAX@Z 5f54c4f2 f   MFC42D:MFC42D.DLL
 0001:0004b4f8       ?GetSafeHdc@CDC@@QBEPAUHDC__@@XZ 5f54c4f8 f   MFC42D:MFC42D.DLL
 0001:0004b4fe       ?ResetContent@CComboBox@@QAEXXZ 5f54c4fe f   MFC42D:MFC42D.DLL
 0001:0004b504       ?SelectString@CComboBox@@QAEHHPBD@Z 5f54c504 f   MFC42D:MFC42D.DLL
 0001:0004b50a       ?FindString@CComboBox@@QBEHHPBD@Z 5f54c50a f   MFC42D:MFC42D.DLL
 0001:0004b510       ?GetLBText@CComboBox@@QBEXHAAVCString@@@Z 5f54c510 f   MFC42D:MFC42D.DLL
 0001:0004b516       ?DrawFocusRect@CDC@@QAEXPBUtagRECT@@@Z 5f54c516 f   MFC42D:MFC42D.DLL
 0001:0004b51c       ?GetTextMetricsA@CDC@@QBEHPAUtagTEXTMETRICA@@@Z 5f54c51c f   MFC42D:MFC42D.DLL
 0001:0004b522       ?InsertString@CComboBox@@QAEHHPBD@Z 5f54c522 f   MFC42D:MFC42D.DLL
 0001:0004b528       ?SetEditSel@CComboBox@@QAEHHH@Z 5f54c528 f   MFC42D:MFC42D.DLL
 0001:0004b52e       ?FindStringExact@CComboBox@@QBEHHPBD@Z 5f54c52e f   MFC42D:MFC42D.DLL
 0001:0004b534       ?CreateFontIndirectA@CFont@@QAEHPBUtagLOGFONTA@@@Z 5f54c534 f   MFC42D:MFC42D.DLL
 0001:0004b53a       ?DeleteObject@CGdiObject@@QAEHXZ 5f54c53a f   MFC42D:MFC42D.DLL
 0001:0004b540       ?GetTextExtent@CDC@@QBE?AVCSize@@PBDH@Z 5f54c540 f   MFC42D:MFC42D.DLL
 0001:0004b546       ?SetBkMode@CDC@@QAEHH@Z    5f54c546 f   MFC42D:MFC42D.DLL
 0001:0004b54c       ?SetCheck@CButton@@QAEXH@Z 5f54c54c f   MFC42D:MFC42D.DLL
 0001:0004b552       ?GetCheck@CButton@@QBEHXZ  5f54c552 f   MFC42D:MFC42D.DLL
 0001:0004b558       ?GetStatus@CFile@@SGHPBDAAUCFileStatus@@@Z 5f54c558 f   MFC42D:MFC42D.DLL
 0001:0004b55e       ??0CTime@@QAE@XZ           5f54c55e f   MFC42D:MFC42D.DLL
 0001:0004b564       ?GetPathName@CFileDialog@@QBE?AVCString@@XZ 5f54c564 f   MFC42D:MFC42D.DLL
 0001:0004b56a       ?DoModal@CFileDialog@@UAEHXZ 5f54c56a f   MFC42D:MFC42D.DLL
 0001:0004b570       ??0CFileDialog@@QAE@HPBD0K0PAVCWnd@@@Z 5f54c570 f   MFC42D:MFC42D.DLL
 0001:0004b576       ??0CMemFile@@QAE@I@Z       5f54c576 f   MFC42D:MFC42D.DLL
 0001:0004b57c       ___CxxFrameHandler         5f54c57c f   msvcrtd:MSVCRTD.dll
 0001:0004b590       __onexit                   5f54c590 f   msvcrtd:atonexit.obj
 0001:0004b5d0       _atexit                    5f54c5d0 f   msvcrtd:atonexit.obj
 0001:0004b5f0       ??_L@YGXPAXIHP6EX0@Z1@Z    5f54c5f0 f   msvcrtd:ehvecctr.obj
 0001:0004b690       ??_M@YGXPAXIHP6EX0@Z@Z     5f54c690 f   msvcrtd:ehvecdtr.obj
 0001:0004b740       ?__ArrayUnwind@@YGXPAXIHP6EX0@Z@Z 5f54c740 f   msvcrtd:ehvecdtr.obj
 0001:0004b7ec       _memmove                   5f54c7ec f   msvcrtd:MSVCRTD.dll
 0001:0004b7f2       __mbsnbcmp                 5f54c7f2 f   msvcrtd:MSVCRTD.dll
 0001:0004b800       ??0type_info@@AAE@ABV0@@Z  5f54c800 f   msvcrtd:ti_inst.obj
 0001:0004b820       ??_Etype_info@@UAEPAXI@Z   5f54c820 f i msvcrtd:ti_inst.obj
 0001:0004b820       ??_Gtype_info@@UAEPAXI@Z   5f54c820 f i msvcrtd:ti_inst.obj
 0001:0004b850       ??4type_info@@AAEAAV0@ABV0@@Z 5f54c850 f   msvcrtd:ti_inst.obj
 0001:0004b860       __alloca_probe             5f54c860 f   msvcrtd:chkstk.obj
 0001:0004b860       __chkstk                   5f54c860 f   msvcrtd:chkstk.obj
 0001:0004b890       _atol                      5f54c890 f   msvcrtd:MSVCRTD.dll
 0001:0004b896       __mbsinc                   5f54c896 f   msvcrtd:MSVCRTD.dll
 0001:0004b89c       _memcmp                    5f54c89c f   msvcrtd:MSVCRTD.dll
 0001:0004b8a2       __CrtDbgReport             5f54c8a2 f   msvcrtd:MSVCRTD.dll
 0001:0004b8a8       __CxxThrowException@8      5f54c8a8 f   msvcrtd:MSVCRTD.dll
 0001:0004b8ae       _memcpy                    5f54c8ae f   msvcrtd:MSVCRTD.dll
 0001:0004b8b4       _wcslen                    5f54c8b4 f   msvcrtd:MSVCRTD.dll
 0001:0004b8ba       _memset                    5f54c8ba f   msvcrtd:MSVCRTD.dll
 0001:0004b8c0       __purecall                 5f54c8c0 f   msvcrtd:MSVCRTD.dll
 0001:0004b8c6       _free                      5f54c8c6 f   msvcrtd:MSVCRTD.dll
 0001:0004b8cc       __strdup                   5f54c8cc f   msvcrtd:MSVCRTD.dll
 0001:0004b8d2       _realloc                   5f54c8d2 f   msvcrtd:MSVCRTD.dll
 0001:0004b8d8       __mbschr                   5f54c8d8 f   msvcrtd:MSVCRTD.dll
 0001:0004b8de       __ftol                     5f54c8de f   msvcrtd:MSVCRTD.dll
 0001:0004b8e4       _labs                      5f54c8e4 f   msvcrtd:MSVCRTD.dll
 0001:0004b8ea       _floor                     5f54c8ea f   msvcrtd:MSVCRTD.dll
 0001:0004b8f0       _fabs                      5f54c8f0 f   msvcrtd:MSVCRTD.dll
 0001:0004b8f6       _ceil                      5f54c8f6 f   msvcrtd:MSVCRTD.dll
 0001:0004b8fc       _time                      5f54c8fc f   msvcrtd:MSVCRTD.dll
 0001:0004b902       _localtime                 5f54c902 f   msvcrtd:MSVCRTD.dll
 0001:0004b908       _strftime                  5f54c908 f   msvcrtd:MSVCRTD.dll
 0001:0004b90e       _modf                      5f54c90e f   msvcrtd:MSVCRTD.dll
 0001:0004b914       __itoa                     5f54c914 f   msvcrtd:MSVCRTD.dll
 0001:0004b91a       _swprintf                  5f54c91a f   msvcrtd:MSVCRTD.dll
 0001:0004b920       _malloc                    5f54c920 f   msvcrtd:MSVCRTD.dll
 0001:0004b926       _strtoul                   5f54c926 f   msvcrtd:MSVCRTD.dll
 0001:0004b92c       _strtol                    5f54c92c f   msvcrtd:MSVCRTD.dll
 0001:0004b932       __ismbcdigit               5f54c932 f   msvcrtd:MSVCRTD.dll
 0001:0004b938       __ismbcspace               5f54c938 f   msvcrtd:MSVCRTD.dll
 0001:0004b93e       __ultoa                    5f54c93e f   msvcrtd:MSVCRTD.dll
 0001:0004b944       __ltoa                     5f54c944 f   msvcrtd:MSVCRTD.dll
 0001:0004b94a       __vsnprintf                5f54c94a f   msvcrtd:MSVCRTD.dll
 0001:0004b950       _wcscpy                    5f54c950 f   msvcrtd:MSVCRTD.dll
 0001:0004b956       _wcsncpy                   5f54c956 f   msvcrtd:MSVCRTD.dll
 0001:0004b95c       __mbsrchr                  5f54c95c f   msvcrtd:MSVCRTD.dll
 0001:0004b970       __CRT_INIT@12              5f54c970 f   msvcrtd:crtdll.obj
 0001:0004ba80       __DllMainCRTStartup@12     5f54ca80 f   msvcrtd:crtdll.obj
 0001:0004bb74       ___dllonexit               5f54cb74 f   msvcrtd:MSVCRTD.dll
 0001:0004bb7a       __except_handler3          5f54cb7a f   msvcrtd:MSVCRTD.dll
 0001:0004bb80       ?terminate@@YAXXZ          5f54cb80 f   msvcrtd:MSVCRTD.dll
 0001:0004bb86       ??1type_info@@UAE@XZ       5f54cb86 f   msvcrtd:MSVCRTD.dll
 0001:0004bb8c       __free_dbg                 5f54cb8c f   msvcrtd:MSVCRTD.dll
 0001:0004bb92       __initterm                 5f54cb92 f   msvcrtd:MSVCRTD.dll
 0001:0004bb98       __malloc_dbg               5f54cb98 f   msvcrtd:MSVCRTD.dll
 0001:0004bb9e       _FreeLibrary@4             5f54cb9e f   kernel32:KERNEL32.dll
 0001:0004bba4       _GetModuleHandleA@4        5f54cba4 f   kernel32:KERNEL32.dll
 0001:0004bbaa       _LocalFree@4               5f54cbaa f   kernel32:KERNEL32.dll
 0001:0004bbb0       _LocalAlloc@8              5f54cbb0 f   kernel32:KERNEL32.dll
 0001:0004bbb6       _LoadLibraryA@4            5f54cbb6 f   kernel32:KERNEL32.dll
 0001:0004bbbc       _GetTickCount@0            5f54cbbc f   kernel32:KERNEL32.dll
 0001:0004bbc2       _lstrlenA@4                5f54cbc2 f   kernel32:KERNEL32.dll
 0001:0004bbc8       _lstrlenW@4                5f54cbc8 f   kernel32:KERNEL32.dll
 0001:0004bbce       _MultiByteToWideChar@24    5f54cbce f   kernel32:KERNEL32.dll
 0001:0004bbd4       _WideCharToMultiByte@32    5f54cbd4 f   kernel32:KERNEL32.dll
 0001:0004bbda       _GlobalFree@4              5f54cbda f   kernel32:KERNEL32.dll
 0001:0004bbe0       _GlobalUnlock@4            5f54cbe0 f   kernel32:KERNEL32.dll
 0001:0004bbe6       _GlobalLock@4              5f54cbe6 f   kernel32:KERNEL32.dll
 0001:0004bbec       _GlobalAlloc@8             5f54cbec f   kernel32:KERNEL32.dll
 0001:0004bbf2       _InterlockedDecrement@4    5f54cbf2 f   kernel32:KERNEL32.dll
 0001:0004bbf8       _InterlockedIncrement@4    5f54cbf8 f   kernel32:KERNEL32.dll
 0001:0004bbfe       _lstrcmpiA@8               5f54cbfe f   kernel32:KERNEL32.dll
 0001:0004bc04       _lstrcpynA@12              5f54cc04 f   kernel32:KERNEL32.dll
 0001:0004bc0a       _FileTimeToSystemTime@8    5f54cc0a f   kernel32:KERNEL32.dll
 0001:0004bc10       _GetLastError@0            5f54cc10 f   kernel32:KERNEL32.dll
 0001:0004bc16       _FileTimeToLocalFileTime@8 5f54cc16 f   kernel32:KERNEL32.dll
 0001:0004bc1c       _GetProfileIntA@12         5f54cc1c f   kernel32:KERNEL32.dll
 0001:0004bc22       _GetCurrentThreadId@0      5f54cc22 f   kernel32:KERNEL32.dll
 0001:0004bc28       _lstrcmpA@8                5f54cc28 f   kernel32:KERNEL32.dll
 0001:0004bc2e       _FormatMessageA@28         5f54cc2e f   kernel32:KERNEL32.dll
 0001:0004bc34       _GlobalSize@4              5f54cc34 f   kernel32:KERNEL32.dll
 0001:0004bc3a       _CopyFileA@12              5f54cc3a f   kernel32:KERNEL32.dll
 0001:0004bc40       _MulDiv@12                 5f54cc40 f   kernel32:KERNEL32.dll
 0001:0004bc46       _lstrcatA@8                5f54cc46 f   kernel32:KERNEL32.dll
 0001:0004bc4c       _GetModuleFileNameA@12     5f54cc4c f   kernel32:KERNEL32.dll
 0001:0004bc52       _FreeResource@4            5f54cc52 f   kernel32:KERNEL32.dll
 0001:0004bc58       _LockResource@4            5f54cc58 f   kernel32:KERNEL32.dll
 0001:0004bc5e       _LoadResource@8            5f54cc5e f   kernel32:KERNEL32.dll
 0001:0004bc64       _FindResourceA@12          5f54cc64 f   kernel32:KERNEL32.dll
 0001:0004bc6a       _GetThreadLocale@0         5f54cc6a f   kernel32:KERNEL32.dll
 0001:0004bc70       _OutputDebugStringA@4      5f54cc70 f   kernel32:KERNEL32.dll
 0001:0004bc76       _lstrcpyW@8                5f54cc76 f   kernel32:KERNEL32.dll
 0001:0004bc7c       _GetUserDefaultLCID@0      5f54cc7c f   kernel32:KERNEL32.dll
 0001:0004bc82       _IsDBCSLeadByte@4          5f54cc82 f   kernel32:KERNEL32.dll
 0001:0004bc88       _lstrcpyA@8                5f54cc88 f   kernel32:KERNEL32.dll
 0001:0004bc8e       _GetVersion@0              5f54cc8e f   kernel32:KERNEL32.dll
 0001:0004bc94       _CopyMetaFileA@8           5f54cc94 f   gdi32:GDI32.dll
 0001:0004bc9a       _CreateDCA@16              5f54cc9a f   gdi32:GDI32.dll
 0001:0004bca0       _GetDeviceCaps@8           5f54cca0 f   gdi32:GDI32.dll
 0001:0004bca6       _DeleteMetaFile@4          5f54cca6 f   gdi32:GDI32.dll
 0001:0004bcac       _DeleteDC@4                5f54ccac f   gdi32:GDI32.dll
 0001:0004bcb2       _ScaleWindowExtEx@24       5f54ccb2 f   gdi32:GDI32.dll
 0001:0004bcb8       _DPtoLP@12                 5f54ccb8 f   gdi32:GDI32.dll
 0001:0004bcbe       _LPtoDP@12                 5f54ccbe f   gdi32:GDI32.dll
 0001:0004bcc4       _SetMapMode@8              5f54ccc4 f   gdi32:GDI32.dll
 0001:0004bcca       _SelectObject@8            5f54ccca f   gdi32:GDI32.dll
 0001:0004bcd0       _GetPaletteEntries@16      5f54ccd0 f   gdi32:GDI32.dll
 0001:0004bcd6       _CreatePalette@4           5f54ccd6 f   gdi32:GDI32.dll
 0001:0004bcdc       _EnumFontFamiliesA@16      5f54ccdc f   gdi32:GDI32.dll
 0001:0004bce2       _RegisterClipboardFormatA@4 5f54cce2 f   user32:USER32.dll
 0001:0004bce8       _wsprintfA                 5f54cce8 f   user32:USER32.dll
 0001:0004bcee       _CopyAcceleratorTableA@12  5f54ccee f   user32:USER32.dll
 0001:0004bcf4       _GetActiveWindow@0         5f54ccf4 f   user32:USER32.dll
 0001:0004bcfa       _IsWindow@4                5f54ccfa f   user32:USER32.dll
 0001:0004bd00       _CopyRect@8                5f54cd00 f   user32:USER32.dll
 0001:0004bd06       _IsClipboardFormatAvailable@4 5f54cd06 f   user32:USER32.dll
 0001:0004bd0c       _SendMessageA@16           5f54cd0c f   user32:USER32.dll
 0001:0004bd12       _EnableWindow@8            5f54cd12 f   user32:USER32.dll
 0001:0004bd18       _GetWindowTextA@12         5f54cd18 f   user32:USER32.dll
 0001:0004bd1e       _GetWindowTextLengthA@4    5f54cd1e f   user32:USER32.dll
 0001:0004bd24       _InSendMessage@0           5f54cd24 f   user32:USER32.dll
 0001:0004bd2a       _ReleaseCapture@0          5f54cd2a f   user32:USER32.dll
 0001:0004bd30       _PeekMessageA@20           5f54cd30 f   user32:USER32.dll
 0001:0004bd36       _GetKeyState@4             5f54cd36 f   user32:USER32.dll
 0001:0004bd3c       _GetCursorPos@4            5f54cd3c f   user32:USER32.dll
 0001:0004bd42       _DispatchMessageA@4        5f54cd42 f   user32:USER32.dll
 0001:0004bd48       _PostThreadMessageA@16     5f54cd48 f   user32:USER32.dll
 0001:0004bd4e       _DestroyMenu@4             5f54cd4e f   user32:USER32.dll
 0001:0004bd54       _CreateMenu@0              5f54cd54 f   user32:USER32.dll
 0001:0004bd5a       _IsMenu@4                  5f54cd5a f   user32:USER32.dll
 0001:0004bd60       _GetMenuItemID@8           5f54cd60 f   user32:USER32.dll
 0001:0004bd66       _InsertMenuA@20            5f54cd66 f   user32:USER32.dll
 0001:0004bd6c       _AppendMenuA@16            5f54cd6c f   user32:USER32.dll
 0001:0004bd72       _GetMenuStringA@20         5f54cd72 f   user32:USER32.dll
 0001:0004bd78       _GetMenuState@12           5f54cd78 f   user32:USER32.dll
 0001:0004bd7e       _GetSubMenu@8              5f54cd7e f   user32:USER32.dll
 0001:0004bd84       _GetMenuItemCount@4        5f54cd84 f   user32:USER32.dll
 0001:0004bd8a       _RemoveMenu@12             5f54cd8a f   user32:USER32.dll
 0001:0004bd90       _ReleaseDC@8               5f54cd90 f   user32:USER32.dll
 0001:0004bd96       _WindowFromDC@4            5f54cd96 f   user32:USER32.dll
 0001:0004bd9c       _GetDC@4                   5f54cd9c f   user32:USER32.dll
 0001:0004bda2       _IsRectEmpty@4             5f54cda2 f   user32:USER32.dll
 0001:0004bda8       _SetScrollRange@20         5f54cda8 f   user32:USER32.dll
 0001:0004bdae       _SetFocus@4                5f54cdae f   user32:USER32.dll
 0001:0004bdb4       _GetParent@4               5f54cdb4 f   user32:USER32.dll
 0001:0004bdba       _GetFocus@0                5f54cdba f   user32:USER32.dll
 0001:0004bdc0       _DestroyIcon@4             5f54cdc0 f   user32:USER32.dll
 0001:0004bdc6       _RegisterWindowMessageA@4  5f54cdc6 f   user32:USER32.dll
 0001:0004bdcc       _CountClipboardFormats@0   5f54cdcc f   user32:USER32.dll
 0001:0004bdd2       _GetSystemMetrics@4        5f54cdd2 f   user32:USER32.dll
 0001:0004bdd8       _MessageBeep@4             5f54cdd8 f   user32:USER32.dll
 0001:0004bdde       _GetWindowLongA@8          5f54cdde f   user32:USER32.dll
 0001:0004bde4       _AdjustWindowRectEx@16     5f54cde4 f   user32:USER32.dll
 0001:0004bdea       _SetWindowContextHelpId@8  5f54cdea f   user32:USER32.dll
 0001:0004bdf0       _GetWindow@8               5f54cdf0 f   user32:USER32.dll
 0001:0004bdf6       _SetWindowPos@28           5f54cdf6 f   user32:USER32.dll
 0001:0004bdfc       _MapDialogRect@8           5f54cdfc f   user32:USER32.dll
 0001:0004be02       _GetDlgItem@8              5f54ce02 f   user32:USER32.dll
 0001:0004be08       _CharNextA@4               5f54ce08 f   user32:USER32.dll
 0001:0004be0e       _IsWindowVisible@4         5f54ce0e f   user32:USER32.dll
 0001:0004be14       _IsDialogMessageA@8        5f54ce14 f   user32:USER32.dll
 0001:0004be1a       _GetDlgCtrlID@4            5f54ce1a f   user32:USER32.dll
 0001:0004be20       _ClipCursor@4              5f54ce20 f   user32:USER32.dll
 0001:0004be26       _InflateRect@12            5f54ce26 f   user32:USER32.dll
 0001:0004be2c       _DestroyWindow@4           5f54ce2c f   user32:USER32.dll
 0001:0004be32       _SetWindowLongA@12         5f54ce32 f   user32:USER32.dll
 0001:0004be38       _DefWindowProcA@16         5f54ce38 f   user32:USER32.dll
 0001:0004be3e       _CallWindowProcA@20        5f54ce3e f   user32:USER32.dll
 0001:0004be44       _SetParent@8               5f54ce44 f   user32:USER32.dll
 0001:0004be4a       _DrawEdge@16               5f54ce4a f   user32:USER32.dll
 0001:0004be50       _ShowWindow@8              5f54ce50 f   user32:USER32.dll
 0001:0004be56       _GetWindowRect@8           5f54ce56 f   user32:USER32.dll
 0001:0004be5c       _GetMenu@4                 5f54ce5c f   user32:USER32.dll
 0001:0004be62       _GetDesktopWindow@0        5f54ce62 f   user32:USER32.dll
 0001:0004be68       _PostMessageA@16           5f54ce68 f   user32:USER32.dll
 0001:0004be6e       _GetClassNameA@12          5f54ce6e f   user32:USER32.dll
 0001:0004be74       _IsChild@8                 5f54ce74 f   user32:USER32.dll
 0001:0004be7a       _IntersectRect@12          5f54ce7a f   user32:USER32.dll
 0001:0004be80       _ScreenToClient@8          5f54ce80 f   user32:USER32.dll
 0001:0004be86       _MoveWindow@24             5f54ce86 f   user32:USER32.dll
 0001:0004be8c       _MessageBoxA@16            5f54ce8c f   user32:USER32.dll
 0001:0004be92       _EnumChildWindows@12       5f54ce92 f   user32:USER32.dll
 0001:0004be98       _LockWindowUpdate@4        5f54ce98 f   user32:USER32.dll
 0001:0004be9e       _GetSysColor@4             5f54ce9e f   user32:USER32.dll
 0001:0004bea4       _SetCursor@4               5f54cea4 f   user32:USER32.dll
 0001:0004beaa       _LoadCursorA@8             5f54ceaa f   user32:USER32.dll
 0001:0004beb0       _PtInRect@12               5f54ceb0 f   user32:USER32.dll
 0001:0004beb6       _SetRectEmpty@4            5f54ceb6 f   user32:USER32.dll
 0001:0004bebc       _OffsetRect@12             5f54cebc f   user32:USER32.dll
 0001:0004bec2       _GetDialogBaseUnits@0      5f54cec2 f   user32:USER32.dll
 0001:0004bec8       __imp_load__OleCreateFontIndirect@12 5f54cec8     olepro32:OLEPRO32.DLL
 0001:0004bed4       __tailMerge_OLEPRO32       5f54ced4     olepro32:OLEPRO32.DLL
 0001:0004bee2       _OleCreateFontIndirect@12  5f54cee2     olepro32:OLEPRO32.DLL
 0001:0004bee8       __imp_load__OleCreatePropertyFrame@44 5f54cee8     olepro32:OLEPRO32.DLL
 0001:0004bef4       _OleCreatePropertyFrame@44 5f54cef4     olepro32:OLEPRO32.DLL
 0001:0004befa       __imp_load__OleTranslateColor@12 5f54cefa     olepro32:OLEPRO32.DLL
 0001:0004bf06       _OleTranslateColor@12      5f54cf06     olepro32:OLEPRO32.DLL
 0001:0004bf0c       __imp_load__OleCreatePictureIndirect@16 5f54cf0c     olepro32:OLEPRO32.DLL
 0001:0004bf18       _OleCreatePictureIndirect@16 5f54cf18     olepro32:OLEPRO32.DLL
 0001:0004bf1e       __imp_load__OleLoadPicture@20 5f54cf1e     olepro32:OLEPRO32.DLL
 0001:0004bf2a       _OleLoadPicture@20         5f54cf2a     olepro32:OLEPRO32.DLL
 0001:0004bf30       __imp_load__RegCloseKey@4  5f54cf30     advapi32:ADVAPI32.dll
 0001:0004bf3c       __tailMerge_ADVAPI32       5f54cf3c     advapi32:ADVAPI32.dll
 0001:0004bf4a       _RegCloseKey@4             5f54cf4a     advapi32:ADVAPI32.dll
 0001:0004bf50       __imp_load__RegQueryValueExA@24 5f54cf50     advapi32:ADVAPI32.dll
 0001:0004bf5c       _RegQueryValueExA@24       5f54cf5c     advapi32:ADVAPI32.dll
 0001:0004bf62       __imp_load__RegOpenKeyExA@20 5f54cf62     advapi32:ADVAPI32.dll
 0001:0004bf6e       _RegOpenKeyExA@20          5f54cf6e     advapi32:ADVAPI32.dll
 0001:0004bf74       __imp_load__RegEnumKeyA@16 5f54cf74     advapi32:ADVAPI32.dll
 0001:0004bf80       _RegEnumKeyA@16            5f54cf80     advapi32:ADVAPI32.dll
 0001:0004bf86       __imp_load__RegSetValueA@20 5f54cf86     advapi32:ADVAPI32.dll
 0001:0004bf92       _RegSetValueA@20           5f54cf92     advapi32:ADVAPI32.dll
 0001:0004bf98       __imp_load__RegOpenKeyA@12 5f54cf98     advapi32:ADVAPI32.dll
 0001:0004bfa4       _RegOpenKeyA@12            5f54cfa4     advapi32:ADVAPI32.dll
 0001:0004bfaa       __imp_load__RegQueryValueA@16 5f54cfaa     advapi32:ADVAPI32.dll
 0001:0004bfb6       _RegQueryValueA@16         5f54cfb6     advapi32:ADVAPI32.dll
 0001:0004bfbc       __imp_load__RegSetValueExA@24 5f54cfbc     advapi32:ADVAPI32.dll
 0001:0004bfc8       _RegSetValueExA@24         5f54cfc8     advapi32:ADVAPI32.dll
 0001:0004bfce       __imp_load__RegCreateKeyA@12 5f54cfce     advapi32:ADVAPI32.dll
 0001:0004bfda       _RegCreateKeyA@12          5f54cfda     advapi32:ADVAPI32.dll
 0001:0004bfe0       __imp_load__RegDeleteKeyA@8 5f54cfe0     advapi32:ADVAPI32.dll
 0001:0004bfec       _RegDeleteKeyA@8           5f54cfec     advapi32:ADVAPI32.dll
 0001:0004bff2       __imp_load__OleInitialize@4 5f54cff2     ole32:ole32.dll
 0001:0004bffe       __tailMerge_ole32          5f54cffe     ole32:ole32.dll
 0001:0004c00c       _OleInitialize@4           5f54d00c     ole32:ole32.dll
 0001:0004c012       __imp_load__OleUninitialize@0 5f54d012     ole32:ole32.dll
 0001:0004c01e       _OleUninitialize@0         5f54d01e     ole32:ole32.dll
 0001:0004c024       __imp_load__CoFreeUnusedLibraries@0 5f54d024     ole32:ole32.dll
 0001:0004c030       _CoFreeUnusedLibraries@0   5f54d030     ole32:ole32.dll
 0001:0004c036       __imp_load__OleLockRunning@12 5f54d036     ole32:ole32.dll
 0001:0004c042       _OleLockRunning@12         5f54d042     ole32:ole32.dll
 0001:0004c048       __imp_load__CoTaskMemFree@4 5f54d048     ole32:ole32.dll
 0001:0004c054       _CoTaskMemFree@4           5f54d054     ole32:ole32.dll
 0001:0004c05a       __imp_load__StringFromCLSID@8 5f54d05a     ole32:ole32.dll
 0001:0004c066       _StringFromCLSID@8         5f54d066     ole32:ole32.dll
 0001:0004c06c       __imp_load__OleSetContainedObject@8 5f54d06c     ole32:ole32.dll
 0001:0004c078       _OleSetContainedObject@8   5f54d078     ole32:ole32.dll
 0001:0004c07e       __imp_load__OleCreateFromData@28 5f54d07e     ole32:ole32.dll
 0001:0004c08a       _OleCreateFromData@28      5f54d08a     ole32:ole32.dll
 0001:0004c090       __imp_load__OleCreateLinkFromData@28 5f54d090     ole32:ole32.dll
 0001:0004c09c       _OleCreateLinkFromData@28  5f54d09c     ole32:ole32.dll
 0001:0004c0a2       __imp_load__OleCreateStaticFromData@28 5f54d0a2     ole32:ole32.dll
 0001:0004c0ae       _OleCreateStaticFromData@28 5f54d0ae     ole32:ole32.dll
 0001:0004c0b4       __imp_load__OleCreateFromFile@32 5f54d0b4     ole32:ole32.dll
 0001:0004c0c0       _OleCreateFromFile@32      5f54d0c0     ole32:ole32.dll
 0001:0004c0c6       __imp_load__OleCreateLinkToFile@28 5f54d0c6     ole32:ole32.dll
 0001:0004c0d2       _OleCreateLinkToFile@28    5f54d0d2     ole32:ole32.dll
 0001:0004c0d8       __imp_load__OleCreate@28   5f54d0d8     ole32:ole32.dll
 0001:0004c0e4       _OleCreate@28              5f54d0e4     ole32:ole32.dll
 0001:0004c0ea       __imp_load__OleLoad@16     5f54d0ea     ole32:ole32.dll
 0001:0004c0f6       _OleLoad@16                5f54d0f6     ole32:ole32.dll
 0001:0004c0fc       __imp_load__OleSave@12     5f54d0fc     ole32:ole32.dll
 0001:0004c108       _OleSave@12                5f54d108     ole32:ole32.dll
 0001:0004c10e       __imp_load__StgCreateDocfileOnILockBytes@16 5f54d10e     ole32:ole32.dll
 0001:0004c11a       _StgCreateDocfileOnILockBytes@16 5f54d11a     ole32:ole32.dll
 0001:0004c120       __imp_load__CreateILockBytesOnHGlobal@12 5f54d120     ole32:ole32.dll
 0001:0004c12c       _CreateILockBytesOnHGlobal@12 5f54d12c     ole32:ole32.dll
 0001:0004c132       __imp_load__StgOpenStorageOnILockBytes@24 5f54d132     ole32:ole32.dll
 0001:0004c13e       _StgOpenStorageOnILockBytes@24 5f54d13e     ole32:ole32.dll
 0001:0004c144       __imp_load__StgIsStorageILockBytes@4 5f54d144     ole32:ole32.dll
 0001:0004c150       _StgIsStorageILockBytes@4  5f54d150     ole32:ole32.dll
 0001:0004c156       __imp_load__GetHGlobalFromILockBytes@8 5f54d156     ole32:ole32.dll
 0001:0004c162       _GetHGlobalFromILockBytes@8 5f54d162     ole32:ole32.dll
 0001:0004c168       __imp_load__ReleaseStgMedium@4 5f54d168     ole32:ole32.dll
 0001:0004c174       _ReleaseStgMedium@4        5f54d174     ole32:ole32.dll
 0001:0004c17a       __imp_load__OleGetIconOfClass@12 5f54d17a     ole32:ole32.dll
 0001:0004c186       _OleGetIconOfClass@12      5f54d186     ole32:ole32.dll
 0001:0004c18c       __imp_load__WriteClassStm@8 5f54d18c     ole32:ole32.dll
 0001:0004c198       _WriteClassStm@8           5f54d198     ole32:ole32.dll
 0001:0004c19e       __imp_load__OleSaveToStream@8 5f54d19e     ole32:ole32.dll
 0001:0004c1aa       _OleSaveToStream@8         5f54d1aa     ole32:ole32.dll
 0001:0004c1b0       __imp_load__CreateStreamOnHGlobal@12 5f54d1b0     ole32:ole32.dll
 0001:0004c1bc       _CreateStreamOnHGlobal@12  5f54d1bc     ole32:ole32.dll
 0001:0004c1c2       __imp_load__CreateGenericComposite@12 5f54d1c2     ole32:ole32.dll
 0001:0004c1ce       _CreateGenericComposite@12 5f54d1ce     ole32:ole32.dll
 0001:0004c1d4       __imp_load__CreateItemMoniker@12 5f54d1d4     ole32:ole32.dll
 0001:0004c1e0       _CreateItemMoniker@12      5f54d1e0     ole32:ole32.dll
 0001:0004c1e6       __imp_load__OleIsRunning@4 5f54d1e6     ole32:ole32.dll
 0001:0004c1f2       _OleIsRunning@4            5f54d1f2     ole32:ole32.dll
 0001:0004c1f8       __imp_load__OleSetMenuDescriptor@20 5f54d1f8     ole32:ole32.dll
 0001:0004c204       _OleSetMenuDescriptor@20   5f54d204     ole32:ole32.dll
 0001:0004c20a       __imp_load__OleQueryCreateFromData@4 5f54d20a     ole32:ole32.dll
 0001:0004c216       _OleQueryCreateFromData@4  5f54d216     ole32:ole32.dll
 0001:0004c21c       __imp_load__OleQueryLinkFromData@4 5f54d21c     ole32:ole32.dll
 0001:0004c228       _OleQueryLinkFromData@4    5f54d228     ole32:ole32.dll
 0001:0004c22e       __imp_load__OleRun@4       5f54d22e     ole32:ole32.dll
 0001:0004c23a       _OleRun@4                  5f54d23a     ole32:ole32.dll
 0001:0004c240       __imp_load__CoTaskMemAlloc@4 5f54d240     ole32:ole32.dll
 0001:0004c24c       _CoTaskMemAlloc@4          5f54d24c     ole32:ole32.dll
 0001:0004c252       __imp_load__OleGetClipboard@4 5f54d252     ole32:ole32.dll
 0001:0004c25e       _OleGetClipboard@4         5f54d25e     ole32:ole32.dll
 0001:0004c264       __imp_load__OleIsCurrentClipboard@4 5f54d264     ole32:ole32.dll
 0001:0004c270       _OleIsCurrentClipboard@4   5f54d270     ole32:ole32.dll
 0001:0004c276       __imp_load__OleSetClipboard@4 5f54d276     ole32:ole32.dll
 0001:0004c282       _OleSetClipboard@4         5f54d282     ole32:ole32.dll
 0001:0004c288       __imp_load__OleFlushClipboard@0 5f54d288     ole32:ole32.dll
 0001:0004c294       _OleFlushClipboard@0       5f54d294     ole32:ole32.dll
 0001:0004c29a       __imp_load__CLSIDFromProgID@8 5f54d29a     ole32:ole32.dll
 0001:0004c2a6       _CLSIDFromProgID@8         5f54d2a6     ole32:ole32.dll
 0001:0004c2ac       __imp_load__CLSIDFromString@8 5f54d2ac     ole32:ole32.dll
 0001:0004c2b8       _CLSIDFromString@8         5f54d2b8     ole32:ole32.dll
 0001:0004c2be       __imp_load__CoCreateInstance@20 5f54d2be     ole32:ole32.dll
 0001:0004c2ca       _CoCreateInstance@20       5f54d2ca     ole32:ole32.dll
 0001:0004c2d0       __imp_load__CreateBindCtx@8 5f54d2d0     ole32:ole32.dll
 0001:0004c2dc       _CreateBindCtx@8           5f54d2dc     ole32:ole32.dll
 0001:0004c2e2       __imp_load__CreateFileMoniker@8 5f54d2e2     ole32:ole32.dll
 0001:0004c2ee       _CreateFileMoniker@8       5f54d2ee     ole32:ole32.dll
 0001:0004c2f4       __imp_load__GetClassFile@8 5f54d2f4     ole32:ole32.dll
 0001:0004c300       _GetClassFile@8            5f54d300     ole32:ole32.dll
 0001:0004c306       __imp_load__OleRegGetUserType@12 5f54d306     ole32:ole32.dll
 0001:0004c312       _OleRegGetUserType@12      5f54d312     ole32:ole32.dll
 0001:0004c318       __imp_load__ReadFmtUserTypeStg@12 5f54d318     ole32:ole32.dll
 0001:0004c324       _ReadFmtUserTypeStg@12     5f54d324     ole32:ole32.dll
 0001:0004c32a       __imp_load__ReadClassStg@8 5f54d32a     ole32:ole32.dll
 0001:0004c336       _ReadClassStg@8            5f54d336     ole32:ole32.dll
 0001:0004c33c       __imp_load__CoGetMalloc@8  5f54d33c     ole32:ole32.dll
 0001:0004c348       _CoGetMalloc@8             5f54d348     ole32:ole32.dll
 0001:0004c34e       __imp_load__StgCreateDocfile@16 5f54d34e     ole32:ole32.dll
 0001:0004c35a       _StgCreateDocfile@16       5f54d35a     ole32:ole32.dll
 0001:0004c360       __imp_load__StgOpenStorage@24 5f54d360     ole32:ole32.dll
 0001:0004c36c       _StgOpenStorage@24         5f54d36c     ole32:ole32.dll
 0001:0004c372       __imp_load__StgIsStorageFile@4 5f54d372     ole32:ole32.dll
 0001:0004c37e       _StgIsStorageFile@4        5f54d37e     ole32:ole32.dll
 0001:0004c384       __imp_load__DoDragDrop@16  5f54d384     ole32:ole32.dll
 0001:0004c390       _DoDragDrop@16             5f54d390     ole32:ole32.dll
 0001:0004c396       __imp_load__RegisterDragDrop@8 5f54d396     ole32:ole32.dll
 0001:0004c3a2       _RegisterDragDrop@8        5f54d3a2     ole32:ole32.dll
 0001:0004c3a8       __imp_load__CoLockObjectExternal@12 5f54d3a8     ole32:ole32.dll
 0001:0004c3b4       _CoLockObjectExternal@12   5f54d3b4     ole32:ole32.dll
 0001:0004c3ba       __imp_load__RevokeDragDrop@4 5f54d3ba     ole32:ole32.dll
 0001:0004c3c6       _RevokeDragDrop@4          5f54d3c6     ole32:ole32.dll
 0001:0004c3cc       __imp_load__CoRegisterMessageFilter@8 5f54d3cc     ole32:ole32.dll
 0001:0004c3d8       _CoRegisterMessageFilter@8 5f54d3d8     ole32:ole32.dll
 0001:0004c3de       __imp_load__CoRegisterClassObject@20 5f54d3de     ole32:ole32.dll
 0001:0004c3ea       _CoRegisterClassObject@20  5f54d3ea     ole32:ole32.dll
 0001:0004c3f0       __imp_load__CoRevokeClassObject@4 5f54d3f0     ole32:ole32.dll
 0001:0004c3fc       _CoRevokeClassObject@4     5f54d3fc     ole32:ole32.dll
 0001:0004c402       __imp_load__OleTranslateAccelerator@12 5f54d402     ole32:ole32.dll
 0001:0004c40e       _OleTranslateAccelerator@12 5f54d40e     ole32:ole32.dll
 0001:0004c414       __imp_load__IsAccelerator@16 5f54d414     ole32:ole32.dll
 0001:0004c420       _IsAccelerator@16          5f54d420     ole32:ole32.dll
 0001:0004c426       __imp_load__OleCreateMenuDescriptor@8 5f54d426     ole32:ole32.dll
 0001:0004c432       _OleCreateMenuDescriptor@8 5f54d432     ole32:ole32.dll
 0001:0004c438       __imp_load__OleDestroyMenuDescriptor@4 5f54d438     ole32:ole32.dll
 0001:0004c444       _OleDestroyMenuDescriptor@4 5f54d444     ole32:ole32.dll
 0001:0004c44a       __imp_load__GetRunningObjectTable@8 5f54d44a     ole32:ole32.dll
 0001:0004c456       _GetRunningObjectTable@8   5f54d456     ole32:ole32.dll
 0001:0004c45c       __imp_load__WriteClassStg@8 5f54d45c     ole32:ole32.dll
 0001:0004c468       _WriteClassStg@8           5f54d468     ole32:ole32.dll
 0001:0004c46e       __imp_load__OleDuplicateData@12 5f54d46e     ole32:ole32.dll
 0001:0004c47a       _OleDuplicateData@12       5f54d47a     ole32:ole32.dll
 0001:0004c480       __imp_load__SetConvertStg@8 5f54d480     ole32:ole32.dll
 0001:0004c48c       _SetConvertStg@8           5f54d48c     ole32:ole32.dll
 0001:0004c492       __imp_load__WriteFmtUserTypeStg@12 5f54d492     ole32:ole32.dll
 0001:0004c49e       _WriteFmtUserTypeStg@12    5f54d49e     ole32:ole32.dll
 0001:0004c4a4       __imp_load__CoTreatAsClass@8 5f54d4a4     ole32:ole32.dll
 0001:0004c4b0       _CoTreatAsClass@8          5f54d4b0     ole32:ole32.dll
 0001:0004c4b6       __imp_load__CoDisconnectObject@8 5f54d4b6     ole32:ole32.dll
 0001:0004c4c2       _CoDisconnectObject@8      5f54d4c2     ole32:ole32.dll
 0001:0004c4c8       __imp_load__OleRegEnumVerbs@8 5f54d4c8     ole32:ole32.dll
 0001:0004c4d4       _OleRegEnumVerbs@8         5f54d4d4     ole32:ole32.dll
 0001:0004c4da       __imp_load__OleRegGetMiscStatus@12 5f54d4da     ole32:ole32.dll
 0001:0004c4e6       _OleRegGetMiscStatus@12    5f54d4e6     ole32:ole32.dll
 0001:0004c4ec       __imp_load__CreateOleAdviseHolder@4 5f54d4ec     ole32:ole32.dll
 0001:0004c4f8       _CreateOleAdviseHolder@4   5f54d4f8     ole32:ole32.dll
 0001:0004c4fe       __imp_load__CreateDataAdviseHolder@4 5f54d4fe     ole32:ole32.dll
 0001:0004c50a       _CreateDataAdviseHolder@4  5f54d50a     ole32:ole32.dll
 0001:0004c510       __imp_load__CoGetClassObject@20 5f54d510     ole32:ole32.dll
 0001:0004c51c       _CoGetClassObject@20       5f54d51c     ole32:ole32.dll
 0001:0004c522       __imp_load__StringFromGUID2@12 5f54d522     ole32:ole32.dll
 0001:0004c52e       _StringFromGUID2@12        5f54d52e     ole32:ole32.dll
 0001:0004c534       __imp_load__CreateDataCache@16 5f54d534     ole32:ole32.dll
 0001:0004c540       _CreateDataCache@16        5f54d540     ole32:ole32.dll
 0001:0004c546       __imp_load__ReadClassStm@8 5f54d546     ole32:ole32.dll
 0001:0004c552       _ReadClassStm@8            5f54d552     ole32:ole32.dll
 0001:0004c558       __imp_load__OleLoadFromStream@12 5f54d558     ole32:ole32.dll
 0001:0004c564       _OleLoadFromStream@12      5f54d564     ole32:ole32.dll
 0001:0004c56a       __imp_load__SysStringLen@4 5f54d56a     oleaut32:OLEAUT32.dll
 0001:0004c576       __tailMerge_OLEAUT32       5f54d576     oleaut32:OLEAUT32.dll
 0001:0004c584       _SysStringLen@4            5f54d584     oleaut32:OLEAUT32.dll
 0001:0004c58a       __imp_load__SysAllocStringByteLen@8 5f54d58a     oleaut32:OLEAUT32.dll
 0001:0004c596       _SysAllocStringByteLen@8   5f54d596     oleaut32:OLEAUT32.dll
 0001:0004c59c       __imp_load__VariantCopy@8  5f54d59c     oleaut32:OLEAUT32.dll
 0001:0004c5a8       _VariantCopy@8             5f54d5a8     oleaut32:OLEAUT32.dll
 0001:0004c5ae       __imp_load__VariantClear@4 5f54d5ae     oleaut32:OLEAUT32.dll
 0001:0004c5ba       _VariantClear@4            5f54d5ba     oleaut32:OLEAUT32.dll
 0001:0004c5c0       __imp_load__VariantChangeType@16 5f54d5c0     oleaut32:OLEAUT32.dll
 0001:0004c5cc       _VariantChangeType@16      5f54d5cc     oleaut32:OLEAUT32.dll
 0001:0004c5d2       __imp_load__SysAllocStringLen@8 5f54d5d2     oleaut32:OLEAUT32.dll
 0001:0004c5de       _SysAllocStringLen@8       5f54d5de     oleaut32:OLEAUT32.dll
 0001:0004c5e4       __imp_load__SysReAllocStringLen@12 5f54d5e4     oleaut32:OLEAUT32.dll
 0001:0004c5f0       _SysReAllocStringLen@12    5f54d5f0     oleaut32:OLEAUT32.dll
 0001:0004c5f6       __imp_load__SysFreeString@4 5f54d5f6     oleaut32:OLEAUT32.dll
 0001:0004c602       _SysFreeString@4           5f54d602     oleaut32:OLEAUT32.dll
 0001:0004c608       __imp_load__SysAllocString@4 5f54d608     oleaut32:OLEAUT32.dll
 0001:0004c614       _SysAllocString@4          5f54d614     oleaut32:OLEAUT32.dll
 0001:0004c61a       __imp_load__SafeArrayUnaccessData@4 5f54d61a     oleaut32:OLEAUT32.dll
 0001:0004c626       _SafeArrayUnaccessData@4   5f54d626     oleaut32:OLEAUT32.dll
 0001:0004c62c       __imp_load__SafeArrayAccessData@8 5f54d62c     oleaut32:OLEAUT32.dll
 0001:0004c638       _SafeArrayAccessData@8     5f54d638     oleaut32:OLEAUT32.dll
 0001:0004c63e       __imp_load__SafeArrayGetUBound@12 5f54d63e     oleaut32:OLEAUT32.dll
 0001:0004c64a       _SafeArrayGetUBound@12     5f54d64a     oleaut32:OLEAUT32.dll
 0001:0004c650       __imp_load__SafeArrayGetLBound@12 5f54d650     oleaut32:OLEAUT32.dll
 0001:0004c65c       _SafeArrayGetLBound@12     5f54d65c     oleaut32:OLEAUT32.dll
 0001:0004c662       __imp_load__SafeArrayGetElemsize@4 5f54d662     oleaut32:OLEAUT32.dll
 0001:0004c66e       _SafeArrayGetElemsize@4    5f54d66e     oleaut32:OLEAUT32.dll
 0001:0004c674       __imp_load__SafeArrayGetDim@4 5f54d674     oleaut32:OLEAUT32.dll
 0001:0004c680       _SafeArrayGetDim@4         5f54d680     oleaut32:OLEAUT32.dll
 0001:0004c686       __imp_load__SafeArrayRedim@8 5f54d686     oleaut32:OLEAUT32.dll
 0001:0004c692       _SafeArrayRedim@8          5f54d692     oleaut32:OLEAUT32.dll
 0001:0004c698       __imp_load__SafeArrayCreate@12 5f54d698     oleaut32:OLEAUT32.dll
 0001:0004c6a4       _SafeArrayCreate@12        5f54d6a4     oleaut32:OLEAUT32.dll
 0001:0004c6aa       __imp_load__SysStringByteLen@4 5f54d6aa     oleaut32:OLEAUT32.dll
 0001:0004c6b6       _SysStringByteLen@4        5f54d6b6     oleaut32:OLEAUT32.dll
 0001:0004c6bc       __imp_load__VarCyFromStr@16 5f54d6bc     oleaut32:OLEAUT32.dll
 0001:0004c6c8       _VarCyFromStr@16           5f54d6c8     oleaut32:OLEAUT32.dll
 0001:0004c6ce       __imp_load__VarBstrFromCy@20 5f54d6ce     oleaut32:OLEAUT32.dll
 0001:0004c6da       _VarBstrFromCy@20          5f54d6da     oleaut32:OLEAUT32.dll
 0001:0004c6e0       __imp_load__VarDateFromStr@16 5f54d6e0     oleaut32:OLEAUT32.dll
 0001:0004c6ec       _VarDateFromStr@16         5f54d6ec     oleaut32:OLEAUT32.dll
 0001:0004c6f2       __imp_load__VarBstrFromDate@20 5f54d6f2     oleaut32:OLEAUT32.dll
 0001:0004c6fe       _VarBstrFromDate@20        5f54d6fe     oleaut32:OLEAUT32.dll
 0001:0004c704       __imp_load__SafeArrayCopy@8 5f54d704     oleaut32:OLEAUT32.dll
 0001:0004c710       _SafeArrayCopy@8           5f54d710     oleaut32:OLEAUT32.dll
 0001:0004c716       __imp_load__SafeArrayAllocData@4 5f54d716     oleaut32:OLEAUT32.dll
 0001:0004c722       _SafeArrayAllocData@4      5f54d722     oleaut32:OLEAUT32.dll
 0001:0004c728       __imp_load__SafeArrayAllocDescriptor@8 5f54d728     oleaut32:OLEAUT32.dll
 0001:0004c734       _SafeArrayAllocDescriptor@8 5f54d734     oleaut32:OLEAUT32.dll
 0001:0004c73a       __imp_load__SafeArrayGetElement@12 5f54d73a     oleaut32:OLEAUT32.dll
 0001:0004c746       _SafeArrayGetElement@12    5f54d746     oleaut32:OLEAUT32.dll
 0001:0004c74c       __imp_load__SafeArrayPtrOfIndex@12 5f54d74c     oleaut32:OLEAUT32.dll
 0001:0004c758       _SafeArrayPtrOfIndex@12    5f54d758     oleaut32:OLEAUT32.dll
 0001:0004c75e       __imp_load__SafeArrayPutElement@12 5f54d75e     oleaut32:OLEAUT32.dll
 0001:0004c76a       _SafeArrayPutElement@12    5f54d76a     oleaut32:OLEAUT32.dll
 0001:0004c770       __imp_load__SafeArrayLock@4 5f54d770     oleaut32:OLEAUT32.dll
 0001:0004c77c       _SafeArrayLock@4           5f54d77c     oleaut32:OLEAUT32.dll
 0001:0004c782       __imp_load__SafeArrayUnlock@4 5f54d782     oleaut32:OLEAUT32.dll
 0001:0004c78e       _SafeArrayUnlock@4         5f54d78e     oleaut32:OLEAUT32.dll
 0001:0004c794       __imp_load__SafeArrayDestroy@4 5f54d794     oleaut32:OLEAUT32.dll
 0001:0004c7a0       _SafeArrayDestroy@4        5f54d7a0     oleaut32:OLEAUT32.dll
 0001:0004c7a6       __imp_load__SafeArrayDestroyData@4 5f54d7a6     oleaut32:OLEAUT32.dll
 0001:0004c7b2       _SafeArrayDestroyData@4    5f54d7b2     oleaut32:OLEAUT32.dll
 0001:0004c7b8       __imp_load__SafeArrayDestroyDescriptor@4 5f54d7b8     oleaut32:OLEAUT32.dll
 0001:0004c7c4       _SafeArrayDestroyDescriptor@4 5f54d7c4     oleaut32:OLEAUT32.dll
 0001:0004c7ca       __imp_load__SafeArrayCreateVector@12 5f54d7ca     oleaut32:OLEAUT32.dll
 0001:0004c7d6       _SafeArrayCreateVector@12  5f54d7d6     oleaut32:OLEAUT32.dll
 0001:0004c7dc       __imp_load__DosDateTimeToVariantTime@12 5f54d7dc     oleaut32:OLEAUT32.dll
 0001:0004c7e8       _DosDateTimeToVariantTime@12 5f54d7e8     oleaut32:OLEAUT32.dll
 0001:0004c7ee       __imp_load__LoadTypeLib@8  5f54d7ee     oleaut32:OLEAUT32.dll
 0001:0004c7fa       _LoadTypeLib@8             5f54d7fa     oleaut32:OLEAUT32.dll
 0001:0004c800       __imp_load__VariantTimeToSystemTime@12 5f54d800     oleaut32:OLEAUT32.dll
 0001:0004c80c       _VariantTimeToSystemTime@12 5f54d80c     oleaut32:OLEAUT32.dll
 0001:0004c812       __imp_load__RegisterTypeLib@12 5f54d812     oleaut32:OLEAUT32.dll
 0001:0004c81e       _RegisterTypeLib@12        5f54d81e     oleaut32:OLEAUT32.dll
 0001:0004c824       __imp_load__LoadRegTypeLib@20 5f54d824     oleaut32:OLEAUT32.dll
 0001:0004c830       _LoadRegTypeLib@20         5f54d830     oleaut32:OLEAUT32.dll
 0001:0004c836       __imp_load__OleUIInsertObjectA@4 5f54d836     oledlg:oledlg.dll
 0001:0004c842       __tailMerge_oledlg         5f54d842     oledlg:oledlg.dll
 0001:0004c850       _OleUIInsertObjectA@4      5f54d850     oledlg:oledlg.dll
 0001:0004c856       __imp_load__OleUIConvertA@4 5f54d856     oledlg:oledlg.dll
 0001:0004c862       _OleUIConvertA@4           5f54d862     oledlg:oledlg.dll
 0001:0004c868       __imp_load__OleUIChangeIconA@4 5f54d868     oledlg:oledlg.dll
 0001:0004c874       _OleUIChangeIconA@4        5f54d874     oledlg:oledlg.dll
 0001:0004c87a       __imp_load__OleUIEditLinksA@4 5f54d87a     oledlg:oledlg.dll
 0001:0004c886       _OleUIEditLinksA@4         5f54d886     oledlg:oledlg.dll
 0001:0004c88c       __imp_load__OleUIUpdateLinksA@16 5f54d88c     oledlg:oledlg.dll
 0001:0004c898       _OleUIUpdateLinksA@16      5f54d898     oledlg:oledlg.dll
 0001:0004c89e       __imp_load__OleUIPasteSpecialA@4 5f54d89e     oledlg:oledlg.dll
 0001:0004c8aa       _OleUIPasteSpecialA@4      5f54d8aa     oledlg:oledlg.dll
 0001:0004c8b0       __imp_load__OleUIBusyA@4   5f54d8b0     oledlg:oledlg.dll
 0001:0004c8bc       _OleUIBusyA@4              5f54d8bc     oledlg:oledlg.dll
 0001:0004c8c2       __imp_load__OleUIObjectPropertiesA@4 5f54d8c2     oledlg:oledlg.dll
 0001:0004c8ce       _OleUIObjectPropertiesA@4  5f54d8ce     oledlg:oledlg.dll
 0001:0004c8d4       __imp_load__OleUIChangeSourceA@4 5f54d8d4     oledlg:oledlg.dll
 0001:0004c8e0       _OleUIChangeSourceA@4      5f54d8e0     oledlg:oledlg.dll
 0001:0004c8e6       __imp_load__OleUIAddVerbMenuA@36 5f54d8e6     oledlg:oledlg.dll
 0001:0004c8f2       _OleUIAddVerbMenuA@36      5f54d8f2     oledlg:oledlg.dll
 0001:0004c8f8       __imp_load__CreateURLMoniker@12 5f54d8f8     urlmon:urlmon.dll
 0001:0004c904       __tailMerge_urlmon         5f54d904     urlmon:urlmon.dll
 0001:0004c912       _CreateURLMoniker@12       5f54d912     urlmon:urlmon.dll
 0001:0004c918       __imp_load__CreateAsyncBindCtx@16 5f54d918     urlmon:urlmon.dll
 0001:0004c924       _CreateAsyncBindCtx@16     5f54d924     urlmon:urlmon.dll
 0001:0004c92a       __imp_load__RegisterBindStatusCallback@16 5f54d92a     urlmon:urlmon.dll
 0001:0004c936       _RegisterBindStatusCallback@16 5f54d936     urlmon:urlmon.dll
 0001:0004c93c       __imp_load__IsAsyncMoniker@4 5f54d93c     urlmon:urlmon.dll
 0001:0004c948       _IsAsyncMoniker@4          5f54d948     urlmon:urlmon.dll
 0001:0004c94e       __imp_load__ExtractIconA@12 5f54d94e     shell32:SHELL32.dll
 0001:0004c95a       __tailMerge_SHELL32        5f54d95a     shell32:SHELL32.dll
 0001:0004c968       _ExtractIconA@12           5f54d968     shell32:SHELL32.dll
 0001:0004c96e       __imp_load__DragFinish@4   5f54d96e     shell32:SHELL32.dll
 0001:0004c97a       _DragFinish@4              5f54d97a     shell32:SHELL32.dll
 0001:0004c980       __imp_load__DragQueryFileA@16 5f54d980     shell32:SHELL32.dll
 0001:0004c98c       _DragQueryFileA@16         5f54d98c     shell32:SHELL32.dll
 0001:0004c992       ___delayLoadHelper@8       5f54d992 f   delayimp:delayhlp.obj
 0001:0004cb8b       ___FUnloadDelayLoadedDLL@4 5f54db8b f   delayimp:delayhlp.obj
 0001:0004cc3e       _GetProcAddress@8          5f54dc3e f   kernel32:KERNEL32.dll
 0001:0004cc44       _InterlockedExchange@8     5f54dc44 f   kernel32:KERNEL32.dll
 0001:0004cc4a       _RaiseException@16         5f54dc4a f   kernel32:KERNEL32.dll
 0001:0004cc50       ?_GetBaseClass@COleControlModule@@KGPAUCRuntimeClass@@XZ 5f54dc50 f   ctlmodul.obj
 0001:0004cc5a       ?GetRuntimeClass@COleControlModule@@UBEPAUCRuntimeClass@@XZ 5f54dc5a f   ctlmodul.obj
 0001:0004cc6a       ?InitInstance@COleControlModule@@UAEHXZ 5f54dc6a f   ctlmodul.obj
 0001:0004cc84       ?ExitInstance@COleControlModule@@UAEHXZ 5f54dc84 f   ctlmodul.obj
 0001:0004cca0       ??0CReObject@@QAE@XZ       5f54dca0 f   viewrich.obj
 0001:0004ccca       ??0CReObject@@QAE@PAVCRichEditCntrItem@@@Z 5f54dcca f   viewrich.obj
 0001:0004ce05       ??1CReObject@@QAE@XZ       5f54de05 f   viewrich.obj
 0001:0004ce80       ?_GetBaseMessageMap@CRichEditView@@KGPBUAFX_MSGMAP@@XZ 5f54de80 f   viewrich.obj
 0001:0004ce8a       ?GetMessageMap@CRichEditView@@MBEPBUAFX_MSGMAP@@XZ 5f54de8a f   viewrich.obj
 0001:0004ce9a       ??0CRichEditView@@QAE@XZ   5f54de9a f   viewrich.obj
 0001:0004cfd0       ?PreCreateWindow@CRichEditView@@MAEHAAUtagCREATESTRUCTA@@@Z 5f54dfd0 f   viewrich.obj
 0001:0004d02b       ?OnCreate@CRichEditView@@IAEHPAUtagCREATESTRUCTA@@@Z 5f54e02b f   viewrich.obj
 0001:0004d11c       ?OnInitialUpdate@CRichEditView@@MAEXXZ 5f54e11c f   viewrich.obj
 0001:0004d149       ?DeleteContents@CRichEditView@@UAEXXZ 5f54e149 f   viewrich.obj
 0001:0004d1d9       ?WrapChanged@CRichEditView@@MAEXXZ 5f54e1d9 f   viewrich.obj
 0001:0004d2af       ?Serialize@CRichEditView@@UAEXAAVCArchive@@@Z 5f54e2af f   viewrich.obj
 0001:0004d319       ?Stream@CRichEditView@@QAEXAAVCArchive@@H@Z 5f54e319 f   viewrich.obj
 0001:0004d3cf       ?EditStreamCallBack@CRichEditView@@SGKKPAEJPAJ@Z 5f54e3cf f   viewrich.obj
 0001:0004d54a       ?OnBeginPrinting@CRichEditView@@MAEXPAVCDC@@PAUCPrintInfo@@@Z 5f54e54a f   viewrich.obj
 0001:0004d5fe       ?PaginateTo@CRichEditView@@IAEHPAVCDC@@PAUCPrintInfo@@@Z 5f54e5fe f   viewrich.obj
 0001:0004d841       ?OnPrepareDC@CRichEditView@@UAEXPAVCDC@@PAUCPrintInfo@@@Z 5f54e841 f   viewrich.obj
 0001:0004d8ee       ?PrintPage@CRichEditView@@QAEJPAVCDC@@JJ@Z 5f54e8ee f   viewrich.obj
 0001:0004da37       ?PrintInsideRect@CRichEditView@@QAEJPAVCDC@@AAUtagRECT@@JJH@Z 5f54ea37 f   viewrich.obj
 0001:0004db87       ?OnPrint@CRichEditView@@MAEXPAVCDC@@PAUCPrintInfo@@@Z 5f54eb87 f   viewrich.obj
 0001:0004dd2e       ?OnEndPrinting@CRichEditView@@MAEXPAVCDC@@PAUCPrintInfo@@@Z 5f54ed2e f   viewrich.obj
 0001:0004dd6f       ?_GetBaseInterfaceMap@CRichEditView@@KGPBUAFX_INTERFACEMAP@@XZ 5f54ed6f f   viewrich.obj
 0001:0004dd79       ?GetInterfaceMap@CRichEditView@@MBEPBUAFX_INTERFACEMAP@@XZ 5f54ed79 f   viewrich.obj
 0001:0004dd89       ?AddRef@XRichEditOleCallback@CRichEditView@@UAGKXZ 5f54ed89 f   viewrich.obj
 0001:0004dda6       ?Release@XRichEditOleCallback@CRichEditView@@UAGKXZ 5f54eda6 f   viewrich.obj
 0001:0004ddc3       ?QueryInterface@XRichEditOleCallback@CRichEditView@@UAGJABU_GUID@@PAPAX@Z 5f54edc3 f   viewrich.obj
 0001:0004dde8       ?GetNewStorage@XRichEditOleCallback@CRichEditView@@UAGJPAPAUIStorage@@@Z 5f54ede8 f   viewrich.obj
 0001:0004dea2       ?GetInPlaceContext@XRichEditOleCallback@CRichEditView@@UAGJPAPAUIOleInPlaceFrame@@PAPAUIOleInPlaceUIWindow@@PAUtagOIFI@@@Z 5f54eea2 f   viewrich.obj
 0001:0004df17       ?ShowContainerUI@XRichEditOleCallback@CRichEditView@@UAGJH@Z 5f54ef17 f   viewrich.obj
 0001:0004df84       ?QueryInsertObject@XRichEditOleCallback@CRichEditView@@UAGJPAU_GUID@@PAUIStorage@@J@Z 5f54ef84 f   viewrich.obj
 0001:0004dff8       ?DeleteObject@XRichEditOleCallback@CRichEditView@@UAGJPAUIOleObject@@@Z 5f54eff8 f   viewrich.obj
 0001:0004e01e       ?QueryAcceptData@XRichEditOleCallback@CRichEditView@@UAGJPAUIDataObject@@PAGKHPAX@Z 5f54f01e f   viewrich.obj
 0001:0004e0a1       ?ContextSensitiveHelp@XRichEditOleCallback@CRichEditView@@UAGJH@Z 5f54f0a1 f   viewrich.obj
 0001:0004e0ad       ?GetClipboardData@XRichEditOleCallback@CRichEditView@@UAGJPAU_charrange@@KPAPAUIDataObject@@@Z 5f54f0ad f   viewrich.obj
 0001:0004e1b1       ?GetDragDropEffect@XRichEditOleCallback@CRichEditView@@UAGJHKPAK@Z 5f54f1b1 f   viewrich.obj
 0001:0004e21a       ?GetContextMenu@XRichEditOleCallback@CRichEditView@@UAGJGPAUIOleObject@@PAU_charrange@@PAPAUHMENU__@@@Z 5f54f21a f   viewrich.obj
 0001:0004e2c6       ?OnCharEffect@CRichEditView@@QAEXKK@Z 5f54f2c6 f   viewrich.obj
 0001:0004e344       ?OnUpdateCharEffect@CRichEditView@@QAEXPAVCCmdUI@@KK@Z 5f54f344 f   viewrich.obj
 0001:0004e398       ?OnParaAlign@CRichEditView@@QAEXG@Z 5f54f398 f   viewrich.obj
 0001:0004e3d9       ?OnUpdateParaAlign@CRichEditView@@QAEXPAVCCmdUI@@G@Z 5f54f3d9 f   viewrich.obj
 0001:0004e44e       ?OnUpdateNeedSel@CRichEditView@@IAEXPAVCCmdUI@@@Z 5f54f44e f   viewrich.obj
 0001:0004e4b0       ?OnUpdateNeedClip@CRichEditView@@IAEXPAVCCmdUI@@@Z 5f54f4b0 f   viewrich.obj
 0001:0004e4e3       ?OnUpdateNeedText@CRichEditView@@IAEXPAVCCmdUI@@@Z 5f54f4e3 f   viewrich.obj
 0001:0004e51c       ?OnUpdateNeedFind@CRichEditView@@IAEXPAVCCmdUI@@@Z 5f54f51c f   viewrich.obj
 0001:0004e585       ?OnUpdateEditUndo@CRichEditView@@IAEXPAVCCmdUI@@@Z 5f54f585 f   viewrich.obj
 0001:0004e5bf       ?OnEditCut@CRichEditView@@IAEXXZ 5f54f5bf f   viewrich.obj
 0001:0004e5ec       ?OnEditCopy@CRichEditView@@IAEXXZ 5f54f5ec f   viewrich.obj
 0001:0004e619       ?OnEditPaste@CRichEditView@@IAEXXZ 5f54f619 f   viewrich.obj
 0001:0004e650       ?OnEditClear@CRichEditView@@IAEXXZ 5f54f650 f   viewrich.obj
 0001:0004e67d       ?OnEditUndo@CRichEditView@@IAEXXZ 5f54f67d f   viewrich.obj
 0001:0004e6c4       ?OnEditSelectAll@CRichEditView@@IAEXXZ 5f54f6c4 f   viewrich.obj
 0001:0004e6f5       ?OnEditFind@CRichEditView@@IAEXXZ 5f54f6f5 f   viewrich.obj
 0001:0004e71d       ?OnEditReplace@CRichEditView@@IAEXXZ 5f54f71d f   viewrich.obj
 0001:0004e745       ?OnEditRepeat@CRichEditView@@IAEXXZ 5f54f745 f   viewrich.obj
 0001:0004e797       ?OnCancelEditCntr@CRichEditView@@IAEXXZ 5f54f797 f   viewrich.obj
 0001:0004e7b4       ?OnInsertObject@CRichEditView@@IAEXXZ 5f54f7b4 f   viewrich.obj
 0001:0004e9c8       ?OnSelChange@CRichEditView@@IAEXPAUtagNMHDR@@PAJ@Z 5f54f9c8 f   viewrich.obj
 0001:0004ea24       ?OnDestroy@CRichEditView@@IAEXXZ 5f54fa24 f   viewrich.obj
 0001:0004ea52       ?OnEditProperties@CRichEditView@@IAEXXZ 5f54fa52 f   viewrich.obj
 0001:0004eb3e       ?OnUpdateEditProperties@CRichEditView@@IAEXPAVCCmdUI@@@Z 5f54fb3e f   viewrich.obj
 0001:0004eb64       ?OnCharBold@CRichEditView@@IAEXXZ 5f54fb64 f   viewrich.obj
 0001:0004eb7b       ?OnUpdateCharBold@CRichEditView@@IAEXPAVCCmdUI@@@Z 5f54fb7b f   viewrich.obj
 0001:0004eb98       ?OnCharItalic@CRichEditView@@IAEXXZ 5f54fb98 f   viewrich.obj
 0001:0004ebaf       ?OnUpdateCharItalic@CRichEditView@@IAEXPAVCCmdUI@@@Z 5f54fbaf f   viewrich.obj
 0001:0004ebcc       ?OnCharUnderline@CRichEditView@@IAEXXZ 5f54fbcc f   viewrich.obj
 0001:0004ebe3       ?OnUpdateCharUnderline@CRichEditView@@IAEXPAVCCmdUI@@@Z 5f54fbe3 f   viewrich.obj
 0001:0004ec00       ?OnParaCenter@CRichEditView@@IAEXXZ 5f54fc00 f   viewrich.obj
 0001:0004ec15       ?OnUpdateParaCenter@CRichEditView@@IAEXPAVCCmdUI@@@Z 5f54fc15 f   viewrich.obj
 0001:0004ec30       ?OnParaLeft@CRichEditView@@IAEXXZ 5f54fc30 f   viewrich.obj
 0001:0004ec45       ?OnUpdateParaLeft@CRichEditView@@IAEXPAVCCmdUI@@@Z 5f54fc45 f   viewrich.obj
 0001:0004ec60       ?OnParaRight@CRichEditView@@IAEXXZ 5f54fc60 f   viewrich.obj
 0001:0004ec75       ?OnUpdateParaRight@CRichEditView@@IAEXPAVCCmdUI@@@Z 5f54fc75 f   viewrich.obj
 0001:0004ec90       ?OnBullet@CRichEditView@@IAEXXZ 5f54fc90 f   viewrich.obj
 0001:0004ed4b       ?OnUpdateBullet@CRichEditView@@IAEXPAVCCmdUI@@@Z 5f54fd4b f   viewrich.obj
 0001:0004eda2       ?OnFormatFont@CRichEditView@@IAEXXZ 5f54fda2 f   viewrich.obj
 0001:0004ee67       ?OnColorPick@CRichEditView@@IAEXK@Z 5f54fe67 f   viewrich.obj
 0001:0004eec3       ?OnColorDefault@CRichEditView@@IAEXXZ 5f54fec3 f   viewrich.obj
 0001:0004ef11       ?OnEditPasteSpecial@CRichEditView@@IAEXXZ 5f54ff11 f   viewrich.obj
 0001:0004f070       ?OnUpdateEditPasteSpecial@CRichEditView@@IAEXPAVCCmdUI@@@Z 5f550070 f   viewrich.obj
 0001:0004f090       ?OnKeyDown@CRichEditView@@IAEXIII@Z 5f550090 f   viewrich.obj
 0001:0004f117       ?OnDropFiles@CRichEditView@@IAEXPAUHDROP__@@@Z 5f550117 f   viewrich.obj
 0001:0004f265       ?OnDevModeChange@CRichEditView@@IAEXPAD@Z 5f550265 f   viewrich.obj
 0001:0004f2d3       ?IsRichEditFormat@CRichEditView@@SAHG@Z 5f5502d3 f   viewrich.obj
 0001:0004f31d       ?CanPaste@CRichEditView@@QBEHXZ 5f55031d f   viewrich.obj
 0001:0004f3e7       ?GetCharFormatSelection@CRichEditView@@QAEAAU_charformat@@XZ 5f5503e7 f   viewrich.obj
 0001:0004f42c       ?GetParaFormatSelection@CRichEditView@@QAEAAU_paraformat@@XZ 5f55042c f   viewrich.obj
 0001:0004f471       ?SetCharFormat@CRichEditView@@QAEXU_charformat@@@Z 5f550471 f   viewrich.obj
 0001:0004f4dd       ?SetParaFormat@CRichEditView@@QAEHAAU_paraformat@@@Z 5f5504dd f   viewrich.obj
 0001:0004f555       ?GetSelectedItem@CRichEditView@@QBEPAVCRichEditCntrItem@@XZ 5f550555 f   viewrich.obj
 0001:0004f650       ?GetInPlaceActiveItem@CRichEditView@@QBEPAVCRichEditCntrItem@@XZ 5f550650 f   viewrich.obj
 0001:0004f757       ?InsertItem@CRichEditView@@QAEJPAVCRichEditCntrItem@@@Z 5f550757 f   viewrich.obj
 0001:0004f828       ?InsertFileAsObject@CRichEditView@@QAEXPBD@Z 5f550828 f   viewrich.obj
 0001:0004f994       ?DoPaste@CRichEditView@@QAEXAAVCOleDataObject@@GPAX@Z 5f550994 f   viewrich.obj
 0001:0004fcd9       ?OnPrinterChanged@CRichEditView@@MAEXABVCDC@@@Z 5f550cd9 f   viewrich.obj
 0001:0004fdb2       ?OnPasteNativeObject@CRichEditView@@MAEHPAUIStorage@@@Z 5f550db2 f   viewrich.obj
 0001:0004fdc1       ?GetContextMenu@CRichEditView@@MAEPAUHMENU__@@GPAUIOleObject@@PAU_charrange@@@Z 5f550dc1 f   viewrich.obj
 0001:0004fdd0       ?GetClipboardData@CRichEditView@@MAEJPAU_charrange@@KPAUIDataObject@@PAPAU3@@Z 5f550dd0 f   viewrich.obj
 0001:0004fde2       ?QueryAcceptData@CRichEditView@@MAEJPAUIDataObject@@PAGKHPAX@Z 5f550de2 f   viewrich.obj
 0001:0004ff6c       ?GetWindowContext@CRichEditView@@QAEJPAPAUIOleInPlaceFrame@@PAPAUIOleInPlaceUIWindow@@PAUtagOIFI@@@Z 5f550f6c f   viewrich.obj
 0001:0004ffc0       ?ShowContainerUI@CRichEditView@@QAEJH@Z 5f550fc0 f   viewrich.obj
 0001:0005001e       ?AdjustDialogPosition@CRichEditView@@QAEXPAVCDialog@@@Z 5f55101e f   viewrich.obj
 0001:00050123       ?OnEditFindReplace@CRichEditView@@IAEXH@Z 5f551123 f   viewrich.obj
 0001:00050406       ?OnFindNext@CRichEditView@@MAEXPBDHHH@Z 5f551406 f   viewrich.obj
 0001:000504a8       ?OnReplaceSel@CRichEditView@@MAEXPBDHHH0@Z 5f5514a8 f   viewrich.obj
 0001:000505d3       ?OnReplaceAll@CRichEditView@@MAEXPBD0HH@Z 5f5515d3 f   viewrich.obj
 0001:00050752       ?OnFindReplaceCmd@CRichEditView@@IAEJIJ@Z 5f551752 f   viewrich.obj
 0001:00050a0e       ?SameAsSelected@CRichEditView@@IAEHPBDHH@Z 5f551a0e f   viewrich.obj
 0001:00050aeb       ?FindTextA@CRichEditView@@QAEHPAV_AFX_RICHEDIT_STATE@@@Z 5f551aeb f   viewrich.obj
 0001:00050b40       ?FindTextA@CRichEditView@@QAEHPBDHH@Z 5f551b40 f   viewrich.obj
 0001:00050bb9       ?FindTextSimple@CRichEditView@@QAEHPAV_AFX_RICHEDIT_STATE@@@Z 5f551bb9 f   viewrich.obj
 0001:00050c0e       ?FindTextSimple@CRichEditView@@QAEHPBDHH@Z 5f551c0e f   viewrich.obj
 0001:00050dd9       ?FindAndSelect@CRichEditView@@QAEJKAAU_findtextexa@@@Z 5f551dd9 f   viewrich.obj
 0001:00050e21       ?TextNotFound@CRichEditView@@QAEXPBD@Z 5f551e21 f   viewrich.obj
 0001:00050e5d       ?OnTextNotFound@CRichEditView@@MAEXPBD@Z 5f551e5d f   viewrich.obj
 0001:00050e72       ?AssertValid@CRichEditView@@UBEXXZ 5f551e72 f   viewrich.obj
 0001:00050ecc       ?Dump@CRichEditView@@UBEXAAVCDumpContext@@@Z 5f551ecc f   viewrich.obj
 0001:00050fe4       ?IsSelected@CRichEditView@@MBEHPBVCObject@@@Z 5f551fe4 f   viewrich.obj
 0001:00051003       ??0CRichEditDoc@@IAE@XZ    5f552003 f   viewrich.obj
 0001:0005107c       ?GetView@CRichEditDoc@@UBEPAVCRichEditView@@XZ 5f55207c f   viewrich.obj
 0001:000510d3       ?IsModified@CRichEditDoc@@UAEHXZ 5f5520d3 f   viewrich.obj
 0001:000510fa       ?SetModifiedFlag@CRichEditDoc@@UAEXH@Z 5f5520fa f   viewrich.obj
 0001:00051176       ?GetInPlaceActiveItem@CRichEditDoc@@UAEPAVCOleClientItem@@PAVCWnd@@@Z 5f552176 f   viewrich.obj
 0001:000511c4       ?SetPathName@CRichEditDoc@@UAEXPBDH@Z 5f5521c4 f   viewrich.obj
 0001:000511e1       ?SetTitle@CRichEditDoc@@UAEXPBD@Z 5f5521e1 f   viewrich.obj
 0001:000512a0       ?LookupItem@CRichEditDoc@@QBEPAVCRichEditCntrItem@@PAUIOleObject@@@Z 5f5522a0 f   viewrich.obj
 0001:000512f4       ?CreateClientItem@CRichEditDoc@@UBEPAVCRichEditCntrItem@@PAU_reobject@@@Z 5f5522f4 f   viewrich.obj
 0001:00051372       ?MarkItemsClear@CRichEditDoc@@IBEXXZ 5f552372 f   viewrich.obj
 0001:000513c7       ?DeleteUnmarkedItems@CRichEditDoc@@IBEXXZ 5f5523c7 f   viewrich.obj
 0001:0005143e       ?GetStartPosition@CRichEditDoc@@UBEPAU__POSITION@@XZ 5f55243e f   viewrich.obj
 0001:00051465       ?UpdateObjectCache@CRichEditDoc@@IAEXXZ 5f552465 f   viewrich.obj
 0001:000515e9       ?GetPrimarySelectedItem@CRichEditDoc@@UAEPAVCOleClientItem@@PAVCView@@@Z 5f5525e9 f   viewrich.obj
 0001:0005162f       ?DeleteContents@CRichEditDoc@@UAEXXZ 5f55262f f   viewrich.obj
 0001:000516ea       ?Serialize@CRichEditDoc@@UAEXAAVCArchive@@@Z 5f5526ea f   viewrich.obj
 0001:0005171f       ?AssertValid@CRichEditDoc@@UBEXXZ 5f55271f f   viewrich.obj
 0001:00051732       ?Dump@CRichEditDoc@@UBEXAAVCDumpContext@@@Z 5f552732 f   viewrich.obj
 0001:0005174b       ?PreCloseFrame@CRichEditDoc@@UAEXPAVCFrameWnd@@@Z 5f55274b f   viewrich.obj
 0001:0005184c       ?UpdateModifiedFlag@CRichEditDoc@@UAEXXZ 5f55284c f   viewrich.obj
 0001:00051857       ?OnGetEmbeddedItem@CRichEditDoc@@MAEPAVCOleServerItem@@XZ 5f552857 f   viewrich.obj
 0001:0005188d       ??0CRichEditCntrItem@@QAE@PAU_reobject@@PAVCRichEditDoc@@@Z 5f55288d f   viewrich.obj
 0001:000519e9       ??1CRichEditCntrItem@@UAE@XZ 5f5529e9 f   viewrich.obj
 0001:00051a4d       ?OnDeactivateUI@CRichEditCntrItem@@UAEXH@Z 5f552a4d f   viewrich.obj
 0001:00051ac0       ?ShowContainerUI@CRichEditCntrItem@@QAEJH@Z 5f552ac0 f   viewrich.obj
 0001:00051b2a       ?OnChangeItemPosition@CRichEditCntrItem@@MAEHABVCRect@@@Z 5f552b2a f   viewrich.obj
 0001:00051b4c       ?CanActivate@CRichEditCntrItem@@UAEHXZ 5f552b4c f   viewrich.obj
 0001:00051b90       ?GetWindowContext@CRichEditCntrItem@@QAEJPAPAUIOleInPlaceFrame@@PAPAUIOleInPlaceUIWindow@@PAUtagOIFI@@@Z 5f552b90 f   viewrich.obj
 0001:00051bec       ?ConvertTo@CRichEditCntrItem@@UAEHABU_GUID@@@Z 5f552bec f   viewrich.obj
 0001:00051cce       ?ActivateAs@CRichEditCntrItem@@UAEHPBDABU_GUID@@1@Z 5f552cce f   viewrich.obj
 0001:00051d1c       ?SetDrawAspect@CRichEditCntrItem@@UAEXW4tagDVASPECT@@@Z 5f552d1c f   viewrich.obj
 0001:00051d68       ?SyncToRichEditObject@CRichEditCntrItem@@QAEXAAU_reobject@@@Z 5f552d68 f   viewrich.obj
 0001:00051d84       ?AssertValid@CRichEditCntrItem@@UBEXXZ 5f552d84 f   viewrich.obj
 0001:00051d97       ?Dump@CRichEditCntrItem@@UBEXAAVCDumpContext@@@Z 5f552d97 f   viewrich.obj
 0001:00051db0       ?GetClientSite@CRichEditCntrItem@@UAEPAUIOleClientSite@@XZ 5f552db0 f   viewrich.obj
 0001:00051e7f       ?GetRichEditCtrl@CRichEditView@@QBEAAVCRichEditCtrl@@XZ 5f552e7f f   viewrich.obj
 0001:00051e8d       ?GetPrintWidth@CRichEditView@@QBEHXZ 5f552e8d f   viewrich.obj
 0001:00051ead       ?GetPrintRect@CRichEditView@@QBE?AVCRect@@XZ 5f552ead f   viewrich.obj
 0001:00051ef6       ?GetPageRect@CRichEditView@@QBE?AVCRect@@XZ 5f552ef6 f   viewrich.obj
 0001:00051f4c       ?SetPaperSize@CRichEditView@@QAEXVCSize@@@Z 5f552f4c f   viewrich.obj
 0001:00051f6e       ?GetPaperSize@CRichEditView@@QBE?AVCSize@@XZ 5f552f6e f   viewrich.obj
 0001:00051f95       ?SetMargins@CRichEditView@@QAEXABVCRect@@@Z 5f552f95 f   viewrich.obj
 0001:00051fc1       ?GetMargins@CRichEditView@@QBE?AVCRect@@XZ 5f552fc1 f   viewrich.obj
 0001:00051ff0       ?GetTextLength@CRichEditView@@QBEJXZ 5f552ff0 f   viewrich.obj
 0001:0005200a       ?GetDocument@CRichEditView@@QBEPAVCRichEditDoc@@XZ 5f55300a f   viewrich.obj
 0001:0005206c       ?GetStreamFormat@CRichEditDoc@@QBEHXZ 5f55306c f   viewrich.obj
 0001:00052089       ?InvalidateObjectCache@CRichEditDoc@@QAEXXZ 5f553089 f   viewrich.obj
 0001:000520a1       ?Mark@CRichEditCntrItem@@QAEXH@Z 5f5530a1 f   viewrich.obj
 0001:000520b7       ?IsMarked@CRichEditCntrItem@@QAEHXZ 5f5530b7 f   viewrich.obj
 0001:000520ec       ?GetDocument@CRichEditCntrItem@@QAEPAVCRichEditDoc@@XZ 5f5530ec f   viewrich.obj
 0001:000520ff       ?GetActiveView@CRichEditCntrItem@@QAEPAVCRichEditView@@XZ 5f5530ff f   viewrich.obj
 0001:00052120       ??_GCRichEditView@@UAEPAXI@Z 5f553120 f i viewrich.obj
 0001:00052150       ??0XRichEditOleCallback@CRichEditView@@QAE@XZ 5f553150 f i viewrich.obj
 0001:00052170       ??0IRichEditOleCallback@@QAE@XZ 5f553170 f i viewrich.obj
 0001:00052190       ??0_afxRichEditCookie@@QAE@AAVCArchive@@@Z 5f553190 f i viewrich.obj
 0001:000521c0       ??1CFontDialog@@UAE@XZ     5f5531c0 f i viewrich.obj
 0001:000521e0       ??_ECRichEditDoc@@UAEPAXI@Z 5f5531e0 f i viewrich.obj
 0001:000521e0       ??_GCRichEditDoc@@UAEPAXI@Z 5f5531e0 f i viewrich.obj
 0001:00052210       ??1CRichEditDoc@@UAE@XZ    5f553210 f i viewrich.obj
 0001:00052230       ??_GCRichEditCntrItem@@UAEPAXI@Z 5f553230 f i viewrich.obj
 0001:00052260       _RawDllMain@12             5f553260 f   dllole.obj
 0001:00052366       _DllMain@12                5f553366 f   dllole.obj
 0001:0005251f       ?AfxOleInitModule@@YGXXZ   5f55351f f   dllole.obj
 0001:000525e7       _DllGetClassObject@12      5f5535e7 f   dllole.obj
 0001:00052620       _DllCanUnloadNow@0         5f553620 f   dllole.obj
 0001:0005264b       _DllRegisterServer@0       5f55364b f   dllole.obj
 0001:00052694       _DllUnregisterServer@0     5f553694 f   dllole.obj
 0001:0005271e       ?AfxWndProcDllOle@@YGJPAUHWND__@@IIJ@Z 5f55371e f   dllole.obj
 0001:00052788       ??1_AFX_INIT_OLE_DLL_STATE@@QAE@XZ 5f553788 f   dllole.obj
 0001:00052824       ?_AfxGetOleModuleState@@YGPAVAFX_MODULE_STATE@@XZ 5f553824 f   dllole.obj
 0001:00052849       ??0OLE_DATA@@QAE@XZ        5f553849 f   oleinit.obj
 0001:00052922       ?AfxOleInit@@YGHXZ         5f553922 f   oleinit.obj
 0001:00052a7a       ?AfxOleTerm@@YGXH@Z        5f553a7a f   oleinit.obj
 0001:00052b0e       ?AfxOleTermOrFreeLib@@YGXHH@Z 5f553b0e f   oleinit.obj
 0001:00052b6d       ?_AfxParseOption@@YGHPADPBD@Z 5f553b6d f   oleinit.obj
 0001:00052c01       ?RunEmbedded@CWinApp@@QAEHXZ 5f553c01 f   oleinit.obj
 0001:00052c5a       ?RunAutomated@CWinApp@@QAEHXZ 5f553c5a f   oleinit.obj
 0001:00052cc0       ?_GetBaseClass@COleLinkingDoc@@KGPAUCRuntimeClass@@XZ 5f553cc0 f   olecli1.obj
 0001:00052cca       ?GetRuntimeClass@COleLinkingDoc@@UBEPAUCRuntimeClass@@XZ 5f553cca f   olecli1.obj
 0001:00052ce0       ?AfxBSTR2CString@@YGXPAVCString@@PAG@Z 5f553ce0 f   olecnvrt.obj
 0001:00052d83       ?AfxBSTR2ABSTR@@YGPAGPAG@Z 5f553d83 f   olecnvrt.obj
 0001:00052e0b       ?AfxTaskStringA2W@@YGPAGPBD@Z 5f553e0b f   olecnvrt.obj
 0001:00052e2e       ?AfxTaskStringW2A@@YGPADPBG@Z 5f553e2e f   olecnvrt.obj
 0001:00052e51       ?AfxDevModeA2W@@YGPAU_devicemodeW@@PAU1@PAU_devicemodeA@@@Z 5f553e51 f   olecnvrt.obj
 0001:00052f1e       ?AfxDevModeW2A@@YGPAU_devicemodeA@@PAU1@PAU_devicemodeW@@@Z 5f553f1e f   olecnvrt.obj
 0001:00052feb       ?AfxTextMetricA2W@@YGPAUtagTEXTMETRICW@@PAU1@PAUtagTEXTMETRICA@@@Z 5f553feb f   olecnvrt.obj
 0001:000530bf       ?AfxTextMetricW2A@@YGPAUtagTEXTMETRICA@@PAU1@PAUtagTEXTMETRICW@@@Z 5f5540bf f   olecnvrt.obj
 0001:000531a3       ?AfxAllocTaskWideString@@YGPAGPBG@Z 5f5541a3 f   olecnvrt.obj
 0001:000531f7       ?AfxAllocTaskWideString@@YGPAGPBD@Z 5f5541f7 f   olecnvrt.obj
 0001:00053271       ?AfxAllocTaskAnsiString@@YGPADPBG@Z 5f554271 f   olecnvrt.obj
 0001:000532f1       ?AfxAllocTaskAnsiString@@YGPADPBD@Z 5f5542f1 f   olecnvrt.obj
 0001:00053350       ?_GetBaseClass@COleDispatchException@@KGPAUCRuntimeClass@@XZ 5f554350 f   oledisp1.obj
 0001:0005335a       ?GetRuntimeClass@COleDispatchException@@UBEPAUCRuntimeClass@@XZ 5f55435a f   oledisp1.obj
 0001:00053370       ?_GetBaseClass@COleInsertDialog@@KGPAUCRuntimeClass@@XZ 5f554370 f   oledlgs1.obj
 0001:0005337a       ?GetRuntimeClass@COleInsertDialog@@UBEPAUCRuntimeClass@@XZ 5f55437a f   oledlgs1.obj
 0001:0005338a       ?_GetBaseClass@COleConvertDialog@@KGPAUCRuntimeClass@@XZ 5f55438a f   oledlgs1.obj
 0001:00053394       ?GetRuntimeClass@COleConvertDialog@@UBEPAUCRuntimeClass@@XZ 5f554394 f   oledlgs1.obj
 0001:000533a4       ?_GetBaseClass@COleChangeIconDialog@@KGPAUCRuntimeClass@@XZ 5f5543a4 f   oledlgs1.obj
 0001:000533ae       ?GetRuntimeClass@COleChangeIconDialog@@UBEPAUCRuntimeClass@@XZ 5f5543ae f   oledlgs1.obj
 0001:000533be       ?_GetBaseClass@COleLinksDialog@@KGPAUCRuntimeClass@@XZ 5f5543be f   oledlgs1.obj
 0001:000533c8       ?GetRuntimeClass@COleLinksDialog@@UBEPAUCRuntimeClass@@XZ 5f5543c8 f   oledlgs1.obj
 0001:000533d8       ?_GetBaseClass@COleUpdateDialog@@KGPAUCRuntimeClass@@XZ 5f5543d8 f   oledlgs1.obj
 0001:000533e2       ?GetRuntimeClass@COleUpdateDialog@@UBEPAUCRuntimeClass@@XZ 5f5543e2 f   oledlgs1.obj
 0001:000533f2       ?_GetBaseClass@COlePasteSpecialDialog@@KGPAUCRuntimeClass@@XZ 5f5543f2 f   oledlgs1.obj
 0001:000533fc       ?GetRuntimeClass@COlePasteSpecialDialog@@UBEPAUCRuntimeClass@@XZ 5f5543fc f   oledlgs1.obj
 0001:00053410       ?_GetBaseClass@COleDialog@@KGPAUCRuntimeClass@@XZ 5f554410 f   oledlgs2.obj
 0001:0005341a       ?GetRuntimeClass@COleDialog@@UBEPAUCRuntimeClass@@XZ 5f55441a f   oledlgs2.obj
 0001:0005342a       ?_GetBaseClass@COleBusyDialog@@KGPAUCRuntimeClass@@XZ 5f55442a f   oledlgs2.obj
 0001:00053434       ?GetRuntimeClass@COleBusyDialog@@UBEPAUCRuntimeClass@@XZ 5f554434 f   oledlgs2.obj
 0001:00053450       ?_GetBaseClass@COlePropertiesDialog@@KGPAUCRuntimeClass@@XZ 5f554450 f   oledlgs3.obj
 0001:0005345a       ?GetRuntimeClass@COlePropertiesDialog@@UBEPAUCRuntimeClass@@XZ 5f55445a f   oledlgs3.obj
 0001:0005346a       ?_GetBaseClass@COleChangeSourceDialog@@KGPAUCRuntimeClass@@XZ 5f55446a f   oledlgs3.obj
 0001:00053474       ?GetRuntimeClass@COleChangeSourceDialog@@UBEPAUCRuntimeClass@@XZ 5f554474 f   oledlgs3.obj
 0001:00053490       ??0_AFX_OLE_STATE@@QAE@XZ  5f554490 f   oledata.obj
 0001:000534af       ??1_AFX_OLE_STATE@@UAE@XZ  5f5544af f   oledata.obj
 0001:00053500       ??_E_AFX_OLE_STATE@@UAEPAXI@Z 5f554500 f i oledata.obj
 0001:00053500       ??_G_AFX_OLE_STATE@@UAEPAXI@Z 5f554500 f i oledata.obj
 0001:00053530       ??0CNoTrackObject@@QAE@XZ  5f554530 f i oledata.obj
 0001:00053550       ??1?$CProcessLocal@V_AFX_OLE_STATE@@@@QAE@XZ 5f554550 f i oledata.obj
 0001:00053570       ?CreateObject@CDocItem@@SGPAVCObject@@XZ 5f554570 f   oledoc1.obj
 0001:000535de       ?_GetBaseClass@CDocItem@@KGPAUCRuntimeClass@@XZ 5f5545de f   oledoc1.obj
 0001:000535e8       ?GetRuntimeClass@CDocItem@@UBEPAUCRuntimeClass@@XZ 5f5545e8 f   oledoc1.obj
 0001:00053616       ??5@YGAAVCArchive@@AAV0@AAPAVCDocItem@@@Z 5f554616 f   oledoc1.obj
 0001:00053632       ?_GetBaseClass@COleDocument@@KGPAUCRuntimeClass@@XZ 5f554632 f   oledoc1.obj
 0001:0005363c       ?GetRuntimeClass@COleDocument@@UBEPAUCRuntimeClass@@XZ 5f55463c f   oledoc1.obj
 0001:0005364c       ?_GetBaseClass@COleClientItem@@KGPAUCRuntimeClass@@XZ 5f55464c f   oledoc1.obj
 0001:00053656       ?GetRuntimeClass@COleClientItem@@UBEPAUCRuntimeClass@@XZ 5f554656 f   oledoc1.obj
 0001:00053666       ?_GetBaseClass@COleServerItem@@KGPAUCRuntimeClass@@XZ 5f554666 f   oledoc1.obj
 0001:00053670       ?GetRuntimeClass@COleServerItem@@UBEPAUCRuntimeClass@@XZ 5f554670 f   oledoc1.obj
 0001:00053680       ??0COleMessageFilter@@QAE@XZ 5f554680 f   olemsgf.obj
 0001:00053737       ?Register@COleMessageFilter@@QAEHXZ 5f554737 f   olemsgf.obj
 0001:000537a0       ??_GCOleMessageFilter@@UAEPAXI@Z 5f5547a0 f i olemsgf.obj
 0001:000537a0       ??_ECOleMessageFilter@@UAEPAXI@Z 5f5547a0 f i olemsgf.obj
 0001:000537d0       ??0XMessageFilter@COleMessageFilter@@QAE@XZ 5f5547d0 f i olemsgf.obj
 0001:000537f0       ??0COleObjectFactory@@QAE@ABU_GUID@@PAUCRuntimeClass@@HPBD@Z 5f5547f0 f   olefact.obj
 0001:00053975       ?Unregister@COleObjectFactory@@QAEHXZ 5f554975 f   olefact.obj
 0001:00053985       ?Register@COleObjectFactory@@UAEHXZ 5f554985 f   olefact.obj
 0001:00053a8d       ?UnregisterAll@COleObjectFactory@@SGHXZ 5f554a8d f   olefact.obj
 0001:00053afa       ?RegisterAll@COleObjectFactory@@SGHXZ 5f554afa f   olefact.obj
 0001:00053c12       ?_GetBaseClass@COleObjectFactory@@KGPAUCRuntimeClass@@XZ 5f554c12 f   olefact.obj
 0001:00053c1c       ?GetRuntimeClass@COleObjectFactory@@UBEPAUCRuntimeClass@@XZ 5f554c1c f   olefact.obj
 0001:00053c30       ??_ECOleObjectFactory@@UAEPAXI@Z 5f554c30 f i olefact.obj
 0001:00053c30       ??_GCOleObjectFactory@@UAEPAXI@Z 5f554c30 f i olefact.obj
 0001:00053c60       ??0XClassFactory@COleObjectFactory@@QAE@XZ 5f554c60 f i olefact.obj
 0001:00053c80       ??0IClassFactory2@@QAE@XZ  5f554c80 f i olefact.obj
 0001:00053ca0       ??0IClassFactory@@QAE@XZ   5f554ca0 f i olefact.obj
 0001:00053ca0       ??0IMessageFilter@@QAE@XZ  5f554ca0 f i olefact.obj
 0001:00053cc0       ?AddHead@?$CTypedSimpleList@PAVCOleObjectFactory@@@@QAEXPAVCOleObjectFactory@@@Z 5f554cc0 f i olefact.obj
 0001:00053ce0       ?Remove@?$CTypedSimpleList@PAVCOleObjectFactory@@@@QAEHPAVCOleObjectFactory@@@Z 5f554ce0 f i olefact.obj
 0001:00053d00       ??B?$CTypedSimpleList@PAVCDynLinkLibrary@@@@QAEPAVCDynLinkLibrary@@XZ 5f554d00 f i olefact.obj
 0001:00053d20       ?CreateObject@COleIPFrameWnd@@SGPAVCObject@@XZ 5f554d20 f   oleipfrm.obj
 0001:00053d91       ?_GetBaseClass@COleIPFrameWnd@@KGPAUCRuntimeClass@@XZ 5f554d91 f   oleipfrm.obj
 0001:00053d9b       ?GetRuntimeClass@COleIPFrameWnd@@UBEPAUCRuntimeClass@@XZ 5f554d9b f   oleipfrm.obj
 0001:00053db0       ?_GetBaseClass@COleException@@KGPAUCRuntimeClass@@XZ 5f554db0 f   olemisc.obj
 0001:00053dba       ?GetRuntimeClass@COleException@@UBEPAUCRuntimeClass@@XZ 5f554dba f   olemisc.obj
 0001:00053dd0       ?_GetBaseClass@COleStreamFile@@KGPAUCRuntimeClass@@XZ 5f554dd0 f   olestrm.obj
 0001:00053dda       ?GetRuntimeClass@COleStreamFile@@UBEPAUCRuntimeClass@@XZ 5f554dda f   olestrm.obj
 0001:00053df0       ?_GetBaseClass@COleServerDoc@@KGPAUCRuntimeClass@@XZ 5f554df0 f   olesvr1.obj
 0001:00053dfa       ?GetRuntimeClass@COleServerDoc@@UBEPAUCRuntimeClass@@XZ 5f554dfa f   olesvr1.obj
 0001:00053e10       ?CreateObject@CRichEditCntrItem@@SGPAVCObject@@XZ 5f554e10 f   viewrich.obj
 0001:00053e85       ?_GetBaseClass@CRichEditCntrItem@@KGPAUCRuntimeClass@@XZ 5f554e85 f   viewrich.obj
 0001:00053e8f       ?GetRuntimeClass@CRichEditCntrItem@@UBEPAUCRuntimeClass@@XZ 5f554e8f f   viewrich.obj
 0001:00053ebd       ??5@YGAAVCArchive@@AAV0@AAPAVCRichEditCntrItem@@@Z 5f554ebd f   viewrich.obj
 0001:00053ed9       ?_GetBaseClass@CRichEditDoc@@KGPAUCRuntimeClass@@XZ 5f554ed9 f   viewrich.obj
 0001:00053ee3       ?GetRuntimeClass@CRichEditDoc@@UBEPAUCRuntimeClass@@XZ 5f554ee3 f   viewrich.obj
 0001:00053ef3       ?CreateObject@CRichEditView@@SGPAVCObject@@XZ 5f554ef3 f   viewrich.obj
 0001:00053f64       ?_GetBaseClass@CRichEditView@@KGPAUCRuntimeClass@@XZ 5f554f64 f   viewrich.obj
 0001:00053f6e       ?GetRuntimeClass@CRichEditView@@UBEPAUCRuntimeClass@@XZ 5f554f6e f   viewrich.obj
 0001:00053f80       ??B?$CProcessLocal@V_AFX_RICHEDIT_STATE@@@@QAEPAV_AFX_RICHEDIT_STATE@@XZ 5f554f80 f i viewrich.obj
 0001:00053fa0       ?GetData@?$CProcessLocal@V_AFX_RICHEDIT_STATE@@@@QAEPAV_AFX_RICHEDIT_STATE@@XZ 5f554fa0 f i viewrich.obj
 0001:00053ff0       ?CreateObject@?$CProcessLocal@V_AFX_RICHEDIT_STATE@@@@SGPAVCNoTrackObject@@XZ 5f554ff0 f i viewrich.obj
 0001:00054060       ??0_AFX_RICHEDIT_STATE@@QAE@XZ 5f555060 f i viewrich.obj
 0001:00054080       ??_G_AFX_RICHEDIT_STATE@@UAEPAXI@Z 5f555080 f i viewrich.obj
 0001:00054080       ??_E_AFX_RICHEDIT_STATE@@UAEPAXI@Z 5f555080 f i viewrich.obj
 0001:000540b0       ?_GetBaseClass@CMonikerFile@@KGPAUCRuntimeClass@@XZ 5f5550b0 f   olemon.obj
 0001:000540ba       ?GetRuntimeClass@CMonikerFile@@UBEPAUCRuntimeClass@@XZ 5f5550ba f   olemon.obj
 0001:000540d0       ?Release@?$_CIP@UIBinding@@$1?IID_IBinding@@3U_GUID@@B@@QAEXXZ 5f5550d0 f i olemon.obj
 0001:000540d0       ?Release@?$_CIP@UIMoniker@@$1?IID_IMoniker@@3U_GUID@@B@@QAEXXZ 5f5550d0 f i olemon.obj
 0001:00054120       ??4?$CIP@UIBindCtx@@$1?IID_IBindCtx@@3U_GUID@@B@@QAEAAV0@PAUIBindCtx@@@Z 5f555120 f i olemon.obj
 0001:00054120       ??4?$CIP@UIBindHost@@$1?IID_IBindHost@@3U_GUID@@B@@QAEAAV0@PAUIBindHost@@@Z 5f555120 f i olemon.obj
 0001:00054120       ??4?$CIP@UIBinding@@$1?IID_IBinding@@3U_GUID@@B@@QAEAAV0@PAUIBinding@@@Z 5f555120 f i olemon.obj
 0001:00054120       ??4?$CIP@UIMoniker@@$1?IID_IMoniker@@3U_GUID@@B@@QAEAAV0@PAUIMoniker@@@Z 5f555120 f i olemon.obj
 0001:00054140       ??I?$_CIP@UIMoniker@@$1?IID_IMoniker@@3U_GUID@@B@@QAEPAPAUIMoniker@@XZ 5f555140 f i olemon.obj
 0001:00054140       ??I?$_CIP@UIBindStatusCallback@@$1?IID_IBindStatusCallback@@3U_GUID@@B@@QAEPAPAUIBindStatusCallback@@XZ 5f555140 f i olemon.obj
 0001:00054140       ??I?$_CIP@UIStream@@$1?IID_IStream@@3U_GUID@@B@@QAEPAPAUIStream@@XZ 5f555140 f i olemon.obj
 0001:00054140       ??I?$_CIP@UIBindCtx@@$1?IID_IBindCtx@@3U_GUID@@B@@QAEPAPAUIBindCtx@@XZ 5f555140 f i olemon.obj
 0001:00054160       ??7?$_CIP@UIBindStatusCallback@@$1?IID_IBindStatusCallback@@3U_GUID@@B@@QAEHXZ 5f555160 f i olemon.obj
 0001:00054160       ??7?$_CIP@UIBindCtx@@$1?IID_IBindCtx@@3U_GUID@@B@@QAEHXZ 5f555160 f i olemon.obj
 0001:00054160       ??7?$_CIP@UIMoniker@@$1?IID_IMoniker@@3U_GUID@@B@@QAEHXZ 5f555160 f i olemon.obj
 0001:00054180       ??0?$CIP@UIBindCtx@@$1?IID_IBindCtx@@3U_GUID@@B@@QAE@PAUIBindCtx@@H@Z 5f555180 f i olemon.obj
 0001:00054180       ??0?$CIP@UIBindHost@@$1?IID_IBindHost@@3U_GUID@@B@@QAE@PAUIBindHost@@H@Z 5f555180 f i olemon.obj
 0001:000541a0       ?Detach@?$_CIP@UIStream@@$1?IID_IStream@@3U_GUID@@B@@QAEXXZ 5f5551a0 f i olemon.obj
 0001:000541e0       ?_AddRef@?$_CIP@UIServiceProvider@@$1?IID_IServiceProvider@@3U_GUID@@B@@AAEXXZ 5f5551e0 f i olemon.obj
 0001:000541e0       ?_AddRef@?$_CIP@UIMoniker@@$1?IID_IMoniker@@3U_GUID@@B@@AAEXXZ 5f5551e0 f i olemon.obj
 0001:000541e0       ?_AddRef@?$_CIP@UIUnknown@@$1?IID_IUnknown@@3U_GUID@@B@@AAEXXZ 5f5551e0 f i olemon.obj
 0001:000541e0       ?_AddRef@?$_CIP@UIBinding@@$1?IID_IBinding@@3U_GUID@@B@@AAEXXZ 5f5551e0 f i olemon.obj
 0001:000541e0       ?_AddRef@?$_CIP@UIBindCtx@@$1?IID_IBindCtx@@3U_GUID@@B@@AAEXXZ 5f5551e0 f i olemon.obj
 0001:000541e0       ?_AddRef@?$_CIP@UIBindStatusCallback@@$1?IID_IBindStatusCallback@@3U_GUID@@B@@AAEXXZ 5f5551e0 f i olemon.obj
 0001:000541e0       ?_AddRef@?$_CIP@UIBindHost@@$1?IID_IBindHost@@3U_GUID@@B@@AAEXXZ 5f5551e0 f i olemon.obj
 0001:00054210       ?_Release@?$_CIP@UIServiceProvider@@$1?IID_IServiceProvider@@3U_GUID@@B@@AAEXXZ 5f555210 f i olemon.obj
 0001:00054210       ?_Release@?$_CIP@UIBindHost@@$1?IID_IBindHost@@3U_GUID@@B@@AAEXXZ 5f555210 f i olemon.obj
 0001:00054210       ?_Release@?$_CIP@UIBinding@@$1?IID_IBinding@@3U_GUID@@B@@AAEXXZ 5f555210 f i olemon.obj
 0001:00054210       ?_Release@?$_CIP@UIMoniker@@$1?IID_IMoniker@@3U_GUID@@B@@AAEXXZ 5f555210 f i olemon.obj
 0001:00054210       ?_Release@?$_CIP@UIBindCtx@@$1?IID_IBindCtx@@3U_GUID@@B@@AAEXXZ 5f555210 f i olemon.obj
 0001:00054210       ?_Release@?$_CIP@UIStream@@$1?IID_IStream@@3U_GUID@@B@@AAEXXZ 5f555210 f i olemon.obj
 0001:00054210       ?_Release@?$_CIP@UIBindStatusCallback@@$1?IID_IBindStatusCallback@@3U_GUID@@B@@AAEXXZ 5f555210 f i olemon.obj
 0001:00054210       ?_Release@?$_CIP@UIUnknown@@$1?IID_IUnknown@@3U_GUID@@B@@AAEXXZ 5f555210 f i olemon.obj
 0001:00054240       ?_GetBaseClass@CDateTimeCtrl@@KGPAUCRuntimeClass@@XZ 5f555240 f   winctrl5.obj
 0001:0005424a       ?GetRuntimeClass@CDateTimeCtrl@@UBEPAUCRuntimeClass@@XZ 5f55524a f   winctrl5.obj
 0001:0005425a       ?_GetBaseClass@CMonthCalCtrl@@KGPAUCRuntimeClass@@XZ 5f55525a f   winctrl5.obj
 0001:00054264       ?GetRuntimeClass@CMonthCalCtrl@@UBEPAUCRuntimeClass@@XZ 5f555264 f   winctrl5.obj
 0001:00054280       ?CreateObject@CHtmlView@@SGPAVCObject@@XZ 5f555280 f   viewhtml.obj
 0001:000542f1       ?_GetBaseClass@CHtmlView@@KGPAUCRuntimeClass@@XZ 5f5552f1 f   viewhtml.obj
 0001:000542fb       ?GetRuntimeClass@CHtmlView@@UBEPAUCRuntimeClass@@XZ 5f5552fb f   viewhtml.obj
 0001:00054310       ?_GetBaseClass@CAsyncMonikerFile@@KGPAUCRuntimeClass@@XZ 5f555310 f   oleasmon.obj
 0001:0005431a       ?GetRuntimeClass@CAsyncMonikerFile@@UBEPAUCRuntimeClass@@XZ 5f55531a f   oleasmon.obj
 0001:00054330       ??0?$CIP@UIMoniker@@$1?IID_IMoniker@@3U_GUID@@B@@QAE@XZ 5f555330 f i oleasmon.obj
 0001:00054330       ??0?$CIP@UIBindStatusCallback@@$1?IID_IBindStatusCallback@@3U_GUID@@B@@QAE@XZ 5f555330 f i oleasmon.obj
 0001:00054330       ??0?$CIP@UIBinding@@$1?IID_IBinding@@3U_GUID@@B@@QAE@XZ 5f555330 f i oleasmon.obj
 0001:00054330       ??0?$CIP@UIBindCtx@@$1?IID_IBindCtx@@3U_GUID@@B@@QAE@XZ 5f555330 f i oleasmon.obj
 0001:00054330       ??0?$CIP@UIBindHost@@$1?IID_IBindHost@@3U_GUID@@B@@QAE@XZ 5f555330 f i oleasmon.obj
 0001:00054330       ??0?$CIP@UIServiceProvider@@$1?IID_IServiceProvider@@3U_GUID@@B@@QAE@XZ 5f555330 f i oleasmon.obj
 0001:00054330       ??0?$CIP@UIStream@@$1?IID_IStream@@3U_GUID@@B@@QAE@XZ 5f555330 f i oleasmon.obj
 0001:00054350       ??C?$_CIP@UIBinding@@$1?IID_IBinding@@3U_GUID@@B@@QBEPAUIBinding@@XZ 5f555350 f i oleasmon.obj
 0001:00054390       ??B?$_CIP@UIBinding@@$1?IID_IBinding@@3U_GUID@@B@@QBEPAUIBinding@@XZ 5f555390 f i oleasmon.obj
 0001:00054390       ??B?$_CIP@UIBindHost@@$1?IID_IBindHost@@3U_GUID@@B@@QBEPAUIBindHost@@XZ 5f555390 f i oleasmon.obj
 0001:00054390       ?GetInterfacePtr@?$_CIP@UIStream@@$1?IID_IStream@@3U_GUID@@B@@QBEPAUIStream@@XZ 5f555390 f i oleasmon.obj
 0001:00054390       ?GetInterfacePtr@?$_CIP@UIMoniker@@$1?IID_IMoniker@@3U_GUID@@B@@QBEPAUIMoniker@@XZ 5f555390 f i oleasmon.obj
 0001:00054390       ??B?$_CIP@UIServiceProvider@@$1?IID_IServiceProvider@@3U_GUID@@B@@QBEPAUIServiceProvider@@XZ 5f555390 f i oleasmon.obj
 0001:00054390       ?GetInterfacePtr@?$_CIP@UIBindHost@@$1?IID_IBindHost@@3U_GUID@@B@@QBEPAUIBindHost@@XZ 5f555390 f i oleasmon.obj
 0001:00054390       ?GetInterfacePtr@?$_CIP@UIUnknown@@$1?IID_IUnknown@@3U_GUID@@B@@QBEPAUIUnknown@@XZ 5f555390 f i oleasmon.obj
 0001:00054390       ??B?$_CIP@UIBindCtx@@$1?IID_IBindCtx@@3U_GUID@@B@@QBEPAUIBindCtx@@XZ 5f555390 f i oleasmon.obj
 0001:00054390       ??B?$_CIP@UIMoniker@@$1?IID_IMoniker@@3U_GUID@@B@@QBEPAUIMoniker@@XZ 5f555390 f i oleasmon.obj
 0001:00054390       ??B?$_CIP@UIBindStatusCallback@@$1?IID_IBindStatusCallback@@3U_GUID@@B@@QBEPAUIBindStatusCallback@@XZ 5f555390 f i oleasmon.obj
 0001:00054390       ??B?$_CIP@UIServiceProvider@@$1?IID_IServiceProvider@@3U_GUID@@B@@QAEPAUIUnknown@@XZ 5f555390 f i oleasmon.obj
 0001:00054390       ?GetInterfacePtr@?$_CIP@UIServiceProvider@@$1?IID_IServiceProvider@@3U_GUID@@B@@QBEPAUIServiceProvider@@XZ 5f555390 f i oleasmon.obj
 0001:00054390       ?GetInterfacePtr@?$_CIP@UIBinding@@$1?IID_IBinding@@3U_GUID@@B@@QBEPAUIBinding@@XZ 5f555390 f i oleasmon.obj
 0001:00054390       ??B?$_CIP@UIStream@@$1?IID_IStream@@3U_GUID@@B@@QBEPAUIStream@@XZ 5f555390 f i oleasmon.obj
 0001:000543a0       ?QueryInterface@?$_CIP@UIBindHost@@$1?IID_IBindHost@@3U_GUID@@B@@QAEJPAUIUnknown@@@Z 5f5553a0 f i oleasmon.obj
 0001:00054410       ?QueryInterface@?$_CIP@UIBindStatusCallback@@$1?IID_IBindStatusCallback@@3U_GUID@@B@@QAEJPAUIUnknown@@@Z 5f555410 f i oleasmon.obj
 0001:00054480       ?QueryInterface@?$_CIP@UIServiceProvider@@$1?IID_IServiceProvider@@3U_GUID@@B@@QAEJPAUIUnknown@@@Z 5f555480 f i oleasmon.obj
 0001:000544f0       ?GetIID@?$_CIP@UIBindHost@@$1?IID_IBindHost@@3U_GUID@@B@@SAABU_GUID@@XZ 5f5554f0 f i oleasmon.obj
 0001:00054520       ?Attach@?$_CIP@UIBindStatusCallback@@$1?IID_IBindStatusCallback@@3U_GUID@@B@@QAEXPAUIBindStatusCallback@@@Z 5f555520 f i oleasmon.obj
 0001:00054520       ?Attach@?$_CIP@UIServiceProvider@@$1?IID_IServiceProvider@@3U_GUID@@B@@QAEXPAUIServiceProvider@@@Z 5f555520 f i oleasmon.obj
 0001:00054520       ?Attach@?$_CIP@UIBindHost@@$1?IID_IBindHost@@3U_GUID@@B@@QAEXPAUIBindHost@@@Z 5f555520 f i oleasmon.obj
 0001:00054540       ?GetIID@?$_CIP@UIBindStatusCallback@@$1?IID_IBindStatusCallback@@3U_GUID@@B@@SAABU_GUID@@XZ 5f555540 f i oleasmon.obj
 0001:00054570       ?GetIID@?$_CIP@UIServiceProvider@@$1?IID_IServiceProvider@@3U_GUID@@B@@SAABU_GUID@@XZ 5f555570 f i oleasmon.obj
 0001:000545a0       ??4?$_CIP@UIBindStatusCallback@@$1?IID_IBindStatusCallback@@3U_GUID@@B@@QAEAAV0@PAUIBindStatusCallback@@@Z 5f5555a0 f i oleasmon.obj
 0001:000545a0       ??4?$_CIP@UIServiceProvider@@$1?IID_IServiceProvider@@3U_GUID@@B@@QAEAAV0@PAUIServiceProvider@@@Z 5f5555a0 f i oleasmon.obj
 0001:000545a0       ??4?$_CIP@UIBinding@@$1?IID_IBinding@@3U_GUID@@B@@QAEAAV0@PAUIBinding@@@Z 5f5555a0 f i oleasmon.obj
 0001:000545a0       ??4?$_CIP@UIBindHost@@$1?IID_IBindHost@@3U_GUID@@B@@QAEAAV0@PAUIBindHost@@@Z 5f5555a0 f i oleasmon.obj
 0001:000545a0       ??4?$_CIP@UIBindCtx@@$1?IID_IBindCtx@@3U_GUID@@B@@QAEAAV0@PAUIBindCtx@@@Z 5f5555a0 f i oleasmon.obj
 0001:000545a0       ??4?$_CIP@UIMoniker@@$1?IID_IMoniker@@3U_GUID@@B@@QAEAAV0@PAUIMoniker@@@Z 5f5555a0 f i oleasmon.obj
 0001:000545f0       ??0?$_CIP@UIBindHost@@$1?IID_IBindHost@@3U_GUID@@B@@QAE@XZ 5f5555f0 f i oleasmon.obj
 0001:000545f0       ??0?$_CIP@UIBindCtx@@$1?IID_IBindCtx@@3U_GUID@@B@@QAE@XZ 5f5555f0 f i oleasmon.obj
 0001:000545f0       ??0?$_CIP@UIBindStatusCallback@@$1?IID_IBindStatusCallback@@3U_GUID@@B@@QAE@XZ 5f5555f0 f i oleasmon.obj
 0001:000545f0       ??0?$_CIP@UIServiceProvider@@$1?IID_IServiceProvider@@3U_GUID@@B@@QAE@XZ 5f5555f0 f i oleasmon.obj
 0001:000545f0       ??0?$_CIP@UIBinding@@$1?IID_IBinding@@3U_GUID@@B@@QAE@XZ 5f5555f0 f i oleasmon.obj
 0001:000545f0       ??0?$_CIP@UIStream@@$1?IID_IStream@@3U_GUID@@B@@QAE@XZ 5f5555f0 f i oleasmon.obj
 0001:000545f0       ??0?$_CIP@UIMoniker@@$1?IID_IMoniker@@3U_GUID@@B@@QAE@XZ 5f5555f0 f i oleasmon.obj
 0001:00054610       ??1?$CIP@UIServiceProvider@@$1?IID_IServiceProvider@@3U_GUID@@B@@QAE@XZ 5f555610 f i oleasmon.obj
 0001:00054610       ??1?$CIP@UIBindStatusCallback@@$1?IID_IBindStatusCallback@@3U_GUID@@B@@QAE@XZ 5f555610 f i oleasmon.obj
 0001:00054610       ??1?$CIP@UIBindHost@@$1?IID_IBindHost@@3U_GUID@@B@@QAE@XZ 5f555610 f i oleasmon.obj
 0001:00054610       ??1?$CIP@UIMoniker@@$1?IID_IMoniker@@3U_GUID@@B@@QAE@XZ 5f555610 f i oleasmon.obj
 0001:00054610       ??1?$CIP@UIBindCtx@@$1?IID_IBindCtx@@3U_GUID@@B@@QAE@XZ 5f555610 f i oleasmon.obj
 0001:00054610       ??1?$CIP@UIStream@@$1?IID_IStream@@3U_GUID@@B@@QAE@XZ 5f555610 f i oleasmon.obj
 0001:00054610       ??1?$CIP@UIBinding@@$1?IID_IBinding@@3U_GUID@@B@@QAE@XZ 5f555610 f i oleasmon.obj
 0001:00054630       ??1?$_CIP@UIMoniker@@$1?IID_IMoniker@@3U_GUID@@B@@QAE@XZ 5f555630 f i oleasmon.obj
 0001:00054630       ??1?$_CIP@UIUnknown@@$1?IID_IUnknown@@3U_GUID@@B@@QAE@XZ 5f555630 f i oleasmon.obj
 0001:00054630       ??1?$_CIP@UIBindStatusCallback@@$1?IID_IBindStatusCallback@@3U_GUID@@B@@QAE@XZ 5f555630 f i oleasmon.obj
 0001:00054630       ??1?$_CIP@UIServiceProvider@@$1?IID_IServiceProvider@@3U_GUID@@B@@QAE@XZ 5f555630 f i oleasmon.obj
 0001:00054630       ??1?$_CIP@UIBindHost@@$1?IID_IBindHost@@3U_GUID@@B@@QAE@XZ 5f555630 f i oleasmon.obj
 0001:00054630       ??1?$_CIP@UIBinding@@$1?IID_IBinding@@3U_GUID@@B@@QAE@XZ 5f555630 f i oleasmon.obj
 0001:00054630       ??1?$_CIP@UIBindCtx@@$1?IID_IBindCtx@@3U_GUID@@B@@QAE@XZ 5f555630 f i oleasmon.obj
 0001:00054630       ??1?$_CIP@UIStream@@$1?IID_IStream@@3U_GUID@@B@@QAE@XZ 5f555630 f i oleasmon.obj
 0001:00054650       ??0?$_CIP@UIBindHost@@$1?IID_IBindHost@@3U_GUID@@B@@QAE@PAUIBindHost@@H@Z 5f555650 f i oleasmon.obj
 0001:00054650       ??0?$_CIP@UIBindCtx@@$1?IID_IBindCtx@@3U_GUID@@B@@QAE@PAUIBindCtx@@H@Z 5f555650 f i oleasmon.obj
 0001:00054650       ??0?$_CIP@UIUnknown@@$1?IID_IUnknown@@3U_GUID@@B@@QAE@PAUIUnknown@@H@Z 5f555650 f i oleasmon.obj
 0001:000546a0       ?_GetBaseClass@COleResizeBar@@KGPAUCRuntimeClass@@XZ 5f5556a0 f   olebar.obj
 0001:000546aa       ?GetRuntimeClass@COleResizeBar@@UBEPAUCRuntimeClass@@XZ 5f5556aa f   olebar.obj
 0001:000546c0       ?_GetBaseClass@COleControl@@KGPAUCRuntimeClass@@XZ 5f5556c0 f   ctlcore.obj
 0001:000546ca       ?GetRuntimeClass@COleControl@@UBEPAUCRuntimeClass@@XZ 5f5556ca f   ctlcore.obj
 0001:000546e0       ?GetData@?$CThreadLocal@V_AFXCTL_AMBIENT_CACHE@@@@QAEPAV_AFXCTL_AMBIENT_CACHE@@XZ 5f5556e0 f i ctlcore.obj
 0001:00054730       ?CreateObject@?$CThreadLocal@V_AFXCTL_AMBIENT_CACHE@@@@SGPAVCNoTrackObject@@XZ 5f555730 f i ctlcore.obj
 0001:000547a0       ?_GetBaseClass@COlePropertyPage@@KGPAUCRuntimeClass@@XZ 5f5557a0 f   ctlppg.obj
 0001:000547aa       ?GetRuntimeClass@COlePropertyPage@@UBEPAUCRuntimeClass@@XZ 5f5557aa f   ctlppg.obj
 0001:000547c0       ?_GetBaseClass@CDataPathProperty@@KGPAUCRuntimeClass@@XZ 5f5557c0 f   ctlprop.obj
 0001:000547ca       ?GetRuntimeClass@CDataPathProperty@@UBEPAUCRuntimeClass@@XZ 5f5557ca f   ctlprop.obj
 0001:000547da       ?_GetBaseClass@CCachedDataPathProperty@@KGPAUCRuntimeClass@@XZ 5f5557da f   ctlprop.obj
 0001:000547e4       ?GetRuntimeClass@CCachedDataPathProperty@@UBEPAUCRuntimeClass@@XZ 5f5557e4 f   ctlprop.obj
 0001:00054800       ??B?$CThreadLocal@V_AFXCTL_AMBIENT_CACHE@@@@QAEPAV_AFXCTL_AMBIENT_CACHE@@XZ 5f555800 f i ctlprop.obj
 0001:00054800       ??C?$CThreadLocal@V_AFXCTL_AMBIENT_CACHE@@@@QAEPAV_AFXCTL_AMBIENT_CACHE@@XZ 5f555800 f i ctlprop.obj
 0001:00054820       ?CreateObject@CColorPropPage@@SGPAVCObject@@XZ 5f555820 f   ppgcolor.obj
 0001:00054891       ?_GetBaseClass@CColorPropPage@@KGPAUCRuntimeClass@@XZ 5f555891 f   ppgcolor.obj
 0001:0005489b       ?GetRuntimeClass@CColorPropPage@@UBEPAUCRuntimeClass@@XZ 5f55589b f   ppgcolor.obj
 0001:000548b0       ?CreateObject@CFontPropPage@@SGPAVCObject@@XZ 5f5558b0 f   ppgfont.obj
 0001:00054921       ?_GetBaseClass@CFontPropPage@@KGPAUCRuntimeClass@@XZ 5f555921 f   ppgfont.obj
 0001:0005492b       ?GetRuntimeClass@CFontPropPage@@UBEPAUCRuntimeClass@@XZ 5f55592b f   ppgfont.obj
 0001:00054940       ?CreateObject@CPicturePropPage@@SGPAVCObject@@XZ 5f555940 f   ppgpict.obj
 0001:000549b1       ?_GetBaseClass@CPicturePropPage@@KGPAUCRuntimeClass@@XZ 5f5559b1 f   ppgpict.obj
 0001:000549bb       ?GetRuntimeClass@CPicturePropPage@@UBEPAUCRuntimeClass@@XZ 5f5559bb f   ppgpict.obj
 0001:000549d0       ?_GetBaseClass@CStockPropPage@@KGPAUCRuntimeClass@@XZ 5f5559d0 f   ppgstock.obj
 0001:000549da       ?GetRuntimeClass@CStockPropPage@@UBEPAUCRuntimeClass@@XZ 5f5559da f   ppgstock.obj
 0001:000549f0       ??0COleClientItem@@QAE@PAVCOleDocument@@@Z 5f5559f0 f   olecli1.obj
 0001:00054b83       ??1COleClientItem@@UAE@XZ  5f555b83 f   olecli1.obj
 0001:00054c14       ?Delete@COleClientItem@@QAEXH@Z 5f555c14 f   olecli1.obj
 0001:00054d38       ?Release@COleClientItem@@UAEXW4tagOLECLOSE@@@Z 5f555d38 f   olecli1.obj
 0001:00054fb3       ?Close@COleClientItem@@QAEXW4tagOLECLOSE@@@Z 5f555fb3 f   olecli1.obj
 0001:000550c2       ?GetNewItemNumber@COleClientItem@@QAEKXZ 5f5560c2 f   olecli1.obj
 0001:00055160       ?GetItemName@COleClientItem@@QBEXPAD@Z 5f556160 f   olecli1.obj
 0001:000551e8       ?GetIconFromRegistry@COleClientItem@@QBEPAUHICON__@@XZ 5f5561e8 f   olecli1.obj
 0001:00055226       ?GetIconFromRegistry@COleClientItem@@SAPAUHICON__@@AAU_GUID@@@Z 5f556226 f   olecli1.obj
 0001:000555c7       ?UpdateItemType@COleClientItem@@QAEXXZ 5f5565c7 f   olecli1.obj
 0001:0005567e       ?FinishCreate@COleClientItem@@MAEHJ@Z 5f55667e f   olecli1.obj
 0001:00055a6e       ?CreateFromClipboard@COleClientItem@@QAEHW4tagOLERENDER@@GPAUtagFORMATETC@@@Z 5f556a6e f   olecli1.obj
 0001:00055ba9       ?CreateLinkFromClipboard@COleClientItem@@QAEHW4tagOLERENDER@@GPAUtagFORMATETC@@@Z 5f556ba9 f   olecli1.obj
 0001:00055ce4       ?CreateStaticFromClipboard@COleClientItem@@QAEHW4tagOLERENDER@@GPAUtagFORMATETC@@@Z 5f556ce4 f   olecli1.obj
 0001:00055e1f       ?CreateFromData@COleClientItem@@QAEHPAVCOleDataObject@@W4tagOLERENDER@@GPAUtagFORMATETC@@@Z 5f556e1f f   olecli1.obj
 0001:00055f87       ?CreateLinkFromData@COleClientItem@@QAEHPAVCOleDataObject@@W4tagOLERENDER@@GPAUtagFORMATETC@@@Z 5f556f87 f   olecli1.obj
 0001:000560ef       ?CreateStaticFromData@COleClientItem@@QAEHPAVCOleDataObject@@W4tagOLERENDER@@GPAUtagFORMATETC@@@Z 5f5570ef f   olecli1.obj
 0001:00056257       ?CreateFromFile@COleClientItem@@QAEHPBDABU_GUID@@W4tagOLERENDER@@GPAUtagFORMATETC@@@Z 5f557257 f   olecli1.obj
 0001:00056420       ?CreateLinkFromFile@COleClientItem@@QAEHPBDW4tagOLERENDER@@GPAUtagFORMATETC@@@Z 5f557420 f   olecli1.obj
 0001:000565e5       ?CreateNewItem@COleClientItem@@QAEHABU_GUID@@W4tagOLERENDER@@GPAUtagFORMATETC@@@Z 5f5575e5 f   olecli1.obj
 0001:00056740       ?CreateCloneFrom@COleClientItem@@QAEHPBV1@@Z 5f557740 f   olecli1.obj
 0001:0005695f       ?IsModified@COleClientItem@@QBEHXZ 5f55795f f   olecli1.obj
 0001:00056a73       ?GetItemStorageFlat@COleClientItem@@QAEXXZ 5f557a73 f   olecli1.obj
 0001:00056bc2       ?ReadItemFlat@COleClientItem@@QAEXAAVCArchive@@@Z 5f557bc2 f   olecli1.obj
 0001:00056e4a       ?WriteItemFlat@COleClientItem@@QAEXAAVCArchive@@@Z 5f557e4a f   olecli1.obj
 0001:0005704f       ?GetItemStorageCompound@COleClientItem@@QAEXXZ 5f55804f f   olecli1.obj
 0001:0005722a       ?ReadItemCompound@COleClientItem@@QAEXAAVCArchive@@@Z 5f55822a f   olecli1.obj
 0001:000575bc       ?WriteItemCompound@COleClientItem@@QAEXAAVCArchive@@@Z 5f5585bc f   olecli1.obj
 0001:000578d6       ?GetItemStorage@COleClientItem@@UAEXXZ 5f5588d6 f   olecli1.obj
 0001:00057901       ?ReadItem@COleClientItem@@UAEXAAVCArchive@@@Z 5f558901 f   olecli1.obj
 0001:00057936       ?WriteItem@COleClientItem@@UAEXAAVCArchive@@@Z 5f558936 f   olecli1.obj
 0001:0005796b       ?CommitItem@COleClientItem@@UAEXH@Z 5f55896b f   olecli1.obj
 0001:00057aaa       ?Serialize@COleClientItem@@UAEXAAVCArchive@@@Z 5f558aaa f   olecli1.obj
 0001:00057d76       ?OnChange@COleClientItem@@UAEXW4OLE_NOTIFICATION@@K@Z 5f558d76 f   olecli1.obj
 0001:00057e3e       ?OnDataChange@COleClientItem@@MAEXPAUtagFORMATETC@@PAUtagSTGMEDIUM@@@Z 5f558e3e f   olecli1.obj
 0001:00057e74       ?OnGetItemPosition@COleClientItem@@MAEXAAVCRect@@@Z 5f558e74 f   olecli1.obj
 0001:00057e81       ?OnGetClipRect@COleClientItem@@MAEXAAVCRect@@@Z 5f558e81 f   olecli1.obj
 0001:00057ef7       ?OnShowItem@COleClientItem@@MAEXXZ 5f558ef7 f   olecli1.obj
 0001:00058023       ?GetClassID@COleClientItem@@QBEXPAU_GUID@@@Z 5f559023 f   olecli1.obj
 0001:000580d7       ?GetExtent@COleClientItem@@QAEHPAUtagSIZE@@W4tagDVASPECT@@@Z 5f5590d7 f   olecli1.obj
 0001:00058186       ?GetCachedExtent@COleClientItem@@QAEHPAUtagSIZE@@W4tagDVASPECT@@@Z 5f559186 f   olecli1.obj
 0001:00058261       ?SetIconicMetafile@COleClientItem@@QAEHPAX@Z 5f559261 f   olecli1.obj
 0001:000583aa       ?GetIconicMetafile@COleClientItem@@QAEPAXXZ 5f5593aa f   olecli1.obj
 0001:000586ee       ?SetDrawAspect@COleClientItem@@UAEXW4tagDVASPECT@@@Z 5f5596ee f   olecli1.obj
 0001:00058766       ?GetPrintDeviceInfo@COleClientItem@@IAEHPAPAUIOleCache@@PAPAUtagDVTARGETDEVICE@@PAK@Z 5f559766 f   olecli1.obj
 0001:00058898       ?AttachDataObject@COleClientItem@@QBEXAAVCOleDataObject@@@Z 5f559898 f   olecli1.obj
 0001:00058925       ?Draw@COleClientItem@@QAEHPAVCDC@@PBUtagRECT@@W4tagDVASPECT@@@Z 5f559925 f   olecli1.obj
 0001:00058af1       ?GetEmbeddedItemData@COleClientItem@@IAEXPAUtagSTGMEDIUM@@@Z 5f559af1 f   olecli1.obj
 0001:00058cb7       ?AddCachedData@COleClientItem@@IAEXPAVCOleDataSource@@@Z 5f559cb7 f   olecli1.obj
 0001:00058e55       ?GetLinkSourceData@COleClientItem@@IAEHPAUtagSTGMEDIUM@@@Z 5f559e55 f   olecli1.obj
 0001:000590b0       ?GetObjectDescriptorData@COleClientItem@@IAEXPAUtagPOINT@@PAUtagSIZE@@PAUtagSTGMEDIUM@@@Z 5f55a0b0 f   olecli1.obj
 0001:00059280       ?SetHostNames@COleClientItem@@QAEXPBD0@Z 5f55a280 f   olecli1.obj
 0001:000593fb       ?SetExtent@COleClientItem@@QAEXABVCSize@@W4tagDVASPECT@@@Z 5f55a3fb f   olecli1.obj
 0001:0005946d       ?_GetBaseInterfaceMap@COleClientItem@@KGPBUAFX_INTERFACEMAP@@XZ 5f55a46d f   olecli1.obj
 0001:00059477       ?GetInterfaceMap@COleClientItem@@MBEPBUAFX_INTERFACEMAP@@XZ 5f55a477 f   olecli1.obj
 0001:00059487       ?AddRef@XOleClientSite@COleClientItem@@UAGKXZ 5f55a487 f   olecli1.obj
 0001:000594a2       ?Release@XOleClientSite@COleClientItem@@UAGKXZ 5f55a4a2 f   olecli1.obj
 0001:000594bd       ?QueryInterface@XOleClientSite@COleClientItem@@UAGJABU_GUID@@PAPAX@Z 5f55a4bd f   olecli1.obj
 0001:000594e0       ?SaveObject@XOleClientSite@COleClientItem@@UAGJXZ 5f55a4e0 f   olecli1.obj
 0001:000595f2       ?GetMoniker@XOleClientSite@COleClientItem@@UAGJKKPAPAUIMoniker@@@Z 5f55a5f2 f   olecli1.obj
 0001:0005992a       ?GetContainer@XOleClientSite@COleClientItem@@UAGJPAPAUIOleContainer@@@Z 5f55a92a f   olecli1.obj
 0001:000599cd       ?ShowObject@XOleClientSite@COleClientItem@@UAGJXZ 5f55a9cd f   olecli1.obj
 0001:00059aa3       ?OnShowWindow@XOleClientSite@COleClientItem@@UAGJH@Z 5f55aaa3 f   olecli1.obj
 0001:00059bc6       ?RequestNewObjectLayout@XOleClientSite@COleClientItem@@UAGJXZ 5f55abc6 f   olecli1.obj
 0001:00059bd2       ?AddRef@XAdviseSink@COleClientItem@@UAGKXZ 5f55abd2 f   olecli1.obj
 0001:00059bed       ?Release@XAdviseSink@COleClientItem@@UAGKXZ 5f55abed f   olecli1.obj
 0001:00059c08       ?QueryInterface@XAdviseSink@COleClientItem@@UAGJABU_GUID@@PAPAX@Z 5f55ac08 f   olecli1.obj
 0001:00059c2b       ?OnDataChange@XAdviseSink@COleClientItem@@UAGXPAUtagFORMATETC@@PAUtagSTGMEDIUM@@@Z 5f55ac2b f   olecli1.obj
 0001:00059cad       ?OnViewChange@XAdviseSink@COleClientItem@@UAGXKJ@Z 5f55acad f   olecli1.obj
 0001:00059d2a       ?OnRename@XAdviseSink@COleClientItem@@UAGXPAUIMoniker@@@Z 5f55ad2a f   olecli1.obj
 0001:00059d31       ?OnSave@XAdviseSink@COleClientItem@@UAGXXZ 5f55ad31 f   olecli1.obj
 0001:00059dac       ?OnClose@XAdviseSink@COleClientItem@@UAGXXZ 5f55adac f   olecli1.obj
 0001:00059e27       ?AssertValid@COleClientItem@@UBEXXZ 5f55ae27 f   olecli1.obj
 0001:00059ebd       ?Dump@COleClientItem@@UBEXAAVCDumpContext@@@Z 5f55aebd f   olecli1.obj
 0001:0005a086       ?GetLastStatus@COleClientItem@@QBEJXZ 5f55b086 f   olecli1.obj
 0001:0005a0aa       ?GetDocument@COleClientItem@@QBEPAVCOleDocument@@XZ 5f55b0aa f   olecli1.obj
 0001:0005a0ce       ?GetType@COleClientItem@@QBE?AW4OLE_OBJTYPE@@XZ 5f55b0ce f   olecli1.obj
 0001:0005a0f2       ?GetDrawAspect@COleClientItem@@QBE?AW4tagDVASPECT@@XZ 5f55b0f2 f   olecli1.obj
 0001:0005a116       ?IsRunning@COleClientItem@@QBEHXZ 5f55b116 f   olecli1.obj
 0001:0005a16a       ?GetItemState@COleClientItem@@QBEIXZ 5f55b16a f   olecli1.obj
 0001:0005a18e       ?IsInPlaceActive@COleClientItem@@QBEHXZ 5f55b18e f   olecli1.obj
 0001:0005a1d3       ?IsOpen@COleClientItem@@QBEHXZ 5f55b1d3 f   olecli1.obj
 0001:0005a1fd       ?IsLinkUpToDate@COleClientItem@@QBEHXZ 5f55b1fd f   olecli1.obj
 0001:0005a25b       ?GetActiveView@COleClientItem@@QBEPAVCView@@XZ 5f55b25b f   olecli1.obj
 0001:0005a26c       ?BeginDeferErrors@COleLinkingDoc@@QAEXXZ 5f55b26c f   olecli1.obj
 0001:0005a2b8       ??1COleDataObject@@QAE@XZ  5f55b2b8 f   olecli1.obj
 0001:0005a2d0       ??_ECOleClientItem@@UAEPAXI@Z 5f55b2d0 f i olecli1.obj
 0001:0005a2d0       ??_GCOleClientItem@@UAEPAXI@Z 5f55b2d0 f i olecli1.obj
 0001:0005a300       ??0XOleClientSite@COleClientItem@@QAE@XZ 5f55b300 f i olecli1.obj
 0001:0005a320       ??0XAdviseSink@COleClientItem@@QAE@XZ 5f55b320 f i olecli1.obj
 0001:0005a340       ??0XOleIPSite@COleClientItem@@QAE@XZ 5f55b340 f i olecli1.obj
 0001:0005a360       ??0IOleInPlaceSite@@QAE@XZ 5f55b360 f i olecli1.obj
 0001:0005a380       ??0IUnknown@@QAE@XZ        5f55b380 f i olecli1.obj
 0001:0005a390       ??0IOleWindow@@QAE@XZ      5f55b390 f i olecli1.obj
 0001:0005a390       ??0IOleClientSite@@QAE@XZ  5f55b390 f i olecli1.obj
 0001:0005a390       ??0IAdviseSink@@QAE@XZ     5f55b390 f i olecli1.obj
 0001:0005a3b0       ?GetClientSite@COleClientItem@@MAEPAUIOleClientSite@@XZ 5f55b3b0 f   olecli3.obj
 0001:0005a403       ?Activate@COleClientItem@@QAEXJPAVCView@@PAUtagMSG@@@Z 5f55b403 f   olecli3.obj
 0001:0005a59c       ?CheckGeneral@COleClientItem@@MAEXJ@Z 5f55b59c f   olecli3.obj
 0001:0005a5fd       ?CopyToClipboard@COleClientItem@@QAEXH@Z 5f55b5fd f   olecli3.obj
 0001:0005a6f4       ?OnGetClipboardData@COleClientItem@@UAEPAVCOleDataSource@@HPAUtagPOINT@@PAUtagSIZE@@@Z 5f55b6f4 f   olecli3.obj
 0001:0005a826       ?DoDragDrop@COleClientItem@@QAEKPBUtagRECT@@VCPoint@@HK0@Z 5f55b826 f   olecli3.obj
 0001:0005aa41       ?GetClipboardData@COleClientItem@@QAEXPAVCOleDataSource@@HPAUtagPOINT@@PAUtagSIZE@@@Z 5f55ba41 f   olecli3.obj
 0001:0005ab4b       ?CanPaste@COleClientItem@@SGHXZ 5f55bb4b f   olecli3.obj
 0001:0005abf2       ?CanPasteLink@COleClientItem@@SGHXZ 5f55bbf2 f   olecli3.obj
 0001:0005ac4f       ?CanCreateFromData@COleClientItem@@SGHPBVCOleDataObject@@@Z 5f55bc4f f   olecli3.obj
 0001:0005acad       ?CanCreateLinkFromData@COleClientItem@@SGHPBVCOleDataObject@@@Z 5f55bcad f   olecli3.obj
 0001:0005ad0b       ?ConvertTo@COleClientItem@@UAEHABU_GUID@@@Z 5f55bd0b f   olecli3.obj
 0001:0005ae6b       ?Reload@COleClientItem@@QAEHXZ 5f55be6b f   olecli3.obj
 0001:0005af1b       ?ActivateAs@COleClientItem@@UAEHPBDABU_GUID@@1@Z 5f55bf1b f   olecli3.obj
 0001:0005b01f       ?SetPrintDevice@COleClientItem@@QAEHPBUtagDVTARGETDEVICE@@@Z 5f55c01f f   olecli3.obj
 0001:0005b235       ?SetPrintDevice@COleClientItem@@QAEHPBUtagPDA@@@Z 5f55c235 f   olecli3.obj
 0001:0005b2b0       ?GetUserType@COleClientItem@@QAEXW4tagUSERCLASSTYPE@@AAVCString@@@Z 5f55c2b0 f   olecli3.obj
 0001:0005b383       ?Run@COleClientItem@@QAEXXZ 5f55c383 f   olecli3.obj
 0001:0005b42c       ?UpdateLink@COleClientItem@@QAEHXZ 5f55c42c f   olecli3.obj
 0001:0005b4d8       ?FreezeLink@COleClientItem@@UAEHXZ 5f55c4d8 f   olecli3.obj
 0001:0005b83f       ?GetLinkUpdateOptions@COleClientItem@@QAE?AW4tagOLEUPDATE@@XZ 5f55c83f f   olecli3.obj
 0001:0005b8f0       ?SetLinkUpdateOptions@COleClientItem@@QAEXW4tagOLEUPDATE@@@Z 5f55c8f0 f   olecli3.obj
 0001:0005b9a0       ??0COleDocument@@QAE@XZ    5f55c9a0 f   oledoc1.obj
 0001:0005baff       ??1COleDocument@@UAE@XZ    5f55caff f   oledoc1.obj
 0001:0005bc41       ?AddItem@COleDocument@@UAEXPAVCDocItem@@@Z 5f55cc41 f   oledoc1.obj
 0001:0005bcc4       ?RemoveItem@COleDocument@@UAEXPAVCDocItem@@@Z 5f55ccc4 f   oledoc1.obj
 0001:0005bdb0       ?GetStartPosition@COleDocument@@UBEPAU__POSITION@@XZ 5f55cdb0 f   oledoc1.obj
 0001:0005bdd6       ?GetNextItem@COleDocument@@UBEPAVCDocItem@@AAPAU__POSITION@@@Z 5f55cdd6 f   oledoc1.obj
 0001:0005be86       ?GetNextItemOfKind@COleDocument@@IBEPAVCDocItem@@AAPAU__POSITION@@PAUCRuntimeClass@@@Z 5f55ce86 f   oledoc1.obj
 0001:0005bede       ?GetNextClientItem@COleDocument@@QBEPAVCOleClientItem@@AAPAU__POSITION@@@Z 5f55cede f   oledoc1.obj
 0001:0005bf04       ?GetNextServerItem@COleDocument@@QBEPAVCOleServerItem@@AAPAU__POSITION@@@Z 5f55cf04 f   oledoc1.obj
 0001:0005bf2a       ?DeleteContents@COleDocument@@UAEXXZ 5f55cf2a f   oledoc1.obj
 0001:0005bf8f       ?SetPathName@COleDocument@@UAEXPBDH@Z 5f55cf8f f   oledoc1.obj
 0001:0005c0b6       ?Serialize@COleDocument@@UAEXAAVCArchive@@@Z 5f55d0b6 f   oledoc1.obj
 0001:0005c1de       ?CommitItems@COleDocument@@QAEXH@Z 5f55d1de f   oledoc1.obj
 0001:0005c227       ?HasBlankItems@COleDocument@@QBEHXZ 5f55d227 f   oledoc1.obj
 0001:0005c2a0       ?UpdateModifiedFlag@COleDocument@@UAEXXZ 5f55d2a0 f   oledoc1.obj
 0001:0005c303       ?PreCloseFrame@COleDocument@@UAEXPAVCFrameWnd@@@Z 5f55d303 f   oledoc1.obj
 0001:0005c3dc       ?SaveModified@COleDocument@@UAEHXZ 5f55d3dc f   oledoc1.obj
 0001:0005c563       ?OnShowViews@COleDocument@@UAEXH@Z 5f55d563 f   oledoc1.obj
 0001:0005c570       ?OnIdle@COleDocument@@UAEXXZ 5f55d570 f   oledoc1.obj
 0001:0005c630       ?GetFirstFrame@COleDocument@@QAEPAVCFrameWnd@@XZ 5f55d630 f   oledoc1.obj
 0001:0005c6e1       ?GetMoniker@COleDocument@@UAEPAUIMoniker@@W4tagOLEGETMONIKER@@@Z 5f55d6e1 f   oledoc1.obj
 0001:0005c799       ?GetContainer@COleDocument@@UAEPAUIOleItemContainer@@XZ 5f55d799 f   oledoc1.obj
 0001:0005c7a6       ?OnNewDocument@COleDocument@@UAEHXZ 5f55d7a6 f   oledoc1.obj
 0001:0005c857       ?OnOpenDocument@COleDocument@@UAEHPBD@Z 5f55d857 f   oledoc1.obj
 0001:0005cc12       ?OnSaveDocument@COleDocument@@UAEHPBD@Z 5f55dc12 f   oledoc1.obj
 0001:0005cffc       ?OnCloseDocument@COleDocument@@UAEXXZ 5f55dffc f   oledoc1.obj
 0001:0005d080       ?SaveToStorage@COleDocument@@MAEXPAVCObject@@@Z 5f55e080 f   oledoc1.obj
 0001:0005d281       ?LoadFromStorage@COleDocument@@MAEXXZ 5f55e281 f   oledoc1.obj
 0001:0005d46a       ?AssertValid@COleDocument@@UBEXXZ 5f55e46a f   oledoc1.obj
 0001:0005d512       ?Dump@COleDocument@@UBEXAAVCDumpContext@@@Z 5f55e512 f   oledoc1.obj
 0001:0005d62a       ??0CDocItem@@IAE@XZ        5f55e62a f   oledoc1.obj
 0001:0005d653       ??1CDocItem@@UAE@XZ        5f55e653 f   oledoc1.obj
 0001:0005d6c5       ?Serialize@CDocItem@@UAEXAAVCArchive@@@Z 5f55e6c5 f   oledoc1.obj
 0001:0005d79a       ?IsBlank@CDocItem@@UBEHXZ  5f55e79a f   oledoc1.obj
 0001:0005d7a7       ?AssertValid@CDocItem@@UBEXXZ 5f55e7a7 f   oledoc1.obj
 0001:0005d7d4       ?Dump@CDocItem@@UBEXAAVCDumpContext@@@Z 5f55e7d4 f   oledoc1.obj
 0001:0005d815       ?GetDocument@CDocItem@@QBEPAVCDocument@@XZ 5f55e815 f   oledoc1.obj
 0001:0005d826       ?EnableCompoundFile@COleDocument@@QAEXH@Z 5f55e826 f   oledoc1.obj
 0001:0005d83c       ?SetBusyReply@COleMessageFilter@@QAEXW4tagSERVERCALL@@@Z 5f55e83c f   oledoc1.obj
 0001:0005d862       ?SetRetryReply@COleMessageFilter@@QAEXK@Z 5f55e862 f   oledoc1.obj
 0001:0005d888       ?SetMessagePendingDelay@COleMessageFilter@@QAEXK@Z 5f55e888 f   oledoc1.obj
 0001:0005d8ae       ?EnableBusyDialog@COleMessageFilter@@QAEXH@Z 5f55e8ae f   oledoc1.obj
 0001:0005d8d4       ?EnableNotRespondingDialog@COleMessageFilter@@QAEXH@Z 5f55e8d4 f   oledoc1.obj
 0001:0005d900       ??_ECOleDocument@@UAEPAXI@Z 5f55e900 f i oledoc1.obj
 0001:0005d900       ??_GCOleDocument@@UAEPAXI@Z 5f55e900 f i oledoc1.obj
 0001:0005d930       ??_ECDocItem@@UAEPAXI@Z    5f55e930 f i oledoc1.obj
 0001:0005d930       ??_GCDocItem@@UAEPAXI@Z    5f55e930 f i oledoc1.obj
 0001:0005d960       ?ApplyPrintDevice@COleDocument@@QAEHPBUtagDVTARGETDEVICE@@@Z 5f55e960 f   oledoc2.obj
 0001:0005da2e       ?ApplyPrintDevice@COleDocument@@QAEHPBUtagPDA@@@Z 5f55ea2e f   oledoc2.obj
 0001:0005dac0       ?AfxGetScodeString@@YGPBDJ@Z 5f55eac0 f   olemisc.obj
 0001:0005db04       ?AfxGetScodeRangeString@@YGPBDJ@Z 5f55eb04 f   olemisc.obj
 0001:0005db5a       ?AfxGetSeverityString@@YGPBDJ@Z 5f55eb5a f   olemisc.obj
 0001:0005db71       ?AfxGetFacilityString@@YGPBDJ@Z 5f55eb71 f   olemisc.obj
 0001:0005dba2       ?AfxGetFullScodeString@@YGPBDJ@Z 5f55eba2 f   olemisc.obj
 0001:0005dc3a       ?AfxThrowOleException@@YGXJ@Z 5f55ec3a f   olemisc.obj
 0001:0005dce1       ?GetErrorMessage@COleException@@UAEHPADIPAI@Z 5f55ece1 f   olemisc.obj
 0001:0005dd86       ?Process@COleException@@SGJPBVCException@@@Z 5f55ed86 f   olemisc.obj
 0001:0005dded       ?AfxMergeMenus@@YGPAUHMENU__@@PAU1@0PAJHH@Z 5f55eded f   olemisc.obj
 0001:0005e199       ?AfxUnmergeMenus@@YGXPAUHMENU__@@00@Z 5f55f199 f   olemisc.obj
 0001:0005e331       ?_AfxFillFormatEtc@@YGPAUtagFORMATETC@@PAU1@G0@Z 5f55f331 f   olemisc.obj
 0001:0005e3ac       ?_AfxCopyGlobalMemory@@YGPAXPAX0@Z 5f55f3ac f   olemisc.obj
 0001:0005e4ad       ?_AfxCopyStgMedium@@YGHGPAUtagSTGMEDIUM@@0@Z 5f55f4ad f   olemisc.obj
 0001:0005ebc1       ?_AfxOleGetObjectDescriptorData@@YGPAXU_GUID@@KUtagSIZE@@U_POINTL@@KPBG3@Z 5f55fbc1 f   olemisc.obj
 0001:0005ed3c       ?_AfxOleGetObjectDescriptorData@@YGPAXPAUIOleObject@@PBGKU_POINTL@@PAUtagSIZE@@@Z 5f55fd3c f   olemisc.obj
 0001:0005f154       ?_AfxOleDoConvert@@YGJPAUIStorage@@ABU_GUID@@@Z 5f560154 f   olemisc.obj
 0001:0005f2bc       ?_AfxOleDoTreatAsClass@@YGJPBDABU_GUID@@1@Z 5f5602bc f   olemisc.obj
 0001:0005f368       ?_AfxOleCreateTargetDevice@@YGPAUtagDVTARGETDEVICE@@PAUtagDEVNAMES@@PAU_devicemodeA@@@Z 5f560368 f   olemisc.obj
 0001:0005f6de       ?_AfxOleCreateTargetDevice@@YGPAUtagDVTARGETDEVICE@@PAUtagPDA@@@Z 5f5606de f   olemisc.obj
 0001:0005f75f       ?_AfxOleGetFirstMoniker@@YGPAUIMoniker@@PAU1@@Z 5f56075f f   olemisc.obj
 0001:0005f837       ?_AfxOleGetLenFilePrefixOfMoniker@@YGKPAUIMoniker@@@Z 5f560837 f   olemisc.obj
 0001:0005f9a2       ?_AfxOleCopyTargetDevice@@YGPAUtagDVTARGETDEVICE@@PAU1@@Z 5f5609a2 f   olemisc.obj
 0001:0005f9e8       ?_AfxOleCopyFormatEtc@@YGXPAUtagFORMATETC@@0@Z 5f5609e8 f   olemisc.obj
 0001:0005fa77       ?_AfxOleCreateDC@@YGPAUHDC__@@PAUtagDVTARGETDEVICE@@@Z 5f560a77 f   olemisc.obj
 0001:0005fc43       ?_AfxDeleteMetafilePict@@YGXPAX@Z 5f560c43 f   olemisc.obj
 0001:0005fc73       ?_AfxXformSizeInPixelsToHimetric@@YGXPAUHDC__@@PAUtagSIZE@@1@Z 5f560c73 f   olemisc.obj
 0001:0005fd02       ?_AfxXformSizeInHimetricToPixels@@YGXPAUHDC__@@PAUtagSIZE@@1@Z 5f560d02 f   olemisc.obj
 0001:0005fda0       ??0COleStreamFile@@QAE@PAUIStream@@@Z 5f560da0 f   olestrm.obj
 0001:0005ff15       ??1COleStreamFile@@UAE@XZ  5f560f15 f   olestrm.obj
 0001:0005ffad       ?Detach@COleStreamFile@@QAEPAUIStream@@XZ 5f560fad f   olestrm.obj
 0001:0005ffd0       ?Attach@COleStreamFile@@QAEXPAUIStream@@@Z 5f560fd0 f   olestrm.obj
 0001:00060033       ?_AfxReadFromStream@@YGJPAUIStream@@PAXIAAK@Z 5f561033 f   olestrm.obj
 0001:000600bb       ?_AfxFillOleFileException@@YGXPAVCFileException@@J@Z 5f5610bb f   olestrm.obj
 0001:000601e3       ?_AfxThrowOleFileException@@YGXJ@Z 5f5611e3 f   olestrm.obj
 0001:00060256       ?GetStatus@COleStreamFile@@QBEHAAUCFileStatus@@@Z 5f561256 f   olestrm.obj
 0001:000603da       ?GetStorageName@COleStreamFile@@UBE?BVCString@@XZ 5f5613da f   olestrm.obj
 0001:0006041e       ?GetPosition@COleStreamFile@@UBEKXZ 5f56141e f   olestrm.obj
 0001:000604ca       ?OpenStream@COleStreamFile@@QAEHPAUIStorage@@PBDKPAVCFileException@@@Z 5f5614ca f   olestrm.obj
 0001:00060666       ?CreateStream@COleStreamFile@@QAEHPAUIStorage@@PBDKPAVCFileException@@@Z 5f561666 f   olestrm.obj
 0001:000608d2       ?CreateMemoryStream@COleStreamFile@@QAEHPAVCFileException@@@Z 5f5618d2 f   olestrm.obj
 0001:0006098a       ?Duplicate@COleStreamFile@@UBEPAVCFile@@XZ 5f56198a f   olestrm.obj
 0001:00060b18       ?Seek@COleStreamFile@@UAEJJI@Z 5f561b18 f   olestrm.obj
 0001:00060bf4       ?SetLength@COleStreamFile@@UAEXK@Z 5f561bf4 f   olestrm.obj
 0001:00060c78       ?GetLength@COleStreamFile@@UBEKXZ 5f561c78 f   olestrm.obj
 0001:00060d0e       ?Read@COleStreamFile@@UAEIPAXI@Z 5f561d0e f   olestrm.obj
 0001:00060d86       ?Write@COleStreamFile@@UAEXPBXI@Z 5f561d86 f   olestrm.obj
 0001:00060e58       ?LockRange@COleStreamFile@@UAEXKK@Z 5f561e58 f   olestrm.obj
 0001:00060ef3       ?UnlockRange@COleStreamFile@@UAEXKK@Z 5f561ef3 f   olestrm.obj
 0001:00060f8e       ?Abort@COleStreamFile@@UAEXXZ 5f561f8e f   olestrm.obj
 0001:00060ffd       ?Flush@COleStreamFile@@UAEXXZ 5f561ffd f   olestrm.obj
 0001:0006106c       ?Close@COleStreamFile@@UAEXXZ 5f56206c f   olestrm.obj
 0001:000610d4       ?GetStream@COleStreamFile@@QBEPAUIStream@@XZ 5f5620d4 f   olestrm.obj
 0001:000610e5       ?AssertValid@COleStreamFile@@UBEXXZ 5f5620e5 f   olestrm.obj
 0001:000610f8       ?Dump@COleStreamFile@@UBEXAAVCDumpContext@@@Z 5f5620f8 f   olestrm.obj
 0001:00061160       ??_GCOleStreamFile@@UAEPAXI@Z 5f562160 f i olestrm.obj
 0001:00061190       ?AfxGetIIDString@@YGPBDABU_GUID@@@Z 5f562190 f   oleunk.obj
 0001:00061256       ?_AfxQueryInterface@@YGPAUIUnknown@@PAU1@ABU_GUID@@@Z 5f562256 f   oleunk.obj
 0001:000612ab       ?_AfxRelease@@YGKPAPAUIUnknown@@@Z 5f5622ab f   oleunk.obj
 0001:00061306       ?EnableAggregation@CCmdTarget@@QAEXXZ 5f562306 f   oleunk.obj
 0001:00061337       ?ExternalAddRef@CCmdTarget@@QAEKXZ 5f562337 f   oleunk.obj
 0001:00061367       ?InternalRelease@CCmdTarget@@QAEKXZ 5f562367 f   oleunk.obj
 0001:00061418       ?ExternalRelease@CCmdTarget@@QAEKXZ 5f562418 f   oleunk.obj
 0001:00061448       ?GetInterface@CCmdTarget@@QAEPAUIUnknown@@PBX@Z 5f562448 f   oleunk.obj
 0001:00061615       ?QueryAggregates@CCmdTarget@@QAEPAUIUnknown@@PBX@Z 5f562615 f   oleunk.obj
 0001:000616fa       ?InternalQueryInterface@CCmdTarget@@QAEKPBXPAPAX@Z 5f5626fa f   oleunk.obj
 0001:0006174e       ?ExternalQueryInterface@CCmdTarget@@QAEKPBXPAPAX@Z 5f56274e f   oleunk.obj
 0001:0006178f       ?AddRef@CInnerUnknown@@UAGKXZ 5f56278f f   oleunk.obj
 0001:000617aa       ?Release@CInnerUnknown@@UAGKXZ 5f5627aa f   oleunk.obj
 0001:00061811       ?QueryInterface@CInnerUnknown@@UAGJABU_GUID@@PAPAX@Z 5f562811 f   oleunk.obj
 0001:0006185d       ?ExternalDisconnect@CCmdTarget@@QAEXXZ 5f56285d f   oleunk.obj
 0001:000618ce       ?GetControllingUnknown@CCmdTarget@@QAEPAUIUnknown@@XZ 5f5628ce f   oleunk.obj
 0001:000618ff       ??0COleException@@QAE@XZ   5f5628ff f   oleunk.obj
 0001:00061928       ??1COleException@@UAE@XZ   5f562928 f   oleunk.obj
 0001:00061944       ?InternalAddRef@CCmdTarget@@QAEKXZ 5f562944 f   oleunk.obj
 0001:00061988       ?IsRegistered@COleObjectFactory@@UBEHXZ 5f562988 f   oleunk.obj
 0001:000619af       ?GetClassID@COleObjectFactory@@QBEABU_GUID@@XZ 5f5629af f   oleunk.obj
 0001:000619d0       ??1COleDispatchDriver@@QAE@XZ 5f5629d0 f   oleunk.obj
 0001:000619e3       ??BCOleDispatchDriver@@QAEPAUIDispatch@@XZ 5f5629e3 f   oleunk.obj
 0001:000619f3       ??0COleVariant@@QAE@XZ     5f5629f3 f   oleunk.obj
 0001:00061a0a       ??1COleVariant@@QAE@XZ     5f562a0a f   oleunk.obj
 0001:00061a40       ?Clear@COleVariant@@QAEXXZ 5f562a40 f   oleunk.obj
 0001:00061a76       ??0COleVariant@@QAE@PBD@Z  5f562a76 f   oleunk.obj
 0001:00061a9a       ??0COleVariant@@QAE@AAVCString@@@Z 5f562a9a f   oleunk.obj
 0001:00061abe       ??0COleVariant@@QAE@E@Z    5f562abe f   oleunk.obj
 0001:00061adf       ??0COleVariant@@QAE@ABVCOleCurrency@@@Z 5f562adf f   oleunk.obj
 0001:00061b08       ??0COleVariant@@QAE@M@Z    5f562b08 f   oleunk.obj
 0001:00061b29       ??0COleVariant@@QAE@N@Z    5f562b29 f   oleunk.obj
 0001:00061b50       ??0COleVariant@@QAE@ABVCOleDateTime@@@Z 5f562b50 f   oleunk.obj
 0001:00061b79       ??0COleVariant@@QAE@ABVCByteArray@@@Z 5f562b79 f   oleunk.obj
 0001:00061b9d       ??0COleVariant@@QAE@ABVCLongBinary@@@Z 5f562b9d f   oleunk.obj
 0001:00061bc1       ??8COleVariant@@QBEHPBUtagVARIANT@@@Z 5f562bc1 f   oleunk.obj
 0001:00061bda       ??BCOleVariant@@QAEPAUtagVARIANT@@XZ 5f562bda f   oleunk.obj
 0001:00061be8       ??BCOleVariant@@QBEPBUtagVARIANT@@XZ 5f562be8 f   oleunk.obj
 0001:00061bf6       ??0COleCurrency@@QAE@XZ    5f562bf6 f   oleunk.obj
 0001:00061c21       ??0COleCurrency@@QAE@TtagCY@@@Z 5f562c21 f   oleunk.obj
 0001:00061c49       ??0COleCurrency@@QAE@ABV0@@Z 5f562c49 f   oleunk.obj
 0001:00061c75       ??0COleCurrency@@QAE@ABUtagVARIANT@@@Z 5f562c75 f   oleunk.obj
 0001:00061c91       ?GetStatus@COleCurrency@@QBE?AW4CurrencyStatus@1@XZ 5f562c91 f   oleunk.obj
 0001:00061ca2       ?SetStatus@COleCurrency@@QAEXW4CurrencyStatus@1@@Z 5f562ca2 f   oleunk.obj
 0001:00061cb8       ??YCOleCurrency@@QAEABV0@ABV0@@Z 5f562cb8 f   oleunk.obj
 0001:00061ce3       ??ZCOleCurrency@@QAEABV0@ABV0@@Z 5f562ce3 f   oleunk.obj
 0001:00061d0e       ??XCOleCurrency@@QAEABV0@J@Z 5f562d0e f   oleunk.obj
 0001:00061d39       ??_0COleCurrency@@QAEABV0@J@Z 5f562d39 f   oleunk.obj
 0001:00061d64       ??8COleCurrency@@QBEHABV0@@Z 5f562d64 f   oleunk.obj
 0001:00061dae       ??9COleCurrency@@QBEHABV0@@Z 5f562dae f   oleunk.obj
 0001:00061df8       ??BCOleCurrency@@QBE?ATtagCY@@XZ 5f562df8 f   oleunk.obj
 0001:00061e18       ??0COleDateTime@@QAE@XZ    5f562e18 f   oleunk.obj
 0001:00061e40       ??0COleDateTime@@QAE@ABV0@@Z 5f562e40 f   oleunk.obj
 0001:00061e6c       ??0COleDateTime@@QAE@ABUtagVARIANT@@@Z 5f562e6c f   oleunk.obj
 0001:00061e88       ??0COleDateTime@@QAE@N@Z   5f562e88 f   oleunk.obj
 0001:00061eb0       ??0COleDateTime@@QAE@J@Z   5f562eb0 f   oleunk.obj
 0001:00061ecc       ??0COleDateTime@@QAE@ABU_SYSTEMTIME@@@Z 5f562ecc f   oleunk.obj
 0001:00061ee8       ??0COleDateTime@@QAE@ABU_FILETIME@@@Z 5f562ee8 f   oleunk.obj
 0001:00061f04       ??0COleDateTime@@QAE@HHHHHH@Z 5f562f04 f   oleunk.obj
 0001:00061f34       ??0COleDateTime@@QAE@GG@Z  5f562f34 f   oleunk.obj
 0001:00061f63       ??4COleDateTime@@QAEABV0@ABV0@@Z 5f562f63 f   oleunk.obj
 0001:00061f8f       ?GetStatus@COleDateTime@@QBE?AW4DateTimeStatus@1@XZ 5f562f8f f   oleunk.obj
 0001:00061fa0       ?SetStatus@COleDateTime@@QAEXW4DateTimeStatus@1@@Z 5f562fa0 f   oleunk.obj
 0001:00061fb6       ??8COleDateTime@@QBEHABV0@@Z 5f562fb6 f   oleunk.obj
 0001:00061ff7       ??9COleDateTime@@QBEHABV0@@Z 5f562ff7 f   oleunk.obj
 0001:00062038       ??YCOleDateTime@@QAEABV0@VCOleDateTimeSpan@@@Z 5f563038 f   oleunk.obj
 0001:00062063       ??ZCOleDateTime@@QAEABV0@VCOleDateTimeSpan@@@Z 5f563063 f   oleunk.obj
 0001:0006208e       ??BCOleDateTime@@QBENXZ    5f56308e f   oleunk.obj
 0001:0006209e       ?SetDate@COleDateTime@@QAEHHHH@Z 5f56309e f   oleunk.obj
 0001:000620c5       ?SetTime@COleDateTime@@QAEHHHH@Z 5f5630c5 f   oleunk.obj
 0001:000620ef       ??0COleDateTimeSpan@@QAE@XZ 5f5630ef f   oleunk.obj
 0001:00062117       ??0COleDateTimeSpan@@QAE@N@Z 5f563117 f   oleunk.obj
 0001:0006213f       ??0COleDateTimeSpan@@QAE@ABV0@@Z 5f56313f f   oleunk.obj
 0001:0006216b       ??0COleDateTimeSpan@@QAE@JHHH@Z 5f56316b f   oleunk.obj
 0001:00062193       ?GetStatus@COleDateTimeSpan@@QBE?AW4DateTimeSpanStatus@1@XZ 5f563193 f   oleunk.obj
 0001:000621a4       ?SetStatus@COleDateTimeSpan@@QAEXW4DateTimeSpanStatus@1@@Z 5f5631a4 f   oleunk.obj
 0001:000621ba       ?GetTotalDays@COleDateTimeSpan@@QBENXZ 5f5631ba f   oleunk.obj
 0001:000621f6       ?GetTotalHours@COleDateTimeSpan@@QBENXZ 5f5631f6 f   oleunk.obj
 0001:0006224b       ?GetTotalMinutes@COleDateTimeSpan@@QBENXZ 5f56324b f   oleunk.obj
 0001:000622a6       ?GetTotalSeconds@COleDateTimeSpan@@QBENXZ 5f5632a6 f   oleunk.obj
 0001:00062307       ?GetDays@COleDateTimeSpan@@QBEJXZ 5f563307 f   oleunk.obj
 0001:00062348       ??8COleDateTimeSpan@@QBEHABV0@@Z 5f563348 f   oleunk.obj
 0001:00062389       ??9COleDateTimeSpan@@QBEHABV0@@Z 5f563389 f   oleunk.obj
 0001:000623ca       ??MCOleDateTimeSpan@@QBEHABV0@@Z 5f5633ca f   oleunk.obj
 0001:0006244f       ??OCOleDateTimeSpan@@QBEHABV0@@Z 5f56344f f   oleunk.obj
 0001:000624d4       ??NCOleDateTimeSpan@@QBEHABV0@@Z 5f5634d4 f   oleunk.obj
 0001:00062559       ??PCOleDateTimeSpan@@QBEHABV0@@Z 5f563559 f   oleunk.obj
 0001:000625de       ??YCOleDateTimeSpan@@QAEABV0@V0@@Z 5f5635de f   oleunk.obj
 0001:00062609       ??ZCOleDateTimeSpan@@QAEABV0@V0@@Z 5f563609 f   oleunk.obj
 0001:00062634       ??GCOleDateTimeSpan@@QBE?AV0@XZ 5f563634 f   oleunk.obj
 0001:00062659       ??BCOleDateTimeSpan@@QBENXZ 5f563659 f   oleunk.obj
 0001:00062669       ??0COleSafeArray@@QAE@XZ   5f563669 f   oleunk.obj
 0001:00062688       ??1COleSafeArray@@QAE@XZ   5f563688 f   oleunk.obj
 0001:0006269b       ?Clear@COleSafeArray@@QAEXXZ 5f56369b f   oleunk.obj
 0001:000626d4       ??BCOleSafeArray@@QAEPAUtagVARIANT@@XZ 5f5636d4 f   oleunk.obj
 0001:000626e2       ??BCOleSafeArray@@QBEPBUtagVARIANT@@XZ 5f5636e2 f   oleunk.obj
 0001:000626f0       ?GetDim@COleSafeArray@@QAEKXZ 5f5636f0 f   oleunk.obj
 0001:00062708       ?GetElemSize@COleSafeArray@@QAEKXZ 5f563708 f   oleunk.obj
 0001:00062720       ??0CInnerUnknown@@QAE@XZ   5f563720 f i oleunk.obj
 0001:00062740       ??_GCOleException@@UAEPAXI@Z 5f563740 f i oleunk.obj
 0001:00062740       ??_ECOleException@@UAEPAXI@Z 5f563740 f i oleunk.obj
 0001:00062770       ??1CMonikerFile@@UAE@XZ    5f563770 f   olemon.obj
 0001:000627e3       ?Flush@CMonikerFile@@UAEXXZ 5f5637e3 f   olemon.obj
 0001:00062848       ?Open@CMonikerFile@@MAEHPBDPAUIBindHost@@PAUIBindStatusCallback@@PAUIBindCtx@@PAVCFileException@@@Z 5f563848 f   olemon.obj
 0001:0006288f       ?Attach@CMonikerFile@@IAEHPBDPAUIBindHost@@PAUIBindStatusCallback@@PAUIBindCtx@@PAVCFileException@@@Z 5f56388f f   olemon.obj
 0001:00062acd       ?Open@CMonikerFile@@UAEHPBDPAVCFileException@@@Z 5f563acd f   olemon.obj
 0001:00062b75       ?Open@CMonikerFile@@UAEHPAUIMoniker@@PAVCFileException@@@Z 5f563b75 f   olemon.obj
 0001:00062c25       ?Open@CMonikerFile@@MAEHPAUIMoniker@@PAUIBindHost@@PAUIBindStatusCallback@@PAUIBindCtx@@PAVCFileException@@@Z 5f563c25 f   olemon.obj
 0001:00062c59       ?Attach@CMonikerFile@@IAEHPAUIMoniker@@PAUIBindHost@@PAUIBindStatusCallback@@PAUIBindCtx@@PAVCFileException@@@Z 5f563c59 f   olemon.obj
 0001:00062ddf       ?Close@CMonikerFile@@UAEXXZ 5f563ddf f   olemon.obj
 0001:00062e0c       ?Detach@CMonikerFile@@QAEHPAVCFileException@@@Z 5f563e0c f   olemon.obj
 0001:00062f1d       ?CreateBindHost@CMonikerFile@@KAPAUIBindHost@@XZ 5f563f1d f   olemon.obj
 0001:00062fa0       ?CreateBindContext@CMonikerFile@@IAEPAUIBindCtx@@PAVCFileException@@@Z 5f563fa0 f   olemon.obj
 0001:00062faf       ?PostBindToStream@CMonikerFile@@MAEHPAVCFileException@@@Z 5f563faf f   olemon.obj
 0001:0006306c       ?AssertValid@CMonikerFile@@UBEXXZ 5f56406c f   olemon.obj
 0001:0006307f       ?Dump@CMonikerFile@@UBEXAAVCDumpContext@@@Z 5f56407f f   olemon.obj
 0001:000630c5       ??0CMonikerFile@@QAE@XZ    5f5640c5 f   olemon.obj
 0001:0006311e       ?GetMoniker@CMonikerFile@@QBEPAUIMoniker@@XZ 5f56411e f   olemon.obj
 0001:00063144       ?GetBinding@CAsyncMonikerFile@@QBEPAUIBinding@@XZ 5f564144 f   olemon.obj
 0001:0006316a       ?SetBinding@CAsyncMonikerFile@@IAEXPAUIBinding@@@Z 5f56416a f   olemon.obj
 0001:00063196       ?SetFormatEtc@CAsyncMonikerFile@@IAEXPAUtagFORMATETC@@@Z 5f564196 f   olemon.obj
 0001:000631bc       ?GetFormatEtc@CAsyncMonikerFile@@QBEPAUtagFORMATETC@@XZ 5f5641bc f   olemon.obj
 0001:000631e0       ??_GCMonikerFile@@UAEPAXI@Z 5f5641e0 f i olemon.obj
 0001:00063210       ??0_AfxBindHost@@QAE@XZ    5f564210 f i olemon.obj
 0001:00063240       ?AddRef@_AfxBindHost@@UAGKXZ 5f564240 f i olemon.obj
 0001:00063260       ?Release@_AfxBindHost@@UAGKXZ 5f564260 f i olemon.obj
 0001:000632b0       ?QueryInterface@_AfxBindHost@@UAGJABU_GUID@@PAPAX@Z 5f5642b0 f i olemon.obj
 0001:00063310       ?CreateMoniker@_AfxBindHost@@UAGJPAGPAUIBindCtx@@PAPAUIMoniker@@K@Z 5f564310 f i olemon.obj
 0001:00063380       ?MonikerBindToStorage@_AfxBindHost@@UAGJPAUIMoniker@@PAUIBindCtx@@PAUIBindStatusCallback@@ABU_GUID@@PAPAX@Z 5f564380 f i olemon.obj
 0001:00063540       ?MonikerBindToObject@_AfxBindHost@@EAGJPAUIMoniker@@PAUIBindCtx@@PAUIBindStatusCallback@@ABU_GUID@@PAPAX@Z 5f564540 f i olemon.obj
 0001:00063580       ??0IBindHost@@QAE@XZ       5f564580 f i olemon.obj
 0001:000635a0       ??_G_AfxBindHost@@QAEPAXI@Z 5f5645a0 f i olemon.obj
 0001:000635d0       ??1_AfxBindHost@@QAE@XZ    5f5645d0 f i olemon.obj
 0001:00063610       ?_AfxTrySPForBindHost@@YGPAUIBindHost@@PAUIServiceProvider@@@Z 5f564610 f i oleasmon.obj
 0001:00063670       ?_AfxTryQIForBindHost@@YGPAUIBindHost@@PAUIUnknown@@@Z 5f564670 f i oleasmon.obj
 0001:00063720       ??0CAsyncMonikerFile@@QAE@XZ 5f564720 f   oleasmon.obj
 0001:0006378b       ??1CAsyncMonikerFile@@UAE@XZ 5f56478b f   oleasmon.obj
 0001:000637eb       ?EndCallbacks@CAsyncMonikerFile@@IAEXXZ 5f5647eb f   oleasmon.obj
 0001:00063856       ?Read@CAsyncMonikerFile@@UAEIPAXI@Z 5f564856 f   oleasmon.obj
 0001:000638e0       ?Close@CAsyncMonikerFile@@UAEXXZ 5f5648e0 f   oleasmon.obj
 0001:0006394d       ?Open@CAsyncMonikerFile@@UAEHPAUIMoniker@@PAUIBindHost@@PAVCFileException@@@Z 5f56494d f   oleasmon.obj
 0001:00063a85       ?Open@CAsyncMonikerFile@@UAEHPBDPAUIBindHost@@PAVCFileException@@@Z 5f564a85 f   oleasmon.obj
 0001:00063bbd       ?Open@CAsyncMonikerFile@@UAEHPBDPAVCFileException@@@Z 5f564bbd f   oleasmon.obj
 0001:00063c36       ?Open@CAsyncMonikerFile@@UAEHPAUIMoniker@@PAVCFileException@@@Z 5f564c36 f   oleasmon.obj
 0001:00063caf       ?Open@CAsyncMonikerFile@@UAEHPBDPAUIServiceProvider@@PAVCFileException@@@Z 5f564caf f   oleasmon.obj
 0001:00063d9e       ?Open@CAsyncMonikerFile@@UAEHPBDPAUIUnknown@@PAVCFileException@@@Z 5f564d9e f   oleasmon.obj
 0001:00063ed7       ?Open@CAsyncMonikerFile@@UAEHPAUIMoniker@@PAUIServiceProvider@@PAVCFileException@@@Z 5f564ed7 f   oleasmon.obj
 0001:00063fcc       ?Open@CAsyncMonikerFile@@UAEHPAUIMoniker@@PAUIUnknown@@PAVCFileException@@@Z 5f564fcc f   oleasmon.obj
 0001:00064110       ?PostBindToStream@CAsyncMonikerFile@@MAEHPAVCFileException@@@Z 5f565110 f   oleasmon.obj
 0001:00064142       ?CreateBindStatusCallback@CAsyncMonikerFile@@MAEPAUIUnknown@@PAU2@@Z 5f565142 f   oleasmon.obj
 0001:00064238       ?GetBindInfo@CAsyncMonikerFile@@MBEKXZ 5f565238 f   oleasmon.obj
 0001:00064248       ?GetPriority@CAsyncMonikerFile@@MBEJXZ 5f565248 f   oleasmon.obj
 0001:00064255       ?OnDataAvailable@CAsyncMonikerFile@@MAEXKK@Z 5f565255 f   oleasmon.obj
 0001:00064262       ?OnLowResource@CAsyncMonikerFile@@MAEXXZ 5f565262 f   oleasmon.obj
 0001:0006426d       ?OnStartBinding@CAsyncMonikerFile@@MAEXXZ 5f56526d f   oleasmon.obj
 0001:00064278       ?OnStopBinding@CAsyncMonikerFile@@MAEXJPBD@Z 5f565278 f   oleasmon.obj
 0001:00064285       ?OnProgress@CAsyncMonikerFile@@MAEXKKKPBD@Z 5f565285 f   oleasmon.obj
 0001:00064292       ?AssertValid@CAsyncMonikerFile@@UBEXXZ 5f565292 f   oleasmon.obj
 0001:00064368       ?Dump@CAsyncMonikerFile@@UBEXAAVCDumpContext@@@Z 5f565368 f   oleasmon.obj
 0001:000644c0       ??_GCAsyncMonikerFile@@UAEPAXI@Z 5f5654c0 f i oleasmon.obj
 0001:000644f0       ?Orphan@_AfxBindStatusCallback@@QAEXXZ 5f5654f0 f i oleasmon.obj
 0001:00064510       ?GetInnerUnknown@_AfxBindStatusCallback@@QAEPAUIUnknown@@XZ 5f565510 f i oleasmon.obj
 0001:00064530       ??1?$CIP@UIUnknown@@$1?IID_IUnknown@@3U_GUID@@B@@QAE@XZ 5f565530 f i oleasmon.obj
 0001:00064550       ??0_AfxBindStatusCallback@@QAE@PAVCAsyncMonikerFile@@PAUIUnknown@@@Z 5f565550 f i oleasmon.obj
 0001:00064620       ??0CInnerUnknown@_AfxBindStatusCallback@@QAE@XZ 5f565620 f i oleasmon.obj
 0001:00064640       ?SetpThis@CInnerUnknown@_AfxBindStatusCallback@@QAEXPAV2@@Z 5f565640 f i oleasmon.obj
 0001:00064680       ?AddRef@CInnerUnknown@_AfxBindStatusCallback@@UAGKXZ 5f565680 f i oleasmon.obj
 0001:000646a0       ?Release@CInnerUnknown@_AfxBindStatusCallback@@UAGKXZ 5f5656a0 f i oleasmon.obj
 0001:00064700       ?QueryInterface@CInnerUnknown@_AfxBindStatusCallback@@UAGJABU_GUID@@PAPAX@Z 5f565700 f i oleasmon.obj
 0001:00064780       ?AddRef@_AfxBindStatusCallback@@UAGKXZ 5f565780 f i oleasmon.obj
 0001:000647a0       ?Release@_AfxBindStatusCallback@@UAGKXZ 5f5657a0 f i oleasmon.obj
 0001:000647c0       ?QueryInterface@_AfxBindStatusCallback@@UAGJABU_GUID@@PAPAX@Z 5f5657c0 f i oleasmon.obj
 0001:000647e0       ?GetBindInfo@_AfxBindStatusCallback@@EAGJPAKPAU_tagBINDINFO@@@Z 5f5657e0 f i oleasmon.obj
 0001:00064940       ?OnStartBinding@_AfxBindStatusCallback@@EAGJKPAUIBinding@@@Z 5f565940 f i oleasmon.obj
 0001:00064a80       ?GetPriority@_AfxBindStatusCallback@@EAGJPAJ@Z 5f565a80 f i oleasmon.obj
 0001:00064bc0       ?OnProgress@_AfxBindStatusCallback@@EAGJKKKPBG@Z 5f565bc0 f i oleasmon.obj
 0001:00064d60       ?OnDataAvailable@_AfxBindStatusCallback@@EAGJKKPAUtagFORMATETC@@PAUtagSTGMEDIUM@@@Z 5f565d60 f i oleasmon.obj
 0001:00064f70       ?OnLowResource@_AfxBindStatusCallback@@EAGJK@Z 5f565f70 f i oleasmon.obj
 0001:000650a0       ?OnStopBinding@_AfxBindStatusCallback@@EAGJJPBG@Z 5f5660a0 f i oleasmon.obj
 0001:00065290       ?OnObjectAvailable@_AfxBindStatusCallback@@EAGJABU_GUID@@PAUIUnknown@@@Z 5f566290 f i oleasmon.obj
 0001:00065320       ??_G_AfxBindStatusCallback@@QAEPAXI@Z 5f566320 f i oleasmon.obj
 0001:00065350       ??1_AfxBindStatusCallback@@QAE@XZ 5f566350 f i oleasmon.obj
 0001:000653b0       ??0IBindStatusCallback@@QAE@XZ 5f5663b0 f i oleasmon.obj
 0001:000653d0       ?GetOwner@_AfxBindStatusCallback@@QBEPBVCAsyncMonikerFile@@XZ 5f5663d0 f i oleasmon.obj
 0001:000653f0       ?GetRefcount@_AfxBindStatusCallback@@QBEKXZ 5f5663f0 f i oleasmon.obj
 0001:00065410       ?GetpThisOfInnerUnknown@_AfxBindStatusCallback@@QBEPBV1@XZ 5f566410 f i oleasmon.obj
 0001:00065430       ?GetModuleState@_AfxBindStatusCallback@@QBEPBVAFX_MODULE_STATE@@XZ 5f566430 f i oleasmon.obj
 0001:00065450       ?GetControllingUnknown@_AfxBindStatusCallback@@QAEPAUIUnknown@@XZ 5f566450 f i oleasmon.obj
 0001:00065470       ??0COleFrameHook@@QAE@PAVCFrameWnd@@PAVCOleClientItem@@@Z 5f566470 f   olecli2.obj
 0001:0006556c       ??1COleFrameHook@@UAE@XZ   5f56656c f   olecli2.obj
 0001:0006560b       ?OnRecalcLayout@COleFrameHook@@UAEXXZ 5f56660b f   olecli2.obj
 0001:0006567c       ?OnDocActivate@COleFrameHook@@UAEHH@Z 5f56667c f   olecli2.obj
 0001:00065788       ?OnContextHelp@COleFrameHook@@UAEHH@Z 5f566788 f   olecli2.obj
 0001:000657d4       ?OnMenuSelect@COleFrameHook@@UAEHIIPAUHMENU__@@@Z 5f5667d4 f   olecli2.obj
 0001:000658c1       ?OnInitMenu@COleFrameHook@@UAEXPAVCMenu@@@Z 5f5668c1 f   olecli2.obj
 0001:000658fa       ?OnInitMenuPopup@COleFrameHook@@UAEHPAVCMenu@@HH@Z 5f5668fa f   olecli2.obj
 0001:00065985       ?OnPreTranslateMessage@COleFrameHook@@UAEHPAUtagMSG@@@Z 5f566985 f   olecli2.obj
 0001:00065a6c       ?OnActivate@COleFrameHook@@UAEXH@Z 5f566a6c f   olecli2.obj
 0001:00065aca       ?OnEnableModeless@COleFrameHook@@UAEXH@Z 5f566aca f   olecli2.obj
 0001:00065b14       ?OnUpdateFrameTitle@COleFrameHook@@UAEHXZ 5f566b14 f   olecli2.obj
 0001:00065b77       ?OnPaletteChanged@COleFrameHook@@UAEXPAVCWnd@@@Z 5f566b77 f   olecli2.obj
 0001:00065bb2       ?OnQueryNewPalette@COleFrameHook@@UAEHXZ 5f566bb2 f   olecli2.obj
 0001:00065be8       ?NotifyAllInPlace@COleFrameHook@@QAEHHP81@AEHH@Z@Z 5f566be8 f   olecli2.obj
 0001:00065d8e       ?DoContextSensitiveHelp@COleFrameHook@@QAEHH@Z 5f566d8e f   olecli2.obj
 0001:00065df6       ?DoEnableModeless@COleFrameHook@@QAEHH@Z 5f566df6 f   olecli2.obj
 0001:00065eae       ?CanActivate@COleClientItem@@MAEHXZ 5f566eae f   olecli2.obj
 0001:00065fb0       ?OnActivate@COleClientItem@@UAEXXZ 5f566fb0 f   olecli2.obj
 0001:00066014       ?OnActivateUI@COleClientItem@@UAEXXZ 5f567014 f   olecli2.obj
 0001:00066163       ?OnShowControlBars@COleClientItem@@UAEHPAVCFrameWnd@@H@Z 5f567163 f   olecli2.obj
 0001:000662b4       ?OnGetWindowContext@COleClientItem@@MAEHPAPAVCFrameWnd@@0PAUtagOIFI@@@Z 5f5672b4 f   olecli2.obj
 0001:000664cb       ?OnScrollBy@COleClientItem@@MAEHVCSize@@@Z 5f5674cb f   olecli2.obj
 0001:00066562       ?OnDeactivateUI@COleClientItem@@UAEXH@Z 5f567562 f   olecli2.obj
 0001:000667bd       ?OnDeactivate@COleClientItem@@UAEXXZ 5f5677bd f   olecli2.obj
 0001:000668d7       ?OnDiscardUndoState@COleClientItem@@MAEXXZ 5f5678d7 f   olecli2.obj
 0001:000668f5       ?OnDeactivateAndUndo@COleClientItem@@MAEXXZ 5f5678f5 f   olecli2.obj
 0001:0006691b       ?OnChangeItemPosition@COleClientItem@@MAEHABVCRect@@@Z 5f56791b f   olecli2.obj
 0001:000669f3       ?OnInsertMenus@COleClientItem@@UAEXPAVCMenu@@PAUtagOleMenuGroupWidths@@@Z 5f5679f3 f   olecli2.obj
 0001:00066ab3       ?OnSetMenu@COleClientItem@@UAEXPAVCMenu@@PAXPAUHWND__@@@Z 5f567ab3 f   olecli2.obj
 0001:00066bd8       ?OnRemoveMenus@COleClientItem@@UAEXPAVCMenu@@@Z 5f567bd8 f   olecli2.obj
 0001:00066c44       ?OnUpdateFrameTitle@COleClientItem@@UAEHXZ 5f567c44 f   olecli2.obj
 0001:00066c64       ?Deactivate@COleClientItem@@QAEXXZ 5f567c64 f   olecli2.obj
 0001:00066d36       ?DeactivateUI@COleClientItem@@QAEXXZ 5f567d36 f   olecli2.obj
 0001:00066e12       ?SetItemRects@COleClientItem@@QAEHPBUtagRECT@@0@Z 5f567e12 f   olecli2.obj
 0001:00066fe1       ?ReactivateAndUndo@COleClientItem@@QAEHXZ 5f567fe1 f   olecli2.obj
 0001:000670b2       ?GetInPlaceWindow@COleClientItem@@QAEPAVCWnd@@XZ 5f5680b2 f   olecli2.obj
 0001:00067172       ?_GetBaseInterfaceMap@COleFrameHook@@KGPBUAFX_INTERFACEMAP@@XZ 5f568172 f   olecli2.obj
 0001:0006717c       ?GetInterfaceMap@COleFrameHook@@MBEPBUAFX_INTERFACEMAP@@XZ 5f56817c f   olecli2.obj
 0001:0006718c       ?GetInterfaceHook@COleFrameHook@@UAEPAUIUnknown@@PBX@Z 5f56818c f   olecli2.obj
 0001:000671f3       ?AddRef@XOleCommandTarget@COleFrameHook@@UAGKXZ 5f5681f3 f   olecli2.obj
 0001:0006720e       ?Release@XOleCommandTarget@COleFrameHook@@UAGKXZ 5f56820e f   olecli2.obj
 0001:00067229       ?QueryInterface@XOleCommandTarget@COleFrameHook@@UAGJABU_GUID@@PAPAX@Z 5f568229 f   olecli2.obj
 0001:0006724c       ?Exec@XOleCommandTarget@COleFrameHook@@UAGJPBU_GUID@@KKPAUtagVARIANT@@1@Z 5f56824c f   olecli2.obj
 0001:000672a8       ?QueryStatus@XOleCommandTarget@COleFrameHook@@UAGJPBU_GUID@@KQAU_tagOLECMD@@PAU_tagOLECMDTEXT@@@Z 5f5682a8 f   olecli2.obj
 0001:00067300       ?AddRef@XOleInPlaceFrame@COleFrameHook@@UAGKXZ 5f568300 f   olecli2.obj
 0001:0006731b       ?Release@XOleInPlaceFrame@COleFrameHook@@UAGKXZ 5f56831b f   olecli2.obj
 0001:00067336       ?QueryInterface@XOleInPlaceFrame@COleFrameHook@@UAGJABU_GUID@@PAPAX@Z 5f568336 f   olecli2.obj
 0001:00067359       ?GetWindow@XOleInPlaceFrame@COleFrameHook@@UAGJPAPAUHWND__@@@Z 5f568359 f   olecli2.obj
 0001:0006738a       ?ContextSensitiveHelp@XOleInPlaceFrame@COleFrameHook@@UAGJH@Z 5f56838a f   olecli2.obj
 0001:000674ab       ?GetBorder@XOleInPlaceFrame@COleFrameHook@@UAGJPAUtagRECT@@@Z 5f5684ab f   olecli2.obj
 0001:000675e1       ?RequestBorderSpace@XOleInPlaceFrame@COleFrameHook@@UAGJPBUtagRECT@@@Z 5f5685e1 f   olecli2.obj
 0001:000676a6       ?SetBorderSpace@XOleInPlaceFrame@COleFrameHook@@UAGJPBUtagRECT@@@Z 5f5686a6 f   olecli2.obj
 0001:0006777a       ?SetActiveObject@XOleInPlaceFrame@COleFrameHook@@UAGJPAUIOleInPlaceActiveObject@@PBG@Z 5f56877a f   olecli2.obj
 0001:000678ce       ?InsertMenus@XOleInPlaceFrame@COleFrameHook@@UAGJPAUHMENU__@@PAUtagOleMenuGroupWidths@@@Z 5f5688ce f   olecli2.obj
 0001:000679e1       ?SetMenu@XOleInPlaceFrame@COleFrameHook@@UAGJPAUHMENU__@@PAXPAUHWND__@@@Z 5f5689e1 f   olecli2.obj
 0001:00067af8       ?RemoveMenus@XOleInPlaceFrame@COleFrameHook@@UAGJPAUHMENU__@@@Z 5f568af8 f   olecli2.obj
 0001:00067c06       ?SetStatusText@XOleInPlaceFrame@COleFrameHook@@UAGJPBG@Z 5f568c06 f   olecli2.obj
 0001:00067c9c       ?EnableModeless@XOleInPlaceFrame@COleFrameHook@@UAGJH@Z 5f568c9c f   olecli2.obj
 0001:00067db6       ?TranslateAcceleratorA@XOleInPlaceFrame@COleFrameHook@@UAGJPAUtagMSG@@G@Z 5f568db6 f   olecli2.obj
 0001:00067f0b       ?AddRef@XOleIPSite@COleClientItem@@UAGKXZ 5f568f0b f   olecli2.obj
 0001:00067f26       ?Release@XOleIPSite@COleClientItem@@UAGKXZ 5f568f26 f   olecli2.obj
 0001:00067f41       ?QueryInterface@XOleIPSite@COleClientItem@@UAGJABU_GUID@@PAPAX@Z 5f568f41 f   olecli2.obj
 0001:00067f64       ?GetWindow@XOleIPSite@COleClientItem@@UAGJPAPAUHWND__@@@Z 5f568f64 f   olecli2.obj
 0001:00067f9a       ?ContextSensitiveHelp@XOleIPSite@COleClientItem@@UAGJH@Z 5f568f9a f   olecli2.obj
 0001:00067fd7       ?CanInPlaceActivate@XOleIPSite@COleClientItem@@UAGJXZ 5f568fd7 f   olecli2.obj
 0001:00068049       ?OnInPlaceActivate@XOleIPSite@COleClientItem@@UAGJXZ 5f569049 f   olecli2.obj
 0001:0006812c       ?OnUIActivate@XOleIPSite@COleClientItem@@UAGJXZ 5f56912c f   olecli2.obj
 0001:0006820f       ?GetWindowContext@XOleIPSite@COleClientItem@@UAGJPAPAUIOleInPlaceFrame@@PAPAUIOleInPlaceUIWindow@@PAUtagRECT@@2PAUtagOIFI@@@Z 5f56920f f   olecli2.obj
 0001:000684d5       ?Scroll@XOleIPSite@COleClientItem@@UAGJUtagSIZE@@@Z 5f5694d5 f   olecli2.obj
 0001:000685e3       ?OnUIDeactivate@XOleIPSite@COleClientItem@@UAGJH@Z 5f5695e3 f   olecli2.obj
 0001:000686ca       ?OnInPlaceDeactivate@XOleIPSite@COleClientItem@@UAGJXZ 5f5696ca f   olecli2.obj
 0001:000687ad       ?DiscardUndoState@XOleIPSite@COleClientItem@@UAGJXZ 5f5697ad f   olecli2.obj
 0001:00068890       ?DeactivateAndUndo@XOleIPSite@COleClientItem@@UAGJXZ 5f569890 f   olecli2.obj
 0001:00068973       ?OnPosRectChange@XOleIPSite@COleClientItem@@UAGJPBUtagRECT@@@Z 5f569973 f   olecli2.obj
 0001:00068a70       ??_GCOleFrameHook@@UAEPAXI@Z 5f569a70 f i olecli2.obj
 0001:00068a70       ??_ECOleFrameHook@@UAEPAXI@Z 5f569a70 f i olecli2.obj
 0001:00068aa0       ??0XOleInPlaceFrame@COleFrameHook@@QAE@XZ 5f569aa0 f i olecli2.obj
 0001:00068ac0       ??0XOleCommandTarget@COleFrameHook@@QAE@XZ 5f569ac0 f i olecli2.obj
 0001:00068ae0       ??0IOleInPlaceFrame@@QAE@XZ 5f569ae0 f i olecli2.obj
 0001:00068b00       ??0IOleCommandTarget@@QAE@XZ 5f569b00 f i olecli2.obj
 0001:00068b20       ??0IOleInPlaceUIWindow@@QAE@XZ 5f569b20 f i olecli2.obj
 0001:00068b40       ??B?$CProcessLocal@V_AFX_OLE_STATE@@@@QAEPAV_AFX_OLE_STATE@@XZ 5f569b40 f i olecli2.obj
 0001:00068b60       ?GetData@?$CProcessLocal@V_AFX_OLE_STATE@@@@QAEPAV_AFX_OLE_STATE@@XZ 5f569b60 f i olecli2.obj
 0001:00068bb0       ?CreateObject@?$CProcessLocal@V_AFX_OLE_STATE@@@@SGPAVCNoTrackObject@@XZ 5f569bb0 f i olecli2.obj
 0001:00068c20       ?_AfxOlePropertiesEnabled@@YGHXZ 5f569c20 f   oledlgs1.obj
 0001:00068c7b       ?_AfxParseDisplayName@@YAJPAUIMoniker@@PAUIBindCtx@@PADPAKPAPAU1@@Z 5f569c7b f   oledlgs1.obj
 0001:00068faf       ??0COleUILinkInfo@@QAE@PAVCOleDocument@@@Z 5f569faf f   oledlgs1.obj
 0001:00069035       ?AddRef@COleUILinkInfo@@UAGKXZ 5f56a035 f   oledlgs1.obj
 0001:0006903e       ?Release@COleUILinkInfo@@UAGKXZ 5f56a03e f   oledlgs1.obj
 0001:00069047       ?QueryInterface@COleUILinkInfo@@UAGJABU_GUID@@PAPAX@Z 5f56a047 f   oledlgs1.obj
 0001:00069053       ?GetNextLink@COleUILinkInfo@@UAGKK@Z 5f56a053 f   oledlgs1.obj
 0001:000690fa       ?SetLinkUpdateOptions@COleUILinkInfo@@UAGJKK@Z 5f56a0fa f   oledlgs1.obj
 0001:0006920d       ?GetLinkUpdateOptions@COleUILinkInfo@@UAGJKPAK@Z 5f56a20d f   oledlgs1.obj
 0001:0006931b       ?SetLinkSource@COleUILinkInfo@@UAGJKPADKPAKH@Z 5f56a31b f   oledlgs1.obj
 0001:00069861       ?GetLinkSource@COleUILinkInfo@@UAGJKPAPADPAK00PAH2@Z 5f56a861 f   oledlgs1.obj
 0001:00069b1e       ?OpenLinkSource@COleUILinkInfo@@UAGJK@Z 5f56ab1e f   oledlgs1.obj
 0001:00069c36       ?UpdateLink@COleUILinkInfo@@UAGJKHH@Z 5f56ac36 f   oledlgs1.obj
 0001:00069d5b       ?CancelLink@COleUILinkInfo@@UAGJK@Z 5f56ad5b f   oledlgs1.obj
 0001:00069e97       ?GetLastUpdate@COleUILinkInfo@@UAGJKPAU_FILETIME@@@Z 5f56ae97 f   oledlgs1.obj
 0001:00069ebc       ??0COleInsertDialog@@QAE@KPAVCWnd@@@Z 5f56aebc f   oledlgs1.obj
 0001:00069fab       ??1COleInsertDialog@@UAE@XZ 5f56afab f   oledlgs1.obj
 0001:0006a003       ?AddClassIDToList@COleInsertDialog@@IAEXAAPAU_GUID@@AAH1PAU2@@Z 5f56b003 f   oledlgs1.obj
 0001:0006a0fb       ?DoModal@COleInsertDialog@@QAEHK@Z 5f56b0fb f   oledlgs1.obj
 0001:0006a616       ?DoModal@COleInsertDialog@@UAEHXZ 5f56b616 f   oledlgs1.obj
 0001:0006a690       ?GetSelectionType@COleInsertDialog@@QBEIXZ 5f56b690 f   oledlgs1.obj
 0001:0006a705       ?CreateItem@COleInsertDialog@@QAEHPAVCOleClientItem@@@Z 5f56b705 f   oledlgs1.obj
 0001:0006a86d       ?Dump@COleInsertDialog@@UBEXAAVCDumpContext@@@Z 5f56b86d f   oledlgs1.obj
 0001:0006a9d5       ??0COleConvertDialog@@QAE@PAVCOleClientItem@@KPAU_GUID@@PAVCWnd@@@Z 5f56b9d5 f   oledlgs1.obj
 0001:0006ac73       ??1COleConvertDialog@@UAE@XZ 5f56bc73 f   oledlgs1.obj
 0001:0006accb       ?DoModal@COleConvertDialog@@UAEHXZ 5f56bccb f   oledlgs1.obj
 0001:0006ad45       ?DoConvert@COleConvertDialog@@QAEHPAVCOleClientItem@@@Z 5f56bd45 f   oledlgs1.obj
 0001:0006af06       ?GetSelectionType@COleConvertDialog@@QBEIXZ 5f56bf06 f   oledlgs1.obj
 0001:0006af6e       ?Dump@COleConvertDialog@@UBEXAAVCDumpContext@@@Z 5f56bf6e f   oledlgs1.obj
 0001:0006b151       ??0COleChangeIconDialog@@QAE@PAVCOleClientItem@@KPAVCWnd@@@Z 5f56c151 f   oledlgs1.obj
 0001:0006b245       ??1COleChangeIconDialog@@UAE@XZ 5f56c245 f   oledlgs1.obj
 0001:0006b29d       ?DoModal@COleChangeIconDialog@@UAEHXZ 5f56c29d f   oledlgs1.obj
 0001:0006b317       ?DoChangeIcon@COleChangeIconDialog@@QAEHPAVCOleClientItem@@@Z 5f56c317 f   oledlgs1.obj
 0001:0006b384       ?Dump@COleChangeIconDialog@@UBEXAAVCDumpContext@@@Z 5f56c384 f   oledlgs1.obj
 0001:0006b4ce       ??0COleLinksDialog@@QAE@PAVCOleDocument@@PAVCView@@KPAVCWnd@@@Z 5f56c4ce f   oledlgs1.obj
 0001:0006b5fc       ??1COleLinksDialog@@UAE@XZ 5f56c5fc f   oledlgs1.obj
 0001:0006b618       ?DoModal@COleLinksDialog@@UAEHXZ 5f56c618 f   oledlgs1.obj
 0001:0006b69f       ?Dump@COleLinksDialog@@UBEXAAVCDumpContext@@@Z 5f56c69f f   oledlgs1.obj
 0001:0006b7cb       ?AssertValid@COleLinksDialog@@UBEXXZ 5f56c7cb f   oledlgs1.obj
 0001:0006b7de       ??0COleUpdateDialog@@QAE@PAVCOleDocument@@HHPAVCWnd@@@Z 5f56c7de f   oledlgs1.obj
 0001:0006b8b4       ??1COleUpdateDialog@@UAE@XZ 5f56c8b4 f   oledlgs1.obj
 0001:0006b90b       ?DoModal@COleUpdateDialog@@UAEHXZ 5f56c90b f   oledlgs1.obj
 0001:0006b9bf       ?Dump@COleUpdateDialog@@UBEXAAVCDumpContext@@@Z 5f56c9bf f   oledlgs1.obj
 0001:0006ba02       ??0COlePasteSpecialDialog@@QAE@KPAVCOleDataObject@@PAVCWnd@@@Z 5f56ca02 f   oledlgs1.obj
 0001:0006bb8a       ??1COlePasteSpecialDialog@@UAE@XZ 5f56cb8a f   oledlgs1.obj
 0001:0006bc8a       ?DoModal@COlePasteSpecialDialog@@UAEHXZ 5f56cc8a f   oledlgs1.obj
 0001:0006bd15       ?GetSelectionType@COlePasteSpecialDialog@@QBEIXZ 5f56cd15 f   oledlgs1.obj
 0001:0006bde3       ?Dump@COlePasteSpecialDialog@@UBEXAAVCDumpContext@@@Z 5f56cde3 f   oledlgs1.obj
 0001:0006bfa5       ?AssertValid@COlePasteSpecialDialog@@UBEXXZ 5f56cfa5 f   oledlgs1.obj
 0001:0006c03c       ?AddLinkEntry@COlePasteSpecialDialog@@QAE?AW4tagOLEUIPASTEFLAG@@I@Z 5f56d03c f   oledlgs1.obj
 0001:0006c10b       ?AddFormat@COlePasteSpecialDialog@@QAEXIKIHH@Z 5f56d10b f   oledlgs1.obj
 0001:0006c2f5       ?AddFormat@COlePasteSpecialDialog@@QAEXABUtagFORMATETC@@PAD1K@Z 5f56d2f5 f   oledlgs1.obj
 0001:0006c3bc       ?AddStandardFormats@COlePasteSpecialDialog@@QAEXH@Z 5f56d3bc f   oledlgs1.obj
 0001:0006c48d       ?CreateItem@COlePasteSpecialDialog@@QAEHPAVCOleClientItem@@@Z 5f56d48d f   oledlgs1.obj
 0001:0006c698       ?GetLastError@COleDialog@@QBEIXZ 5f56d698 f   oledlgs1.obj
 0001:0006c6a9       ?GetPathName@COleInsertDialog@@QBE?AVCString@@XZ 5f56d6a9 f   oledlgs1.obj
 0001:0006c71b       ?GetClassID@COleInsertDialog@@QBEABU_GUID@@XZ 5f56d71b f   oledlgs1.obj
 0001:0006c741       ?GetIconicMetafile@COleInsertDialog@@QBEPAXXZ 5f56d741 f   oledlgs1.obj
 0001:0006c768       ?GetDrawAspect@COleInsertDialog@@QBE?AW4tagDVASPECT@@XZ 5f56d768 f   oledlgs1.obj
 0001:0006c799       ?GetIconicMetafile@COleConvertDialog@@QBEPAXXZ 5f56d799 f   oledlgs1.obj
 0001:0006c7c0       ?GetDrawAspect@COleConvertDialog@@QBE?AW4tagDVASPECT@@XZ 5f56d7c0 f   oledlgs1.obj
 0001:0006c7e7       ?GetClassID@COleConvertDialog@@QBEABU_GUID@@XZ 5f56d7e7 f   oledlgs1.obj
 0001:0006c80d       ?GetIconicMetafile@COleChangeIconDialog@@QBEPAXXZ 5f56d80d f   oledlgs1.obj
 0001:0006c834       ?GetPasteIndex@COlePasteSpecialDialog@@QBEHXZ 5f56d834 f   oledlgs1.obj
 0001:0006c85b       ?GetDrawAspect@COlePasteSpecialDialog@@QBE?AW4tagDVASPECT@@XZ 5f56d85b f   oledlgs1.obj
 0001:0006c88c       ?GetIconicMetafile@COlePasteSpecialDialog@@QBEPAXXZ 5f56d88c f   oledlgs1.obj
 0001:0006c8b3       ?GetSelectionType@COleBusyDialog@@QBEIXZ 5f56d8b3 f   oledlgs1.obj
 0001:0006c8da       ?IsValidSource@COleChangeSourceDialog@@QAEHXZ 5f56d8da f   oledlgs1.obj
 0001:0006c8ee       ?GetDisplayName@COleChangeSourceDialog@@QAE?AVCString@@XZ 5f56d8ee f   oledlgs1.obj
 0001:0006c922       ?GetFileName@COleChangeSourceDialog@@QAE?AVCString@@XZ 5f56d922 f   oledlgs1.obj
 0001:0006c960       ?GetItemName@COleChangeSourceDialog@@QAE?AVCString@@XZ 5f56d960 f   oledlgs1.obj
 0001:0006c99c       ?GetFromPrefix@COleChangeSourceDialog@@QAE?AVCString@@XZ 5f56d99c f   oledlgs1.obj
 0001:0006c9d0       ?GetToPrefix@COleChangeSourceDialog@@QAE?AVCString@@XZ 5f56d9d0 f   oledlgs1.obj
 0001:0006ca10       ??0IOleUILinkInfoA@@QAE@XZ 5f56da10 f i oledlgs1.obj
 0001:0006ca30       ??0IOleUILinkContainerA@@QAE@XZ 5f56da30 f i oledlgs1.obj
 0001:0006ca50       ??_GCOleInsertDialog@@UAEPAXI@Z 5f56da50 f i oledlgs1.obj
 0001:0006ca50       ??_ECOleInsertDialog@@UAEPAXI@Z 5f56da50 f i oledlgs1.obj
 0001:0006ca80       ??1COleDialog@@UAE@XZ      5f56da80 f i oledlgs1.obj
 0001:0006caa0       ??1CCommonDialog@@UAE@XZ   5f56daa0 f i oledlgs1.obj
 0001:0006cac0       ??_GCOleConvertDialog@@UAEPAXI@Z 5f56dac0 f i oledlgs1.obj
 0001:0006cac0       ??_ECOleConvertDialog@@UAEPAXI@Z 5f56dac0 f i oledlgs1.obj
 0001:0006caf0       ??_ECOleChangeIconDialog@@UAEPAXI@Z 5f56daf0 f i oledlgs1.obj
 0001:0006caf0       ??_GCOleChangeIconDialog@@UAEPAXI@Z 5f56daf0 f i oledlgs1.obj
 0001:0006cb20       ??_ECOleLinksDialog@@UAEPAXI@Z 5f56db20 f i oledlgs1.obj
 0001:0006cb20       ??_GCOleLinksDialog@@UAEPAXI@Z 5f56db20 f i oledlgs1.obj
 0001:0006cb50       ??_GCOleUpdateDialog@@UAEPAXI@Z 5f56db50 f i oledlgs1.obj
 0001:0006cb50       ??_ECOleUpdateDialog@@UAEPAXI@Z 5f56db50 f i oledlgs1.obj
 0001:0006cb80       ??_ECOlePasteSpecialDialog@@UAEPAXI@Z 5f56db80 f i oledlgs1.obj
 0001:0006cb80       ??_GCOlePasteSpecialDialog@@UAEPAXI@Z 5f56db80 f i oledlgs1.obj
 0001:0006cbb0       ?AfxOleHookProc@@YGIPAUHWND__@@IIJ@Z 5f56dbb0 f   oledlgs2.obj
 0001:0006cc0d       ??0COleDialog@@QAE@PAVCWnd@@@Z 5f56dc0d f   oledlgs2.obj
 0001:0006cc3c       ?MapResult@COleDialog@@QAEHI@Z 5f56dc3c f   oledlgs2.obj
 0001:0006cc6f       ?Dump@COleDialog@@UBEXAAVCDumpContext@@@Z 5f56dc6f f   oledlgs2.obj
 0001:0006ccb0       ??0COleBusyDialog@@QAE@PAUHTASK__@@HKPAVCWnd@@@Z 5f56dcb0 f   oledlgs2.obj
 0001:0006cd63       ??1COleBusyDialog@@UAE@XZ  5f56dd63 f   oledlgs2.obj
 0001:0006cd7f       ?DoModal@COleBusyDialog@@UAEHXZ 5f56dd7f f   oledlgs2.obj
 0001:0006ce4a       ?Dump@COleBusyDialog@@UBEXAAVCDumpContext@@@Z 5f56de4a f   oledlgs2.obj
 0001:0006cfa0       ??_ECOleDialog@@UAEPAXI@Z  5f56dfa0 f i oledlgs2.obj
 0001:0006cfa0       ??_GCOleDialog@@UAEPAXI@Z  5f56dfa0 f i oledlgs2.obj
 0001:0006cfd0       ??_GCOleBusyDialog@@UAEPAXI@Z 5f56dfd0 f i oledlgs2.obj
 0001:0006cfd0       ??_ECOleBusyDialog@@UAEPAXI@Z 5f56dfd0 f i oledlgs2.obj
 0001:0006d000       ??0COlePropertiesDialog@@QAE@PAVCOleClientItem@@IIPAVCWnd@@@Z 5f56e000 f   oledlgs3.obj
 0001:0006d249       ?DoModal@COlePropertiesDialog@@UAEHXZ 5f56e249 f   oledlgs3.obj
 0001:0006d33c       ?OnInitDialog@COlePropertiesDialog@@UAEHXZ 5f56e33c f   oledlgs3.obj
 0001:0006d372       ?AddRef@XOleUIObjInfo@COlePropertiesDialog@@UAGKXZ 5f56e372 f   oledlgs3.obj
 0001:0006d37b       ?Release@XOleUIObjInfo@COlePropertiesDialog@@UAGKXZ 5f56e37b f   oledlgs3.obj
 0001:0006d384       ?QueryInterface@XOleUIObjInfo@COlePropertiesDialog@@UAGJABU_GUID@@PAPAX@Z 5f56e384 f   oledlgs3.obj
 0001:0006d390       ?GetObjectInfo@XOleUIObjInfo@COlePropertiesDialog@@UAGJKPAKPAPAD111@Z 5f56e390 f   oledlgs3.obj
 0001:0006d70a       ?GetConvertInfo@XOleUIObjInfo@COlePropertiesDialog@@UAGJKPAU_GUID@@PAG0PAPAU3@PAI@Z 5f56e70a f   oledlgs3.obj
 0001:0006d794       ?ConvertObject@XOleUIObjInfo@COlePropertiesDialog@@UAGJKABU_GUID@@@Z 5f56e794 f   oledlgs3.obj
 0001:0006d7e1       ?GetViewInfo@XOleUIObjInfo@COlePropertiesDialog@@UAGJKPAPAXPAKPAH@Z 5f56e7e1 f   oledlgs3.obj
 0001:0006d83b       ?SetViewInfo@XOleUIObjInfo@COlePropertiesDialog@@UAGJKPAXKHH@Z 5f56e83b f   oledlgs3.obj
 0001:0006d90b       ?OnApplyScale@COlePropertiesDialog@@UAEHPAVCOleClientItem@@HH@Z 5f56e90b f   oledlgs3.obj
 0001:0006d91a       ?Dump@COlePropertiesDialog@@UBEXAAVCDumpContext@@@Z 5f56e91a f   oledlgs3.obj
 0001:0006d933       ?AssertValid@COlePropertiesDialog@@UBEXXZ 5f56e933 f   oledlgs3.obj
 0001:0006d9e1       ??0COleChangeSourceDialog@@QAE@PAVCOleClientItem@@PAVCWnd@@@Z 5f56e9e1 f   oledlgs3.obj
 0001:0006dac7       ?DoModal@COleChangeSourceDialog@@UAEHXZ 5f56eac7 f   oledlgs3.obj
 0001:0006db41       ?PreInitDialog@COleChangeSourceDialog@@UAEXXZ 5f56eb41 f   oledlgs3.obj
 0001:0006db67       ??1COleChangeSourceDialog@@UAE@XZ 5f56eb67 f   oledlgs3.obj
 0001:0006dbb3       ?Dump@COleChangeSourceDialog@@UBEXAAVCDumpContext@@@Z 5f56ebb3 f   oledlgs3.obj
 0001:0006dcdf       ?AssertValid@COleChangeSourceDialog@@UBEXXZ 5f56ecdf f   oledlgs3.obj
 0001:0006dd40       ??_GCOlePropertiesDialog@@UAEPAXI@Z 5f56ed40 f i oledlgs3.obj
 0001:0006dd40       ??_ECOlePropertiesDialog@@UAEPAXI@Z 5f56ed40 f i oledlgs3.obj
 0001:0006dd70       ??0XOleUIObjInfo@COlePropertiesDialog@@QAE@XZ 5f56ed70 f i oledlgs3.obj
 0001:0006dd90       ??1COlePropertiesDialog@@UAE@XZ 5f56ed90 f i oledlgs3.obj
 0001:0006ddb0       ??0IOleUIObjInfoA@@QAE@XZ  5f56edb0 f i oledlgs3.obj
 0001:0006ddd0       ??_GCOleChangeSourceDialog@@UAEPAXI@Z 5f56edd0 f i oledlgs3.obj
 0001:0006ddd0       ??_ECOleChangeSourceDialog@@UAEPAXI@Z 5f56edd0 f i oledlgs3.obj
 0001:0006de00       ?ReportError@COleClientItem@@UBEHJ@Z 5f56ee00 f   oleui1.obj
 0001:0006deba       ?DoVerb@COleClientItem@@UAEHJPAVCView@@PAUtagMSG@@@Z 5f56eeba f   oleui1.obj
 0001:0006e039       ?OnCmdMsg@COleDocument@@UAEHIHPAXPAUAFX_CMDHANDLERINFO@@@Z 5f56f039 f   oleui1.obj
 0001:0006e12c       ?GetPrimarySelectedItem@COleDocument@@UAEPAVCOleClientItem@@PAVCView@@@Z 5f56f12c f   oleui1.obj
 0001:0006e1d6       ?GetInPlaceActiveItem@COleDocument@@UAEPAVCOleClientItem@@PAVCWnd@@@Z 5f56f1d6 f   oleui1.obj
 0001:0006e2c0       ?AfxOleSetEditMenu@@YGXPAVCOleClientItem@@PAVCMenu@@IIII@Z 5f56f2c0 f   oleui2.obj
 0001:0006e396       ?OnUpdatePasteMenu@COleDocument@@IAEXPAVCCmdUI@@@Z 5f56f396 f   oleui2.obj
 0001:0006e3b3       ?OnUpdatePasteLinkMenu@COleDocument@@IAEXPAVCCmdUI@@@Z 5f56f3b3 f   oleui2.obj
 0001:0006e3d0       ?OnUpdateEditLinksMenu@COleDocument@@IAEXPAVCCmdUI@@@Z 5f56f3d0 f   oleui2.obj
 0001:0006e42e       ?OnEditLinks@COleDocument@@IAEXXZ 5f56f42e f   oleui2.obj
 0001:0006e4b3       ?OnEditConvert@COleDocument@@IAEXXZ 5f56f4b3 f   oleui2.obj
 0001:0006e56a       ?OnUpdateEditChangeIcon@COleDocument@@IAEXPAVCCmdUI@@@Z 5f56f56a f   oleui2.obj
 0001:0006e5ac       ?OnEditChangeIcon@COleDocument@@IAEXXZ 5f56f5ac f   oleui2.obj
 0001:0006e661       ?OnUpdateObjectVerbMenu@COleDocument@@IAEXPAVCCmdUI@@@Z 5f56f661 f   oleui2.obj
 0001:0006e730       ??0COleDataObject@@QAE@XZ  5f56f730 f   oledobj1.obj
 0001:0006e765       ?Attach@COleDataObject@@QAEXPAUIDataObject@@H@Z 5f56f765 f   oledobj1.obj
 0001:0006e7ae       ?Release@COleDataObject@@QAEXXZ 5f56f7ae f   oledobj1.obj
 0001:0006e818       ?Detach@COleDataObject@@QAEPAUIDataObject@@XZ 5f56f818 f   oledobj1.obj
 0001:0006e84b       ?GetIDataObject@COleDataObject@@QAEPAUIDataObject@@H@Z 5f56f84b f   oledobj1.obj
 0001:0006e885       ?BeginEnumFormats@COleDataObject@@QAEXXZ 5f56f885 f   oledobj1.obj
 0001:0006e93f       ?GetNextFormat@COleDataObject@@QAEHPAUtagFORMATETC@@@Z 5f56f93f f   oledobj1.obj
 0001:0006ea08       ?GetFileData@COleDataObject@@QAEPAVCFile@@GPAUtagFORMATETC@@@Z 5f56fa08 f   oledobj1.obj
 0001:0006ee46       ?GetGlobalData@COleDataObject@@QAEPAXGPAUtagFORMATETC@@@Z 5f56fe46 f   oledobj1.obj
 0001:0006efb9       ?GetData@COleDataObject@@QAEHGPAUtagSTGMEDIUM@@PAUtagFORMATETC@@@Z 5f56ffb9 f   oledobj1.obj
 0001:0006f077       ?IsDataAvailable@COleDataObject@@QAEHGPAUtagFORMATETC@@@Z 5f570077 f   oledobj1.obj
 0001:0006f12b       ?AttachClipboard@COleDataObject@@QAEHXZ 5f57012b f   oledobj1.obj
 0001:0006f1bb       ?EnsureClipboardObject@COleDataObject@@QAEXXZ 5f5701bb f   oledobj1.obj
 0001:0006f230       ??0COleDataSource@@QAE@XZ  5f570230 f   oledobj2.obj
 0001:0006f2af       ??1COleDataSource@@UAE@XZ  5f5702af f   oledobj2.obj
 0001:0006f324       ?Empty@COleDataSource@@QAEXXZ 5f570324 f   oledobj2.obj
 0001:0006f464       ?SetClipboard@COleDataSource@@QAEXXZ 5f570464 f   oledobj2.obj
 0001:0006f4f0       ?FlushClipboard@COleDataSource@@SGXXZ 5f5704f0 f   oledobj2.obj
 0001:0006f52a       ?GetClipboardOwner@COleDataSource@@SGPAV1@XZ 5f57052a f   oledobj2.obj
 0001:0006f596       ?GetCacheEntry@COleDataSource@@IAEPAUAFX_DATACACHE_ENTRY@@PAUtagFORMATETC@@W4tagDATADIR@@@Z 5f570596 f   oledobj2.obj
 0001:0006f724       ?CacheGlobalData@COleDataSource@@QAEXGPAXPAUtagFORMATETC@@@Z 5f570724 f   oledobj2.obj
 0001:0006f7d7       ?CacheData@COleDataSource@@QAEXGPAUtagSTGMEDIUM@@PAUtagFORMATETC@@@Z 5f5707d7 f   oledobj2.obj
 0001:0006f903       ?DelayRenderFileData@COleDataSource@@QAEXGPAUtagFORMATETC@@@Z 5f570903 f   oledobj2.obj
 0001:0006f99b       ?DelayRenderData@COleDataSource@@QAEXGPAUtagFORMATETC@@@Z 5f57099b f   oledobj2.obj
 0001:0006fa40       ?DelaySetData@COleDataSource@@QAEXGPAUtagFORMATETC@@@Z 5f570a40 f   oledobj2.obj
 0001:0006faca       ?Lookup@COleDataSource@@IBEPAUAFX_DATACACHE_ENTRY@@PAUtagFORMATETC@@W4tagDATADIR@@@Z 5f570aca f   oledobj2.obj
 0001:0006fbd6       ?OnRenderGlobalData@COleDataSource@@UAEHPAUtagFORMATETC@@PAPAX@Z 5f570bd6 f   oledobj2.obj
 0001:0006fbe5       ?OnRenderFileData@COleDataSource@@UAEHPAUtagFORMATETC@@PAVCFile@@@Z 5f570be5 f   oledobj2.obj
 0001:0006fbf4       ?OnRenderData@COleDataSource@@UAEHPAUtagFORMATETC@@PAUtagSTGMEDIUM@@@Z 5f570bf4 f   oledobj2.obj
 0001:0006fe80       ?OnSetData@COleDataSource@@UAEHPAUtagFORMATETC@@PAUtagSTGMEDIUM@@H@Z 5f570e80 f   oledobj2.obj
 0001:0006fe8f       ?_GetBaseInterfaceMap@CEnumFormatEtc@@KGPBUAFX_INTERFACEMAP@@XZ 5f570e8f f   oledobj2.obj
 0001:0006fe99       ?GetInterfaceMap@CEnumFormatEtc@@MBEPBUAFX_INTERFACEMAP@@XZ 5f570e99 f   oledobj2.obj
 0001:0006fea9       ??0CEnumFormatEtc@@QAE@XZ  5f570ea9 f   oledobj2.obj
 0001:0006feda       ??1CEnumFormatEtc@@UAE@XZ  5f570eda f   oledobj2.obj
 0001:0006ff3d       ?OnNext@CEnumFormatEtc@@MAEHPAX@Z 5f570f3d f   oledobj2.obj
 0001:0006ff94       ?AddFormat@CEnumFormatEtc@@QAEXPBUtagFORMATETC@@@Z 5f570f94 f   oledobj2.obj
 0001:000700d8       ?_GetBaseInterfaceMap@COleDataSource@@KGPBUAFX_INTERFACEMAP@@XZ 5f5710d8 f   oledobj2.obj
 0001:000700e2       ?GetInterfaceMap@COleDataSource@@MBEPBUAFX_INTERFACEMAP@@XZ 5f5710e2 f   oledobj2.obj
 0001:000700f2       ?AddRef@XDataObject@COleDataSource@@UAGKXZ 5f5710f2 f   oledobj2.obj
 0001:0007010d       ?Release@XDataObject@COleDataSource@@UAGKXZ 5f57110d f   oledobj2.obj
 0001:00070128       ?QueryInterface@XDataObject@COleDataSource@@UAGJABU_GUID@@PAPAX@Z 5f571128 f   oledobj2.obj
 0001:0007014b       ?GetData@XDataObject@COleDataSource@@UAGJPAUtagFORMATETC@@PAUtagSTGMEDIUM@@@Z 5f57114b f   oledobj2.obj
 0001:000702f3       ?GetDataHere@XDataObject@COleDataSource@@UAGJPAUtagFORMATETC@@PAUtagSTGMEDIUM@@@Z 5f5712f3 f   oledobj2.obj
 0001:000704e4       ?QueryGetData@XDataObject@COleDataSource@@UAGJPAUtagFORMATETC@@@Z 5f5714e4 f   oledobj2.obj
 0001:00070519       ?GetCanonicalFormatEtc@XDataObject@COleDataSource@@UAGJPAUtagFORMATETC@@0@Z 5f571519 f   oledobj2.obj
 0001:00070525       ?SetData@XDataObject@COleDataSource@@UAGJPAUtagFORMATETC@@PAUtagSTGMEDIUM@@H@Z 5f571525 f   oledobj2.obj
 0001:000706ab       ?EnumFormatEtc@XDataObject@COleDataSource@@UAGJKPAPAUIEnumFORMATETC@@@Z 5f5716ab f   oledobj2.obj
 0001:00070804       ?DAdvise@XDataObject@COleDataSource@@UAGJPAUtagFORMATETC@@KPAUIAdviseSink@@PAK@Z 5f571804 f   oledobj2.obj
 0001:00070819       ?DUnadvise@XDataObject@COleDataSource@@UAGJK@Z 5f571819 f   oledobj2.obj
 0001:00070825       ?EnumDAdvise@XDataObject@COleDataSource@@UAGJPAPAUIEnumSTATDATA@@@Z 5f571825 f   oledobj2.obj
 0001:0007083a       ?AssertValid@COleDataSource@@UBEXXZ 5f57183a f   oledobj2.obj
 0001:000708a7       ?Dump@COleDataSource@@UBEXAAVCDumpContext@@@Z 5f5718a7 f   oledobj2.obj
 0001:00070a50       ??_GCOleDataSource@@UAEPAXI@Z 5f571a50 f i oledobj2.obj
 0001:00070a80       ??0XDataObject@COleDataSource@@QAE@XZ 5f571a80 f i oledobj2.obj
 0001:00070aa0       ??_ECEnumFormatEtc@@UAEPAXI@Z 5f571aa0 f i oledobj2.obj
 0001:00070aa0       ??_GCEnumFormatEtc@@UAEPAXI@Z 5f571aa0 f i oledobj2.obj
 0001:00070ad0       ??C?$CProcessLocal@V_AFX_OLE_STATE@@@@QAEPAV_AFX_OLE_STATE@@XZ 5f571ad0 f i oledobj2.obj
 0001:00070af0       ??0CEnumArray@@QAE@IPBXIH@Z 5f571af0 f   oleenum.obj
 0001:00070b91       ??1CEnumArray@@UAE@XZ      5f571b91 f   oleenum.obj
 0001:00070c64       ?OnNext@CEnumArray@@MAEHPAX@Z 5f571c64 f   oleenum.obj
 0001:00070cd0       ?OnSkip@CEnumArray@@MAEHXZ 5f571cd0 f   oleenum.obj
 0001:00070d1c       ?OnReset@CEnumArray@@MAEXXZ 5f571d1c f   oleenum.obj
 0001:00070d41       ?OnClone@CEnumArray@@MAEPAV1@XZ 5f571d41 f   oleenum.obj
 0001:00070e3b       ?AddRef@XEnumVOID@CEnumArray@@UAGKXZ 5f571e3b f   oleenum.obj
 0001:00070e56       ?Release@XEnumVOID@CEnumArray@@UAGKXZ 5f571e56 f   oleenum.obj
 0001:00070e71       ?QueryInterface@XEnumVOID@CEnumArray@@UAGJABU_GUID@@PAPAX@Z 5f571e71 f   oleenum.obj
 0001:00070e94       ?Next@XEnumVOID@CEnumArray@@UAGJKPAXPAK@Z 5f571e94 f   oleenum.obj
 0001:00071015       ?Skip@XEnumVOID@CEnumArray@@UAGJK@Z 5f572015 f   oleenum.obj
 0001:0007111f       ?Reset@XEnumVOID@CEnumArray@@UAGJXZ 5f57211f f   oleenum.obj
 0001:000711a0       ?Clone@XEnumVOID@CEnumArray@@UAGJPAPAUIEnumVOID@@@Z 5f5721a0 f   oleenum.obj
 0001:000712e0       ??_ECEnumArray@@UAEPAXI@Z  5f5722e0 f i oleenum.obj
 0001:000712e0       ??_GCEnumArray@@UAEPAXI@Z  5f5722e0 f i oleenum.obj
 0001:00071310       ??0XEnumVOID@CEnumArray@@QAE@XZ 5f572310 f i oleenum.obj
 0001:00071330       ??0IEnumVOID@@QAE@XZ       5f572330 f i oleenum.obj
 0001:00071350       ?_GetBaseInterfaceMap@COleObjectFactory@@KGPBUAFX_INTERFACEMAP@@XZ 5f572350 f   olefact.obj
 0001:0007135a       ?GetInterfaceMap@COleObjectFactory@@MBEPBUAFX_INTERFACEMAP@@XZ 5f57235a f   olefact.obj
 0001:0007136a       ?UpdateRegistry@COleObjectFactory@@QAEXPBD@Z 5f57236a f   olefact.obj
 0001:000713f8       ?UpdateRegistryAll@COleObjectFactory@@SGHH@Z 5f5723f8 f   olefact.obj
 0001:000714cf       ?OnCreateObject@COleObjectFactory@@MAEPAVCCmdTarget@@XZ 5f5724cf f   olefact.obj
 0001:0007157f       ?IsLicenseValid@COleObjectFactory@@QAEHXZ 5f57257f f   olefact.obj
 0001:000715b8       ?UpdateRegistry@COleObjectFactory@@MAEHH@Z 5f5725b8 f   olefact.obj
 0001:000715da       ?VerifyUserLicense@COleObjectFactory@@MAEHXZ 5f5725da f   olefact.obj
 0001:000715ea       ?GetLicenseKey@COleObjectFactory@@MAEHKPAPAG@Z 5f5725ea f   olefact.obj
 0001:000715f9       ?VerifyLicenseKey@COleObjectFactory@@MAEHPAG@Z 5f5725f9 f   olefact.obj
 0001:0007169f       ?AddRef@XClassFactory@COleObjectFactory@@UAGKXZ 5f57269f f   olefact.obj
 0001:000716ba       ?Release@XClassFactory@COleObjectFactory@@UAGKXZ 5f5726ba f   olefact.obj
 0001:000716d5       ?QueryInterface@XClassFactory@COleObjectFactory@@UAGJABU_GUID@@PAPAX@Z 5f5726d5 f   olefact.obj
 0001:000716f8       ?CreateInstance@XClassFactory@COleObjectFactory@@UAGJPAUIUnknown@@ABU_GUID@@PAPAX@Z 5f5726f8 f   olefact.obj
 0001:0007171b       ?LockServer@XClassFactory@COleObjectFactory@@UAGJH@Z 5f57271b f   olefact.obj
 0001:00071802       ?GetLicInfo@XClassFactory@COleObjectFactory@@UAGJPAUtagLICINFO@@@Z 5f572802 f   olefact.obj
 0001:000718b4       ?RequestLicKey@XClassFactory@COleObjectFactory@@UAGJKPAPAG@Z 5f5728b4 f   olefact.obj
 0001:000719b2       ?CreateInstanceLic@XClassFactory@COleObjectFactory@@UAGJPAUIUnknown@@0ABU_GUID@@PAGPAPAX@Z 5f5729b2 f   olefact.obj
 0001:00071c39       ?AssertValid@COleObjectFactory@@UBEXXZ 5f572c39 f   olefact.obj
 0001:00071cf5       ?Dump@COleObjectFactory@@UBEXAAVCDumpContext@@@Z 5f572cf5 f   olefact.obj
 0001:00071ea0       ??0COleCntrFrameWnd@@QAE@PAVCOleIPFrameWnd@@@Z 5f572ea0 f   oleipfrm.obj
 0001:00071f02       ??1COleCntrFrameWnd@@UAE@XZ 5f572f02 f   oleipfrm.obj
 0001:00071f5b       ?RecalcLayout@COleCntrFrameWnd@@UAEXH@Z 5f572f5b f   oleipfrm.obj
 0001:000720a6       ?OnIdleUpdateCmdUI@COleCntrFrameWnd@@QAEXXZ 5f5730a6 f   oleipfrm.obj
 0001:00072154       ?OnCmdMsg@COleCntrFrameWnd@@UAEHIHPAXPAUAFX_CMDHANDLERINFO@@@Z 5f573154 f   oleipfrm.obj
 0001:000721e7       ?PostNcDestroy@COleCntrFrameWnd@@MAEXXZ 5f5731e7 f   oleipfrm.obj
 0001:000721f2       ?AssertValid@COleCntrFrameWnd@@UBEXXZ 5f5731f2 f   oleipfrm.obj
 0001:00072234       ?_GetBaseMessageMap@COleIPFrameWnd@@KGPBUAFX_MSGMAP@@XZ 5f573234 f   oleipfrm.obj
 0001:0007223e       ?GetMessageMap@COleIPFrameWnd@@MBEPBUAFX_MSGMAP@@XZ 5f57323e f   oleipfrm.obj
 0001:0007224e       ??0COleIPFrameWnd@@QAE@XZ  5f57324e f   oleipfrm.obj
 0001:00072370       ??1COleIPFrameWnd@@UAE@XZ  5f573370 f   oleipfrm.obj
 0001:000724ba       ?OnCreate@COleIPFrameWnd@@IAEHPAUtagCREATESTRUCTA@@@Z 5f5734ba f   oleipfrm.obj
 0001:00072534       ?OnDestroy@COleIPFrameWnd@@IAEXXZ 5f573534 f   oleipfrm.obj
 0001:000725db       ?OnCreateControlBars@COleIPFrameWnd@@UAEHPAVCWnd@@0@Z 5f5735db f   oleipfrm.obj
 0001:00072613       ?OnCreateControlBars@COleIPFrameWnd@@UAEHPAVCFrameWnd@@0@Z 5f573613 f   oleipfrm.obj
 0001:00072636       ?OnIdleUpdateCmdUI@COleIPFrameWnd@@IAEXXZ 5f573636 f   oleipfrm.obj
 0001:00072675       ?OnWindowPosChanging@COleIPFrameWnd@@IAEXPAUtagWINDOWPOS@@@Z 5f573675 f   oleipfrm.obj
 0001:000726c2       ?OnSetMessageString@COleIPFrameWnd@@UAEJIJ@Z 5f5736c2 f   oleipfrm.obj
 0001:0007283a       ?LoadFrame@COleIPFrameWnd@@UAEHIKPAVCWnd@@PAUCCreateContext@@@Z 5f57383a f   oleipfrm.obj
 0001:00072920       ?OnSize@COleIPFrameWnd@@IAEXIHH@Z 5f573920 f   oleipfrm.obj
 0001:0007292d       ?OnResizeChild@COleIPFrameWnd@@IAEJIJ@Z 5f57392d f   oleipfrm.obj
 0001:00072a9e       ?OnRequestPositionChange@COleIPFrameWnd@@MAEXPBUtagRECT@@@Z 5f573a9e f   oleipfrm.obj
 0001:00072b1c       ?OnRecalcParent@COleIPFrameWnd@@IAEJIJ@Z 5f573b1c f   oleipfrm.obj
 0001:00072b77       ?RecalcLayout@COleIPFrameWnd@@UAEXH@Z 5f573b77 f   oleipfrm.obj
 0001:00072d9e       ?RepositionFrame@COleIPFrameWnd@@UAEXPBUtagRECT@@0@Z 5f573d9e f   oleipfrm.obj
 0001:00072e63       ?PreTranslateMessage@COleIPFrameWnd@@UAEHPAUtagMSG@@@Z 5f573e63 f   oleipfrm.obj
 0001:00072f25       ?OnUpdateControlBarMenu@COleIPFrameWnd@@IAEXPAVCCmdUI@@@Z 5f573f25 f   oleipfrm.obj
 0001:00072fcd       ?OnBarCheck@COleIPFrameWnd@@IAEHI@Z 5f573fcd f   oleipfrm.obj
 0001:00073066       ?OnContextHelp@COleIPFrameWnd@@IAEXXZ 5f574066 f   oleipfrm.obj
 0001:000731ae       ?GetInPlaceMenu@COleIPFrameWnd@@MAEPAUHMENU__@@XZ 5f5741ae f   oleipfrm.obj
 0001:00073203       ?BuildSharedMenu@COleIPFrameWnd@@MAEHXZ 5f574203 f   oleipfrm.obj
 0001:000733aa       ?DestroySharedMenu@COleIPFrameWnd@@MAEXXZ 5f5743aa f   oleipfrm.obj
 0001:000734ef       ?AssertValid@COleIPFrameWnd@@UBEXXZ 5f5744ef f   oleipfrm.obj
 0001:00073542       ?Dump@COleIPFrameWnd@@UBEXAAVCDumpContext@@@Z 5f574542 f   oleipfrm.obj
 0001:00073640       ??_ECOleCntrFrameWnd@@UAEPAXI@Z 5f574640 f i oleipfrm.obj
 0001:00073640       ??_GCOleCntrFrameWnd@@UAEPAXI@Z 5f574640 f i oleipfrm.obj
 0001:00073670       ??_GCOleIPFrameWnd@@UAEPAXI@Z 5f574670 f i oleipfrm.obj
 0001:000736a0       ??0COleLinkingDoc@@QAE@XZ  5f5746a0 f   olelink.obj
 0001:00073778       ??1COleLinkingDoc@@UAE@XZ  5f574778 f   olelink.obj
 0001:0007384a       ?GetMoniker@COleLinkingDoc@@UAEPAUIMoniker@@W4tagOLEGETMONIKER@@@Z 5f57484a f   olelink.obj
 0001:0007390f       ?Register@COleLinkingDoc@@QAEHPAVCOleObjectFactory@@PBD@Z 5f57490f f   olelink.obj
 0001:00073c60       ?Revoke@COleLinkingDoc@@QAEXXZ 5f574c60 f   olelink.obj
 0001:00073d1e       ?OnNewDocument@COleLinkingDoc@@UAEHXZ 5f574d1e f   olelink.obj
 0001:00073d72       ?OnOpenDocument@COleLinkingDoc@@UAEHPBD@Z 5f574d72 f   olelink.obj
 0001:00073e45       ?OnSaveDocument@COleLinkingDoc@@UAEHPBD@Z 5f574e45 f   olelink.obj
 0001:00073eca       ?OnCloseDocument@COleLinkingDoc@@UAEXXZ 5f574eca f   olelink.obj
 0001:00073f84       ?UpdateVisibleLock@COleLinkingDoc@@IAEXHH@Z 5f574f84 f   olelink.obj
 0001:00073fde       ?OnShowViews@COleLinkingDoc@@MAEXH@Z 5f574fde f   olelink.obj
 0001:00073fff       ?SaveToStorage@COleLinkingDoc@@MAEXPAVCObject@@@Z 5f574fff f   olelink.obj
 0001:00074095       ?RegisterIfServerAttached@COleLinkingDoc@@MAEHPBDH@Z 5f575095 f   olelink.obj
 0001:0007418e       ?GetContainer@COleLinkingDoc@@UAEPAUIOleItemContainer@@XZ 5f57518e f   olelink.obj
 0001:000741c2       ?OnGetLinkedItem@COleLinkingDoc@@MAEPAVCOleServerItem@@PBD@Z 5f5751c2 f   olelink.obj
 0001:000741e4       ?OnFindEmbeddedItem@COleLinkingDoc@@MAEPAVCOleClientItem@@PBD@Z 5f5751e4 f   olelink.obj
 0001:000742b4       ?LockExternal@COleLinkingDoc@@IAEXHH@Z 5f5752b4 f   olelink.obj
 0001:00074316       ?ReportSaveLoadException@COleLinkingDoc@@UAEXPBDPAVCException@@HI@Z 5f575316 f   olelink.obj
 0001:00074364       ?EndDeferErrors@COleLinkingDoc@@QAEJJ@Z 5f575364 f   olelink.obj
 0001:00074428       ?_GetBaseInterfaceMap@COleLinkingDoc@@KGPBUAFX_INTERFACEMAP@@XZ 5f575428 f   olelink.obj
 0001:00074432       ?GetInterfaceMap@COleLinkingDoc@@MBEPBUAFX_INTERFACEMAP@@XZ 5f575432 f   olelink.obj
 0001:00074442       ?AddRef@XPersistFile@COleLinkingDoc@@UAGKXZ 5f575442 f   olelink.obj
 0001:0007445f       ?Release@XPersistFile@COleLinkingDoc@@UAGKXZ 5f57545f f   olelink.obj
 0001:0007447c       ?QueryInterface@XPersistFile@COleLinkingDoc@@UAGJABU_GUID@@PAPAX@Z 5f57547c f   olelink.obj
 0001:000744a1       ?GetClassID@XPersistFile@COleLinkingDoc@@UAGJPAU_GUID@@@Z 5f5754a1 f   olelink.obj
 0001:0007452f       ?IsDirty@XPersistFile@COleLinkingDoc@@UAGJXZ 5f57552f f   olelink.obj
 0001:000745a0       ?Load@XPersistFile@COleLinkingDoc@@UAGJPBGK@Z 5f5755a0 f   olelink.obj
 0001:000747a2       ?Save@XPersistFile@COleLinkingDoc@@UAGJPBGH@Z 5f5757a2 f   olelink.obj
 0001:00074973       ?SaveCompleted@XPersistFile@COleLinkingDoc@@UAGJPBG@Z 5f575973 f   olelink.obj
 0001:00074acf       ?GetCurFile@XPersistFile@COleLinkingDoc@@UAGJPAPAG@Z 5f575acf f   olelink.obj
 0001:00074b74       ?AddRef@XOleItemContainer@COleLinkingDoc@@UAGKXZ 5f575b74 f   olelink.obj
 0001:00074b91       ?Release@XOleItemContainer@COleLinkingDoc@@UAGKXZ 5f575b91 f   olelink.obj
 0001:00074bae       ?QueryInterface@XOleItemContainer@COleLinkingDoc@@UAGJABU_GUID@@PAPAX@Z 5f575bae f   olelink.obj
 0001:00074bd3       ?EnumObjects@XOleItemContainer@COleLinkingDoc@@UAGJKPAPAUIEnumUnknown@@@Z 5f575bd3 f   olelink.obj
 0001:00074be8       ?ParseDisplayName@XOleItemContainer@COleLinkingDoc@@UAGJPAUIBindCtx@@PAGPAKPAPAUIMoniker@@@Z 5f575be8 f   olelink.obj
 0001:00074f52       ?LockContainer@XOleItemContainer@COleLinkingDoc@@UAGJH@Z 5f575f52 f   olelink.obj
 0001:00074f77       ?GetObjectA@XOleItemContainer@COleLinkingDoc@@UAGJPAGKPAUIBindCtx@@ABU_GUID@@PAPAX@Z 5f575f77 f   olelink.obj
 0001:000751b3       ?GetObjectStorage@XOleItemContainer@COleLinkingDoc@@UAGJPAGPAUIBindCtx@@ABU_GUID@@PAPAX@Z 5f5761b3 f   olelink.obj
 0001:0007533f       ?IsRunning@XOleItemContainer@COleLinkingDoc@@UAGJPAG@Z 5f57633f f   olelink.obj
 0001:00075521       ?AssertValid@COleLinkingDoc@@UBEXXZ 5f576521 f   olelink.obj
 0001:00075557       ?Dump@COleLinkingDoc@@UBEXAAVCDumpContext@@@Z 5f576557 f   olelink.obj
 0001:00075600       ??_GCOleLinkingDoc@@UAEPAXI@Z 5f576600 f i olelink.obj
 0001:00075600       ??_ECOleLinkingDoc@@UAEPAXI@Z 5f576600 f i olelink.obj
 0001:00075630       ??0XPersistFile@COleLinkingDoc@@QAE@XZ 5f576630 f i olelink.obj
 0001:00075650       ??0XOleItemContainer@COleLinkingDoc@@QAE@XZ 5f576650 f i olelink.obj
 0001:00075670       ??0IOleItemContainer@@QAE@XZ 5f576670 f i olelink.obj
 0001:00075690       ??0IPersistFile@@QAE@XZ    5f576690 f i olelink.obj
 0001:00075690       ??0IOleContainer@@QAE@XZ   5f576690 f i olelink.obj
 0001:000756b0       ??0IParseDisplayName@@QAE@XZ 5f5766b0 f i olelink.obj
 0001:000756b0       ??0IDataObject@@QAE@XZ     5f5766b0 f i olelink.obj
 0001:000756b0       ??0IPersist@@QAE@XZ        5f5766b0 f i olelink.obj
 0001:000756d0       ??0COleTemplateServer@@QAE@XZ 5f5766d0 f   oletsvr.obj
 0001:00075704       ?Register@COleTemplateServer@@UAEHXZ 5f576704 f   oletsvr.obj
 0001:00075717       ?OnCmdMsg@COleTemplateServer@@MAEHIHPAXPAUAFX_CMDHANDLERINFO@@@Z 5f576717 f   oletsvr.obj
 0001:00075757       ?Unregister@COleTemplateServer@@QAEHXZ 5f576757 f   oletsvr.obj
 0001:0007591a       ?ConnectTemplate@COleTemplateServer@@QAEXABU_GUID@@PAVCDocTemplate@@H@Z 5f57691a f   oletsvr.obj
 0001:000759ca       ?UpdateRegistry@COleTemplateServer@@QAEXW4OLE_APPTYPE@@PAPBD1@Z 5f5769ca f   oletsvr.obj
 0001:00075ceb       ?OnCreateObject@COleTemplateServer@@MAEPAVCCmdTarget@@XZ 5f576ceb f   oletsvr.obj
 0001:00075db0       ??_GCOleTemplateServer@@UAEPAXI@Z 5f576db0 f i oletsvr.obj
 0001:00075de0       ?AfxDllGetClassObject@@YGJABU_GUID@@0PAPAX@Z 5f576de0 f   oledll.obj
 0001:00075f56       ?AfxDllCanUnloadNow@@YGJXZ 5f576f56 f   oledll.obj
 0001:00076050       ??0COleDropSource@@QAE@XZ  5f577050 f   oledrop1.obj
 0001:00076132       ?QueryContinueDrag@COleDropSource@@UAEJHK@Z 5f577132 f   oledrop1.obj
 0001:00076193       ?GiveFeedback@COleDropSource@@UAEJK@Z 5f577193 f   oledrop1.obj
 0001:000761bf       ?OnBeginDrag@COleDropSource@@UAEHPAVCWnd@@@Z 5f5771bf f   oledrop1.obj
 0001:0007633c       ?_GetBaseInterfaceMap@COleDropSource@@KGPBUAFX_INTERFACEMAP@@XZ 5f57733c f   oledrop1.obj
 0001:00076346       ?GetInterfaceMap@COleDropSource@@MBEPBUAFX_INTERFACEMAP@@XZ 5f577346 f   oledrop1.obj
 0001:00076356       ?AddRef@XDropSource@COleDropSource@@UAGKXZ 5f577356 f   oledrop1.obj
 0001:00076371       ?Release@XDropSource@COleDropSource@@UAGKXZ 5f577371 f   oledrop1.obj
 0001:0007638c       ?QueryInterface@XDropSource@COleDropSource@@UAGJABU_GUID@@PAPAX@Z 5f57738c f   oledrop1.obj
 0001:000763af       ?QueryContinueDrag@XDropSource@COleDropSource@@UAGJHK@Z 5f5773af f   oledrop1.obj
 0001:000763d5       ?GiveFeedback@XDropSource@COleDropSource@@UAGJK@Z 5f5773d5 f   oledrop1.obj
 0001:00076456       ?DoDragDrop@COleDataSource@@QAEKKPBUtagRECT@@PAVCOleDropSource@@@Z 5f577456 f   oledrop1.obj
 0001:00076640       ?Dump@COleDropSource@@UBEXAAVCDumpContext@@@Z 5f577640 f   oledrop1.obj
 0001:000766f0       ??_GCOleDropSource@@UAEPAXI@Z 5f5776f0 f i oledrop1.obj
 0001:00076720       ??0XDropSource@COleDropSource@@QAE@XZ 5f577720 f i oledrop1.obj
 0001:00076740       ??0COleDropTarget@@QAE@XZ  5f577740 f   oledrop2.obj
 0001:0007682b       ??1COleDropTarget@@UAE@XZ  5f57782b f   oledrop2.obj
 0001:000768b9       ?Register@COleDropTarget@@QAEHPAVCWnd@@@Z 5f5778b9 f   oledrop2.obj
 0001:000769bc       ?Revoke@COleDropTarget@@UAEXXZ 5f5779bc f   oledrop2.obj
 0001:00076a6d       ?OnDragScroll@COleDropTarget@@UAEKPAVCWnd@@KVCPoint@@@Z 5f577a6d f   oledrop2.obj
 0001:00076e29       ?OnDragEnter@COleDropTarget@@UAEKPAVCWnd@@PAVCOleDataObject@@KVCPoint@@@Z 5f577e29 f   oledrop2.obj
 0001:00076e99       ?OnDragOver@COleDropTarget@@UAEKPAVCWnd@@PAVCOleDataObject@@KVCPoint@@@Z 5f577e99 f   oledrop2.obj
 0001:00076f09       ?OnDrop@COleDropTarget@@UAEHPAVCWnd@@PAVCOleDataObject@@KVCPoint@@@Z 5f577f09 f   oledrop2.obj
 0001:00076f79       ?OnDropEx@COleDropTarget@@UAEKPAVCWnd@@PAVCOleDataObject@@KKVCPoint@@@Z 5f577f79 f   oledrop2.obj
 0001:00076fee       ?OnDragLeave@COleDropTarget@@UAEXPAVCWnd@@@Z 5f577fee f   oledrop2.obj
 0001:0007704c       ?_GetBaseInterfaceMap@COleDropTarget@@KGPBUAFX_INTERFACEMAP@@XZ 5f57804c f   oledrop2.obj
 0001:00077056       ?GetInterfaceMap@COleDropTarget@@MBEPBUAFX_INTERFACEMAP@@XZ 5f578056 f   oledrop2.obj
 0001:00077066       ?AddRef@XDropTarget@COleDropTarget@@UAGKXZ 5f578066 f   oledrop2.obj
 0001:00077081       ?Release@XDropTarget@COleDropTarget@@UAGKXZ 5f578081 f   oledrop2.obj
 0001:0007709c       ?QueryInterface@XDropTarget@COleDropTarget@@UAGJABU_GUID@@PAPAX@Z 5f57809c f   oledrop2.obj
 0001:000770bf       ?_AfxFilterDropEffect@@YGKKK@Z 5f5780bf f   oledrop2.obj
 0001:00077134       ?DragEnter@XDropTarget@COleDropTarget@@UAGJPAUIDataObject@@KU_POINTL@@PAK@Z 5f578134 f   oledrop2.obj
 0001:00077369       ?DragOver@XDropTarget@COleDropTarget@@UAGJKU_POINTL@@PAK@Z 5f578369 f   oledrop2.obj
 0001:00077563       ?DragLeave@XDropTarget@COleDropTarget@@UAGJXZ 5f578563 f   oledrop2.obj
 0001:00077668       ?Drop@XDropTarget@COleDropTarget@@UAGJPAUIDataObject@@KU_POINTL@@PAK@Z 5f578668 f   oledrop2.obj
 0001:000778e3       ?AssertValid@COleDropTarget@@UBEXXZ 5f5788e3 f   oledrop2.obj
 0001:0007791b       ?Dump@COleDropTarget@@UBEXAAVCDumpContext@@@Z 5f57891b f   oledrop2.obj
 0001:000779b0       ??_GCOleDropTarget@@UAEPAXI@Z 5f5789b0 f i oledrop2.obj
 0001:000779e0       ??0XDropTarget@COleDropTarget@@QAE@XZ 5f5789e0 f i oledrop2.obj
 0001:00077a00       ?BeginBusyState@COleMessageFilter@@UAEXXZ 5f578a00 f   olemsgf.obj
 0001:00077a2a       ?EndBusyState@COleMessageFilter@@UAEXXZ 5f578a2a f   olemsgf.obj
 0001:00077a5d       ?OnMessagePending@COleMessageFilter@@UAEHPBUtagMSG@@@Z 5f578a5d f   olemsgf.obj
 0001:00077a9f       ?IsSignificantMessage@COleMessageFilter@@UAEHPAUtagMSG@@@Z 5f578a9f f   olemsgf.obj
 0001:00077b26       ?OnBusyDialog@COleMessageFilter@@UAEHPAUHTASK__@@@Z 5f578b26 f   olemsgf.obj
 0001:00077c2a       ?OnNotRespondingDialog@COleMessageFilter@@UAEHPAUHTASK__@@@Z 5f578c2a f   olemsgf.obj
 0001:00077d2e       ?_GetBaseInterfaceMap@COleMessageFilter@@KGPBUAFX_INTERFACEMAP@@XZ 5f578d2e f   olemsgf.obj
 0001:00077d38       ?GetInterfaceMap@COleMessageFilter@@MBEPBUAFX_INTERFACEMAP@@XZ 5f578d38 f   olemsgf.obj
 0001:00077d48       ?AddRef@XMessageFilter@COleMessageFilter@@UAGKXZ 5f578d48 f   olemsgf.obj
 0001:00077d63       ?Release@XMessageFilter@COleMessageFilter@@UAGKXZ 5f578d63 f   olemsgf.obj
 0001:00077d7e       ?QueryInterface@XMessageFilter@COleMessageFilter@@UAGJABU_GUID@@PAPAX@Z 5f578d7e f   olemsgf.obj
 0001:00077da1       ?HandleInComingCall@XMessageFilter@COleMessageFilter@@UAGKKPAUHTASK__@@KPAUtagINTERFACEINFO@@@Z 5f578da1 f   olemsgf.obj
 0001:00077e17       ?RetryRejectedCall@XMessageFilter@COleMessageFilter@@UAGKPAUHTASK__@@KK@Z 5f578e17 f   olemsgf.obj
 0001:00077f41       ?MessagePending@XMessageFilter@COleMessageFilter@@UAGKPAUHTASK__@@KK@Z 5f578f41 f   olemsgf.obj
 0001:000780b6       ?AssertValid@COleMessageFilter@@UBEXXZ 5f5790b6 f   olemsgf.obj
 0001:000780c9       ?Dump@COleMessageFilter@@UBEXAAVCDumpContext@@@Z 5f5790c9 f   olemsgf.obj
 0001:000781d0       ??0COleServerDoc@@QAE@XZ   5f5791d0 f   olesvr1.obj
 0001:000782e9       ??1COleServerDoc@@UAE@XZ   5f5792e9 f   olesvr1.obj
 0001:00078478       ?DeleteContents@COleServerDoc@@UAEXXZ 5f579478 f   olesvr1.obj
 0001:00078549       ?GetEmbeddedItem@COleServerDoc@@QAEPAVCOleServerItem@@XZ 5f579549 f   olesvr1.obj
 0001:000785a4       ?GetDocObjectServer@COleServerDoc@@MAEPAVCDocObjectServer@@PAUIOleDocumentSite@@@Z 5f5795a4 f   olesvr1.obj
 0001:000785b3       ?OnExecOleCmd@COleServerDoc@@MAEJPBU_GUID@@KKPAUtagVARIANT@@1@Z 5f5795b3 f   olesvr1.obj
 0001:000785c5       ?GetInterfaceHook@COleServerDoc@@MAEPAUIUnknown@@PBX@Z 5f5795c5 f   olesvr1.obj
 0001:00078670       ?ActivateDocObject@COleServerDoc@@QAEXXZ 5f579670 f   olesvr1.obj
 0001:00078695       ?NotifyRename@COleServerDoc@@QAEXPBD@Z 5f579695 f   olesvr1.obj
 0001:00078776       ?NotifyAllItems@COleServerDoc@@IAEXW4OLE_NOTIFICATION@@K@Z 5f579776 f   olesvr1.obj
 0001:000787d0       ?UpdateAllItems@COleServerDoc@@QAEXPAVCOleServerItem@@JPAVCObject@@W4tagDVASPECT@@@Z 5f5797d0 f   olesvr1.obj
 0001:0007883d       ?OnUpdate@COleServerItem@@UAEXPAV1@JPAVCObject@@W4tagDVASPECT@@@Z 5f57983d f   olesvr1.obj
 0001:00078856       ?GetZoomFactor@COleServerDoc@@QBEHPAUtagSIZE@@0PBUtagRECT@@@Z 5f579856 f   olesvr1.obj
 0001:00078aec       ?GetItemPosition@COleServerDoc@@QBEXPAUtagRECT@@@Z 5f579aec f   olesvr1.obj
 0001:00078ba4       ?GetItemClipRect@COleServerDoc@@QBEXPAUtagRECT@@@Z 5f579ba4 f   olesvr1.obj
 0001:00078c5c       ?OnGetLinkedItem@COleServerDoc@@UAEPAVCOleServerItem@@PBD@Z 5f579c5c f   olesvr1.obj
 0001:00078d2c       ?OnClose@COleServerDoc@@MAEXW4tagOLECLOSE@@@Z 5f579d2c f   olesvr1.obj
 0001:00078eae       ?SaveModifiedPrompt@COleServerDoc@@IAEHXZ 5f579eae f   olesvr1.obj
 0001:00078fda       ?CanCloseFrame@COleServerDoc@@UAEHPAVCFrameWnd@@@Z 5f579fda f   olesvr1.obj
 0001:0007901a       ?GetFileTypeString@COleServerDoc@@MAEHAAVCString@@@Z 5f57a01a f   olesvr1.obj
 0001:0007906f       ?OnSetHostNames@COleServerDoc@@MAEXPBD0@Z 5f57a06f f   olesvr1.obj
 0001:000791e8       ?SaveEmbedding@COleServerDoc@@QAEXXZ 5f57a1e8 f   olesvr1.obj
 0001:0007925b       ?OnUpdateDocument@COleServerDoc@@UAEHXZ 5f57a25b f   olesvr1.obj
 0001:00079332       ?GetMoniker@COleServerDoc@@UAEPAUIMoniker@@W4tagOLEGETMONIKER@@@Z 5f57a332 f   olesvr1.obj
 0001:0007939a       ?SaveModified@COleServerDoc@@MAEHXZ 5f57a39a f   olesvr1.obj
 0001:000793fb       ?GetDefaultMenu@COleServerDoc@@MAEPAUHMENU__@@XZ 5f57a3fb f   olesvr1.obj
 0001:0007946d       ?GetDefaultAccelerator@COleServerDoc@@MAEPAUHACCEL__@@XZ 5f57a46d f   olesvr1.obj
 0001:000794df       ?_GetBaseMessageMap@COleServerDoc@@KGPBUAFX_MSGMAP@@XZ 5f57a4df f   olesvr1.obj
 0001:000794e9       ?GetMessageMap@COleServerDoc@@MBEPBUAFX_MSGMAP@@XZ 5f57a4e9 f   olesvr1.obj
 0001:000794f9       ?OnFileUpdate@COleServerDoc@@IAEXXZ 5f57a4f9 f   olesvr1.obj
 0001:0007955f       ?OnFileSaveCopyAs@COleServerDoc@@IAEXXZ 5f57a55f f   olesvr1.obj
 0001:00079686       ?UpdateUsingHostObj@COleServerDoc@@IAEXIPAVCCmdUI@@@Z 5f57a686 f   olesvr1.obj
 0001:00079755       ?OnUpdateFileExit@COleServerDoc@@IAEXPAVCCmdUI@@@Z 5f57a755 f   olesvr1.obj
 0001:000797ac       ?OnUpdateFileUpdate@COleServerDoc@@IAEXPAVCCmdUI@@@Z 5f57a7ac f   olesvr1.obj
 0001:00079803       ?OnSaveDocument@COleServerDoc@@UAEHPBD@Z 5f57a803 f   olesvr1.obj
 0001:000798d3       ?OnCloseDocument@COleServerDoc@@UAEXXZ 5f57a8d3 f   olesvr1.obj
 0001:00079a60       ?OnShowDocument@COleServerDoc@@MAEXH@Z 5f57aa60 f   olesvr1.obj
 0001:00079ec1       ?OnNewEmbedding@COleServerDoc@@MAEXPAUIStorage@@@Z 5f57aec1 f   olesvr1.obj
 0001:0007a019       ?OnOpenEmbedding@COleServerDoc@@MAEXPAUIStorage@@@Z 5f57b019 f   olesvr1.obj
 0001:0007a174       ?OnSaveEmbedding@COleServerDoc@@MAEXPAUIStorage@@@Z 5f57b174 f   olesvr1.obj
 0001:0007a2ad       ?_AfxGetWindow32@@YGPAUHWND__@@PAU1@@Z 5f57b2ad f   olesvr1.obj
 0001:0007a314       ?ActivateInPlace@COleServerDoc@@QAEHXZ 5f57b314 f   olesvr1.obj
 0001:0007ac81       ?CreateInPlaceFrame@COleServerDoc@@MAEPAVCOleIPFrameWnd@@PAVCWnd@@@Z 5f57bc81 f   olesvr1.obj
 0001:0007ae23       ?DestroyInPlaceFrame@COleServerDoc@@MAEXPAVCOleIPFrameWnd@@@Z 5f57be23 f   olesvr1.obj
 0001:0007af97       ?ConnectView@COleServerDoc@@IAEXPAVCWnd@@PAVCView@@@Z 5f57bf97 f   olesvr1.obj
 0001:0007b034       ?OnFrameWindowActivate@COleServerDoc@@MAEXH@Z 5f57c034 f   olesvr1.obj
 0001:0007b104       ?OnDocWindowActivate@COleServerDoc@@MAEXH@Z 5f57c104 f   olesvr1.obj
 0001:0007b2e5       ?OnShowControlBars@COleServerDoc@@MAEXPAVCFrameWnd@@H@Z 5f57c2e5 f   olesvr1.obj
 0001:0007b41a       ?OnResizeBorder@COleServerDoc@@UAEXPBUtagRECT@@PAUIOleInPlaceUIWindow@@H@Z 5f57c41a f   olesvr1.obj
 0001:0007b6af       ?OnDeactivate@COleServerDoc@@UAEXXZ 5f57c6af f   olesvr1.obj
 0001:0007b8b8       ?OnDeactivateUI@COleServerDoc@@UAEXH@Z 5f57c8b8 f   olesvr1.obj
 0001:0007badc       ?OnSetItemRects@COleServerDoc@@MAEXPBUtagRECT@@0@Z 5f57cadc f   olesvr1.obj
 0001:0007bba1       ?OnReactivateAndUndo@COleServerDoc@@MAEHXZ 5f57cba1 f   olesvr1.obj
 0001:0007bbae       ?RequestPositionChange@COleServerDoc@@QAEXPBUtagRECT@@@Z 5f57cbae f   olesvr1.obj
 0001:0007bc60       ?ScrollContainerBy@COleServerDoc@@QAEHVCSize@@@Z 5f57cc60 f   olesvr1.obj
 0001:0007bd06       ?DeactivateAndUndo@COleServerDoc@@QAEHXZ 5f57cd06 f   olesvr1.obj
 0001:0007bd96       ?DiscardUndoState@COleServerDoc@@QAEHXZ 5f57cd96 f   olesvr1.obj
 0001:0007be26       ?_GetBaseInterfaceMap@COleServerDoc@@KGPBUAFX_INTERFACEMAP@@XZ 5f57ce26 f   olesvr1.obj
 0001:0007be30       ?GetInterfaceMap@COleServerDoc@@MBEPBUAFX_INTERFACEMAP@@XZ 5f57ce30 f   olesvr1.obj
 0001:0007be40       ?AddRef@XPersistStorage@COleServerDoc@@UAGKXZ 5f57ce40 f   olesvr1.obj
 0001:0007be5d       ?Release@XPersistStorage@COleServerDoc@@UAGKXZ 5f57ce5d f   olesvr1.obj
 0001:0007be7a       ?QueryInterface@XPersistStorage@COleServerDoc@@UAGJABU_GUID@@PAPAX@Z 5f57ce7a f   olesvr1.obj
 0001:0007be9f       ?GetClassID@XPersistStorage@COleServerDoc@@UAGJPAU_GUID@@@Z 5f57ce9f f   olesvr1.obj
 0001:0007bed6       ?IsDirty@XPersistStorage@COleServerDoc@@UAGJXZ 5f57ced6 f   olesvr1.obj
 0001:0007bf09       ?InitNew@XPersistStorage@COleServerDoc@@UAGJPAUIStorage@@@Z 5f57cf09 f   olesvr1.obj
 0001:0007c010       ?Load@XPersistStorage@COleServerDoc@@UAGJPAUIStorage@@@Z 5f57d010 f   olesvr1.obj
 0001:0007c12e       ?Save@XPersistStorage@COleServerDoc@@UAGJPAUIStorage@@H@Z 5f57d12e f   olesvr1.obj
 0001:0007c2eb       ?SaveCompleted@XPersistStorage@COleServerDoc@@UAGJPAUIStorage@@@Z 5f57d2eb f   olesvr1.obj
 0001:0007c3f8       ?HandsOffStorage@XPersistStorage@COleServerDoc@@UAGJXZ 5f57d3f8 f   olesvr1.obj
 0001:0007c4fc       ?AddRef@XOleObject@COleServerDoc@@UAGKXZ 5f57d4fc f   olesvr1.obj
 0001:0007c519       ?Release@XOleObject@COleServerDoc@@UAGKXZ 5f57d519 f   olesvr1.obj
 0001:0007c536       ?QueryInterface@XOleObject@COleServerDoc@@UAGJABU_GUID@@PAPAX@Z 5f57d536 f   olesvr1.obj
 0001:0007c55b       ?SetClientSite@XOleObject@COleServerDoc@@UAGJPAUIOleClientSite@@@Z 5f57d55b f   olesvr1.obj
 0001:0007c63c       ?GetClientSite@XOleObject@COleServerDoc@@UAGJPAPAUIOleClientSite@@@Z 5f57d63c f   olesvr1.obj
 0001:0007c695       ?SetHostNames@XOleObject@COleServerDoc@@UAGJPBG0@Z 5f57d695 f   olesvr1.obj
 0001:0007c834       ?Close@XOleObject@COleServerDoc@@UAGJK@Z 5f57d834 f   olesvr1.obj
 0001:0007c938       ?SetMoniker@XOleObject@COleServerDoc@@UAGJKPAUIMoniker@@@Z 5f57d938 f   olesvr1.obj
 0001:0007ca12       ?GetMoniker@XOleObject@COleServerDoc@@UAGJKKPAPAUIMoniker@@@Z 5f57da12 f   olesvr1.obj
 0001:0007ca51       ?InitFromData@XOleObject@COleServerDoc@@UAGJPAUIDataObject@@HK@Z 5f57da51 f   olesvr1.obj
 0001:0007cbd3       ?GetClipboardData@XOleObject@COleServerDoc@@UAGJKPAPAUIDataObject@@@Z 5f57dbd3 f   olesvr1.obj
 0001:0007cd95       ?DoVerb@XOleObject@COleServerDoc@@UAGJJPAUtagMSG@@PAUIOleClientSite@@JPAUHWND__@@PBUtagRECT@@@Z 5f57dd95 f   olesvr1.obj
 0001:0007ceef       ?EnumVerbs@XOleObject@COleServerDoc@@UAGJPAPAUIEnumOLEVERB@@@Z 5f57deef f   olesvr1.obj
 0001:0007cf63       ?Update@XOleObject@COleServerDoc@@UAGJXZ 5f57df63 f   olesvr1.obj
 0001:0007d0ac       ?IsUpToDate@XOleObject@COleServerDoc@@UAGJXZ 5f57e0ac f   olesvr1.obj
 0001:0007d1fa       ?GetUserClassID@XOleObject@COleServerDoc@@UAGJPAU_GUID@@@Z 5f57e1fa f   olesvr1.obj
 0001:0007d231       ?GetUserType@XOleObject@COleServerDoc@@UAGJKPAPAG@Z 5f57e231 f   olesvr1.obj
 0001:0007d2a9       ?SetExtent@XOleObject@COleServerDoc@@UAGJKPAUtagSIZE@@@Z 5f57e2a9 f   olesvr1.obj
 0001:0007d41c       ?GetExtent@XOleObject@COleServerDoc@@UAGJKPAUtagSIZE@@@Z 5f57e41c f   olesvr1.obj
 0001:0007d5a1       ?Advise@XOleObject@COleServerDoc@@UAGJPAUIAdviseSink@@PAK@Z 5f57e5a1 f   olesvr1.obj
 0001:0007d700       ?Unadvise@XOleObject@COleServerDoc@@UAGJK@Z 5f57e700 f   olesvr1.obj
 0001:0007d85b       ?EnumAdvise@XOleObject@COleServerDoc@@UAGJPAPAUIEnumSTATDATA@@@Z 5f57e85b f   olesvr1.obj
 0001:0007d9b6       ?GetMiscStatus@XOleObject@COleServerDoc@@UAGJKPAK@Z 5f57e9b6 f   olesvr1.obj
 0001:0007da2e       ?SetColorScheme@XOleObject@COleServerDoc@@UAGJPAUtagLOGPALETTE@@@Z 5f57ea2e f   olesvr1.obj
 0001:0007db76       ?AddRef@XDataObject@COleServerDoc@@UAGKXZ 5f57eb76 f   olesvr1.obj
 0001:0007db93       ?Release@XDataObject@COleServerDoc@@UAGKXZ 5f57eb93 f   olesvr1.obj
 0001:0007dbb0       ?QueryInterface@XDataObject@COleServerDoc@@UAGJABU_GUID@@PAPAX@Z 5f57ebb0 f   olesvr1.obj
 0001:0007dbd5       ?GetData@XDataObject@COleServerDoc@@UAGJPAUtagFORMATETC@@PAUtagSTGMEDIUM@@@Z 5f57ebd5 f   olesvr1.obj
 0001:0007dd34       ?GetDataHere@XDataObject@COleServerDoc@@UAGJPAUtagFORMATETC@@PAUtagSTGMEDIUM@@@Z 5f57ed34 f   olesvr1.obj
 0001:0007de93       ?QueryGetData@XDataObject@COleServerDoc@@UAGJPAUtagFORMATETC@@@Z 5f57ee93 f   olesvr1.obj
 0001:0007dfee       ?GetCanonicalFormatEtc@XDataObject@COleServerDoc@@UAGJPAUtagFORMATETC@@0@Z 5f57efee f   olesvr1.obj
 0001:0007dffa       ?SetData@XDataObject@COleServerDoc@@UAGJPAUtagFORMATETC@@PAUtagSTGMEDIUM@@H@Z 5f57effa f   olesvr1.obj
 0001:0007e15d       ?EnumFormatEtc@XDataObject@COleServerDoc@@UAGJKPAPAUIEnumFORMATETC@@@Z 5f57f15d f   olesvr1.obj
 0001:0007e2bc       ?DAdvise@XDataObject@COleServerDoc@@UAGJPAUtagFORMATETC@@KPAUIAdviseSink@@PAK@Z 5f57f2bc f   olesvr1.obj
 0001:0007e423       ?DUnadvise@XDataObject@COleServerDoc@@UAGJK@Z 5f57f423 f   olesvr1.obj
 0001:0007e57e       ?EnumDAdvise@XDataObject@COleServerDoc@@UAGJPAPAUIEnumSTATDATA@@@Z 5f57f57e f   olesvr1.obj
 0001:0007e6d9       ?AddRef@XOleInPlaceObject@COleServerDoc@@UAGKXZ 5f57f6d9 f   olesvr1.obj
 0001:0007e6f6       ?Release@XOleInPlaceObject@COleServerDoc@@UAGKXZ 5f57f6f6 f   olesvr1.obj
 0001:0007e713       ?QueryInterface@XOleInPlaceObject@COleServerDoc@@UAGJABU_GUID@@PAPAX@Z 5f57f713 f   olesvr1.obj
 0001:0007e738       ?GetWindow@XOleInPlaceObject@COleServerDoc@@UAGJPAPAUHWND__@@@Z 5f57f738 f   olesvr1.obj
 0001:0007e76f       ?ContextSensitiveHelp@XOleInPlaceObject@COleServerDoc@@UAGJH@Z 5f57f76f f   olesvr1.obj
 0001:0007e7a6       ?InPlaceDeactivate@XOleInPlaceObject@COleServerDoc@@UAGJXZ 5f57f7a6 f   olesvr1.obj
 0001:0007e8d1       ?UIDeactivate@XOleInPlaceObject@COleServerDoc@@UAGJXZ 5f57f8d1 f   olesvr1.obj
 0001:0007ea23       ?SetObjectRects@XOleInPlaceObject@COleServerDoc@@UAGJPBUtagRECT@@0@Z 5f57fa23 f   olesvr1.obj
 0001:0007eb0f       ?ReactivateAndUndo@XOleInPlaceObject@COleServerDoc@@UAGJXZ 5f57fb0f f   olesvr1.obj
 0001:0007ec06       ?AddRef@XOleInPlaceActiveObject@COleServerDoc@@UAGKXZ 5f57fc06 f   olesvr1.obj
 0001:0007ec23       ?Release@XOleInPlaceActiveObject@COleServerDoc@@UAGKXZ 5f57fc23 f   olesvr1.obj
 0001:0007ec40       ?QueryInterface@XOleInPlaceActiveObject@COleServerDoc@@UAGJABU_GUID@@PAPAX@Z 5f57fc40 f   olesvr1.obj
 0001:0007ec65       ?GetWindow@XOleInPlaceActiveObject@COleServerDoc@@UAGJPAPAUHWND__@@@Z 5f57fc65 f   olesvr1.obj
 0001:0007eca0       ?ContextSensitiveHelp@XOleInPlaceActiveObject@COleServerDoc@@UAGJH@Z 5f57fca0 f   olesvr1.obj
 0001:0007edaf       ?TranslateAcceleratorA@XOleInPlaceActiveObject@COleServerDoc@@UAGJPAUtagMSG@@@Z 5f57fdaf f   olesvr1.obj
 0001:0007eee9       ?OnFrameWindowActivate@XOleInPlaceActiveObject@COleServerDoc@@UAGJH@Z 5f57fee9 f   olesvr1.obj
 0001:0007efd2       ?OnDocWindowActivate@XOleInPlaceActiveObject@COleServerDoc@@UAGJH@Z 5f57ffd2 f   olesvr1.obj
 0001:0007f0bb       ?ResizeBorder@XOleInPlaceActiveObject@COleServerDoc@@UAGJPBUtagRECT@@PAUIOleInPlaceUIWindow@@H@Z 5f5800bb f   olesvr1.obj
 0001:0007f1ac       ?EnableModeless@XOleInPlaceActiveObject@COleServerDoc@@UAGJH@Z 5f5801ac f   olesvr1.obj
 0001:0007f320       ?AssertValid@COleServerDoc@@UBEXXZ 5f580320 f   olesvr1.obj
 0001:0007f379       ?Dump@COleServerDoc@@UBEXAAVCDumpContext@@@Z 5f580379 f   olesvr1.obj
 0001:0007f493       ?GetDocument@COleServerItem@@QBEPAVCOleServerDoc@@XZ 5f580493 f   olesvr1.obj
 0001:0007f4b7       ?NotifyChanged@COleServerItem@@QAEXW4tagDVASPECT@@@Z 5f5804b7 f   olesvr1.obj
 0001:0007f4e5       ?GetItemName@COleServerItem@@QBEABVCString@@XZ 5f5804e5 f   olesvr1.obj
 0001:0007f509       ?SetItemName@COleServerItem@@QAEXPBD@Z 5f580509 f   olesvr1.obj
 0001:0007f587       ?IsLinkedItem@COleServerItem@@QBEHXZ 5f580587 f   olesvr1.obj
 0001:0007f5bb       ?GetDataSource@COleServerItem@@IAEPAVCOleDataSource@@XZ 5f5805bb f   olesvr1.obj
 0001:0007f5df       ?NotifyChanged@COleServerDoc@@QAEXXZ 5f5805df f   olesvr1.obj
 0001:0007f609       ?NotifyClosed@COleServerDoc@@QAEXXZ 5f580609 f   olesvr1.obj
 0001:0007f633       ?NotifySaved@COleServerDoc@@QAEXXZ 5f580633 f   olesvr1.obj
 0001:0007f65d       ?IsEmbedded@COleServerDoc@@QBEHXZ 5f58065d f   olesvr1.obj
 0001:0007f681       ?IsDocObject@COleServerDoc@@QBEHXZ 5f580681 f   olesvr1.obj
 0001:0007f6ae       ?IsInPlaceActive@COleServerDoc@@QBEHXZ 5f5806ae f   olesvr1.obj
 0001:0007f6e0       ??_GCOleServerDoc@@UAEPAXI@Z 5f5806e0 f i olesvr1.obj
 0001:0007f6e0       ??_ECOleServerDoc@@UAEPAXI@Z 5f5806e0 f i olesvr1.obj
 0001:0007f710       ??0XPersistStorage@COleServerDoc@@QAE@XZ 5f580710 f i olesvr1.obj
 0001:0007f730       ??0XOleObject@COleServerDoc@@QAE@XZ 5f580730 f i olesvr1.obj
 0001:0007f750       ??0XDataObject@COleServerDoc@@QAE@XZ 5f580750 f i olesvr1.obj
 0001:0007f770       ??0XOleInPlaceObject@COleServerDoc@@QAE@XZ 5f580770 f i olesvr1.obj
 0001:0007f790       ??0XOleInPlaceActiveObject@COleServerDoc@@QAE@XZ 5f580790 f i olesvr1.obj
 0001:0007f7b0       ??0IPersistStorage@@QAE@XZ 5f5807b0 f i olesvr1.obj
 0001:0007f7d0       ??0IDropTarget@@QAE@XZ     5f5807d0 f i olesvr1.obj
 0001:0007f7d0       ??0IOleObject@@QAE@XZ      5f5807d0 f i olesvr1.obj
 0001:0007f7d0       ??0IDropSource@@QAE@XZ     5f5807d0 f i olesvr1.obj
 0001:0007f7f0       ??0IOleInPlaceActiveObject@@QAE@XZ 5f5807f0 f i olesvr1.obj
 0001:0007f7f0       ??0IOleInPlaceObject@@QAE@XZ 5f5807f0 f i olesvr1.obj
 0001:0007f810       ??0COleServerItem@@IAE@PAVCOleServerDoc@@H@Z 5f580810 f   olesvr2.obj
 0001:0007f986       ??1COleServerItem@@UAE@XZ  5f580986 f   olesvr2.obj
 0001:0007fab9       ?IsBlank@COleServerItem@@MBEHXZ 5f580ab9 f   olesvr2.obj
 0001:0007fac9       ?IsConnected@COleServerItem@@QBEHXZ 5f580ac9 f   olesvr2.obj
 0001:0007fb0a       ?NotifyClient@COleServerItem@@QAEXW4OLE_NOTIFICATION@@K@Z 5f580b0a f   olesvr2.obj
 0001:0007fbfc       ?GetDataObject@COleServerItem@@QAEPAUIDataObject@@XZ 5f580bfc f   olesvr2.obj
 0001:0007fc42       ?GetOleObject@COleServerItem@@QAEPAUIOleObject@@XZ 5f580c42 f   olesvr2.obj
 0001:0007fc88       ?OnQueryUpdateItems@COleServerItem@@UAEHXZ 5f580c88 f   olesvr2.obj
 0001:0007fcfa       ?OnUpdateItems@COleServerItem@@UAEXXZ 5f580cfa f   olesvr2.obj
 0001:0007fd75       ?OnSetExtent@COleServerItem@@UAEHW4tagDVASPECT@@ABVCSize@@@Z 5f580d75 f   olesvr2.obj
 0001:0007fdb5       ?OnGetExtent@COleServerItem@@UAEHW4tagDVASPECT@@AAVCSize@@@Z 5f580db5 f   olesvr2.obj
 0001:0007fe1b       ?OnDoVerb@COleServerItem@@UAEXJ@Z 5f580e1b f   olesvr2.obj
 0001:0007feb8       ?OnDrawEx@COleServerItem@@UAEHPAVCDC@@W4tagDVASPECT@@AAVCSize@@@Z 5f580eb8 f   olesvr2.obj
 0001:0007ff26       ?OnShow@COleServerItem@@MAEXXZ 5f580f26 f   olesvr2.obj
 0001:0007ff6b       ?OnOpen@COleServerItem@@MAEXXZ 5f580f6b f   olesvr2.obj
 0001:0007ffcc       ?OnHide@COleServerItem@@MAEXXZ 5f580fcc f   olesvr2.obj
 0001:0008001a       ?GetMetafileData@COleServerItem@@MAEHPAUtagFORMATETC@@PAUtagSTGMEDIUM@@@Z 5f58101a f   olesvr2.obj
 0001:000803c9       ?OnSetColorScheme@COleServerItem@@UAEHPBUtagLOGPALETTE@@@Z 5f5813c9 f   olesvr2.obj
 0001:000803eb       ?OnInitFromData@COleServerItem@@UAEHPAVCOleDataObject@@H@Z 5f5813eb f   olesvr2.obj
 0001:00080417       ?CopyToClipboard@COleServerItem@@QAEXH@Z 5f581417 f   olesvr2.obj
 0001:00080457       ?OnGetClipboardData@COleServerItem@@UAEPAVCOleDataSource@@HPAUtagPOINT@@PAUtagSIZE@@@Z 5f581457 f   olesvr2.obj
 0001:00080589       ?DoDragDrop@COleServerItem@@QAEKPBUtagRECT@@VCPoint@@HK0@Z 5f581589 f   olesvr2.obj
 0001:00080794       ?GetClipboardData@COleServerItem@@QAEXPAVCOleDataSource@@HPAUtagPOINT@@PAUtagSIZE@@@Z 5f581794 f   olesvr2.obj
 0001:000808ac       ?GetEmbedSourceData@COleServerItem@@QAEXPAUtagSTGMEDIUM@@@Z 5f5818ac f   olesvr2.obj
 0001:00080b0d       ?AddOtherClipboardData@COleServerItem@@QAEXPAVCOleDataSource@@@Z 5f581b0d f   olesvr2.obj
 0001:00080c06       ?GetMoniker@COleServerItem@@QAEPAUIMoniker@@W4tagOLEGETMONIKER@@@Z 5f581c06 f   olesvr2.obj
 0001:00080c66       ?GetLinkSourceData@COleServerItem@@QAEHPAUtagSTGMEDIUM@@@Z 5f581c66 f   olesvr2.obj
 0001:00080e3e       ?GetObjectDescriptorData@COleServerItem@@QAEXPAUtagPOINT@@PAUtagSIZE@@PAUtagSTGMEDIUM@@@Z 5f581e3e f   olesvr2.obj
 0001:00080fbc       ?OnSaveEmbedding@COleServerItem@@MAEXPAUIStorage@@@Z 5f581fbc f   olesvr2.obj
 0001:000810c3       ?OnRenderGlobalData@COleServerItem@@UAEHPAUtagFORMATETC@@PAPAX@Z 5f5820c3 f   olesvr2.obj
 0001:000810e5       ?OnRenderFileData@COleServerItem@@UAEHPAUtagFORMATETC@@PAVCFile@@@Z 5f5820e5 f   olesvr2.obj
 0001:00081107       ?OnRenderData@COleServerItem@@UAEHPAUtagFORMATETC@@PAUtagSTGMEDIUM@@@Z 5f582107 f   olesvr2.obj
 0001:000811b7       ?OnSetData@COleServerItem@@UAEHPAUtagFORMATETC@@PAUtagSTGMEDIUM@@H@Z 5f5821b7 f   olesvr2.obj
 0001:000811d9       ?_GetBaseInterfaceMap@COleServerItem@@KGPBUAFX_INTERFACEMAP@@XZ 5f5821d9 f   olesvr2.obj
 0001:000811e3       ?GetInterfaceMap@COleServerItem@@MBEPBUAFX_INTERFACEMAP@@XZ 5f5821e3 f   olesvr2.obj
 0001:000811f3       ?AddRef@XOleObject@COleServerItem@@UAGKXZ 5f5821f3 f   olesvr2.obj
 0001:0008120e       ?Release@XOleObject@COleServerItem@@UAGKXZ 5f58220e f   olesvr2.obj
 0001:00081229       ?QueryInterface@XOleObject@COleServerItem@@UAGJABU_GUID@@PAPAX@Z 5f582229 f   olesvr2.obj
 0001:0008124c       ?OnFinalRelease@COleServerItem@@UAEXXZ 5f58224c f   olesvr2.obj
 0001:000812ed       ?SetClientSite@XOleObject@COleServerItem@@UAGJPAUIOleClientSite@@@Z 5f5822ed f   olesvr2.obj
 0001:000812f9       ?GetClientSite@XOleObject@COleServerItem@@UAGJPAPAUIOleClientSite@@@Z 5f5822f9 f   olesvr2.obj
 0001:0008130e       ?SetHostNames@XOleObject@COleServerItem@@UAGJPBG0@Z 5f58230e f   olesvr2.obj
 0001:0008131a       ?Close@XOleObject@COleServerItem@@UAGJK@Z 5f58231a f   olesvr2.obj
 0001:00081326       ?SetMoniker@XOleObject@COleServerItem@@UAGJKPAUIMoniker@@@Z 5f582326 f   olesvr2.obj
 0001:00081332       ?GetMoniker@XOleObject@COleServerItem@@UAGJKKPAPAUIMoniker@@@Z 5f582332 f   olesvr2.obj
 0001:0008162f       ?InitFromData@XOleObject@COleServerItem@@UAGJPAUIDataObject@@HK@Z 5f58262f f   olesvr2.obj
 0001:0008163b       ?GetClipboardData@XOleObject@COleServerItem@@UAGJKPAPAUIDataObject@@@Z 5f58263b f   olesvr2.obj
 0001:000817a2       ?DoVerb@XOleObject@COleServerItem@@UAGJJPAUtagMSG@@PAUIOleClientSite@@JPAUHWND__@@PBUtagRECT@@@Z 5f5827a2 f   olesvr2.obj
 0001:000818a1       ?EnumVerbs@XOleObject@COleServerItem@@UAGJPAPAUIEnumOLEVERB@@@Z 5f5828a1 f   olesvr2.obj
 0001:000818e8       ?Update@XOleObject@COleServerItem@@UAGJXZ 5f5828e8 f   olesvr2.obj
 0001:000819d6       ?IsUpToDate@XOleObject@COleServerItem@@UAGJXZ 5f5829d6 f   olesvr2.obj
 0001:00081ac9       ?GetUserClassID@XOleObject@COleServerItem@@UAGJPAU_GUID@@@Z 5f582ac9 f   olesvr2.obj
 0001:00081b03       ?GetUserType@XOleObject@COleServerItem@@UAGJKPAPAG@Z 5f582b03 f   olesvr2.obj
 0001:00081b4e       ?SetExtent@XOleObject@COleServerItem@@UAGJKPAUtagSIZE@@@Z 5f582b4e f   olesvr2.obj
 0001:00081b5a       ?GetExtent@XOleObject@COleServerItem@@UAGJKPAUtagSIZE@@@Z 5f582b5a f   olesvr2.obj
 0001:00081c84       ?Advise@XOleObject@COleServerItem@@UAGJPAUIAdviseSink@@PAK@Z 5f582c84 f   olesvr2.obj
 0001:00081d04       ?Unadvise@XOleObject@COleServerItem@@UAGJK@Z 5f582d04 f   olesvr2.obj
 0001:00081d66       ?EnumAdvise@XOleObject@COleServerItem@@UAGJPAPAUIEnumSTATDATA@@@Z 5f582d66 f   olesvr2.obj
 0001:00081dd1       ?GetMiscStatus@XOleObject@COleServerItem@@UAGJKPAK@Z 5f582dd1 f   olesvr2.obj
 0001:00081e1c       ?SetColorScheme@XOleObject@COleServerItem@@UAGJPAUtagLOGPALETTE@@@Z 5f582e1c f   olesvr2.obj
 0001:00081f09       ?AddRef@XDataObject@COleServerItem@@UAGKXZ 5f582f09 f   olesvr2.obj
 0001:00081f24       ?Release@XDataObject@COleServerItem@@UAGKXZ 5f582f24 f   olesvr2.obj
 0001:00081f3f       ?QueryInterface@XDataObject@COleServerItem@@UAGJABU_GUID@@PAPAX@Z 5f582f3f f   olesvr2.obj
 0001:00081f62       ?GetData@XDataObject@COleServerItem@@UAGJPAUtagFORMATETC@@PAUtagSTGMEDIUM@@@Z 5f582f62 f   olesvr2.obj
 0001:00081f8d       ?GetDataHere@XDataObject@COleServerItem@@UAGJPAUtagFORMATETC@@PAUtagSTGMEDIUM@@@Z 5f582f8d f   olesvr2.obj
 0001:00081fb8       ?QueryGetData@XDataObject@COleServerItem@@UAGJPAUtagFORMATETC@@@Z 5f582fb8 f   olesvr2.obj
 0001:00081fdf       ?GetCanonicalFormatEtc@XDataObject@COleServerItem@@UAGJPAUtagFORMATETC@@0@Z 5f582fdf f   olesvr2.obj
 0001:00081feb       ?SetData@XDataObject@COleServerItem@@UAGJPAUtagFORMATETC@@PAUtagSTGMEDIUM@@H@Z 5f582feb f   olesvr2.obj
 0001:0008201a       ?EnumFormatEtc@XDataObject@COleServerItem@@UAGJKPAPAUIEnumFORMATETC@@@Z 5f58301a f   olesvr2.obj
 0001:00082045       ?DAdvise@XDataObject@COleServerItem@@UAGJPAUtagFORMATETC@@KPAUIAdviseSink@@PAK@Z 5f583045 f   olesvr2.obj
 0001:00082151       ?DUnadvise@XDataObject@COleServerItem@@UAGJK@Z 5f583151 f   olesvr2.obj
 0001:000821b3       ?EnumDAdvise@XDataObject@COleServerItem@@UAGJPAPAUIEnumSTATDATA@@@Z 5f5831b3 f   olesvr2.obj
 0001:0008221e       ?OnRenderGlobalData@CItemDataSource@COleServerItem@@MAEHPAUtagFORMATETC@@PAPAX@Z 5f58321e f   olesvr2.obj
 0001:0008225f       ?OnRenderFileData@CItemDataSource@COleServerItem@@MAEHPAUtagFORMATETC@@PAVCFile@@@Z 5f58325f f   olesvr2.obj
 0001:000822a0       ?OnRenderData@CItemDataSource@COleServerItem@@MAEHPAUtagFORMATETC@@PAUtagSTGMEDIUM@@@Z 5f5832a0 f   olesvr2.obj
 0001:000822fc       ?OnSetData@CItemDataSource@COleServerItem@@MAEHPAUtagFORMATETC@@PAUtagSTGMEDIUM@@H@Z 5f5832fc f   olesvr2.obj
 0001:00082341       ?AssertValid@COleServerItem@@UBEXXZ 5f583341 f   olesvr2.obj
 0001:0008238c       ?Dump@COleServerItem@@UBEXAAVCDumpContext@@@Z 5f58338c f   olesvr2.obj
 0001:00082450       ??_GCOleServerItem@@UAEPAXI@Z 5f583450 f i olesvr2.obj
 0001:00082450       ??_ECOleServerItem@@UAEPAXI@Z 5f583450 f i olesvr2.obj
 0001:00082480       ??0CItemDataSource@COleServerItem@@QAE@XZ 5f583480 f i olesvr2.obj
 0001:000824a0       ??1CItemDataSource@COleServerItem@@UAE@XZ 5f5834a0 f i olesvr2.obj
 0001:000824c0       ??0XOleObject@COleServerItem@@QAE@XZ 5f5834c0 f i olesvr2.obj
 0001:000824e0       ??0XDataObject@COleServerItem@@QAE@XZ 5f5834e0 f i olesvr2.obj
 0001:00082500       ??_ECItemDataSource@COleServerItem@@UAEPAXI@Z 5f583500 f i olesvr2.obj
 0001:00082500       ??_GCItemDataSource@COleServerItem@@UAEPAXI@Z 5f583500 f i olesvr2.obj
 0001:00082530       ??0CAfxOleSymbolTable@@QAE@H@Z 5f583530 f   olereg.obj
 0001:00082583       ??1CAfxOleSymbolTable@@QAE@XZ 5f583583 f   olereg.obj
 0001:000825d8       ?SetAt@CAfxOleSymbolTable@@QAEXHPBD@Z 5f5835d8 f   olereg.obj
 0001:00082657       ?GetAt@CAfxOleSymbolTable@@QBEPBDH@Z 5f583657 f   olereg.obj
 0001:00082684       ?AfxOleRegisterServerClassCompat@@YGHABU_GUID@@PBD11W4OLE_APPTYPE@@PAPBD3@Z 5f583684 f   olereg.obj
 0001:000826b0       ?_AfxOleMakeSymbolTable@@YGHAAVCAfxOleSymbolTable@@ABU_GUID@@PBD22H22@Z 5f5836b0 f   olereg.obj
 0001:000829c8       ?AfxOleRegisterServerClass@@YGHABU_GUID@@PBD11W4OLE_APPTYPE@@PAPBD3H1@Z 5f5839c8 f   olereg.obj
 0001:000829fa       ?AfxOleRegisterServerClass@@YGHABU_GUID@@PBD11W4OLE_APPTYPE@@PAPBD3H11@Z 5f5839fa f   olereg.obj
 0001:00082c96       ?AfxOleUnregisterServerClass@@YGHABU_GUID@@PBD11W4OLE_APPTYPE@@PAPBD3@Z 5f583c96 f   olereg.obj
 0001:00082daf       ?AfxOleUnregisterHelper@@YGHPBQBD0HPAUHKEY__@@@Z 5f583daf f   olereg.obj
 0001:00082f1b       ?AfxOleRegisterHelper@@YGHPBQBD0HHPAUHKEY__@@@Z 5f583f1b f   olereg.obj
 0001:00083190       ?GetArray@CAfxOleSymbolTable@@QAEPAPBDXZ 5f584190 f i olereg.obj
 0001:000831a0       ??0COleResizeBar@@QAE@XZ   5f5841a0 f   olebar.obj
 0001:00083204       ??1COleResizeBar@@UAE@XZ   5f584204 f   olebar.obj
 0001:00083258       ?Create@COleResizeBar@@QAEHPAVCWnd@@KI@Z 5f584258 f   olebar.obj
 0001:000832f2       ?_GetBaseMessageMap@COleResizeBar@@KGPBUAFX_MSGMAP@@XZ 5f5842f2 f   olebar.obj
 0001:000832fc       ?GetMessageMap@COleResizeBar@@MBEPBUAFX_MSGMAP@@XZ 5f5842fc f   olebar.obj
 0001:0008330c       ?OnEraseBkgnd@COleResizeBar@@IAEHPAVCDC@@@Z 5f58430c f   olebar.obj
 0001:0008331e       ?OnPaint@COleResizeBar@@IAEXXZ 5f58431e f   olebar.obj
 0001:000833a9       ?OnSize@COleResizeBar@@IAEXIHH@Z 5f5843a9 f   olebar.obj
 0001:000833ef       ?OnSetCursor@COleResizeBar@@IAEHPAVCWnd@@II@Z 5f5843ef f   olebar.obj
 0001:00083461       ?OnLButtonDown@COleResizeBar@@IAEXIVCPoint@@@Z 5f584461 f   olebar.obj
 0001:000835be       ?OnSizeParent@COleResizeBar@@IAEJIJ@Z 5f5845be f   olebar.obj
 0001:00083619       ?OnUpdateCmdUI@COleResizeBar@@UAEXPAVCFrameWnd@@H@Z 5f584619 f   olebar.obj
 0001:00083630       ??_GCOleResizeBar@@UAEPAXI@Z 5f584630 f i olebar.obj
 0001:00083660       ?GetStandardProp@CCmdTarget@@IAEXPBUAFX_DISPMAP_ENTRY@@PAUtagVARIANT@@PAI@Z 5f584660 f   oledisp1.obj
 0001:00083844       ?SetStandardProp@CCmdTarget@@IAEJPBUAFX_DISPMAP_ENTRY@@PAUtagDISPPARAMS@@PAI@Z 5f584844 f   oledisp1.obj
 0001:00083b3a       ?GetEntryCount@CCmdTarget@@KGIPBUAFX_DISPMAP@@@Z 5f584b3a f   oledisp1.obj
 0001:00083bd6       ?MemberIDFromName@CCmdTarget@@KGJPBUAFX_DISPMAP@@PBD@Z 5f584bd6 f   oledisp1.obj
 0001:00083cdb       ?GetDispEntry@CCmdTarget@@IAGPBUAFX_DISPMAP_ENTRY@@J@Z 5f584cdb f   oledisp1.obj
 0001:00083e56       ?GetNotSupported@CCmdTarget@@QAEXXZ 5f584e56 f   oledisp1.obj
 0001:00083e72       ?SetNotSupported@CCmdTarget@@QAEXXZ 5f584e72 f   oledisp1.obj
 0001:00083e8e       ?EnableAutomation@CCmdTarget@@QAEXXZ 5f584e8e f   oledisp1.obj
 0001:00083f25       ?GetIDispatch@CCmdTarget@@QAEPAUIDispatch@@H@Z 5f584f25 f   oledisp1.obj
 0001:00083f89       ?FromIDispatch@CCmdTarget@@SGPAV1@PAUIDispatch@@@Z 5f584f89 f   oledisp1.obj
 0001:00083ff0       ?IsResultExpected@CCmdTarget@@QAEHXZ 5f584ff0 f   oledisp1.obj
 0001:00084013       ?Disconnect@COleDispatchImpl@@UAEXXZ 5f585013 f   oledisp1.obj
 0001:00084031       ?AllocSysString@CString@@QBEPAGXZ 5f585031 f   oledisp1.obj
 0001:000840a2       ?SetSysString@CString@@QBEPAGPAPAG@Z 5f5850a2 f   oledisp1.obj
 0001:0008416b       ?GetStackSize@CCmdTarget@@KGIPBEG@Z 5f58516b f   oledisp1.obj
 0001:00084264       ?PushStackArgs@CCmdTarget@@IAEJPAEPBEPAXGPAUtagDISPPARAMS@@PAIPAUtagVARIANT@@@Z 5f585264 f   oledisp1.obj
 0001:00084992       ?CallMemberFunc@CCmdTarget@@IAEJPBUAFX_DISPMAP_ENTRY@@GPAUtagVARIANT@@PAUtagDISPPARAMS@@PAI@Z 5f585992 f   oledisp1.obj
 0001:0008501b       ?AddRef@COleDispatchImpl@@UAGKXZ 5f58601b f   oledisp1.obj
 0001:00085036       ?Release@COleDispatchImpl@@UAGKXZ 5f586036 f   oledisp1.obj
 0001:00085051       ?QueryInterface@COleDispatchImpl@@UAGJABU_GUID@@PAPAX@Z 5f586051 f   oledisp1.obj
 0001:00085074       ?GetTypeInfoCount@COleDispatchImpl@@UAGJPAI@Z 5f586074 f   oledisp1.obj
 0001:00085099       ?GetTypeInfo@COleDispatchImpl@@UAGJIKPAPAUITypeInfo@@@Z 5f586099 f   oledisp1.obj
 0001:00085120       ?GetIDsOfNames@COleDispatchImpl@@UAGJABU_GUID@@PAPAGIKPAJ@Z 5f586120 f   oledisp1.obj
 0001:00085313       ?Invoke@COleDispatchImpl@@UAGJJABU_GUID@@KGPAUtagDISPPARAMS@@PAUtagVARIANT@@PAUtagEXCEPINFO@@PAI@Z 5f586313 f   oledisp1.obj
 0001:00085c48       ??1COleDispatchException@@UAE@XZ 5f586c48 f   oledisp1.obj
 0001:00085cba       ?Process@COleDispatchException@@SGXPAUtagEXCEPINFO@@PBVCException@@@Z 5f586cba f   oledisp1.obj
 0001:000860eb       ??0COleDispatchException@@QAE@PBDIG@Z 5f5870eb f   oledisp1.obj
 0001:000861cb       ?GetErrorMessage@COleDispatchException@@UAEHPADIPAI@Z 5f5871cb f   oledisp1.obj
 0001:0008623d       ?AfxThrowOleDispatchException@@YGXGPBDI@Z 5f58723d f   oledisp1.obj
 0001:000862fa       ?AfxThrowOleDispatchException@@YGXGII@Z 5f5872fa f   oledisp1.obj
 0001:00086400       ??0COleDispatchImpl@@QAE@XZ 5f587400 f i oledisp1.obj
 0001:00086420       ??4COleDispatchImpl@@QAEAAV0@ABV0@@Z 5f587420 f i oledisp1.obj
 0001:00086440       ??0IDispatch@@QAE@XZ       5f587440 f i oledisp1.obj
 0001:00086460       ??4IDispatch@@QAEAAU0@ABU0@@Z 5f587460 f i oledisp1.obj
 0001:00086480       ??4IUnknown@@QAEAAU0@ABU0@@Z 5f587480 f i oledisp1.obj
 0001:00086490       ??_ECOleDispatchException@@UAEPAXI@Z 5f587490 f i oledisp1.obj
 0001:00086490       ??_GCOleDispatchException@@UAEPAXI@Z 5f587490 f i oledisp1.obj
 0001:000864c0       ?AfxGetClassIDFromString@@YGJPBDPAU_GUID@@@Z 5f5874c0 f   oledisp2.obj
 0001:000865b3       ??0COleDispatchDriver@@QAE@XZ 5f5875b3 f   oledisp2.obj
 0001:000865d4       ??0COleDispatchDriver@@QAE@PAUIDispatch@@H@Z 5f5875d4 f   oledisp2.obj
 0001:000865f5       ??0COleDispatchDriver@@QAE@ABV0@@Z 5f5875f5 f   oledisp2.obj
 0001:00086656       ??4COleDispatchDriver@@QAEABV0@ABV0@@Z 5f587656 f   oledisp2.obj
 0001:000866bf       ?CreateDispatch@COleDispatchDriver@@QAEHABU_GUID@@PAVCOleException@@@Z 5f5876bf f   oledisp2.obj
 0001:00086802       ?CreateDispatch@COleDispatchDriver@@QAEHPBDPAVCOleException@@@Z 5f587802 f   oledisp2.obj
 0001:0008686f       ?AttachDispatch@COleDispatchDriver@@QAEXPAUIDispatch@@H@Z 5f58786f f   oledisp2.obj
 0001:000868bb       ?ReleaseDispatch@COleDispatchDriver@@QAEXXZ 5f5878bb f   oledisp2.obj
 0001:000868f0       ?DetachDispatch@COleDispatchDriver@@QAEPAUIDispatch@@XZ 5f5878f0 f   oledisp2.obj
 0001:00086911       ?InvokeHelperV@COleDispatchDriver@@QAEXJGGPAXPBEPAD@Z 5f587911 f   oledisp2.obj
 0001:00087456       ?InvokeHelper@COleDispatchDriver@@QAAXJGGPAXPBEZZ 5f588456 f   oledisp2.obj
 0001:0008748d       ?GetProperty@COleDispatchDriver@@QBEXJGPAX@Z 5f58848d f   oledisp2.obj
 0001:000874b7       ?SetProperty@COleDispatchDriver@@QAAXJGZZ 5f5884b7 f   oledisp2.obj
 0001:00087550       __AfxDispatchCall@12       5f588550 f   olecall.obj
 0001:00087570       ??1COleMessageFilter@@UAE@XZ 5f588570 f   olemsgf.obj
 0001:000875d1       ?Revoke@COleMessageFilter@@QAEXXZ 5f5885d1 f   olemsgf.obj
 0001:00087610       ??1COleObjectFactory@@UAE@XZ 5f588610 f   olefact.obj
 0001:00087700       ?Revoke@COleObjectFactory@@QAEXXZ 5f588700 f   olefact.obj
 0001:00087751       ?RevokeAll@COleObjectFactory@@SGXXZ 5f588751 f   olefact.obj
 0001:00087f70       ??_ECOleDataSource@@UAEPAXI@Z 5f588f70 f i dllole.obj
 0001:00087fe0       ??_ECOleDispatchDriver@@QAEPAXI@Z 5f588fe0 f i dllole.obj
 0001:00088050       ??_ECOleDropSource@@UAEPAXI@Z 5f589050 f i dllole.obj
 0001:000880c0       ??1COleDropSource@@UAE@XZ  5f5890c0 f i dllole.obj
 0001:000880e0       ??_ECOleResizeBar@@UAEPAXI@Z 5f5890e0 f i dllole.obj
 0001:00088150       ??_ECOleStreamFile@@UAEPAXI@Z 5f589150 f i dllole.obj
 0001:000881c0       ??_FCOleStreamFile@@QAEXXZ 5f5891c0 f i dllole.obj
 0001:000881e0       ??_ECMonikerFile@@UAEPAXI@Z 5f5891e0 f i dllole.obj
 0001:00088250       ??_ECOleTemplateServer@@UAEPAXI@Z 5f589250 f i dllole.obj
 0001:000882c0       ??1COleTemplateServer@@UAE@XZ 5f5892c0 f i dllole.obj
 0001:000882e0       ??_ECOleDataObject@@QAEPAXI@Z 5f5892e0 f i dllole.obj
 0001:00088350       ??_ECOleDropTarget@@UAEPAXI@Z 5f589350 f i dllole.obj
 0001:000883c0       ??_ECOleIPFrameWnd@@UAEPAXI@Z 5f5893c0 f i dllole.obj
 0001:00088430       ??_ECOleDocIPFrameWnd@@UAEPAXI@Z 5f589430 f i dllole.obj
 0001:000884a0       ??_ECAsyncMonikerFile@@UAEPAXI@Z 5f5894a0 f i dllole.obj
 0001:00088510       ??_ECCachedDataPathProperty@@UAEPAXI@Z 5f589510 f i dllole.obj
 0001:00088580       ??_FCCachedDataPathProperty@@QAEXXZ 5f589580 f i dllole.obj
 0001:000885a0       ??1CCachedDataPathProperty@@UAE@XZ 5f5895a0 f i dllole.obj
 0001:000885f0       ??_ECDataPathProperty@@UAEPAXI@Z 5f5895f0 f i dllole.obj
 0001:00088660       ??_FCDataPathProperty@@QAEXXZ 5f589660 f i dllole.obj
 0001:00088680       ??1CDataPathProperty@@UAE@XZ 5f589680 f i dllole.obj
 0001:000886d0       ??_ECOleVariant@@QAEPAXI@Z 5f5896d0 f i dllole.obj
 0001:00088740       ??_ECRichEditView@@UAEPAXI@Z 5f589740 f i dllole.obj
 0001:000887b0       ??1CRichEditView@@UAE@XZ   5f5897b0 f i dllole.obj
 0001:00088810       ??_ECRichEditCntrItem@@UAEPAXI@Z 5f589810 f i dllole.obj
 0001:00088880       ??_FCRichEditCntrItem@@QAEXXZ 5f589880 f i dllole.obj
 0001:000888a0       ??1CCtrlView@@UAE@XZ       5f5898a0 f i dllole.obj
 0001:000888f0       ?GetHead@?$CTypedSimpleList@PAUCRuntimeClass@@@@QAEPAUCRuntimeClass@@XZ 5f5898f0 f i dllole.obj
 0001:000888f0       ??B?$CTypedSimpleList@PAVCOleObjectFactory@@@@QAEPAVCOleObjectFactory@@XZ 5f5898f0 f i dllole.obj
 0001:000888f0       ?GetHead@?$CTypedSimpleList@PAVCOleObjectFactory@@@@QAEPAVCOleObjectFactory@@XZ 5f5898f0 f i dllole.obj
 0001:000888f0       ??B?$CTypedSimpleList@PAUCRuntimeClass@@@@QAEPAUCRuntimeClass@@XZ 5f5898f0 f i dllole.obj
 0002:00000000       __imp__DPtoLP@12           5f58e000     gdi32:GDI32.dll
 0002:00000004       __imp__CopyMetaFileA@8     5f58e004     gdi32:GDI32.dll
 0002:00000008       __imp__CreateDCA@16        5f58e008     gdi32:GDI32.dll
 0002:0000000c       __imp__GetDeviceCaps@8     5f58e00c     gdi32:GDI32.dll
 0002:00000010       __imp__DeleteMetaFile@4    5f58e010     gdi32:GDI32.dll
 0002:00000014       __imp__DeleteDC@4          5f58e014     gdi32:GDI32.dll
 0002:00000018       __imp__ScaleWindowExtEx@24 5f58e018     gdi32:GDI32.dll
 0002:0000001c       __imp__LPtoDP@12           5f58e01c     gdi32:GDI32.dll
 0002:00000020       __imp__SetMapMode@8        5f58e020     gdi32:GDI32.dll
 0002:00000024       __imp__SelectObject@8      5f58e024     gdi32:GDI32.dll
 0002:00000028       __imp__GetPaletteEntries@16 5f58e028     gdi32:GDI32.dll
 0002:0000002c       __imp__CreatePalette@4     5f58e02c     gdi32:GDI32.dll
 0002:00000030       __imp__EnumFontFamiliesA@16 5f58e030     gdi32:GDI32.dll
 0002:00000034       \177GDI32_NULL_THUNK_DATA  5f58e034     gdi32:GDI32.dll
 0002:00000038       __imp__WideCharToMultiByte@32 5f58e038     kernel32:KERNEL32.dll
 0002:0000003c       __imp__lstrlenA@4          5f58e03c     kernel32:KERNEL32.dll
 0002:00000040       __imp__GetTickCount@0      5f58e040     kernel32:KERNEL32.dll
 0002:00000044       __imp__lstrlenW@4          5f58e044     kernel32:KERNEL32.dll
 0002:00000048       __imp__LocalAlloc@8        5f58e048     kernel32:KERNEL32.dll
 0002:0000004c       __imp__LocalFree@4         5f58e04c     kernel32:KERNEL32.dll
 0002:00000050       __imp__LoadLibraryA@4      5f58e050     kernel32:KERNEL32.dll
 0002:00000054       __imp__FreeLibrary@4       5f58e054     kernel32:KERNEL32.dll
 0002:00000058       __imp__GlobalFree@4        5f58e058     kernel32:KERNEL32.dll
 0002:0000005c       __imp__GetModuleHandleA@4  5f58e05c     kernel32:KERNEL32.dll
 0002:00000060       __imp__GlobalLock@4        5f58e060     kernel32:KERNEL32.dll
 0002:00000064       __imp__GlobalAlloc@8       5f58e064     kernel32:KERNEL32.dll
 0002:00000068       __imp__GlobalUnlock@4      5f58e068     kernel32:KERNEL32.dll
 0002:0000006c       __imp__InterlockedIncrement@4 5f58e06c     kernel32:KERNEL32.dll
 0002:00000070       __imp__lstrcmpiA@8         5f58e070     kernel32:KERNEL32.dll
 0002:00000074       __imp__InterlockedDecrement@4 5f58e074     kernel32:KERNEL32.dll
 0002:00000078       __imp__FileTimeToSystemTime@8 5f58e078     kernel32:KERNEL32.dll
 0002:0000007c       __imp__GetLastError@0      5f58e07c     kernel32:KERNEL32.dll
 0002:00000080       __imp__lstrcpynA@12        5f58e080     kernel32:KERNEL32.dll
 0002:00000084       __imp__GetProfileIntA@12   5f58e084     kernel32:KERNEL32.dll
 0002:00000088       __imp__GetCurrentThreadId@0 5f58e088     kernel32:KERNEL32.dll
 0002:0000008c       __imp__FileTimeToLocalFileTime@8 5f58e08c     kernel32:KERNEL32.dll
 0002:00000090       __imp__FormatMessageA@28   5f58e090     kernel32:KERNEL32.dll
 0002:00000094       __imp__GlobalSize@4        5f58e094     kernel32:KERNEL32.dll
 0002:00000098       __imp__lstrcmpA@8          5f58e098     kernel32:KERNEL32.dll
 0002:0000009c       __imp__MulDiv@12           5f58e09c     kernel32:KERNEL32.dll
 0002:000000a0       __imp__lstrcatA@8          5f58e0a0     kernel32:KERNEL32.dll
 0002:000000a4       __imp__CopyFileA@12        5f58e0a4     kernel32:KERNEL32.dll
 0002:000000a8       __imp__FreeResource@4      5f58e0a8     kernel32:KERNEL32.dll
 0002:000000ac       __imp__LockResource@4      5f58e0ac     kernel32:KERNEL32.dll
 0002:000000b0       __imp__GetModuleFileNameA@12 5f58e0b0     kernel32:KERNEL32.dll
 0002:000000b4       __imp__FindResourceA@12    5f58e0b4     kernel32:KERNEL32.dll
 0002:000000b8       __imp__GetThreadLocale@0   5f58e0b8     kernel32:KERNEL32.dll
 0002:000000bc       __imp__LoadResource@8      5f58e0bc     kernel32:KERNEL32.dll
 0002:000000c0       __imp__lstrcpyW@8          5f58e0c0     kernel32:KERNEL32.dll
 0002:000000c4       __imp__GetUserDefaultLCID@0 5f58e0c4     kernel32:KERNEL32.dll
 0002:000000c8       __imp__OutputDebugStringA@4 5f58e0c8     kernel32:KERNEL32.dll
 0002:000000cc       __imp__lstrcpyA@8          5f58e0cc     kernel32:KERNEL32.dll
 0002:000000d0       __imp__GetVersion@0        5f58e0d0     kernel32:KERNEL32.dll
 0002:000000d4       __imp__IsDBCSLeadByte@4    5f58e0d4     kernel32:KERNEL32.dll
 0002:000000d8       __imp__GetProcAddress@8    5f58e0d8     kernel32:KERNEL32.dll
 0002:000000dc       __imp__InterlockedExchange@8 5f58e0dc     kernel32:KERNEL32.dll
 0002:000000e0       __imp__MultiByteToWideChar@24 5f58e0e0     kernel32:KERNEL32.dll
 0002:000000e4       __imp__RaiseException@16   5f58e0e4     kernel32:KERNEL32.dll
 0002:000000e8       \177KERNEL32_NULL_THUNK_DATA 5f58e0e8     kernel32:KERNEL32.dll
 0002:000000ec       __imp_??6CDumpContext@@QAEAAV0@K@Z 5f58e0ec     MFC42D:MFC42D.DLL
 0002:000000f0       __imp_?AfxIsValidAddress@@YGHPBXIH@Z 5f58e0f0     MFC42D:MFC42D.DLL
 0002:000000f4       __imp_?AfxThrowArchiveException@@YGXHPBD@Z 5f58e0f4     MFC42D:MFC42D.DLL
 0002:000000f8       __imp_?Read@CArchive@@QAEIPAXI@Z 5f58e0f8     MFC42D:MFC42D.DLL
 0002:000000fc       __imp_?AfxThrowMemoryException@@YGXXZ 5f58e0fc     MFC42D:MFC42D.DLL
 0002:00000100       __imp_??5CArchive@@QAEAAV0@AAK@Z 5f58e100     MFC42D:MFC42D.DLL
 0002:00000104       __imp_?Write@CArchive@@QAEXPBXI@Z 5f58e104     MFC42D:MFC42D.DLL
 0002:00000108       __imp_??6CArchive@@QAEAAV0@K@Z 5f58e108     MFC42D:MFC42D.DLL
 0002:0000010c       __imp_??5CArchive@@QAEAAV0@AAG@Z 5f58e10c     MFC42D:MFC42D.DLL
 0002:00000110       __imp_??6CArchive@@QAEAAV0@G@Z 5f58e110     MFC42D:MFC42D.DLL
 0002:00000114       __imp_?IsStoring@CArchive@@QBEHXZ 5f58e114     MFC42D:MFC42D.DLL
 0002:00000118       __imp_?GetClientRect@CWnd@@QBEXPAUtagRECT@@@Z 5f58e118     MFC42D:MFC42D.DLL
 0002:0000011c       __imp_?IsEmpty@CString@@QBEHXZ 5f58e11c     MFC42D:MFC42D.DLL
 0002:00000120       __imp_?GetPathName@CDocument@@QBEABVCString@@XZ 5f58e120     MFC42D:MFC42D.DLL
 0002:00000124       __imp_?classCFrameWnd@CFrameWnd@@2UCRuntimeClass@@B 5f58e124     MFC42D:MFC42D.DLL
 0002:00000128       __imp_?GetParentFrame@CWnd@@QBEPAVCFrameWnd@@XZ 5f58e128     MFC42D:MFC42D.DLL
 0002:0000012c       __imp_?AfxGetFileTitle@@YGIPBDPADI@Z 5f58e12c     MFC42D:MFC42D.DLL
 0002:00000130       __imp_?IsPrinting@CDC@@QBEHXZ 5f58e130     MFC42D:MFC42D.DLL
 0002:00000134       __imp_?GetWindowExt@CDC@@QBE?AVCSize@@XZ 5f58e134     MFC42D:MFC42D.DLL
 0002:00000138       __imp_?GetWindowOrg@CDC@@QBE?AVCPoint@@XZ 5f58e138     MFC42D:MFC42D.DLL
 0002:0000013c       __imp_?DPtoHIMETRIC@CDC@@QBEXPAUtagSIZE@@@Z 5f58e13c     MFC42D:MFC42D.DLL
 0002:00000140       __imp_?AfxIsValidString@@YGHPBDH@Z 5f58e140     MFC42D:MFC42D.DLL
 0002:00000144       __imp_?interfaceMap@CCmdTarget@@1UAFX_INTERFACEMAP@@B 5f58e144     MFC42D:MFC42D.DLL
 0002:00000148       __imp_??6CDumpContext@@QAEAAV0@E@Z 5f58e148     MFC42D:MFC42D.DLL
 0002:0000014c       __imp_??6CDumpContext@@QAEAAV0@J@Z 5f58e14c     MFC42D:MFC42D.DLL
 0002:00000150       __imp_??BCString@@QBEPBDXZ 5f58e150     MFC42D:MFC42D.DLL
 0002:00000154       __imp_?GetTitle@CDocument@@QBEABVCString@@XZ 5f58e154     MFC42D:MFC42D.DLL
 0002:00000158       __imp_??6CDumpContext@@QAEAAV0@PBX@Z 5f58e158     MFC42D:MFC42D.DLL
 0002:0000015c       __imp_??6CDumpContext@@QAEAAV0@PBD@Z 5f58e15c     MFC42D:MFC42D.DLL
 0002:00000160       __imp_?Dump@CCmdTarget@@UBEXAAVCDumpContext@@@Z 5f58e160     MFC42D:MFC42D.DLL
 0002:00000164       __imp_?AssertValid@CCmdTarget@@UBEXXZ 5f58e164     MFC42D:MFC42D.DLL
 0002:00000168       __imp_?Serialize@CObject@@UAEXAAVCArchive@@@Z 5f58e168     MFC42D:MFC42D.DLL
 0002:0000016c       __imp_?GetRuntimeClass@CCmdTarget@@UBEPAUCRuntimeClass@@XZ 5f58e16c     MFC42D:MFC42D.DLL
 0002:00000170       __imp_??0CString@@QAE@XZ   5f58e170     MFC42D:MFC42D.DLL
 0002:00000174       __imp_??0CCmdTarget@@QAE@XZ 5f58e174     MFC42D:MFC42D.DLL
 0002:00000178       __imp_?DelayUpdateFrameTitle@CFrameWnd@@QAEXXZ 5f58e178     MFC42D:MFC42D.DLL
 0002:0000017c       __imp_?SendMessageA@CWnd@@QAEJIIJ@Z 5f58e17c     MFC42D:MFC42D.DLL
 0002:00000180       __imp_?GetSafeHmenu@CMenu@@QBEPAUHMENU__@@XZ 5f58e180     MFC42D:MFC42D.DLL
 0002:00000184       __imp_?AfxDynamicDownCast@@YAPAVCObject@@PAUCRuntimeClass@@PAV1@@Z 5f58e184     MFC42D:MFC42D.DLL
 0002:00000188       __imp_?IsWindowEnabled@CWnd@@QBEHXZ 5f58e188     MFC42D:MFC42D.DLL
 0002:0000018c       __imp_?GetSafeHwnd@CWnd@@QBEPAUHWND__@@XZ 5f58e18c     MFC42D:MFC42D.DLL
 0002:00000190       __imp_?AfxIsDescendant@@YGHPAUHWND__@@0@Z 5f58e190     MFC42D:MFC42D.DLL
 0002:00000194       __imp_?classCDocTemplate@CDocTemplate@@2UCRuntimeClass@@B 5f58e194     MFC42D:MFC42D.DLL
 0002:00000198       __imp_?AfxStaticDownCast@@YAPAVCObject@@PAUCRuntimeClass@@PAV1@@Z 5f58e198     MFC42D:MFC42D.DLL
 0002:0000019c       __imp_?GetParent@CWnd@@QBEPAV1@XZ 5f58e19c     MFC42D:MFC42D.DLL
 0002:000001a0       __imp_?classCView@CView@@2UCRuntimeClass@@B 5f58e1a0     MFC42D:MFC42D.DLL
 0002:000001a4       __imp_?GetFocus@CWnd@@SGPAV1@XZ 5f58e1a4     MFC42D:MFC42D.DLL
 0002:000001a8       __imp_?GetDocument@CView@@QBEPAVCDocument@@XZ 5f58e1a8     MFC42D:MFC42D.DLL
 0002:000001ac       __imp_?ModifyStyle@CWnd@@QAEHKKI@Z 5f58e1ac     MFC42D:MFC42D.DLL
 0002:000001b0       __imp_?GetStyle@CWnd@@QBEKXZ 5f58e1b0     MFC42D:MFC42D.DLL
 0002:000001b4       __imp_?ShowControlBar@CFrameWnd@@QAEXPAVCControlBar@@HH@Z 5f58e1b4     MFC42D:MFC42D.DLL
 0002:000001b8       __imp_?GetBarStyle@CControlBar@@QAEKXZ 5f58e1b8     MFC42D:MFC42D.DLL
 0002:000001bc       __imp_??6CDumpContext@@QAEAAV0@H@Z 5f58e1bc     MFC42D:MFC42D.DLL
 0002:000001c0       __imp_?GetNext@CPtrList@@QAEAAPAXAAPAU__POSITION@@@Z 5f58e1c0     MFC42D:MFC42D.DLL
 0002:000001c4       __imp_?GetDocTemplate@CDocument@@QBEPAVCDocTemplate@@XZ 5f58e1c4     MFC42D:MFC42D.DLL
 0002:000001c8       __imp_?GetTopLevelFrame@CWnd@@QBEPAVCFrameWnd@@XZ 5f58e1c8     MFC42D:MFC42D.DLL
 0002:000001cc       __imp_?GetParentSplitter@CView@@SGPAVCSplitterWnd@@PBVCWnd@@H@Z 5f58e1cc     MFC42D:MFC42D.DLL
 0002:000001d0       __imp_?SetFocus@CWnd@@QAEPAV1@XZ 5f58e1d0     MFC42D:MFC42D.DLL
 0002:000001d4       __imp_?GetTopLevelParent@CWnd@@QBEPAV1@XZ 5f58e1d4     MFC42D:MFC42D.DLL
 0002:000001d8       __imp_?AfxGetMainWnd@@YGPAVCWnd@@XZ 5f58e1d8     MFC42D:MFC42D.DLL
 0002:000001dc       __imp_?DelayRecalcLayout@CFrameWnd@@QAEXH@Z 5f58e1dc     MFC42D:MFC42D.DLL
 0002:000001e0       __imp_?IsRectEmpty@CRect@@QBEHXZ 5f58e1e0     MFC42D:MFC42D.DLL
 0002:000001e4       __imp_?IntersectRect@CRect@@QAEHPBUtagRECT@@0@Z 5f58e1e4     MFC42D:MFC42D.DLL
 0002:000001e8       __imp_??BCRect@@QAEPAUtagRECT@@XZ 5f58e1e8     MFC42D:MFC42D.DLL
 0002:000001ec       __imp_??BCRect@@QBEPBUtagRECT@@XZ 5f58e1ec     MFC42D:MFC42D.DLL
 0002:000001f0       __imp_??0CRect@@QAE@XZ     5f58e1f0     MFC42D:MFC42D.DLL
 0002:000001f4       __imp_?FromHandle@CWnd@@SGPAV1@PAUHWND__@@@Z 5f58e1f4     MFC42D:MFC42D.DLL
 0002:000001f8       __imp_?PostMessageA@CWnd@@QAEHIIJ@Z 5f58e1f8     MFC42D:MFC42D.DLL
 0002:000001fc       __imp_?CanEnterHelpMode@CFrameWnd@@QAEHXZ 5f58e1fc     MFC42D:MFC42D.DLL
 0002:00000200       __imp_??4CString@@QAEABV0@PBG@Z 5f58e200     MFC42D:MFC42D.DLL
 0002:00000204       __imp_?Empty@CString@@QAEXXZ 5f58e204     MFC42D:MFC42D.DLL
 0002:00000208       __imp_?FromHandle@CMenu@@SGPAV1@PAUHMENU__@@@Z 5f58e208     MFC42D:MFC42D.DLL
 0002:0000020c       __imp_??0CSize@@QAE@UtagSIZE@@@Z 5f58e20c     MFC42D:MFC42D.DLL
 0002:00000210       __imp_?CopyRect@CRect@@QAEXPBUtagRECT@@@Z 5f58e210     MFC42D:MFC42D.DLL
 0002:00000214       __imp_?GetData@CProcessLocalObject@@QAEPAVCNoTrackObject@@P6GPAV2@XZ@Z 5f58e214     MFC42D:MFC42D.DLL
 0002:00000218       __imp_??3CNoTrackObject@@SGXPAX@Z 5f58e218     MFC42D:MFC42D.DLL
 0002:0000021c       __imp_??2CNoTrackObject@@SGPAXI@Z 5f58e21c     MFC42D:MFC42D.DLL
 0002:00000220       __imp_?SetRectEmpty@CRect@@QAEXXZ 5f58e220     MFC42D:MFC42D.DLL
 0002:00000224       __imp_?SetRect@CRect@@QAEXHHHH@Z 5f58e224     MFC42D:MFC42D.DLL
 0002:00000228       __imp_??0CSize@@QAE@HH@Z   5f58e228     MFC42D:MFC42D.DLL
 0002:0000022c       __imp_?AfxIsValidString@@YGHPBGH@Z 5f58e22c     MFC42D:MFC42D.DLL
 0002:00000230       __imp_?GetBufferSetLength@CString@@QAEPADH@Z 5f58e230     MFC42D:MFC42D.DLL
 0002:00000234       __imp_?AfxA2WHelper@@YGPAGPAGPBDH@Z 5f58e234     MFC42D:MFC42D.DLL
 0002:00000238       __imp_?AfxW2AHelper@@YGPADPADPBGH@Z 5f58e238     MFC42D:MFC42D.DLL
 0002:0000023c       __imp_?SetHandle@CSharedFile@@QAEXPAXH@Z 5f58e23c     MFC42D:MFC42D.DLL
 0002:00000240       __imp_??0CSharedFile@@QAE@II@Z 5f58e240     MFC42D:MFC42D.DLL
 0002:00000244       __imp_??0CFile@@QAE@XZ     5f58e244     MFC42D:MFC42D.DLL
 0002:00000248       __imp_??2@YAPAXIPBDH@Z     5f58e248     MFC42D:MFC42D.DLL
 0002:0000024c       __imp_??1CSharedFile@@UAE@XZ 5f58e24c     MFC42D:MFC42D.DLL
 0002:00000250       __imp_?Detach@CSharedFile@@QAEPAXXZ 5f58e250     MFC42D:MFC42D.DLL
 0002:00000254       __imp_??6CDumpContext@@QAEAAV0@G@Z 5f58e254     MFC42D:MFC42D.DLL
 0002:00000258       __imp_??6CDumpContext@@QAEAAV0@I@Z 5f58e258     MFC42D:MFC42D.DLL
 0002:0000025c       __imp_?GetData@CString@@IBEPAUCStringData@@XZ 5f58e25c     MFC42D:MFC42D.DLL
 0002:00000260       __imp_?ReportError@CException@@UAEHII@Z 5f58e260     MFC42D:MFC42D.DLL
 0002:00000264       __imp_?Dump@CObject@@UBEXAAVCDumpContext@@@Z 5f58e264     MFC42D:MFC42D.DLL
 0002:00000268       __imp_?AssertValid@CObject@@UBEXXZ 5f58e268     MFC42D:MFC42D.DLL
 0002:0000026c       __imp_??1CException@@UAE@XZ 5f58e26c     MFC42D:MFC42D.DLL
 0002:00000270       __imp_??3CException@@SGXPAX@Z 5f58e270     MFC42D:MFC42D.DLL
 0002:00000274       __imp_?AfxLoadString@@YGHIPADI@Z 5f58e274     MFC42D:MFC42D.DLL
 0002:00000278       __imp_?classCMemoryException@CMemoryException@@2UCRuntimeClass@@B 5f58e278     MFC42D:MFC42D.DLL
 0002:0000027c       __imp_??4CString@@QAEABV0@PBD@Z 5f58e27c     MFC42D:MFC42D.DLL
 0002:00000280       __imp_??0CException@@QAE@XZ 5f58e280     MFC42D:MFC42D.DLL
 0002:00000284       __imp_??3CException@@SGXPAXPBDH@Z 5f58e284     MFC42D:MFC42D.DLL
 0002:00000288       __imp_?PreInitDialog@CDialog@@MAEXXZ 5f58e288     MFC42D:MFC42D.DLL
 0002:0000028c       __imp_?OnCancel@CCommonDialog@@MAEXXZ 5f58e28c     MFC42D:MFC42D.DLL
 0002:00000290       __imp_?OnOK@CCommonDialog@@MAEXXZ 5f58e290     MFC42D:MFC42D.DLL
 0002:00000294       __imp_?OnSetFont@CDialog@@UAEXPAVCFont@@@Z 5f58e294     MFC42D:MFC42D.DLL
 0002:00000298       __imp_?GetHeadPosition@CPtrList@@QBEPAU__POSITION@@XZ 5f58e298     MFC42D:MFC42D.DLL
 0002:0000029c       __imp_?OnInitDialog@CDialog@@UAEHXZ 5f58e29c     MFC42D:MFC42D.DLL
 0002:000002a0       __imp_?IsFrameWnd@CWnd@@UBEHXZ 5f58e2a0     MFC42D:MFC42D.DLL
 0002:000002a4       __imp_?CheckAutoCenter@CDialog@@UAEHXZ 5f58e2a4     MFC42D:MFC42D.DLL
 0002:000002a8       __imp_?OnChildNotify@CWnd@@MAEHIIJPAJ@Z 5f58e2a8     MFC42D:MFC42D.DLL
 0002:000002ac       __imp_?PostNcDestroy@CWnd@@MAEXXZ 5f58e2ac     MFC42D:MFC42D.DLL
 0002:000002b0       __imp_?DefWindowProcA@CWnd@@MAEJIIJ@Z 5f58e2b0     MFC42D:MFC42D.DLL
 0002:000002b4       __imp_?OnWndMsg@CWnd@@MAEHIIJPAJ@Z 5f58e2b4     MFC42D:MFC42D.DLL
 0002:000002b8       __imp_?WindowProc@CWnd@@MAEJIIJ@Z 5f58e2b8     MFC42D:MFC42D.DLL
 0002:000002bc       __imp_?OnAmbientProperty@CWnd@@UAEHPAVCOleControlSite@@JPAUtagVARIANT@@@Z 5f58e2bc     MFC42D:MFC42D.DLL
 0002:000002c0       __imp_?PreTranslateMessage@CDialog@@UAEHPAUtagMSG@@@Z 5f58e2c0     MFC42D:MFC42D.DLL
 0002:000002c4       __imp_?EndModalState@CWnd@@UAEXXZ 5f58e2c4     MFC42D:MFC42D.DLL
 0002:000002c8       __imp_?BeginModalState@CWnd@@UAEXXZ 5f58e2c8     MFC42D:MFC42D.DLL
 0002:000002cc       __imp_?DoDataExchange@CWnd@@MAEXPAVCDataExchange@@@Z 5f58e2cc     MFC42D:MFC42D.DLL
 0002:000002d0       __imp_?GetSuperWndProcAddr@CWnd@@MAEPAP6GJPAUHWND__@@IIJ@ZXZ 5f58e2d0     MFC42D:MFC42D.DLL
 0002:000002d4       __imp_?OnNotify@CWnd@@MAEHIJPAJ@Z 5f58e2d4     MFC42D:MFC42D.DLL
 0002:000002d8       __imp_?OnCommand@CWnd@@MAEHIJ@Z 5f58e2d8     MFC42D:MFC42D.DLL
 0002:000002dc       __imp_?EndModalLoop@CWnd@@UAEXH@Z 5f58e2dc     MFC42D:MFC42D.DLL
 0002:000002e0       __imp_?ContinueModal@CWnd@@UAEHXZ 5f58e2e0     MFC42D:MFC42D.DLL
 0002:000002e4       __imp_?WinHelpA@CWnd@@UAEXKI@Z 5f58e2e4     MFC42D:MFC42D.DLL
 0002:000002e8       __imp_?GetScrollBarCtrl@CWnd@@UBEPAVCScrollBar@@H@Z 5f58e2e8     MFC42D:MFC42D.DLL
 0002:000002ec       __imp_?OnToolHitTest@CWnd@@UBEHVCPoint@@PAUtagTOOLINFOA@@@Z 5f58e2ec     MFC42D:MFC42D.DLL
 0002:000002f0       __imp_?CalcWindowRect@CWnd@@UAEXPAUtagRECT@@I@Z 5f58e2f0     MFC42D:MFC42D.DLL
 0002:000002f4       __imp_?PreCreateWindow@CWnd@@UAEHAAUtagCREATESTRUCTA@@@Z 5f58e2f4     MFC42D:MFC42D.DLL
 0002:000002f8       __imp_?DestroyWindow@CWnd@@UAEHXZ 5f58e2f8     MFC42D:MFC42D.DLL
 0002:000002fc       __imp_?Create@CWnd@@UAEHPBD0KABUtagRECT@@PAV1@IPAUCCreateContext@@@Z 5f58e2fc     MFC42D:MFC42D.DLL
 0002:00000300       __imp_?PreSubclassWindow@CWnd@@UAEXXZ 5f58e300     MFC42D:MFC42D.DLL
 0002:00000304       __imp_?GetInterfaceMap@CCmdTarget@@MBEPBUAFX_INTERFACEMAP@@XZ 5f58e304     MFC42D:MFC42D.DLL
 0002:00000308       __imp_?GetMessageMap@CCommonDialog@@MBEPBUAFX_MSGMAP@@XZ 5f58e308     MFC42D:MFC42D.DLL
 0002:0000030c       __imp_?OnFinalRelease@CWnd@@UAEXXZ 5f58e30c     MFC42D:MFC42D.DLL
 0002:00000310       __imp_?OnCmdMsg@CDialog@@UAEHIHPAXPAUAFX_CMDHANDLERINFO@@@Z 5f58e310     MFC42D:MFC42D.DLL
 0002:00000314       __imp_?AssertValid@CDialog@@UBEXXZ 5f58e314     MFC42D:MFC42D.DLL
 0002:00000318       __imp_?AfxHelpEnabled@@YGHXZ 5f58e318     MFC42D:MFC42D.DLL
 0002:0000031c       __imp_?afxData@@3UAUX_DATA@@A 5f58e31c     MFC42D:MFC42D.DLL
 0002:00000320       __imp_??1CDialog@@UAE@XZ   5f58e320     MFC42D:MFC42D.DLL
 0002:00000324       __imp_?AfxMessageBox@@YGHIII@Z 5f58e324     MFC42D:MFC42D.DLL
 0002:00000328       __imp_?Format@CString@@QAAXPBDZZ 5f58e328     MFC42D:MFC42D.DLL
 0002:0000032c       __imp_?AfxStringFromCLSID@@YG?AVCString@@ABU_GUID@@@Z 5f58e32c     MFC42D:MFC42D.DLL
 0002:00000330       __imp_?PostModal@CDialog@@IAEXXZ 5f58e330     MFC42D:MFC42D.DLL
 0002:00000334       __imp_?PreModal@CDialog@@IAEPAUHWND__@@XZ 5f58e334     MFC42D:MFC42D.DLL
 0002:00000338       __imp_??1CWaitCursor@@QAE@XZ 5f58e338     MFC42D:MFC42D.DLL
 0002:0000033c       __imp_??0CWaitCursor@@QAE@XZ 5f58e33c     MFC42D:MFC42D.DLL
 0002:00000340       __imp_?LoadStringA@CString@@QAEHI@Z 5f58e340     MFC42D:MFC42D.DLL
 0002:00000344       __imp_??6@YGAAVCDumpContext@@AAV0@ABVCString@@@Z 5f58e344     MFC42D:MFC42D.DLL
 0002:00000348       __imp_?AfxThrowResourceException@@YGXXZ 5f58e348     MFC42D:MFC42D.DLL
 0002:0000034c       __imp_??0CString@@QAE@PBD@Z 5f58e34c     MFC42D:MFC42D.DLL
 0002:00000350       __imp_??0CString@@QAE@PBDH@Z 5f58e350     MFC42D:MFC42D.DLL
 0002:00000354       __imp_?AfxDlgProc@@YGHPAUHWND__@@IIJ@Z 5f58e354     MFC42D:MFC42D.DLL
 0002:00000358       __imp_?DoModal@CDialog@@UAEHXZ 5f58e358     MFC42D:MFC42D.DLL
 0002:0000035c       __imp_??0CCommonDialog@@QAE@PAVCWnd@@@Z 5f58e35c     MFC42D:MFC42D.DLL
 0002:00000360       __imp_?Dump@CDialog@@UBEXAAVCDumpContext@@@Z 5f58e360     MFC42D:MFC42D.DLL
 0002:00000364       __imp_?Detach@CWnd@@QAEPAUHWND__@@XZ 5f58e364     MFC42D:MFC42D.DLL
 0002:00000368       __imp_?AfxUnhookWindowCreate@@YGHXZ 5f58e368     MFC42D:MFC42D.DLL
 0002:0000036c       __imp_?AfxHookWindowCreate@@YGXPAVCWnd@@@Z 5f58e36c     MFC42D:MFC42D.DLL
 0002:00000370       __imp_?GetSafeOwner_@CWnd@@SGPAUHWND__@@PAU2@PAPAU2@@Z 5f58e370     MFC42D:MFC42D.DLL
 0002:00000374       __imp_?classCDialog@CDialog@@2UCRuntimeClass@@B 5f58e374     MFC42D:MFC42D.DLL
 0002:00000378       __imp_?CenterWindow@CWnd@@QAEXPAV1@@Z 5f58e378     MFC42D:MFC42D.DLL
 0002:0000037c       __imp_??4CString@@QAEABV0@ABV0@@Z 5f58e37c     MFC42D:MFC42D.DLL
 0002:00000380       __imp_??0CString@@QAE@ABV0@@Z 5f58e380     MFC42D:MFC42D.DLL
 0002:00000384       __imp_??1CProcessLocalObject@@QAE@XZ 5f58e384     MFC42D:MFC42D.DLL
 0002:00000388       __imp_?GetData@CByteArray@@QBEPBEXZ 5f58e388     MFC42D:MFC42D.DLL
 0002:0000038c       __imp_?GetSize@CByteArray@@QBEHXZ 5f58e38c     MFC42D:MFC42D.DLL
 0002:00000390       __imp_??6CDumpContext@@QAEAAV0@N@Z 5f58e390     MFC42D:MFC42D.DLL
 0002:00000394       __imp_??6CDumpContext@@QAEAAV0@M@Z 5f58e394     MFC42D:MFC42D.DLL
 0002:00000398       __imp_??6CDumpContext@@QAEAAV0@PBG@Z 5f58e398     MFC42D:MFC42D.DLL
 0002:0000039c       __imp_??0CArchiveStream@@QAE@PAVCArchive@@@Z 5f58e39c     MFC42D:MFC42D.DLL
 0002:000003a0       __imp_??6CArchive@@QAEAAV0@N@Z 5f58e3a0     MFC42D:MFC42D.DLL
 0002:000003a4       __imp_??6CArchive@@QAEAAV0@M@Z 5f58e3a4     MFC42D:MFC42D.DLL
 0002:000003a8       __imp_??6CArchive@@QAEAAV0@J@Z 5f58e3a8     MFC42D:MFC42D.DLL
 0002:000003ac       __imp_??6CArchive@@QAEAAV0@E@Z 5f58e3ac     MFC42D:MFC42D.DLL
 0002:000003b0       __imp_??5CArchive@@QAEAAV0@AAN@Z 5f58e3b0     MFC42D:MFC42D.DLL
 0002:000003b4       __imp_??5CArchive@@QAEAAV0@AAM@Z 5f58e3b4     MFC42D:MFC42D.DLL
 0002:000003b8       __imp_??5CArchive@@QAEAAV0@AAJ@Z 5f58e3b8     MFC42D:MFC42D.DLL
 0002:000003bc       __imp_??5CArchive@@QAEAAV0@AAE@Z 5f58e3bc     MFC42D:MFC42D.DLL
 0002:000003c0       __imp_?HashKey@@YGIPBG@Z   5f58e3c0     MFC42D:MFC42D.DLL
 0002:000003c4       __imp_?ReleaseBuffer@CString@@QAEXH@Z 5f58e3c4     MFC42D:MFC42D.DLL
 0002:000003c8       __imp_?GetLength@CString@@QBEHXZ 5f58e3c8     MFC42D:MFC42D.DLL
 0002:000003cc       __imp_??YCString@@QAEABV0@PBD@Z 5f58e3cc     MFC42D:MFC42D.DLL
 0002:000003d0       __imp_?GetBuffer@CString@@QAEPADH@Z 5f58e3d0     MFC42D:MFC42D.DLL
 0002:000003d4       __imp_?GetDepth@CDumpContext@@QBEHXZ 5f58e3d4     MFC42D:MFC42D.DLL
 0002:000003d8       __imp_?AfxSetWindowText@@YGXPAUHWND__@@PBD@Z 5f58e3d8     MFC42D:MFC42D.DLL
 0002:000003dc       __imp_?Fail@CDataExchange@@QAEXXZ 5f58e3dc     MFC42D:MFC42D.DLL
 0002:000003e0       __imp_?PrepareEditCtrl@CDataExchange@@QAEPAUHWND__@@H@Z 5f58e3e0     MFC42D:MFC42D.DLL
 0002:000003e4       __imp_?GetDefaultAccelerator@CDocument@@UAEPAUHACCEL__@@XZ 5f58e3e4     MFC42D:MFC42D.DLL
 0002:000003e8       __imp_?GetDefaultMenu@CDocument@@UAEPAUHMENU__@@XZ 5f58e3e8     MFC42D:MFC42D.DLL
 0002:000003ec       __imp_?UpdateFrameCounts@CDocument@@UAEXXZ 5f58e3ec     MFC42D:MFC42D.DLL
 0002:000003f0       __imp_?DoFileSave@CDocument@@UAEHXZ 5f58e3f0     MFC42D:MFC42D.DLL
 0002:000003f4       __imp_?DoSave@CDocument@@UAEHPBDH@Z 5f58e3f4     MFC42D:MFC42D.DLL
 0002:000003f8       __imp_?CanCloseFrame@CDocument@@UAEHPAVCFrameWnd@@@Z 5f58e3f8     MFC42D:MFC42D.DLL
 0002:000003fc       __imp_?ReleaseFile@CDocument@@UAEXPAVCFile@@H@Z 5f58e3fc     MFC42D:MFC42D.DLL
 0002:00000400       __imp_?GetFile@CDocument@@UAEPAVCFile@@PBDIPAVCFileException@@@Z 5f58e400     MFC42D:MFC42D.DLL
 0002:00000404       __imp_?ReportSaveLoadException@CDocument@@UAEXPBDPAVCException@@HI@Z 5f58e404     MFC42D:MFC42D.DLL
 0002:00000408       __imp_?OnChangedViewList@CDocument@@UAEXXZ 5f58e408     MFC42D:MFC42D.DLL
 0002:0000040c       __imp_?GetNextView@CDocument@@UBEPAVCView@@AAPAU__POSITION@@@Z 5f58e40c     MFC42D:MFC42D.DLL
 0002:00000410       __imp_?GetFirstViewPosition@CDocument@@UBEPAU__POSITION@@XZ 5f58e410     MFC42D:MFC42D.DLL
 0002:00000414       __imp_?SetModifiedFlag@CDocument@@UAEXH@Z 5f58e414     MFC42D:MFC42D.DLL
 0002:00000418       __imp_?IsModified@CDocument@@UAEHXZ 5f58e418     MFC42D:MFC42D.DLL
 0002:0000041c       __imp_?SetTitle@CDocument@@UAEXPBD@Z 5f58e41c     MFC42D:MFC42D.DLL
 0002:00000420       __imp_?GetMessageMap@CDocument@@MBEPBUAFX_MSGMAP@@XZ 5f58e420     MFC42D:MFC42D.DLL
 0002:00000424       __imp_?OnFinalRelease@CDocument@@UAEXXZ 5f58e424     MFC42D:MFC42D.DLL
 0002:00000428       __imp_??1CObList@@UAE@XZ   5f58e428     MFC42D:MFC42D.DLL
 0002:0000042c       __imp_??1CDocument@@UAE@XZ 5f58e42c     MFC42D:MFC42D.DLL
 0002:00000430       __imp_?IsEmpty@CObList@@QBEHXZ 5f58e430     MFC42D:MFC42D.DLL
 0002:00000434       __imp_?IsEmpty@CPtrList@@QBEHXZ 5f58e434     MFC42D:MFC42D.DLL
 0002:00000438       __imp_??0CObList@@QAE@H@Z  5f58e438     MFC42D:MFC42D.DLL
 0002:0000043c       __imp_??0CDocument@@QAE@XZ 5f58e43c     MFC42D:MFC42D.DLL
 0002:00000440       __imp_?GetCount@CObList@@QBEHXZ 5f58e440     MFC42D:MFC42D.DLL
 0002:00000444       __imp_?AddTail@CObList@@QAEPAU__POSITION@@PAVCObject@@@Z 5f58e444     MFC42D:MFC42D.DLL
 0002:00000448       __imp_?RemoveAt@CObList@@QAEXPAU__POSITION@@@Z 5f58e448     MFC42D:MFC42D.DLL
 0002:0000044c       __imp_?SetOccDialogInfo@CDialog@@MAEHPAU_AFX_OCC_DIALOG_INFO@@@Z 5f58e44c     MFC42D:MFC42D.DLL
 0002:00000450       __imp_?GetHeadPosition@CObList@@QBEPAU__POSITION@@XZ 5f58e450     MFC42D:MFC42D.DLL
 0002:00000454       __imp_?GetNext@CObList@@QBEPAVCObject@@AAPAU__POSITION@@@Z 5f58e454     MFC42D:MFC42D.DLL
 0002:00000458       __imp_?Find@CObList@@QBEPAU__POSITION@@PAVCObject@@PAU2@@Z 5f58e458     MFC42D:MFC42D.DLL
 0002:0000045c       __imp_??6@YGAAVCArchive@@AAV0@PBVCObject@@@Z 5f58e45c     MFC42D:MFC42D.DLL
 0002:00000460       __imp_?SaveModified@CDocument@@UAEHXZ 5f58e460     MFC42D:MFC42D.DLL
 0002:00000464       __imp_?AfxMessageBox@@YGHPBDII@Z 5f58e464     MFC42D:MFC42D.DLL
 0002:00000468       __imp_?AfxFormatString1@@YGXAAVCString@@IPBD@Z 5f58e468     MFC42D:MFC42D.DLL
 0002:0000046c       __imp_?OnNewDocument@CDocument@@UAEHXZ 5f58e46c     MFC42D:MFC42D.DLL
 0002:00000470       __imp_?OnOpenDocument@CDocument@@UAEHPBD@Z 5f58e470     MFC42D:MFC42D.DLL
 0002:00000474       __imp_?AfxComparePath@@YGHPBD0@Z 5f58e474     MFC42D:MFC42D.DLL
 0002:00000478       __imp_?OnSaveDocument@CDocument@@UAEHPBD@Z 5f58e478     MFC42D:MFC42D.DLL
 0002:0000047c       __imp_?OnCloseDocument@CDocument@@UAEXXZ 5f58e47c     MFC42D:MFC42D.DLL
 0002:00000480       __imp_??1CFileException@@UAE@XZ 5f58e480     MFC42D:MFC42D.DLL
 0002:00000484       __imp_??1CArchive@@QAE@XZ  5f58e484     MFC42D:MFC42D.DLL
 0002:00000488       __imp_?Close@CArchive@@QAEXXZ 5f58e488     MFC42D:MFC42D.DLL
 0002:0000048c       __imp_??0CArchive@@QAE@PAVCFile@@IHPAX@Z 5f58e48c     MFC42D:MFC42D.DLL
 0002:00000490       __imp_?AfxThrowFileException@@YGXHJPBD@Z 5f58e490     MFC42D:MFC42D.DLL
 0002:00000494       __imp_??0CFileException@@QAE@HJPBD@Z 5f58e494     MFC42D:MFC42D.DLL
 0002:00000498       __imp_?AssertValid@CDocument@@UBEXXZ 5f58e498     MFC42D:MFC42D.DLL
 0002:0000049c       __imp_?Dump@CDocument@@UBEXAAVCDumpContext@@@Z 5f58e49c     MFC42D:MFC42D.DLL
 0002:000004a0       __imp_?classCCmdTarget@CCmdTarget@@2UCRuntimeClass@@B 5f58e4a0     MFC42D:MFC42D.DLL
 0002:000004a4       __imp_?AfxClassInit@@YGXPAUCRuntimeClass@@@Z 5f58e4a4     MFC42D:MFC42D.DLL
 0002:000004a8       __imp_?ReadObject@CArchive@@QAEPAVCObject@@PBUCRuntimeClass@@@Z 5f58e4a8     MFC42D:MFC42D.DLL
 0002:000004ac       __imp_?classCDocument@CDocument@@2UCRuntimeClass@@B 5f58e4ac     MFC42D:MFC42D.DLL
 0002:000004b0       __imp_?AfxUnlockGlobals@@YGXH@Z 5f58e4b0     MFC42D:MFC42D.DLL
 0002:000004b4       __imp_?AfxLockGlobals@@YGXH@Z 5f58e4b4     MFC42D:MFC42D.DLL
 0002:000004b8       __imp_?PtInRect@CRect@@QBEHUtagPOINT@@@Z 5f58e4b8     MFC42D:MFC42D.DLL
 0002:000004bc       __imp_?GetCapture@CWnd@@SGPAV1@XZ 5f58e4bc     MFC42D:MFC42D.DLL
 0002:000004c0       __imp_?SetCapture@CWnd@@QAEPAV1@XZ 5f58e4c0     MFC42D:MFC42D.DLL
 0002:000004c4       __imp_?InflateRect@CRect@@QAEXHH@Z 5f58e4c4     MFC42D:MFC42D.DLL
 0002:000004c8       __imp_?IsRectNull@CRect@@QBEHXZ 5f58e4c8     MFC42D:MFC42D.DLL
 0002:000004cc       __imp_??0CPoint@@QAE@XZ    5f58e4cc     MFC42D:MFC42D.DLL
 0002:000004d0       __imp_?ScreenToClient@CWnd@@QBEXPAUtagPOINT@@@Z 5f58e4d0     MFC42D:MFC42D.DLL
 0002:000004d4       __imp_??0CPoint@@QAE@HH@Z  5f58e4d4     MFC42D:MFC42D.DLL
 0002:000004d8       __imp_?IsDerivedFrom@CRuntimeClass@@QBEHPBU1@@Z 5f58e4d8     MFC42D:MFC42D.DLL
 0002:000004dc       __imp_?CreateObject@CRuntimeClass@@QAEPAVCObject@@XZ 5f58e4dc     MFC42D:MFC42D.DLL
 0002:000004e0       __imp_?AddHead@CSimpleList@@QAEXPAX@Z 5f58e4e0     MFC42D:MFC42D.DLL
 0002:000004e4       __imp_?Remove@CSimpleList@@QAEHPAX@Z 5f58e4e4     MFC42D:MFC42D.DLL
 0002:000004e8       __imp_?ExitHelpMode@CFrameWnd@@UAEXXZ 5f58e4e8     MFC42D:MFC42D.DLL
 0002:000004ec       __imp_?DelayUpdateFrameMenu@CFrameWnd@@UAEXPAUHMENU__@@@Z 5f58e4ec     MFC42D:MFC42D.DLL
 0002:000004f0       __imp_?GetDefaultAccelerator@CFrameWnd@@UAEPAUHACCEL__@@XZ 5f58e4f0     MFC42D:MFC42D.DLL
 0002:000004f4       __imp_?OnUpdateFrameMenu@CFrameWnd@@UAEXPAUHMENU__@@@Z 5f58e4f4     MFC42D:MFC42D.DLL
 0002:000004f8       __imp_?OnUpdateFrameTitle@CFrameWnd@@UAEXH@Z 5f58e4f8     MFC42D:MFC42D.DLL
 0002:000004fc       __imp_?OnCreateClient@CFrameWnd@@MAEHPAUtagCREATESTRUCTA@@PAUCCreateContext@@@Z 5f58e4fc     MFC42D:MFC42D.DLL
 0002:00000500       __imp_?NegotiateBorderSpace@CFrameWnd@@UAEHIPAUtagRECT@@@Z 5f58e500     MFC42D:MFC42D.DLL
 0002:00000504       __imp_?GetMessageBar@CFrameWnd@@UAEPAVCWnd@@XZ 5f58e504     MFC42D:MFC42D.DLL
 0002:00000508       __imp_?OnSetPreviewMode@CFrameWnd@@UAEXHPAUCPrintPreviewState@@@Z 5f58e508     MFC42D:MFC42D.DLL
 0002:0000050c       __imp_?ActivateFrame@CFrameWnd@@UAEXH@Z 5f58e50c     MFC42D:MFC42D.DLL
 0002:00000510       __imp_?GetMessageString@CFrameWnd@@UBEXIAAVCString@@@Z 5f58e510     MFC42D:MFC42D.DLL
 0002:00000514       __imp_?GetActiveFrame@CFrameWnd@@UAEPAV1@XZ 5f58e514     MFC42D:MFC42D.DLL
 0002:00000518       __imp_?GetActiveDocument@CFrameWnd@@UAEPAVCDocument@@XZ 5f58e518     MFC42D:MFC42D.DLL
 0002:0000051c       __imp_?LoadFrame@CFrameWnd@@UAEHIKPAVCWnd@@PAUCCreateContext@@@Z 5f58e51c     MFC42D:MFC42D.DLL
 0002:00000520       __imp_?SetOccDialogInfo@CWnd@@MAEHPAU_AFX_OCC_DIALOG_INFO@@@Z 5f58e520     MFC42D:MFC42D.DLL
 0002:00000524       __imp_?IsFrameWnd@CFrameWnd@@UBEHXZ 5f58e524     MFC42D:MFC42D.DLL
 0002:00000528       __imp_?CheckAutoCenter@CWnd@@UAEHXZ 5f58e528     MFC42D:MFC42D.DLL
 0002:0000052c       __imp_?PreTranslateMessage@CFrameWnd@@UAEHPAUtagMSG@@@Z 5f58e52c     MFC42D:MFC42D.DLL
 0002:00000530       __imp_?EndModalState@CFrameWnd@@UAEXXZ 5f58e530     MFC42D:MFC42D.DLL
 0002:00000534       __imp_?BeginModalState@CFrameWnd@@UAEXXZ 5f58e534     MFC42D:MFC42D.DLL
 0002:00000538       __imp_?OnCommand@CFrameWnd@@MAEHIJ@Z 5f58e538     MFC42D:MFC42D.DLL
 0002:0000053c       __imp_?PreCreateWindow@CFrameWnd@@MAEHAAUtagCREATESTRUCTA@@@Z 5f58e53c     MFC42D:MFC42D.DLL
 0002:00000540       __imp_?GetMessageMap@CFrameWnd@@MBEPBUAFX_MSGMAP@@XZ 5f58e540     MFC42D:MFC42D.DLL
 0002:00000544       __imp_?Dump@CFrameWnd@@UBEXAAVCDumpContext@@@Z 5f58e544     MFC42D:MFC42D.DLL
 0002:00000548       __imp_?GetRuntimeClass@CFrameWnd@@UBEPAUCRuntimeClass@@XZ 5f58e548     MFC42D:MFC42D.DLL
 0002:0000054c       __imp_??1CFrameWnd@@UAE@XZ 5f58e54c     MFC42D:MFC42D.DLL
 0002:00000550       __imp_?RemoveFrameWnd@CFrameWnd@@IAEXXZ 5f58e550     MFC42D:MFC42D.DLL
 0002:00000554       __imp_??0CFrameWnd@@QAE@XZ 5f58e554     MFC42D:MFC42D.DLL
 0002:00000558       __imp_?AddFrameWnd@CFrameWnd@@IAEXXZ 5f58e558     MFC42D:MFC42D.DLL
 0002:0000055c       __imp_?AfxCallWndProc@@YGJPAVCWnd@@PAUHWND__@@IIJ@Z 5f58e55c     MFC42D:MFC42D.DLL
 0002:00000560       __imp_?messageMap@CFrameWnd@@1UAFX_MSGMAP@@B 5f58e560     MFC42D:MFC42D.DLL
 0002:00000564       __imp_?PostNcDestroy@CFrameWnd@@MAEXXZ 5f58e564     MFC42D:MFC42D.DLL
 0002:00000568       __imp_?OnCmdMsg@CFrameWnd@@UAEHIHPAXPAUAFX_CMDHANDLERINFO@@@Z 5f58e568     MFC42D:MFC42D.DLL
 0002:0000056c       __imp_?ModifyStyleEx@CWnd@@QAEHKKI@Z 5f58e56c     MFC42D:MFC42D.DLL
 0002:00000570       __imp_?OnCreate@CFrameWnd@@IAEHPAUtagCREATESTRUCTA@@@Z 5f58e570     MFC42D:MFC42D.DLL
 0002:00000574       __imp_?OnDestroy@CFrameWnd@@IAEXXZ 5f58e574     MFC42D:MFC42D.DLL
 0002:00000578       __imp_?DestroyDockBars@CFrameWnd@@QAEXXZ 5f58e578     MFC42D:MFC42D.DLL
 0002:0000057c       __imp_?DisconnectViews@CDocument@@QAEXXZ 5f58e57c     MFC42D:MFC42D.DLL
 0002:00000580       __imp_?OnWindowPosChanging@CWnd@@IAEXPAUtagWINDOWPOS@@@Z 5f58e580     MFC42D:MFC42D.DLL
 0002:00000584       __imp_?LoadAccelTable@CFrameWnd@@QAEHPBD@Z 5f58e584     MFC42D:MFC42D.DLL
 0002:00000588       __imp_??0CRect@@QAE@HHHH@Z 5f58e588     MFC42D:MFC42D.DLL
 0002:0000058c       __imp_?GetDlgItem@CWnd@@QBEPAV1@H@Z 5f58e58c     MFC42D:MFC42D.DLL
 0002:00000590       __imp_?ScreenToClient@CWnd@@QBEXPAUtagRECT@@@Z 5f58e590     MFC42D:MFC42D.DLL
 0002:00000594       __imp_?ClientToScreen@CWnd@@QBEXPAUtagRECT@@@Z 5f58e594     MFC42D:MFC42D.DLL
 0002:00000598       __imp_?AfxRepositionWindow@@YGXPAUAFX_SIZEPARENTPARAMS@@PAUHWND__@@PBUtagRECT@@@Z 5f58e598     MFC42D:MFC42D.DLL
 0002:0000059c       __imp_?RepositionBars@CWnd@@QAEXIIIIPAUtagRECT@@PBU2@H@Z 5f58e59c     MFC42D:MFC42D.DLL
 0002:000005a0       __imp_?ContinueRouting@CCmdUI@@QAEXXZ 5f58e5a0     MFC42D:MFC42D.DLL
 0002:000005a4       __imp_?OnUpdateControlBarMenu@CFrameWnd@@QAEXPAVCCmdUI@@@Z 5f58e5a4     MFC42D:MFC42D.DLL
 0002:000005a8       __imp_?GetControlBar@CFrameWnd@@QAEPAVCControlBar@@I@Z 5f58e5a8     MFC42D:MFC42D.DLL
 0002:000005ac       __imp_?OnBarCheck@CFrameWnd@@QAEHI@Z 5f58e5ac     MFC42D:MFC42D.DLL
 0002:000005b0       __imp_?OnContextHelp@CFrameWnd@@QAEXXZ 5f58e5b0     MFC42D:MFC42D.DLL
 0002:000005b4       __imp_?AssertValid@CFrameWnd@@UBEXXZ 5f58e5b4     MFC42D:MFC42D.DLL
 0002:000005b8       __imp_??6@YGAAVCDumpContext@@AAV0@ABUtagRECT@@@Z 5f58e5b8     MFC42D:MFC42D.DLL
 0002:000005bc       __imp_??9@YG_NABVCString@@PBD@Z 5f58e5bc     MFC42D:MFC42D.DLL
 0002:000005c0       __imp_?afxTraceFlags@@3IA  5f58e5c0     MFC42D:MFC42D.DLL
 0002:000005c4       __imp_?SendInitialUpdate@CDocument@@QAEXXZ 5f58e5c4     MFC42D:MFC42D.DLL
 0002:000005c8       __imp_?AfxOleGetUserCtrl@@YGHXZ 5f58e5c8     MFC42D:MFC42D.DLL
 0002:000005cc       __imp_??6CDumpContext@@QAEAAV0@PBVCObject@@@Z 5f58e5cc     MFC42D:MFC42D.DLL
 0002:000005d0       __imp_?classCNotSupportedException@CNotSupportedException@@2UCRuntimeClass@@B 5f58e5d0     MFC42D:MFC42D.DLL
 0002:000005d4       __imp_??YCString@@QAEABV0@D@Z 5f58e5d4     MFC42D:MFC42D.DLL
 0002:000005d8       __imp_?GetBufferPtr@CFile@@UAEIIIPAPAX0@Z 5f58e5d8     MFC42D:MFC42D.DLL
 0002:000005dc       __imp_?Open@CFile@@UAEHPBDIPAVCFileException@@@Z 5f58e5dc     MFC42D:MFC42D.DLL
 0002:000005e0       __imp_?SetFilePath@CFile@@UAEXPBD@Z 5f58e5e0     MFC42D:MFC42D.DLL
 0002:000005e4       __imp_?GetFilePath@CFile@@UBE?AVCString@@XZ 5f58e5e4     MFC42D:MFC42D.DLL
 0002:000005e8       __imp_?GetFileTitle@CFile@@UBE?AVCString@@XZ 5f58e5e8     MFC42D:MFC42D.DLL
 0002:000005ec       __imp_?GetFileName@CFile@@UBE?AVCString@@XZ 5f58e5ec     MFC42D:MFC42D.DLL
 0002:000005f0       __imp_??1CFile@@UAE@XZ     5f58e5f0     MFC42D:MFC42D.DLL
 0002:000005f4       __imp_?AfxFullPath@@YGHPADPBD@Z 5f58e5f4     MFC42D:MFC42D.DLL
 0002:000005f8       __imp_?OsErrorToException@CFileException@@SGHJ@Z 5f58e5f8     MFC42D:MFC42D.DLL
 0002:000005fc       __imp_??4CTime@@QAEABV0@ABV0@@Z 5f58e5fc     MFC42D:MFC42D.DLL
 0002:00000600       __imp_??0CTime@@QAE@ABU_FILETIME@@H@Z 5f58e600     MFC42D:MFC42D.DLL
 0002:00000604       __imp_?AssertValid@CFile@@UBEXXZ 5f58e604     MFC42D:MFC42D.DLL
 0002:00000608       __imp_?Dump@CFile@@UBEXAAVCDumpContext@@@Z 5f58e608     MFC42D:MFC42D.DLL
 0002:0000060c       __imp_?classCFile@CFile@@2UCRuntimeClass@@B 5f58e60c     MFC42D:MFC42D.DLL
 0002:00000610       __imp_??9CSize@@QBEHUtagSIZE@@@Z 5f58e610     MFC42D:MFC42D.DLL
 0002:00000614       __imp_?HIMETRICtoDP@CDC@@QBEXPAUtagSIZE@@@Z 5f58e614     MFC42D:MFC42D.DLL
 0002:00000618       __imp_?Size@CRect@@QBE?AVCSize@@XZ 5f58e618     MFC42D:MFC42D.DLL
 0002:0000061c       __imp_??0CSize@@QAE@XZ     5f58e61c     MFC42D:MFC42D.DLL
 0002:00000620       __imp_?IsWindowVisible@CWnd@@QBEHXZ 5f58e620     MFC42D:MFC42D.DLL
 0002:00000624       __imp_?AfxFormatString2@@YGXAAVCString@@IPBD1@Z 5f58e624     MFC42D:MFC42D.DLL
 0002:00000628       __imp_?messageMap@CDocument@@1UAFX_MSGMAP@@B 5f58e628     MFC42D:MFC42D.DLL
 0002:0000062c       __imp_?HideApplication@CWinApp@@QAEXXZ 5f58e62c     MFC42D:MFC42D.DLL
 0002:00000630       __imp_?SetActiveWindow@CWnd@@QAEPAV1@XZ 5f58e630     MFC42D:MFC42D.DLL
 0002:00000634       __imp_?ShowWindow@CWnd@@QAEHH@Z 5f58e634     MFC42D:MFC42D.DLL
 0002:00000638       __imp_?SetForegroundWindow@CWnd@@QAEHXZ 5f58e638     MFC42D:MFC42D.DLL
 0002:0000063c       __imp_?GetLastActivePopup@CWnd@@QBEPAV1@XZ 5f58e63c     MFC42D:MFC42D.DLL
 0002:00000640       __imp_?UpdateWindow@CWnd@@QAEXXZ 5f58e640     MFC42D:MFC42D.DLL
 0002:00000644       __imp_?ShowOwnedWindows@CFrameWnd@@QAEXH@Z 5f58e644     MFC42D:MFC42D.DLL
 0002:00000648       __imp_?Attach@CWnd@@QAEHPAUHWND__@@@Z 5f58e648     MFC42D:MFC42D.DLL
 0002:0000064c       __imp_?CreateOleFrame@CDocTemplate@@QAEPAVCFrameWnd@@PAVCWnd@@PAVCDocument@@H@Z 5f58e64c     MFC42D:MFC42D.DLL
 0002:00000650       __imp_?GetExStyle@CWnd@@QBEKXZ 5f58e650     MFC42D:MFC42D.DLL
 0002:00000654       __imp_?GetDescendantWindow@CWnd@@QBEPAV1@HH@Z 5f58e654     MFC42D:MFC42D.DLL
 0002:00000658       __imp_?SetActiveView@CFrameWnd@@QAEXPAVCView@@H@Z 5f58e658     MFC42D:MFC42D.DLL
 0002:0000065c       __imp_?SetParent@CWnd@@QAEPAV1@PAV1@@Z 5f58e65c     MFC42D:MFC42D.DLL
 0002:00000660       __imp_?GetActiveView@CFrameWnd@@QBEPAVCView@@XZ 5f58e660     MFC42D:MFC42D.DLL
 0002:00000664       __imp_?IsFloating@CControlBar@@QBEHXZ 5f58e664     MFC42D:MFC42D.DLL
 0002:00000668       __imp_?EnableWindow@CWnd@@QAEHH@Z 5f58e668     MFC42D:MFC42D.DLL
 0002:0000066c       __imp_?InModalState@CFrameWnd@@QBEHXZ 5f58e66c     MFC42D:MFC42D.DLL
 0002:00000670       __imp_?Close@CMetaFileDC@@QAEPAUHMETAFILE__@@XZ 5f58e670     MFC42D:MFC42D.DLL
 0002:00000674       __imp_?SetAttribDC@CMetaFileDC@@UAEXPAUHDC__@@@Z 5f58e674     MFC42D:MFC42D.DLL
 0002:00000678       __imp_??1CMetaFileDC@@UAE@XZ 5f58e678     MFC42D:MFC42D.DLL
 0002:0000067c       __imp_?Create@CMetaFileDC@@QAEHPBD@Z 5f58e67c     MFC42D:MFC42D.DLL
 0002:00000680       __imp_??0CMetaFileDC@@QAE@XZ 5f58e680     MFC42D:MFC42D.DLL
 0002:00000684       __imp_?Left@CString@@QBE?AV1@H@Z 5f58e684     MFC42D:MFC42D.DLL
 0002:00000688       __imp_?Mid@CString@@QBE?AV1@H@Z 5f58e688     MFC42D:MFC42D.DLL
 0002:0000068c       __imp_?Find@CString@@QBEHD@Z 5f58e68c     MFC42D:MFC42D.DLL
 0002:00000690       __imp_?AfxGetModuleShortFileName@@YGXPAUHINSTANCE__@@AAVCString@@@Z 5f58e690     MFC42D:MFC42D.DLL
 0002:00000694       __imp_?AfxGetInstanceHandle@@YGPAUHINSTANCE__@@XZ 5f58e694     MFC42D:MFC42D.DLL
 0002:00000698       __imp_?_AfxDeleteRegKey@@YGHPBD@Z 5f58e698     MFC42D:MFC42D.DLL
 0002:0000069c       __imp_?AfxFormatStrings@@YGXAAVCString@@PBDPBQBDH@Z 5f58e69c     MFC42D:MFC42D.DLL
 0002:000006a0       __imp_?GetNextDocTemplate@CWinApp@@QBEPAVCDocTemplate@@AAPAU__POSITION@@@Z 5f58e6a0     MFC42D:MFC42D.DLL
 0002:000006a4       __imp_?GetFirstDocTemplatePosition@CWinApp@@QBEPAU__POSITION@@XZ 5f58e6a4     MFC42D:MFC42D.DLL
 0002:000006a8       __imp_?OnCmdMsg@CDocument@@UAEHIHPAXPAUAFX_CMDHANDLERINFO@@@Z 5f58e6a8     MFC42D:MFC42D.DLL
 0002:000006ac       __imp_?GetRoutingView_@CCmdTarget@@KGPAVCView@@XZ 5f58e6ac     MFC42D:MFC42D.DLL
 0002:000006b0       __imp_?InsertMenuA@CMenu@@QAEHIIIPBD@Z 5f58e6b0     MFC42D:MFC42D.DLL
 0002:000006b4       __imp_?DeleteMenu@CMenu@@QAEHII@Z 5f58e6b4     MFC42D:MFC42D.DLL
 0002:000006b8       __imp_?GetMenuStringA@CMenu@@QBEHIPADHI@Z 5f58e6b8     MFC42D:MFC42D.DLL
 0002:000006bc       __imp_?AfxFindMessageEntry@@YGPBUAFX_MSGMAP_ENTRY@@PBU1@III@Z 5f58e6bc     MFC42D:MFC42D.DLL
 0002:000006c0       __imp_?OnSize@CWnd@@IAEXIHH@Z 5f58e6c0     MFC42D:MFC42D.DLL
 0002:000006c4       __imp_?messageMap@CCtrlView@@1UAFX_MSGMAP@@B 5f58e6c4     MFC42D:MFC42D.DLL
 0002:000006c8       __imp_?OnEndPrintPreview@CView@@MAEXPAVCDC@@PAUCPrintInfo@@UtagPOINT@@PAVCPreviewView@@@Z 5f58e6c8     MFC42D:MFC42D.DLL
 0002:000006cc       __imp_?OnPreparePrinting@CView@@MAEHPAUCPrintInfo@@@Z 5f58e6cc     MFC42D:MFC42D.DLL
 0002:000006d0       __imp_?OnDraw@CCtrlView@@MAEXPAVCDC@@@Z 5f58e6d0     MFC42D:MFC42D.DLL
 0002:000006d4       __imp_?OnUpdate@CView@@MAEXPAV1@JPAVCObject@@@Z 5f58e6d4     MFC42D:MFC42D.DLL
 0002:000006d8       __imp_?OnActivateFrame@CView@@MAEXIPAVCFrameWnd@@@Z 5f58e6d8     MFC42D:MFC42D.DLL
 0002:000006dc       __imp_?OnActivateView@CView@@MAEXHPAV1@0@Z 5f58e6dc     MFC42D:MFC42D.DLL
 0002:000006e0       __imp_?OnDragScroll@CView@@UAEKKVCPoint@@@Z 5f58e6e0     MFC42D:MFC42D.DLL
 0002:000006e4       __imp_?OnDropEx@CView@@UAEKPAVCOleDataObject@@KKVCPoint@@@Z 5f58e6e4     MFC42D:MFC42D.DLL
 0002:000006e8       __imp_?OnDrop@CView@@UAEHPAVCOleDataObject@@KVCPoint@@@Z 5f58e6e8     MFC42D:MFC42D.DLL
 0002:000006ec       __imp_?OnDragLeave@CView@@UAEXXZ 5f58e6ec     MFC42D:MFC42D.DLL
 0002:000006f0       __imp_?OnDragOver@CView@@UAEKPAVCOleDataObject@@KVCPoint@@@Z 5f58e6f0     MFC42D:MFC42D.DLL
 0002:000006f4       __imp_?OnDragEnter@CView@@UAEKPAVCOleDataObject@@KVCPoint@@@Z 5f58e6f4     MFC42D:MFC42D.DLL
 0002:000006f8       __imp_?OnScrollBy@CView@@UAEHVCSize@@H@Z 5f58e6f8     MFC42D:MFC42D.DLL
 0002:000006fc       __imp_?OnScroll@CView@@UAEHIIH@Z 5f58e6fc     MFC42D:MFC42D.DLL
 0002:00000700       __imp_?PostNcDestroy@CView@@MAEXXZ 5f58e700     MFC42D:MFC42D.DLL
 0002:00000704       __imp_?PreTranslateMessage@CWnd@@UAEHPAUtagMSG@@@Z 5f58e704     MFC42D:MFC42D.DLL
 0002:00000708       __imp_?GetScrollBarCtrl@CView@@UBEPAVCScrollBar@@H@Z 5f58e708     MFC42D:MFC42D.DLL
 0002:0000070c       __imp_?CalcWindowRect@CView@@UAEXPAUtagRECT@@I@Z 5f58e70c     MFC42D:MFC42D.DLL
 0002:00000710       __imp_?OnCmdMsg@CView@@UAEHIHPAXPAUAFX_CMDHANDLERINFO@@@Z 5f58e710     MFC42D:MFC42D.DLL
 0002:00000714       __imp_??0CDWordArray@@QAE@XZ 5f58e714     MFC42D:MFC42D.DLL
 0002:00000718       __imp_??0CDC@@QAE@XZ       5f58e718     MFC42D:MFC42D.DLL
 0002:0000071c       __imp_??0CCtrlView@@QAE@PBDK@Z 5f58e71c     MFC42D:MFC42D.DLL
 0002:00000720       __imp_?PreCreateWindow@CCtrlView@@MAEHAAUtagCREATESTRUCTA@@@Z 5f58e720     MFC42D:MFC42D.DLL
 0002:00000724       __imp_?AfxInitRichEdit@@YGHXZ 5f58e724     MFC42D:MFC42D.DLL
 0002:00000728       __imp_?SetOptions@CRichEditCtrl@@QAEXGK@Z 5f58e728     MFC42D:MFC42D.DLL
 0002:0000072c       __imp_?DragAcceptFiles@CWnd@@QAEXH@Z 5f58e72c     MFC42D:MFC42D.DLL
 0002:00000730       __imp_?GetIRichEditOle@CRichEditCtrl@@QBEPAUIRichEditOle@@XZ 5f58e730     MFC42D:MFC42D.DLL
 0002:00000734       __imp_?SetOLECallback@CRichEditCtrl@@QAEHPAUIRichEditOleCallback@@@Z 5f58e734     MFC42D:MFC42D.DLL
 0002:00000738       __imp_?SetEventMask@CRichEditCtrl@@QAEKK@Z 5f58e738     MFC42D:MFC42D.DLL
 0002:0000073c       __imp_?LimitText@CRichEditCtrl@@QAEXJ@Z 5f58e73c     MFC42D:MFC42D.DLL
 0002:00000740       __imp_?OnCreate@CView@@IAEHPAUtagCREATESTRUCTA@@@Z 5f58e740     MFC42D:MFC42D.DLL
 0002:00000744       __imp_?OnInitialUpdate@CView@@UAEXXZ 5f58e744     MFC42D:MFC42D.DLL
 0002:00000748       __imp_?EmptyUndoBuffer@CRichEditCtrl@@QAEXXZ 5f58e748     MFC42D:MFC42D.DLL
 0002:0000074c       __imp_?SetWindowTextA@CWnd@@QAEXPBD@Z 5f58e74c     MFC42D:MFC42D.DLL
 0002:00000750       __imp_?SetTargetDevice@CRichEditCtrl@@QAEHAAVCDC@@J@Z 5f58e750     MFC42D:MFC42D.DLL
 0002:00000754       __imp_?CreateDCA@CDC@@QAEHPBD00PBX@Z 5f58e754     MFC42D:MFC42D.DLL
 0002:00000758       __imp_?CreatePrinterDC@CWinApp@@QAEHAAVCDC@@@Z 5f58e758     MFC42D:MFC42D.DLL
 0002:0000075c       __imp_?SetTargetDevice@CRichEditCtrl@@QAEHPAUHDC__@@J@Z 5f58e75c     MFC42D:MFC42D.DLL
 0002:00000760       __imp_?Invalidate@CWnd@@QAEXH@Z 5f58e760     MFC42D:MFC42D.DLL
 0002:00000764       __imp_?StreamIn@CRichEditCtrl@@QAEJHAAU_editstream@@@Z 5f58e764     MFC42D:MFC42D.DLL
 0002:00000768       __imp_?StreamOut@CRichEditCtrl@@QAEJHAAU_editstream@@@Z 5f58e768     MFC42D:MFC42D.DLL
 0002:0000076c       __imp_?classCFileException@CFileException@@2UCRuntimeClass@@B 5f58e76c     MFC42D:MFC42D.DLL
 0002:00000770       __imp_?ReadHuge@CFile@@QAEKPAXK@Z 5f58e770     MFC42D:MFC42D.DLL
 0002:00000774       __imp_?WriteHuge@CFile@@QAEXPBXK@Z 5f58e774     MFC42D:MFC42D.DLL
 0002:00000778       __imp_?GetFile@CArchive@@QBEPAVCFile@@XZ 5f58e778     MFC42D:MFC42D.DLL
 0002:0000077c       __imp_?Flush@CArchive@@QAEXXZ 5f58e77c     MFC42D:MFC42D.DLL
 0002:00000780       __imp_?FormatRange@CRichEditCtrl@@QAEJPAU_formatrange@@H@Z 5f58e780     MFC42D:MFC42D.DLL
 0002:00000784       __imp_?Add@CDWordArray@@QAEHK@Z 5f58e784     MFC42D:MFC42D.DLL
 0002:00000788       __imp_?GetSize@CDWordArray@@QBEHXZ 5f58e788     MFC42D:MFC42D.DLL
 0002:0000078c       __imp_?DPtoLP@CDC@@QBEXPAUtagRECT@@@Z 5f58e78c     MFC42D:MFC42D.DLL
 0002:00000790       __imp_?GetDeviceCaps@CDC@@QBEHH@Z 5f58e790     MFC42D:MFC42D.DLL
 0002:00000794       __imp_?IntersectClipRect@CDC@@QAEHHHHH@Z 5f58e794     MFC42D:MFC42D.DLL
 0002:00000798       __imp_?SetMaxPage@CPrintInfo@@QAEXI@Z 5f58e798     MFC42D:MFC42D.DLL
 0002:0000079c       __imp_??ACDWordArray@@QAEAAKH@Z 5f58e79c     MFC42D:MFC42D.DLL
 0002:000007a0       __imp_?RemoveAll@CDWordArray@@QAEXXZ 5f58e7a0     MFC42D:MFC42D.DLL
 0002:000007a4       __imp_?GetSel@CRichEditCtrl@@QBEXAAJ0@Z 5f58e7a4     MFC42D:MFC42D.DLL
 0002:000007a8       __imp_?_afxRichEditState@@3V?$CProcessLocal@V_AFX_RICHEDIT_STATE@@@@A 5f58e7a8     MFC42D:MFC42D.DLL
 0002:000007ac       __imp_?CanUndo@CRichEditCtrl@@QBEHXZ 5f58e7ac     MFC42D:MFC42D.DLL
 0002:000007b0       __imp_?IsKindOf@CObject@@QBEHPBUCRuntimeClass@@@Z 5f58e7b0     MFC42D:MFC42D.DLL
 0002:000007b4       __imp_?SetPathName@CDocument@@UAEXPBDH@Z 5f58e7b4     MFC42D:MFC42D.DLL
 0002:000007b8       __imp_?Paste@CRichEditCtrl@@QAEXXZ 5f58e7b8     MFC42D:MFC42D.DLL
 0002:000007bc       __imp_?Clear@CRichEditCtrl@@QAEXXZ 5f58e7bc     MFC42D:MFC42D.DLL
 0002:000007c0       __imp_?Undo@CRichEditCtrl@@QAEHXZ 5f58e7c0     MFC42D:MFC42D.DLL
 0002:000007c4       __imp_?SetSel@CRichEditCtrl@@QAEXJJ@Z 5f58e7c4     MFC42D:MFC42D.DLL
 0002:000007c8       __imp_?OnDestroy@CView@@IAEXXZ 5f58e7c8     MFC42D:MFC42D.DLL
 0002:000007cc       __imp_?AfxOleUnlockApp@@YGXXZ 5f58e7cc     MFC42D:MFC42D.DLL
 0002:000007d0       __imp_?AfxGetAppName@@YGPBDXZ 5f58e7d0     MFC42D:MFC42D.DLL
 0002:000007d4       __imp_??0CFontDialog@@QAE@ABU_charformat@@KPAVCDC@@PAVCWnd@@@Z 5f58e7d4     MFC42D:MFC42D.DLL
 0002:000007d8       __imp_?PasteSpecial@CRichEditCtrl@@QAEXIKPAUHMETAFILE__@@@Z 5f58e7d8     MFC42D:MFC42D.DLL
 0002:000007dc       __imp_?OnKeyDown@CWnd@@IAEXIII@Z 5f58e7dc     MFC42D:MFC42D.DLL
 0002:000007e0       __imp_?CenterPoint@CRect@@QBE?AVCPoint@@XZ 5f58e7e0     MFC42D:MFC42D.DLL
 0002:000007e4       __imp_?SetSel@CRichEditCtrl@@QAEXAAU_charrange@@@Z 5f58e7e4     MFC42D:MFC42D.DLL
 0002:000007e8       __imp_?GetSel@CRichEditCtrl@@QBEXAAU_charrange@@@Z 5f58e7e8     MFC42D:MFC42D.DLL
 0002:000007ec       __imp_?CanPaste@CRichEditCtrl@@QBEHI@Z 5f58e7ec     MFC42D:MFC42D.DLL
 0002:000007f0       __imp_?GetSelectionCharFormat@CRichEditCtrl@@QBEKAAU_charformat@@@Z 5f58e7f0     MFC42D:MFC42D.DLL
 0002:000007f4       __imp_?GetParaFormat@CRichEditCtrl@@QBEKAAU_paraformat@@@Z 5f58e7f4     MFC42D:MFC42D.DLL
 0002:000007f8       __imp_?SetSelectionCharFormat@CRichEditCtrl@@QAEHAAU_charformat@@@Z 5f58e7f8     MFC42D:MFC42D.DLL
 0002:000007fc       __imp_?SetParaFormat@CRichEditCtrl@@QAEHAAU_paraformat@@@Z 5f58e7fc     MFC42D:MFC42D.DLL
 0002:00000800       __imp_?MoveWindow@CWnd@@QAEXPBUtagRECT@@H@Z 5f58e800     MFC42D:MFC42D.DLL
 0002:00000804       __imp_?OffsetRect@CRect@@QAEXHH@Z 5f58e804     MFC42D:MFC42D.DLL
 0002:00000808       __imp_?Height@CRect@@QBEHXZ 5f58e808     MFC42D:MFC42D.DLL
 0002:0000080c       __imp_?GetWindowRect@CWnd@@QBEXPAUtagRECT@@@Z 5f58e80c     MFC42D:MFC42D.DLL
 0002:00000810       __imp_?ClientToScreen@CWnd@@QBEXPAUtagPOINT@@@Z 5f58e810     MFC42D:MFC42D.DLL
 0002:00000814       __imp_?GetCharPos@CRichEditCtrl@@QBE?AVCPoint@@J@Z 5f58e814     MFC42D:MFC42D.DLL
 0002:00000818       __imp_?Create@CFindReplaceDialog@@QAEHHPBD0KPAVCWnd@@@Z 5f58e818     MFC42D:MFC42D.DLL
 0002:0000081c       __imp_??0CFindReplaceDialog@@QAE@XZ 5f58e81c     MFC42D:MFC42D.DLL
 0002:00000820       __imp_?FindOneOf@CString@@QBEHPBD@Z 5f58e820     MFC42D:MFC42D.DLL
 0002:00000824       __imp_?GetSelText@CRichEditCtrl@@QBE?AVCString@@XZ 5f58e824     MFC42D:MFC42D.DLL
 0002:00000828       __imp_?ReplaceSel@CRichEditCtrl@@QAEXPBDH@Z 5f58e828     MFC42D:MFC42D.DLL
 0002:0000082c       __imp_?HideSelection@CRichEditCtrl@@QAEXHH@Z 5f58e82c     MFC42D:MFC42D.DLL
 0002:00000830       __imp_?ReplaceAll@CFindReplaceDialog@@QBEHXZ 5f58e830     MFC42D:MFC42D.DLL
 0002:00000834       __imp_?GetReplaceString@CFindReplaceDialog@@QBE?AVCString@@XZ 5f58e834     MFC42D:MFC42D.DLL
 0002:00000838       __imp_?ReplaceCurrent@CFindReplaceDialog@@QBEHXZ 5f58e838     MFC42D:MFC42D.DLL
 0002:0000083c       __imp_?GetFindString@CFindReplaceDialog@@QBE?AVCString@@XZ 5f58e83c     MFC42D:MFC42D.DLL
 0002:00000840       __imp_?SearchDown@CFindReplaceDialog@@QBEHXZ 5f58e840     MFC42D:MFC42D.DLL
 0002:00000844       __imp_?MatchCase@CFindReplaceDialog@@QBEHXZ 5f58e844     MFC42D:MFC42D.DLL
 0002:00000848       __imp_?MatchWholeWord@CFindReplaceDialog@@QBEHXZ 5f58e848     MFC42D:MFC42D.DLL
 0002:0000084c       __imp_?FindNext@CFindReplaceDialog@@QBEHXZ 5f58e84c     MFC42D:MFC42D.DLL
 0002:00000850       __imp_?IsTerminating@CFindReplaceDialog@@QBEHXZ 5f58e850     MFC42D:MFC42D.DLL
 0002:00000854       __imp_?GetNotifier@CFindReplaceDialog@@SGPAV1@J@Z 5f58e854     MFC42D:MFC42D.DLL
 0002:00000858       __imp_?FindTextA@CRichEditCtrl@@QBEJKPAU_findtextexa@@@Z 5f58e858     MFC42D:MFC42D.DLL
 0002:0000085c       __imp_?AssertValid@CCtrlView@@UBEXXZ 5f58e85c     MFC42D:MFC42D.DLL
 0002:00000860       __imp_?Dump@CCtrlView@@UBEXAAVCDumpContext@@@Z 5f58e860     MFC42D:MFC42D.DLL
 0002:00000864       __imp_?GetModify@CRichEditCtrl@@QBEHXZ 5f58e864     MFC42D:MFC42D.DLL
 0002:00000868       __imp_?SetModify@CRichEditCtrl@@QAEXH@Z 5f58e868     MFC42D:MFC42D.DLL
 0002:0000086c       __imp_??0CRect@@QAE@UtagPOINT@@UtagSIZE@@@Z 5f58e86c     MFC42D:MFC42D.DLL
 0002:00000870       __imp_?GetTextLength@CRichEditCtrl@@QBEJXZ 5f58e870     MFC42D:MFC42D.DLL
 0002:00000874       __imp_?classCCtrlView@CCtrlView@@2UCRuntimeClass@@B 5f58e874     MFC42D:MFC42D.DLL
 0002:00000878       __imp_??0_AFX_EDIT_STATE@@QAE@XZ 5f58e878     MFC42D:MFC42D.DLL
 0002:0000087c       __imp_??1_AFX_RICHEDIT_STATE@@UAE@XZ 5f58e87c     MFC42D:MFC42D.DLL
 0002:00000880       __imp_?AfxOleCanExitApp@@YGHXZ 5f58e880     MFC42D:MFC42D.DLL
 0002:00000884       __imp_??3@YAXPAXPBDH@Z     5f58e884     MFC42D:MFC42D.DLL
 0002:00000888       __imp_?Lookup@CMapPtrToPtr@@QBEHPAXAAPAX@Z 5f58e888     MFC42D:MFC42D.DLL
 0002:0000088c       __imp_?SetAt@CMapPtrToPtr@@QAEXPAX0@Z 5f58e88c     MFC42D:MFC42D.DLL
 0002:00000890       __imp_?RemoveAll@CTypeLibCacheMap@@UAEXPAX@Z 5f58e890     MFC42D:MFC42D.DLL
 0002:00000894       __imp_?Dump@CMapPtrToPtr@@UBEXAAVCDumpContext@@@Z 5f58e894     MFC42D:MFC42D.DLL
 0002:00000898       __imp_?AssertValid@CMapPtrToPtr@@UBEXXZ 5f58e898     MFC42D:MFC42D.DLL
 0002:0000089c       __imp_?GetRuntimeClass@CMapPtrToPtr@@UBEPAUCRuntimeClass@@XZ 5f58e89c     MFC42D:MFC42D.DLL
 0002:000008a0       __imp_??0CMapPtrToPtr@@QAE@H@Z 5f58e8a0     MFC42D:MFC42D.DLL
 0002:000008a4       __imp_??1CMapPtrToPtr@@UAE@XZ 5f58e8a4     MFC42D:MFC42D.DLL
 0002:000008a8       __imp_?AfxEndDeferRegisterClass@@YGHJ@Z 5f58e8a8     MFC42D:MFC42D.DLL
 0002:000008ac       __imp_??0CTime@@QAE@ABU_SYSTEMTIME@@H@Z 5f58e8ac     MFC42D:MFC42D.DLL
 0002:000008b0       __imp_?GetAsSystemTime@CTime@@QBEHAAU_SYSTEMTIME@@@Z 5f58e8b0     MFC42D:MFC42D.DLL
 0002:000008b4       __imp_?GetMessageMap@CWnd@@MBEPBUAFX_MSGMAP@@XZ 5f58e8b4     MFC42D:MFC42D.DLL
 0002:000008b8       __imp_?Dump@CWnd@@UBEXAAVCDumpContext@@@Z 5f58e8b8     MFC42D:MFC42D.DLL
 0002:000008bc       __imp_?AfxAssertFailedLine@@YGHPBDH@Z 5f58e8bc     MFC42D:MFC42D.DLL
 0002:000008c0       __imp_??1CWnd@@UAE@XZ      5f58e8c0     MFC42D:MFC42D.DLL
 0002:000008c4       __imp_?SetWindowPos@CWnd@@QAEHPBV1@HHHHI@Z 5f58e8c4     MFC42D:MFC42D.DLL
 0002:000008c8       __imp_?Width@CRect@@QBEHXZ 5f58e8c8     MFC42D:MFC42D.DLL
 0002:000008cc       __imp_?PrepareCtrl@CDataExchange@@QAEPAUHWND__@@H@Z 5f58e8cc     MFC42D:MFC42D.DLL
 0002:000008d0       __imp_??MCTime@@QBEHV0@@Z  5f58e8d0     MFC42D:MFC42D.DLL
 0002:000008d4       __imp_??OCTime@@QBEHV0@@Z  5f58e8d4     MFC42D:MFC42D.DLL
 0002:000008d8       __imp_??NCTime@@QBEHV0@@Z  5f58e8d8     MFC42D:MFC42D.DLL
 0002:000008dc       __imp_??0CTime@@QAE@ABV0@@Z 5f58e8dc     MFC42D:MFC42D.DLL
 0002:000008e0       __imp_??0CWnd@@QAE@XZ      5f58e8e0     MFC42D:MFC42D.DLL
 0002:000008e4       __imp_?FromHandle@CFont@@SGPAV1@PAUHFONT__@@@Z 5f58e8e4     MFC42D:MFC42D.DLL
 0002:000008e8       __imp_?classCWnd@CWnd@@2UCRuntimeClass@@B 5f58e8e8     MFC42D:MFC42D.DLL
 0002:000008ec       __imp_?messageMap@CFormView@@1UAFX_MSGMAP@@B 5f58e8ec     MFC42D:MFC42D.DLL
 0002:000008f0       __imp_?eventsinkMap@CCmdTarget@@1UAFX_EVENTSINKMAP@@B 5f58e8f0     MFC42D:MFC42D.DLL
 0002:000008f4       __imp_?OnEndPrinting@CView@@MAEXPAVCDC@@PAUCPrintInfo@@@Z 5f58e8f4     MFC42D:MFC42D.DLL
 0002:000008f8       __imp_?OnPrint@CView@@MAEXPAVCDC@@PAUCPrintInfo@@@Z 5f58e8f8     MFC42D:MFC42D.DLL
 0002:000008fc       __imp_?OnBeginPrinting@CView@@MAEXPAVCDC@@PAUCPrintInfo@@@Z 5f58e8fc     MFC42D:MFC42D.DLL
 0002:00000900       __imp_?OnActivateFrame@CFormView@@MAEXIPAVCFrameWnd@@@Z 5f58e900     MFC42D:MFC42D.DLL
 0002:00000904       __imp_?OnActivateView@CFormView@@MAEXHPAVCView@@0@Z 5f58e904     MFC42D:MFC42D.DLL
 0002:00000908       __imp_?OnInitialUpdate@CFormView@@UAEXXZ 5f58e908     MFC42D:MFC42D.DLL
 0002:0000090c       __imp_?OnPrepareDC@CScrollView@@UAEXPAVCDC@@PAUCPrintInfo@@@Z 5f58e90c     MFC42D:MFC42D.DLL
 0002:00000910       __imp_?OnScrollBy@CScrollView@@UAEHVCSize@@H@Z 5f58e910     MFC42D:MFC42D.DLL
 0002:00000914       __imp_?OnScroll@CScrollView@@UAEHIIH@Z 5f58e914     MFC42D:MFC42D.DLL
 0002:00000918       __imp_?IsSelected@CView@@UBEHPBVCObject@@@Z 5f58e918     MFC42D:MFC42D.DLL
 0002:0000091c       __imp_?SetOccDialogInfo@CFormView@@MAEHPAU_AFX_OCC_DIALOG_INFO@@@Z 5f58e91c     MFC42D:MFC42D.DLL
 0002:00000920       __imp_?PreTranslateMessage@CFormView@@MAEHPAUtagMSG@@@Z 5f58e920     MFC42D:MFC42D.DLL
 0002:00000924       __imp_?CalcWindowRect@CScrollView@@UAEXPAUtagRECT@@I@Z 5f58e924     MFC42D:MFC42D.DLL
 0002:00000928       __imp_?PreCreateWindow@CView@@MAEHAAUtagCREATESTRUCTA@@@Z 5f58e928     MFC42D:MFC42D.DLL
 0002:0000092c       __imp_??0CFormView@@IAE@PBD@Z 5f58e92c     MFC42D:MFC42D.DLL
 0002:00000930       __imp_??1CScrollView@@UAE@XZ 5f58e930     MFC42D:MFC42D.DLL
 0002:00000934       __imp_?AssertValid@CFormView@@UBEXXZ 5f58e934     MFC42D:MFC42D.DLL
 0002:00000938       __imp_?Dump@CFormView@@UBEXAAVCDumpContext@@@Z 5f58e938     MFC42D:MFC42D.DLL
 0002:0000093c       __imp_?OnSize@CScrollView@@QAEXIHH@Z 5f58e93c     MFC42D:MFC42D.DLL
 0002:00000940       __imp_?Default@CWnd@@IAEJXZ 5f58e940     MFC42D:MFC42D.DLL
 0002:00000944       __imp_?GetControlUnknown@CWnd@@QAEPAUIUnknown@@XZ 5f58e944     MFC42D:MFC42D.DLL
 0002:00000948       __imp_??0CString@@QAE@PBG@Z 5f58e948     MFC42D:MFC42D.DLL
 0002:0000094c       __imp_?AfxGetResourceHandle@@YGPAUHINSTANCE__@@XZ 5f58e94c     MFC42D:MFC42D.DLL
 0002:00000950       __imp_?InvokeHelper@CWnd@@QAAXJGGPAXPBEZZ 5f58e950     MFC42D:MFC42D.DLL
 0002:00000954       __imp_??1CByteArray@@UAE@XZ 5f58e954     MFC42D:MFC42D.DLL
 0002:00000958       __imp_?GetData@CByteArray@@QAEPAEXZ 5f58e958     MFC42D:MFC42D.DLL
 0002:0000095c       __imp_?SetSize@CByteArray@@QAEXHH@Z 5f58e95c     MFC42D:MFC42D.DLL
 0002:00000960       __imp_??0CByteArray@@QAE@XZ 5f58e960     MFC42D:MFC42D.DLL
 0002:00000964       __imp_?SetMessageText@CFrameWnd@@QAEXPBD@Z 5f58e964     MFC42D:MFC42D.DLL
 0002:00000968       __imp_?classCFormView@CFormView@@2UCRuntimeClass@@B 5f58e968     MFC42D:MFC42D.DLL
 0002:0000096c       __imp_?AfxFindResourceHandle@@YGPAUHINSTANCE__@@PBD0@Z 5f58e96c     MFC42D:MFC42D.DLL
 0002:00000970       __imp_?GetNextAssoc@CMapPtrToPtr@@QBEXAAPAU__POSITION@@AAPAX1@Z 5f58e970     MFC42D:MFC42D.DLL
 0002:00000974       __imp_?GetStartPosition@CMapPtrToPtr@@QBEPAU__POSITION@@XZ 5f58e974     MFC42D:MFC42D.DLL
 0002:00000978       __imp_??0CMemFile@@QAE@PAEII@Z 5f58e978     MFC42D:MFC42D.DLL
 0002:0000097c       __imp_?AfxThrowNotSupportedException@@YGXXZ 5f58e97c     MFC42D:MFC42D.DLL
 0002:00000980       __imp_?TopLeft@CRect@@QAEAAVCPoint@@XZ 5f58e980     MFC42D:MFC42D.DLL
 0002:00000984       __imp_??0CRect@@QAE@ABUtagRECT@@@Z 5f58e984     MFC42D:MFC42D.DLL
 0002:00000988       __imp_?dispatchMap@CCmdTarget@@1UAFX_DISPMAP@@B 5f58e988     MFC42D:MFC42D.DLL
 0002:0000098c       __imp_?RemoveAll@CMapPtrToPtr@@QAEXXZ 5f58e98c     MFC42D:MFC42D.DLL
 0002:00000990       __imp_?RemoveKey@CMapPtrToPtr@@QAEHPAX@Z 5f58e990     MFC42D:MFC42D.DLL
 0002:00000994       __imp_?GetFont@CWnd@@QBEPAVCFont@@XZ 5f58e994     MFC42D:MFC42D.DLL
 0002:00000998       __imp_??1CWindowDC@@UAE@XZ 5f58e998     MFC42D:MFC42D.DLL
 0002:0000099c       __imp_?GetTextColor@CDC@@QBEKXZ 5f58e99c     MFC42D:MFC42D.DLL
 0002:000009a0       __imp_?GetBkColor@CDC@@QBEKXZ 5f58e9a0     MFC42D:MFC42D.DLL
 0002:000009a4       __imp_??0CWindowDC@@QAE@PAVCWnd@@@Z 5f58e9a4     MFC42D:MFC42D.DLL
 0002:000009a8       __imp_?AfxGetCtl3dState@@YGPAV_AFX_CTL3D_STATE@@XZ 5f58e9a8     MFC42D:MFC42D.DLL
 0002:000009ac       __imp_?GetLogFont@CFont@@QAEHPAUtagLOGFONTA@@@Z 5f58e9ac     MFC42D:MFC42D.DLL
 0002:000009b0       __imp_??1CFont@@UAE@XZ     5f58e9b0     MFC42D:MFC42D.DLL
 0002:000009b4       __imp_?CreateStockObject@CGdiObject@@QAEHH@Z 5f58e9b4     MFC42D:MFC42D.DLL
 0002:000009b8       __imp_??0CFont@@QAE@XZ     5f58e9b8     MFC42D:MFC42D.DLL
 0002:000009bc       __imp_?GetWindowTextA@CWnd@@QBEHPADH@Z 5f58e9bc     MFC42D:MFC42D.DLL
 0002:000009c0       __imp_?GetProperty@CWnd@@QBEXJGPAX@Z 5f58e9c0     MFC42D:MFC42D.DLL
 0002:000009c4       __imp_?GetCount@CMapPtrToPtr@@QBEHXZ 5f58e9c4     MFC42D:MFC42D.DLL
 0002:000009c8       __imp_??1CClientDC@@UAE@XZ 5f58e9c8     MFC42D:MFC42D.DLL
 0002:000009cc       __imp_??0CClientDC@@QAE@PAVCWnd@@@Z 5f58e9cc     MFC42D:MFC42D.DLL
 0002:000009d0       __imp_?UnsubclassWindow@CWnd@@QAEPAUHWND__@@XZ 5f58e9d0     MFC42D:MFC42D.DLL
 0002:000009d4       __imp_?ModifyStyle@CWnd@@SGHPAUHWND__@@KKI@Z 5f58e9d4     MFC42D:MFC42D.DLL
 0002:000009d8       __imp_?ModifyStyleEx@CWnd@@SGHPAUHWND__@@KKI@Z 5f58e9d8     MFC42D:MFC42D.DLL
 0002:000009dc       __imp_??0CRect@@QAE@PBUtagRECT@@@Z 5f58e9dc     MFC42D:MFC42D.DLL
 0002:000009e0       __imp_??1CPtrList@@UAE@XZ  5f58e9e0     MFC42D:MFC42D.DLL
 0002:000009e4       __imp_??0CPtrList@@QAE@H@Z 5f58e9e4     MFC42D:MFC42D.DLL
 0002:000009e8       __imp_?RemoveAll@CPtrList@@QAEXXZ 5f58e9e8     MFC42D:MFC42D.DLL
 0002:000009ec       __imp_?GetHead@CPtrList@@QAEAAPAXXZ 5f58e9ec     MFC42D:MFC42D.DLL
 0002:000009f0       __imp_?MoveWindow@CWnd@@QAEXHHHHH@Z 5f58e9f0     MFC42D:MFC42D.DLL
 0002:000009f4       __imp_?GetDesktopWindow@CWnd@@SGPAV1@XZ 5f58e9f4     MFC42D:MFC42D.DLL
 0002:000009f8       __imp_?RemoveAt@CPtrList@@QAEXPAU__POSITION@@@Z 5f58e9f8     MFC42D:MFC42D.DLL
 0002:000009fc       __imp_??8@YG_NABVCString@@PBD@Z 5f58e9fc     MFC42D:MFC42D.DLL
 0002:00000a00       __imp_?AddTail@CPtrList@@QAEPAU__POSITION@@PAX@Z 5f58ea00     MFC42D:MFC42D.DLL
 0002:00000a04       __imp_??8@YG_NABVCString@@0@Z 5f58ea04     MFC42D:MFC42D.DLL
 0002:00000a08       __imp_?Find@CPtrList@@QBEPAU__POSITION@@PAXPAU2@@Z 5f58ea08     MFC42D:MFC42D.DLL
 0002:00000a0c       __imp_?GetCount@CPtrList@@QBEHXZ 5f58ea0c     MFC42D:MFC42D.DLL
 0002:00000a10       __imp_?SetProperty@CWnd@@QAAXJGZZ 5f58ea10     MFC42D:MFC42D.DLL
 0002:00000a14       __imp_?GetNextWindow@CWnd@@QBEPAV1@I@Z 5f58ea14     MFC42D:MFC42D.DLL
 0002:00000a18       __imp_?GetTopWindow@CWnd@@QBEPAV1@XZ 5f58ea18     MFC42D:MFC42D.DLL
 0002:00000a1c       __imp_?GetNextDlgGroupItem@CWnd@@QBEPAV1@PAV1@H@Z 5f58ea1c     MFC42D:MFC42D.DLL
 0002:00000a20       __imp_?GetNextDlgTabItem@CWnd@@QBEPAV1@PAV1@H@Z 5f58ea20     MFC42D:MFC42D.DLL
 0002:00000a24       __imp_?IsChild@CWnd@@QBEHPBV1@@Z 5f58ea24     MFC42D:MFC42D.DLL
 0002:00000a28       __imp_?GetDlgCtrlID@CWnd@@QBEHXZ 5f58ea28     MFC42D:MFC42D.DLL
 0002:00000a2c       __imp_?messageMap@CCmdTarget@@1UAFX_MSGMAP@@B 5f58ea2c     MFC42D:MFC42D.DLL
 0002:00000a30       __imp_?GetFromPage@CPrintInfo@@QBEIXZ 5f58ea30     MFC42D:MFC42D.DLL
 0002:00000a34       __imp_?GetToPage@CPrintInfo@@QBEIXZ 5f58ea34     MFC42D:MFC42D.DLL
 0002:00000a38       __imp_?GetMinPage@CPrintInfo@@QBEIXZ 5f58ea38     MFC42D:MFC42D.DLL
 0002:00000a3c       __imp_??1CPrintInfo@@QAE@XZ 5f58ea3c     MFC42D:MFC42D.DLL
 0002:00000a40       __imp_??0CPrintInfo@@QAE@XZ 5f58ea40     MFC42D:MFC42D.DLL
 0002:00000a44       __imp_?AbortDoc@CDC@@QAEHXZ 5f58ea44     MFC42D:MFC42D.DLL
 0002:00000a48       __imp_?EndDoc@CDC@@QAEHXZ  5f58ea48     MFC42D:MFC42D.DLL
 0002:00000a4c       __imp_?EndPage@CDC@@QAEHXZ 5f58ea4c     MFC42D:MFC42D.DLL
 0002:00000a50       __imp_?StartPage@CDC@@QAEHXZ 5f58ea50     MFC42D:MFC42D.DLL
 0002:00000a54       __imp_?GetMaxPage@CPrintInfo@@QBEIXZ 5f58ea54     MFC42D:MFC42D.DLL
 0002:00000a58       __imp_?Detach@CDC@@QAEPAUHDC__@@XZ 5f58ea58     MFC42D:MFC42D.DLL
 0002:00000a5c       __imp_?StartDocA@CDC@@QAEHPAU_DOCINFOA@@@Z 5f58ea5c     MFC42D:MFC42D.DLL
 0002:00000a60       __imp_?SetAbortProc@CDC@@QAEHP6GHPAUHDC__@@H@Z@Z 5f58ea60     MFC42D:MFC42D.DLL
 0002:00000a64       __imp_?_AfxAbortProc@@YGHPAUHDC__@@H@Z 5f58ea64     MFC42D:MFC42D.DLL
 0002:00000a68       __imp_?Attach@CDC@@QAEHPAUHDC__@@@Z 5f58ea68     MFC42D:MFC42D.DLL
 0002:00000a6c       __imp_?GetWindowTextA@CWnd@@QBEXAAVCString@@@Z 5f58ea6c     MFC42D:MFC42D.DLL
 0002:00000a70       __imp_?SetRadio@CCmdUI@@UAEXH@Z 5f58ea70     MFC42D:MFC42D.DLL
 0002:00000a74       __imp_??0CCmdUI@@QAE@XZ    5f58ea74     MFC42D:MFC42D.DLL
 0002:00000a78       __imp_?Right@CString@@QBE?AV1@H@Z 5f58ea78     MFC42D:MFC42D.DLL
 0002:00000a7c       __imp_?RemoveMenu@CMenu@@QAEHII@Z 5f58ea7c     MFC42D:MFC42D.DLL
 0002:00000a80       __imp_?GetMenuItemCount@CMenu@@QBEIXZ 5f58ea80     MFC42D:MFC42D.DLL
 0002:00000a84       __imp_?CreateMenu@CMenu@@QAEHXZ 5f58ea84     MFC42D:MFC42D.DLL
 0002:00000a88       __imp_??0CMenu@@QAE@XZ     5f58ea88     MFC42D:MFC42D.DLL
 0002:00000a8c       __imp_?Remove@CString@@QAEHD@Z 5f58ea8c     MFC42D:MFC42D.DLL
 0002:00000a90       __imp_?GetMenuStringA@CMenu@@QBEHIAAVCString@@I@Z 5f58ea90     MFC42D:MFC42D.DLL
 0002:00000a94       __imp_?GetSubMenu@CMenu@@QBEPAV1@H@Z 5f58ea94     MFC42D:MFC42D.DLL
 0002:00000a98       __imp_?SetStatusText@CControlBar@@UAEHH@Z 5f58ea98     MFC42D:MFC42D.DLL
 0002:00000a9c       __imp_?DoPaint@CControlBar@@UAEXPAVCDC@@@Z 5f58ea9c     MFC42D:MFC42D.DLL
 0002:00000aa0       __imp_?OnBarStyleChange@CControlBar@@UAEXKK@Z 5f58eaa0     MFC42D:MFC42D.DLL
 0002:00000aa4       __imp_?IsDockBar@CControlBar@@UBEHXZ 5f58eaa4     MFC42D:MFC42D.DLL
 0002:00000aa8       __imp_?RecalcDelayShow@CControlBar@@UAEKPAUAFX_SIZEPARENTPARAMS@@@Z 5f58eaa8     MFC42D:MFC42D.DLL
 0002:00000aac       __imp_?IsVisible@CControlBar@@UBEHXZ 5f58eaac     MFC42D:MFC42D.DLL
 0002:00000ab0       __imp_?DelayShow@CControlBar@@UAEXH@Z 5f58eab0     MFC42D:MFC42D.DLL
 0002:00000ab4       __imp_?CalcDynamicLayout@CControlBar@@UAE?AVCSize@@HK@Z 5f58eab4     MFC42D:MFC42D.DLL
 0002:00000ab8       __imp_?CalcFixedLayout@CControlBar@@UAE?AVCSize@@HH@Z 5f58eab8     MFC42D:MFC42D.DLL
 0002:00000abc       __imp_?PostNcDestroy@CControlBar@@UAEXXZ 5f58eabc     MFC42D:MFC42D.DLL
 0002:00000ac0       __imp_?WindowProc@CControlBar@@UAEJIIJ@Z 5f58eac0     MFC42D:MFC42D.DLL
 0002:00000ac4       __imp_?PreTranslateMessage@CControlBar@@UAEHPAUtagMSG@@@Z 5f58eac4     MFC42D:MFC42D.DLL
 0002:00000ac8       __imp_?PreCreateWindow@CControlBar@@UAEHAAUtagCREATESTRUCTA@@@Z 5f58eac8     MFC42D:MFC42D.DLL
 0002:00000acc       __imp_?DestroyWindow@CControlBar@@UAEHXZ 5f58eacc     MFC42D:MFC42D.DLL
 0002:00000ad0       __imp_?Dump@CControlBar@@UBEXAAVCDumpContext@@@Z 5f58ead0     MFC42D:MFC42D.DLL
 0002:00000ad4       __imp_?AssertValid@CControlBar@@UBEXXZ 5f58ead4     MFC42D:MFC42D.DLL
 0002:00000ad8       __imp_??1CControlBar@@UAE@XZ 5f58ead8     MFC42D:MFC42D.DLL
 0002:00000adc       __imp_??0CRectTracker@@QAE@XZ 5f58eadc     MFC42D:MFC42D.DLL
 0002:00000ae0       __imp_??0CControlBar@@IAE@XZ 5f58eae0     MFC42D:MFC42D.DLL
 0002:00000ae4       __imp_??1CRectTracker@@UAE@XZ 5f58eae4     MFC42D:MFC42D.DLL
 0002:00000ae8       __imp_?messageMap@CControlBar@@1UAFX_MSGMAP@@B 5f58eae8     MFC42D:MFC42D.DLL
 0002:00000aec       __imp_??1CPaintDC@@UAE@XZ  5f58eaec     MFC42D:MFC42D.DLL
 0002:00000af0       __imp_?Draw@CRectTracker@@QBEXPAVCDC@@@Z 5f58eaf0     MFC42D:MFC42D.DLL
 0002:00000af4       __imp_?SetBrushOrg@CDC@@QAE?AVCPoint@@HH@Z 5f58eaf4     MFC42D:MFC42D.DLL
 0002:00000af8       __imp_??0CPaintDC@@QAE@PAVCWnd@@@Z 5f58eaf8     MFC42D:MFC42D.DLL
 0002:00000afc       __imp_?SetCursor@CRectTracker@@QBEHPAVCWnd@@I@Z 5f58eafc     MFC42D:MFC42D.DLL
 0002:00000b00       __imp_?OnSetCursor@CWnd@@IAEHPAV1@II@Z 5f58eb00     MFC42D:MFC42D.DLL
 0002:00000b04       __imp_?HitTest@CRectTracker@@QBEHVCPoint@@@Z 5f58eb04     MFC42D:MFC42D.DLL
 0002:00000b08       __imp_?GetOwner@CWnd@@QBEPAV1@XZ 5f58eb08     MFC42D:MFC42D.DLL
 0002:00000b0c       __imp_?Track@CRectTracker@@QAEHPAVCWnd@@VCPoint@@H0@Z 5f58eb0c     MFC42D:MFC42D.DLL
 0002:00000b10       __imp_?classCControlBar@CControlBar@@2UCRuntimeClass@@B 5f58eb10     MFC42D:MFC42D.DLL
 0002:00000b14       __imp_?messageMap@CWnd@@1UAFX_MSGMAP@@B 5f58eb14     MFC42D:MFC42D.DLL
 0002:00000b18       __imp_?SetWindowOrg@CDC@@QAE?AVCPoint@@HH@Z 5f58eb18     MFC42D:MFC42D.DLL
 0002:00000b1c       __imp_?SetViewportExt@CDC@@QAE?AVCSize@@UtagSIZE@@@Z 5f58eb1c     MFC42D:MFC42D.DLL
 0002:00000b20       __imp_?CreateEx@CWnd@@QAEHKPBD0KHHHHPAUHWND__@@PAUHMENU__@@PAX@Z 5f58eb20     MFC42D:MFC42D.DLL
 0002:00000b24       __imp_?LPtoDP@CDC@@QBEXPAUtagRECT@@@Z 5f58eb24     MFC42D:MFC42D.DLL
 0002:00000b28       __imp_?SetWindowExt@CDC@@UAE?AVCSize@@HH@Z 5f58eb28     MFC42D:MFC42D.DLL
 0002:00000b2c       __imp_?SetMapMode@CDC@@UAEHH@Z 5f58eb2c     MFC42D:MFC42D.DLL
 0002:00000b30       __imp_?InvalidateRect@CWnd@@QAEXPBUtagRECT@@H@Z 5f58eb30     MFC42D:MFC42D.DLL
 0002:00000b34       __imp_?OffsetRect@CRect@@QAEXUtagPOINT@@@Z 5f58eb34     MFC42D:MFC42D.DLL
 0002:00000b38       __imp_?AfxUnlockTempMaps@@YGHH@Z 5f58eb38     MFC42D:MFC42D.DLL
 0002:00000b3c       __imp_?AfxLockTempMaps@@YGXXZ 5f58eb3c     MFC42D:MFC42D.DLL
 0002:00000b40       __imp_?ValidateRect@CWnd@@QAEXPBUtagRECT@@@Z 5f58eb40     MFC42D:MFC42D.DLL
 0002:00000b44       __imp_?OnEraseBkgnd@CWnd@@IAEHPAVCDC@@@Z 5f58eb44     MFC42D:MFC42D.DLL
 0002:00000b48       __imp_?IsLoading@CArchive@@QBEHXZ 5f58eb48     MFC42D:MFC42D.DLL
 0002:00000b4c       __imp_?OnNcCreate@CWnd@@IAEHPAUtagCREATESTRUCTA@@@Z 5f58eb4c     MFC42D:MFC42D.DLL
 0002:00000b50       __imp_?OnMouseActivate@CWnd@@IAEHPAV1@II@Z 5f58eb50     MFC42D:MFC42D.DLL
 0002:00000b54       __imp_?ReflectChildNotify@CWnd@@IAEHIIJPAJ@Z 5f58eb54     MFC42D:MFC42D.DLL
 0002:00000b58       __imp_?OnCreate@CWnd@@IAEHPAUtagCREATESTRUCTA@@@Z 5f58eb58     MFC42D:MFC42D.DLL
 0002:00000b5c       __imp_?OnMove@CWnd@@IAEXHH@Z 5f58eb5c     MFC42D:MFC42D.DLL
 0002:00000b60       __imp_?OnShowWindow@CWnd@@IAEXHI@Z 5f58eb60     MFC42D:MFC42D.DLL
 0002:00000b64       __imp_?DoUpdate@CCmdUI@@QAEHPAVCCmdTarget@@H@Z 5f58eb64     MFC42D:MFC42D.DLL
 0002:00000b68       __imp_?GetMenuItemID@CMenu@@QBEIH@Z 5f58eb68     MFC42D:MFC42D.DLL
 0002:00000b6c       __imp_?AfxCancelModes@@YGXPAUHWND__@@@Z 5f58eb6c     MFC42D:MFC42D.DLL
 0002:00000b70       __imp_?OnDestroy@CWnd@@IAEXXZ 5f58eb70     MFC42D:MFC42D.DLL
 0002:00000b74       __imp_?OnKillFocus@CWnd@@IAEXPAV1@@Z 5f58eb74     MFC42D:MFC42D.DLL
 0002:00000b78       __imp_?OnSetFocus@CWnd@@IAEXPAV1@@Z 5f58eb78     MFC42D:MFC42D.DLL
 0002:00000b7c       __imp_?GetData@CThreadLocalObject@@QAEPAVCNoTrackObject@@P6GPAV2@XZ@Z 5f58eb7c     MFC42D:MFC42D.DLL
 0002:00000b80       __imp_?GetRuntimeClass@CWnd@@UBEPAUCRuntimeClass@@XZ 5f58eb80     MFC42D:MFC42D.DLL
 0002:00000b84       __imp_?connectionMap@CCmdTarget@@1UAFX_CONNECTIONMAP@@B 5f58eb84     MFC42D:MFC42D.DLL
 0002:00000b88       __imp_?Add@CPtrArray@@QAEHPAX@Z 5f58eb88     MFC42D:MFC42D.DLL
 0002:00000b8c       __imp_?OnGetDlgCode@CWnd@@IAEIXZ 5f58eb8c     MFC42D:MFC42D.DLL
 0002:00000b90       __imp_?OnCancelMode@CWnd@@IAEXXZ 5f58eb90     MFC42D:MFC42D.DLL
 0002:00000b94       __imp_?MessageBoxA@CWnd@@QAEHPBD0I@Z 5f58eb94     MFC42D:MFC42D.DLL
 0002:00000b98       __imp_?classCWinApp@CWinApp@@2UCRuntimeClass@@B 5f58eb98     MFC42D:MFC42D.DLL
 0002:00000b9c       __imp_?ExitInstance@CWinApp@@UAEHXZ 5f58eb9c     MFC42D:MFC42D.DLL
 0002:00000ba0       __imp_?OnActivate@CWnd@@IAEXIPAV1@H@Z 5f58eba0     MFC42D:MFC42D.DLL
 0002:00000ba4       __imp_??4CRect@@QAEXABUtagRECT@@@Z 5f58eba4     MFC42D:MFC42D.DLL
 0002:00000ba8       __imp_?Read@CFile@@UAEIPAXI@Z 5f58eba8     MFC42D:MFC42D.DLL
 0002:00000bac       __imp_?_wcstombsz@@YAHPADPBGI@Z 5f58ebac     MFC42D:MFC42D.DLL
 0002:00000bb0       __imp_??0CFile@@QAE@PBDI@Z 5f58ebb0     MFC42D:MFC42D.DLL
 0002:00000bb4       __imp_?GetSize@CPtrArray@@QBEHXZ 5f58ebb4     MFC42D:MFC42D.DLL
 0002:00000bb8       __imp_?GetAt@CPtrArray@@QBEPAXH@Z 5f58ebb8     MFC42D:MFC42D.DLL
 0002:00000bbc       __imp_??0CPtrArray@@QAE@XZ 5f58ebbc     MFC42D:MFC42D.DLL
 0002:00000bc0       __imp_?RemoveAt@CPtrArray@@QAEXHH@Z 5f58ebc0     MFC42D:MFC42D.DLL
 0002:00000bc4       __imp_??1CPtrArray@@UAE@XZ 5f58ebc4     MFC42D:MFC42D.DLL
 0002:00000bc8       __imp_??1CBitmap@@UAE@XZ   5f58ebc8     MFC42D:MFC42D.DLL
 0002:00000bcc       __imp_?Detach@CGdiObject@@QAEPAXXZ 5f58ebcc     MFC42D:MFC42D.DLL
 0002:00000bd0       __imp_?LoadBitmapA@CBitmap@@QAEHI@Z 5f58ebd0     MFC42D:MFC42D.DLL
 0002:00000bd4       __imp_??0CBitmap@@QAE@XZ   5f58ebd4     MFC42D:MFC42D.DLL
 0002:00000bd8       __imp_?GetSafeHandle@CGdiObject@@QBEPAXXZ 5f58ebd8     MFC42D:MFC42D.DLL
 0002:00000bdc       __imp_?LoadIconA@CWinApp@@QBEPAUHICON__@@I@Z 5f58ebdc     MFC42D:MFC42D.DLL
 0002:00000be0       __imp_??6@YGAAVCArchive@@AAV0@ABVCString@@@Z 5f58ebe0     MFC42D:MFC42D.DLL
 0002:00000be4       __imp_??5@YGAAVCArchive@@AAV0@AAVCString@@@Z 5f58ebe4     MFC42D:MFC42D.DLL
 0002:00000be8       __imp_?OnQuery3dControls@CWnd@@IAEJIJ@Z 5f58ebe8     MFC42D:MFC42D.DLL
 0002:00000bec       __imp_?messageMap@CDialog@@1UAFX_MSGMAP@@B 5f58ebec     MFC42D:MFC42D.DLL
 0002:00000bf0       __imp_?GetRuntimeClass@CObject@@UBEPAUCRuntimeClass@@XZ 5f58ebf0     MFC42D:MFC42D.DLL
 0002:00000bf4       __imp_??0CObject@@IAE@XZ   5f58ebf4     MFC42D:MFC42D.DLL
 0002:00000bf8       __imp_??1CObject@@UAE@XZ   5f58ebf8     MFC42D:MFC42D.DLL
 0002:00000bfc       __imp_?RemoveAll@CPtrArray@@QAEXXZ 5f58ebfc     MFC42D:MFC42D.DLL
 0002:00000c00       __imp_??ACPtrArray@@QAEAAPAXH@Z 5f58ec00     MFC42D:MFC42D.DLL
 0002:00000c04       __imp_?GetFont@CDialogTemplate@@QBEHAAVCString@@AAG@Z 5f58ec04     MFC42D:MFC42D.DLL
 0002:00000c08       __imp_?GetSizeInDialogUnits@CDialogTemplate@@QBEXPAUtagSIZE@@@Z 5f58ec08     MFC42D:MFC42D.DLL
 0002:00000c0c       __imp_?AddHead@CPtrList@@QAEPAU__POSITION@@PAX@Z 5f58ec0c     MFC42D:MFC42D.DLL
 0002:00000c10       __imp_?AfxEnableMemoryTracking@@YGHH@Z 5f58ec10     MFC42D:MFC42D.DLL
 0002:00000c14       __imp_?OnCancel@CDialog@@MAEXXZ 5f58ec14     MFC42D:MFC42D.DLL
 0002:00000c18       __imp_?OnOK@CDialog@@MAEXXZ 5f58ec18     MFC42D:MFC42D.DLL
 0002:00000c1c       __imp_??0CDialog@@QAE@XZ   5f58ec1c     MFC42D:MFC42D.DLL
 0002:00000c20       __imp_??1CDialogTemplate@@QAE@XZ 5f58ec20     MFC42D:MFC42D.DLL
 0002:00000c24       __imp_?Detach@CDialogTemplate@@QAEPAXXZ 5f58ec24     MFC42D:MFC42D.DLL
 0002:00000c28       __imp_?GetSizeInPixels@CDialogTemplate@@QBEXPAUtagSIZE@@@Z 5f58ec28     MFC42D:MFC42D.DLL
 0002:00000c2c       __imp_?SetFont@CDialogTemplate@@QAEHPBDG@Z 5f58ec2c     MFC42D:MFC42D.DLL
 0002:00000c30       __imp_?AfxGetPropSheetFont@@YGHAAVCString@@AAGH@Z 5f58ec30     MFC42D:MFC42D.DLL
 0002:00000c34       __imp_?HasFont@CDialogTemplate@@QBEHXZ 5f58ec34     MFC42D:MFC42D.DLL
 0002:00000c38       __imp_?Load@CDialogTemplate@@QAEHPBD@Z 5f58ec38     MFC42D:MFC42D.DLL
 0002:00000c3c       __imp_??0CDialogTemplate@@QAE@PBUDLGTEMPLATE@@@Z 5f58ec3c     MFC42D:MFC42D.DLL
 0002:00000c40       __imp_?GetCurrentMessage@CWnd@@KGPBUtagMSG@@XZ 5f58ec40     MFC42D:MFC42D.DLL
 0002:00000c44       __imp_?SendChildNotifyLastMsg@CWnd@@QAEHPAJ@Z 5f58ec44     MFC42D:MFC42D.DLL
 0002:00000c48       __imp_??0CDialogTemplate@@QAE@PAX@Z 5f58ec48     MFC42D:MFC42D.DLL
 0002:00000c4c       __imp_?UpdateData@CWnd@@QAEHH@Z 5f58ec4c     MFC42D:MFC42D.DLL
 0002:00000c50       __imp_?Create@CDialog@@QAEHIPAVCWnd@@@Z 5f58ec50     MFC42D:MFC42D.DLL
 0002:00000c54       __imp_?CreateIndirect@CDialog@@QAEHPAXPAVCWnd@@@Z 5f58ec54     MFC42D:MFC42D.DLL
 0002:00000c58       __imp_?GetWindow@CWnd@@QBEPAV1@I@Z 5f58ec58     MFC42D:MFC42D.DLL
 0002:00000c5c       __imp_?GotoDlgCtrl@CDialog@@QAEXPAVCWnd@@@Z 5f58ec5c     MFC42D:MFC42D.DLL
 0002:00000c60       __imp_?GetDefID@CDialog@@QBEKXZ 5f58ec60     MFC42D:MFC42D.DLL
 0002:00000c64       __imp_?GetAt@CDWordArray@@QBEKH@Z 5f58ec64     MFC42D:MFC42D.DLL
 0002:00000c68       __imp_??9@YG_NABVCString@@0@Z 5f58ec68     MFC42D:MFC42D.DLL
 0002:00000c6c       __imp_??6CArchive@@QAEAAV0@H@Z 5f58ec6c     MFC42D:MFC42D.DLL
 0002:00000c70       __imp_??6CArchive@@QAEAAV0@F@Z 5f58ec70     MFC42D:MFC42D.DLL
 0002:00000c74       __imp_??5CArchive@@QAEAAV0@AAH@Z 5f58ec74     MFC42D:MFC42D.DLL
 0002:00000c78       __imp_??5CArchive@@QAEAAV0@AAF@Z 5f58ec78     MFC42D:MFC42D.DLL
 0002:00000c7c       __imp_?GetAt@CStringArray@@QBE?AVCString@@H@Z 5f58ec7c     MFC42D:MFC42D.DLL
 0002:00000c80       __imp_??1CStringArray@@UAE@XZ 5f58ec80     MFC42D:MFC42D.DLL
 0002:00000c84       __imp_?GetSize@CStringArray@@QBEHXZ 5f58ec84     MFC42D:MFC42D.DLL
 0002:00000c88       __imp_??0CStringArray@@QAE@XZ 5f58ec88     MFC42D:MFC42D.DLL
 0002:00000c8c       __imp_?RemoveAll@CStringArray@@QAEXXZ 5f58ec8c     MFC42D:MFC42D.DLL
 0002:00000c90       __imp_?Add@CStringArray@@QAEHABVCString@@@Z 5f58ec90     MFC42D:MFC42D.DLL
 0002:00000c94       __imp_?SeekToEnd@CFile@@QAEKXZ 5f58ec94     MFC42D:MFC42D.DLL
 0002:00000c98       __imp_?Compare@CString@@QBEHPBD@Z 5f58ec98     MFC42D:MFC42D.DLL
 0002:00000c9c       __imp_?AfxDelRegTreeHelper@@YGJPAUHKEY__@@ABVCString@@@Z 5f58ec9c     MFC42D:MFC42D.DLL
 0002:00000ca0       __imp_?ReverseFind@CString@@QBEHD@Z 5f58eca0     MFC42D:MFC42D.DLL
 0002:00000ca4       __imp_??1CBrush@@UAE@XZ    5f58eca4     MFC42D:MFC42D.DLL
 0002:00000ca8       __imp_?FillRect@CDC@@QAEXPBUtagRECT@@PAVCBrush@@@Z 5f58eca8     MFC42D:MFC42D.DLL
 0002:00000cac       __imp_??0CBrush@@QAE@K@Z   5f58ecac     MFC42D:MFC42D.DLL
 0002:00000cb0       __imp_??9CRect@@QBEHABUtagRECT@@@Z 5f58ecb0     MFC42D:MFC42D.DLL
 0002:00000cb4       __imp_?GetHandleSize@CRectTracker@@MBEHPBUtagRECT@@@Z 5f58ecb4     MFC42D:MFC42D.DLL
 0002:00000cb8       __imp_?GetHandleMask@CRectTracker@@UBEIXZ 5f58ecb8     MFC42D:MFC42D.DLL
 0002:00000cbc       __imp_?OnChangedRect@CRectTracker@@UAEXABVCRect@@@Z 5f58ecbc     MFC42D:MFC42D.DLL
 0002:00000cc0       __imp_?AdjustRect@CRectTracker@@UAEXHPAUtagRECT@@@Z 5f58ecc0     MFC42D:MFC42D.DLL
 0002:00000cc4       __imp_?DrawTrackerRect@CRectTracker@@UAEXPBUtagRECT@@PAVCWnd@@PAVCDC@@1@Z 5f58ecc4     MFC42D:MFC42D.DLL
 0002:00000cc8       __imp_??0CRectTracker@@QAE@PBUtagRECT@@I@Z 5f58ecc8     MFC42D:MFC42D.DLL
 0002:00000ccc       __imp_?FromHandle@CDC@@SGPAV1@PAUHDC__@@@Z 5f58eccc     MFC42D:MFC42D.DLL
 0002:00000cd0       __imp_??1CMapStringToPtr@@UAE@XZ 5f58ecd0     MFC42D:MFC42D.DLL
 0002:00000cd4       __imp_??0CMapStringToPtr@@QAE@H@Z 5f58ecd4     MFC42D:MFC42D.DLL
 0002:00000cd8       __imp_?Lookup@CMapStringToPtr@@QBEHPBDAAPAX@Z 5f58ecd8     MFC42D:MFC42D.DLL
 0002:00000cdc       __imp_?MakeLower@CString@@QAEXXZ 5f58ecdc     MFC42D:MFC42D.DLL
 0002:00000ce0       __imp_?SetAt@CMapStringToPtr@@QAEXPBDPAX@Z 5f58ece0     MFC42D:MFC42D.DLL
 0002:00000ce4       __imp_?GetNextAssoc@CMapStringToPtr@@QBEXAAPAU__POSITION@@AAVCString@@AAPAX@Z 5f58ece4     MFC42D:MFC42D.DLL
 0002:00000ce8       __imp_?GetStartPosition@CMapStringToPtr@@QBEPAU__POSITION@@XZ 5f58ece8     MFC42D:MFC42D.DLL
 0002:00000cec       __imp_?GetCount@CMapStringToPtr@@QBEHXZ 5f58ecec     MFC42D:MFC42D.DLL
 0002:00000cf0       __imp_??1CThreadLocalObject@@QAE@XZ 5f58ecf0     MFC42D:MFC42D.DLL
 0002:00000cf4       __imp_?classCDC@CDC@@2UCRuntimeClass@@B 5f58ecf4     MFC42D:MFC42D.DLL
 0002:00000cf8       __imp_?Escape@CDC@@UAEHHHPBDPAX@Z 5f58ecf8     MFC42D:MFC42D.DLL
 0002:00000cfc       __imp_?GrayStringA@CDC@@UAEHPAVCBrush@@P6GHPAUHDC__@@JH@ZJHHHHH@Z 5f58ecfc     MFC42D:MFC42D.DLL
 0002:00000d00       __imp_?DrawTextA@CDC@@UAEHPBDHPAUtagRECT@@I@Z 5f58ed00     MFC42D:MFC42D.DLL
 0002:00000d04       __imp_?TabbedTextOutA@CDC@@UAE?AVCSize@@HHPBDHHPAHH@Z 5f58ed04     MFC42D:MFC42D.DLL
 0002:00000d08       __imp_?ExtTextOutA@CDC@@UAEHHHIPBUtagRECT@@PBDIPAH@Z 5f58ed08     MFC42D:MFC42D.DLL
 0002:00000d0c       __imp_?TextOutA@CDC@@UAEHHHPBDH@Z 5f58ed0c     MFC42D:MFC42D.DLL
 0002:00000d10       __imp_?RectVisible@CDC@@UBEHPBUtagRECT@@@Z 5f58ed10     MFC42D:MFC42D.DLL
 0002:00000d14       __imp_?PtVisible@CDC@@UBEHHH@Z 5f58ed14     MFC42D:MFC42D.DLL
 0002:00000d18       __imp_?GetClipBox@CDC@@UBEHPAUtagRECT@@@Z 5f58ed18     MFC42D:MFC42D.DLL
 0002:00000d1c       __imp_?ScaleWindowExt@CDC@@UAE?AVCSize@@HHHH@Z 5f58ed1c     MFC42D:MFC42D.DLL
 0002:00000d20       __imp_?ScaleViewportExt@CDC@@UAE?AVCSize@@HHHH@Z 5f58ed20     MFC42D:MFC42D.DLL
 0002:00000d24       __imp_?SetViewportExt@CDC@@UAE?AVCSize@@HH@Z 5f58ed24     MFC42D:MFC42D.DLL
 0002:00000d28       __imp_?OffsetViewportOrg@CDC@@UAE?AVCPoint@@HH@Z 5f58ed28     MFC42D:MFC42D.DLL
 0002:00000d2c       __imp_?SetViewportOrg@CDC@@UAE?AVCPoint@@HH@Z 5f58ed2c     MFC42D:MFC42D.DLL
 0002:00000d30       __imp_?SetTextColor@CDC@@UAEKK@Z 5f58ed30     MFC42D:MFC42D.DLL
 0002:00000d34       __imp_?SetBkColor@CDC@@UAEKK@Z 5f58ed34     MFC42D:MFC42D.DLL
 0002:00000d38       __imp_?SelectObject@CDC@@UAEPAVCFont@@PAV2@@Z 5f58ed38     MFC42D:MFC42D.DLL
 0002:00000d3c       __imp_?SelectStockObject@CDC@@UAEPAVCGdiObject@@H@Z 5f58ed3c     MFC42D:MFC42D.DLL
 0002:00000d40       __imp_?RestoreDC@CDC@@UAEHH@Z 5f58ed40     MFC42D:MFC42D.DLL
 0002:00000d44       __imp_?SaveDC@CDC@@UAEHXZ  5f58ed44     MFC42D:MFC42D.DLL
 0002:00000d48       __imp_?ReleaseOutputDC@CDC@@UAEXXZ 5f58ed48     MFC42D:MFC42D.DLL
 0002:00000d4c       __imp_?ReleaseAttribDC@CDC@@UAEXXZ 5f58ed4c     MFC42D:MFC42D.DLL
 0002:00000d50       __imp_?SetOutputDC@CDC@@UAEXPAUHDC__@@@Z 5f58ed50     MFC42D:MFC42D.DLL
 0002:00000d54       __imp_?SetAttribDC@CDC@@UAEXPAUHDC__@@@Z 5f58ed54     MFC42D:MFC42D.DLL
 0002:00000d58       __imp_?Dump@CDC@@UBEXAAVCDumpContext@@@Z 5f58ed58     MFC42D:MFC42D.DLL
 0002:00000d5c       __imp_?AssertValid@CDC@@UBEXXZ 5f58ed5c     MFC42D:MFC42D.DLL
 0002:00000d60       __imp_?SetViewportOrg@CDC@@QAE?AVCPoint@@UtagPOINT@@@Z 5f58ed60     MFC42D:MFC42D.DLL
 0002:00000d64       __imp_??HCPoint@@QBE?AV0@UtagPOINT@@@Z 5f58ed64     MFC42D:MFC42D.DLL
 0002:00000d68       __imp_?GetViewportOrg@CDC@@QBE?AVCPoint@@XZ 5f58ed68     MFC42D:MFC42D.DLL
 0002:00000d6c       __imp_?GetDC@CWnd@@QAEPAVCDC@@XZ 5f58ed6c     MFC42D:MFC42D.DLL
 0002:00000d70       __imp_?ReleaseDC@CWnd@@QAEHPAVCDC@@@Z 5f58ed70     MFC42D:MFC42D.DLL
 0002:00000d74       __imp_?InvalidateRgn@CWnd@@QAEXPAVCRgn@@H@Z 5f58ed74     MFC42D:MFC42D.DLL
 0002:00000d78       __imp_??1CRgn@@UAE@XZ      5f58ed78     MFC42D:MFC42D.DLL
 0002:00000d7c       __imp_??BCRgn@@QBEPAUHRGN__@@XZ 5f58ed7c     MFC42D:MFC42D.DLL
 0002:00000d80       __imp_?OffsetRgn@CRgn@@QAEHUtagPOINT@@@Z 5f58ed80     MFC42D:MFC42D.DLL
 0002:00000d84       __imp_?CopyRgn@CRgn@@QAEHPAV1@@Z 5f58ed84     MFC42D:MFC42D.DLL
 0002:00000d88       __imp_??0CRgn@@QAE@XZ      5f58ed88     MFC42D:MFC42D.DLL
 0002:00000d8c       __imp_?ScrollWindow@CWnd@@QAEXHHPBUtagRECT@@0@Z 5f58ed8c     MFC42D:MFC42D.DLL
 0002:00000d90       __imp_?OnChildNotify@CButton@@MAEHIIJPAJ@Z 5f58ed90     MFC42D:MFC42D.DLL
 0002:00000d94       __imp_?GetRuntimeClass@CButton@@UBEPAUCRuntimeClass@@XZ 5f58ed94     MFC42D:MFC42D.DLL
 0002:00000d98       __imp_??0CButton@@QAE@XZ   5f58ed98     MFC42D:MFC42D.DLL
 0002:00000d9c       __imp_??1CButton@@UAE@XZ   5f58ed9c     MFC42D:MFC42D.DLL
 0002:00000da0       __imp_?GetNearestColor@CDC@@QBEKK@Z 5f58eda0     MFC42D:MFC42D.DLL
 0002:00000da4       __imp_?GetState@CButton@@QBEIXZ 5f58eda4     MFC42D:MFC42D.DLL
 0002:00000da8       __imp_?RealizePalette@CDC@@QAEIXZ 5f58eda8     MFC42D:MFC42D.DLL
 0002:00000dac       __imp_?SelectPalette@CDC@@QAEPAVCPalette@@PAV2@H@Z 5f58edac     MFC42D:MFC42D.DLL
 0002:00000db0       __imp_?FromHandle@CPalette@@SGPAV1@PAUHPALETTE__@@@Z 5f58edb0     MFC42D:MFC42D.DLL
 0002:00000db4       __imp_??1CComboBox@@UAE@XZ 5f58edb4     MFC42D:MFC42D.DLL
 0002:00000db8       __imp_??0CComboBox@@QAE@XZ 5f58edb8     MFC42D:MFC42D.DLL
 0002:00000dbc       __imp_?SubclassDlgItem@CWnd@@QAEHIPAV1@@Z 5f58edbc     MFC42D:MFC42D.DLL
 0002:00000dc0       __imp_?SetCurSel@CComboBox@@QAEHH@Z 5f58edc0     MFC42D:MFC42D.DLL
 0002:00000dc4       __imp_?SetItemData@CComboBox@@QAEHHK@Z 5f58edc4     MFC42D:MFC42D.DLL
 0002:00000dc8       __imp_?AddString@CComboBox@@QAEHPBD@Z 5f58edc8     MFC42D:MFC42D.DLL
 0002:00000dcc       __imp_?GetCount@CComboBox@@QBEHXZ 5f58edcc     MFC42D:MFC42D.DLL
 0002:00000dd0       __imp_?GetItemData@CComboBox@@QBEKH@Z 5f58edd0     MFC42D:MFC42D.DLL
 0002:00000dd4       __imp_?GetCurSel@CComboBox@@QBEHXZ 5f58edd4     MFC42D:MFC42D.DLL
 0002:00000dd8       __imp_?DDX_Control@@YGXPAVCDataExchange@@HAAVCWnd@@@Z 5f58edd8     MFC42D:MFC42D.DLL
 0002:00000ddc       __imp_?LineTo@CDC@@QAEHHH@Z 5f58eddc     MFC42D:MFC42D.DLL
 0002:00000de0       __imp_?MoveTo@CDC@@QAE?AVCPoint@@HH@Z 5f58ede0     MFC42D:MFC42D.DLL
 0002:00000de4       __imp_?SelectObject@CDC@@QAEPAVCPen@@PAV2@@Z 5f58ede4     MFC42D:MFC42D.DLL
 0002:00000de8       __imp_??0CPen@@QAE@HHK@Z   5f58ede8     MFC42D:MFC42D.DLL
 0002:00000dec       __imp_?FrameRect@CDC@@QAEXPBUtagRECT@@PAVCBrush@@@Z 5f58edec     MFC42D:MFC42D.DLL
 0002:00000df0       __imp_??1CStatic@@UAE@XZ   5f58edf0     MFC42D:MFC42D.DLL
 0002:00000df4       __imp_??0CStatic@@QAE@XZ   5f58edf4     MFC42D:MFC42D.DLL
 0002:00000df8       __imp_?DeleteItem@CComboBox@@UAEXPAUtagDELETEITEMSTRUCT@@@Z 5f58edf8     MFC42D:MFC42D.DLL
 0002:00000dfc       __imp_?CompareItem@CComboBox@@UAEHPAUtagCOMPAREITEMSTRUCT@@@Z 5f58edfc     MFC42D:MFC42D.DLL
 0002:00000e00       __imp_?MeasureItem@CComboBox@@UAEXPAUtagMEASUREITEMSTRUCT@@@Z 5f58ee00     MFC42D:MFC42D.DLL
 0002:00000e04       __imp_?DrawItem@CComboBox@@UAEXPAUtagDRAWITEMSTRUCT@@@Z 5f58ee04     MFC42D:MFC42D.DLL
 0002:00000e08       __imp_?OnChildNotify@CComboBox@@MAEHIIJPAJ@Z 5f58ee08     MFC42D:MFC42D.DLL
 0002:00000e0c       __imp_?GetRuntimeClass@CComboBox@@UBEPAUCRuntimeClass@@XZ 5f58ee0c     MFC42D:MFC42D.DLL
 0002:00000e10       __imp_?BitBlt@CDC@@QAEHHHHHPAV1@HHK@Z 5f58ee10     MFC42D:MFC42D.DLL
 0002:00000e14       __imp_?SelectObject@CDC@@QAEPAVCBitmap@@PAV2@@Z 5f58ee14     MFC42D:MFC42D.DLL
 0002:00000e18       __imp_?CreateCompatibleDC@CDC@@QAEHPAV1@@Z 5f58ee18     MFC42D:MFC42D.DLL
 0002:00000e1c       __imp_?GetPixel@CDC@@QBEKHH@Z 5f58ee1c     MFC42D:MFC42D.DLL
 0002:00000e20       __imp_?CreateBitmap@CBitmap@@QAEHHHIIPBX@Z 5f58ee20     MFC42D:MFC42D.DLL
 0002:00000e24       __imp_?GetObjectA@CGdiObject@@QBEHHPAX@Z 5f58ee24     MFC42D:MFC42D.DLL
 0002:00000e28       __imp_?GetSafeHdc@CDC@@QBEPAUHDC__@@XZ 5f58ee28     MFC42D:MFC42D.DLL
 0002:00000e2c       __imp_?ResetContent@CComboBox@@QAEXXZ 5f58ee2c     MFC42D:MFC42D.DLL
 0002:00000e30       __imp_?SelectString@CComboBox@@QAEHHPBD@Z 5f58ee30     MFC42D:MFC42D.DLL
 0002:00000e34       __imp_?FindString@CComboBox@@QBEHHPBD@Z 5f58ee34     MFC42D:MFC42D.DLL
 0002:00000e38       __imp_?GetLBText@CComboBox@@QBEXHAAVCString@@@Z 5f58ee38     MFC42D:MFC42D.DLL
 0002:00000e3c       __imp_?DrawFocusRect@CDC@@QAEXPBUtagRECT@@@Z 5f58ee3c     MFC42D:MFC42D.DLL
 0002:00000e40       __imp_?GetTextMetricsA@CDC@@QBEHPAUtagTEXTMETRICA@@@Z 5f58ee40     MFC42D:MFC42D.DLL
 0002:00000e44       __imp_?InsertString@CComboBox@@QAEHHPBD@Z 5f58ee44     MFC42D:MFC42D.DLL
 0002:00000e48       __imp_?SetEditSel@CComboBox@@QAEHHH@Z 5f58ee48     MFC42D:MFC42D.DLL
 0002:00000e4c       __imp_?FindStringExact@CComboBox@@QBEHHPBD@Z 5f58ee4c     MFC42D:MFC42D.DLL
 0002:00000e50       __imp_?CreateFontIndirectA@CFont@@QAEHPBUtagLOGFONTA@@@Z 5f58ee50     MFC42D:MFC42D.DLL
 0002:00000e54       __imp_?DeleteObject@CGdiObject@@QAEHXZ 5f58ee54     MFC42D:MFC42D.DLL
 0002:00000e58       __imp_?GetTextExtent@CDC@@QBE?AVCSize@@PBDH@Z 5f58ee58     MFC42D:MFC42D.DLL
 0002:00000e5c       __imp_?SetBkMode@CDC@@QAEHH@Z 5f58ee5c     MFC42D:MFC42D.DLL
 0002:00000e60       __imp_?SetCheck@CButton@@QAEXH@Z 5f58ee60     MFC42D:MFC42D.DLL
 0002:00000e64       __imp_?GetCheck@CButton@@QBEHXZ 5f58ee64     MFC42D:MFC42D.DLL
 0002:00000e68       __imp_?GetStatus@CFile@@SGHPBDAAUCFileStatus@@@Z 5f58ee68     MFC42D:MFC42D.DLL
 0002:00000e6c       __imp_??0CTime@@QAE@XZ     5f58ee6c     MFC42D:MFC42D.DLL
 0002:00000e70       __imp_?GetPathName@CFileDialog@@QBE?AVCString@@XZ 5f58ee70     MFC42D:MFC42D.DLL
 0002:00000e74       __imp_?DoModal@CFileDialog@@UAEHXZ 5f58ee74     MFC42D:MFC42D.DLL
 0002:00000e78       __imp_??0CFileDialog@@QAE@HPBD0K0PAVCWnd@@@Z 5f58ee78     MFC42D:MFC42D.DLL
 0002:00000e7c       __imp_??0CMemFile@@QAE@I@Z 5f58ee7c     MFC42D:MFC42D.DLL
 0002:00000e80       __imp_?classCException@CException@@2UCRuntimeClass@@B 5f58ee80     MFC42D:MFC42D.DLL
 0002:00000e84       __imp_?Cut@CRichEditCtrl@@QAEXXZ 5f58ee84     MFC42D:MFC42D.DLL
 0002:00000e88       __imp_?Delete@CException@@QAEXXZ 5f58ee88     MFC42D:MFC42D.DLL
 0002:00000e8c       __imp_??0AFX_MAINTAIN_STATE2@@QAE@PAVAFX_MODULE_STATE@@@Z 5f58ee8c     MFC42D:MFC42D.DLL
 0002:00000e90       __imp_??1AFX_MAINTAIN_STATE2@@QAE@XZ 5f58ee90     MFC42D:MFC42D.DLL
 0002:00000e94       __imp_?AfxGetAppModuleState@@YGPAVAFX_MODULE_STATE@@XZ 5f58ee94     MFC42D:MFC42D.DLL
 0002:00000e98       __imp_??3CObject@@SGXPAX@Z 5f58ee98     MFC42D:MFC42D.DLL
 0002:00000e9c       __imp_?AfxInitExtensionModule@@YGHAAUAFX_EXTENSION_MODULE@@PAUHINSTANCE__@@@Z 5f58ee9c     MFC42D:MFC42D.DLL
 0002:00000ea0       __imp_?AfxCoreInitModule@@YGXXZ 5f58eea0     MFC42D:MFC42D.DLL
 0002:00000ea4       __imp_?AfxWinInit@@YGHPAUHINSTANCE__@@0PADH@Z 5f58eea4     MFC42D:MFC42D.DLL
 0002:00000ea8       __imp_??2CObject@@SGPAXI@Z 5f58eea8     MFC42D:MFC42D.DLL
 0002:00000eac       __imp_??0CDynLinkLibrary@@QAE@AAUAFX_EXTENSION_MODULE@@H@Z 5f58eeac     MFC42D:MFC42D.DLL
 0002:00000eb0       __imp_?AfxTermExtensionModule@@YGXAAUAFX_EXTENSION_MODULE@@H@Z 5f58eeb0     MFC42D:MFC42D.DLL
 0002:00000eb4       __imp_?AfxTermThread@@YGXPAUHINSTANCE__@@@Z 5f58eeb4     MFC42D:MFC42D.DLL
 0002:00000eb8       __imp_?AfxGetModuleState@@YGPAVAFX_MODULE_STATE@@XZ 5f58eeb8     MFC42D:MFC42D.DLL
 0002:00000ebc       __imp_?AfxGetThreadState@@YGPAV_AFX_THREAD_STATE@@XZ 5f58eebc     MFC42D:MFC42D.DLL
 0002:00000ec0       __imp_?AfxSetModuleState@@YGPAVAFX_MODULE_STATE@@PAV1@@Z 5f58eec0     MFC42D:MFC42D.DLL
 0002:00000ec4       __imp_?AfxGetApp@@YGPAVCWinApp@@XZ 5f58eec4     MFC42D:MFC42D.DLL
 0002:00000ec8       __imp_?OnCmdMsg@CCmdTarget@@UAEHIHPAXPAUAFX_CMDHANDLERINFO@@@Z 5f58eec8     MFC42D:MFC42D.DLL
 0002:00000ecc       __imp_?AfxAssertValidObject@@YGXPBVCObject@@PBDH@Z 5f58eecc     MFC42D:MFC42D.DLL
 0002:00000ed0       __imp_?AfxOleLockApp@@YGXXZ 5f58eed0     MFC42D:MFC42D.DLL
 0002:00000ed4       __imp_?GetDispatchIID@CCmdTarget@@UAEHPAU_GUID@@@Z 5f58eed4     MFC42D:MFC42D.DLL
 0002:00000ed8       __imp_?OnFinalRelease@CCmdTarget@@UAEXXZ 5f58eed8     MFC42D:MFC42D.DLL
 0002:00000edc       __imp_?IsInvokeAllowed@CCmdTarget@@UAEHJ@Z 5f58eedc     MFC42D:MFC42D.DLL
 0002:00000ee0       __imp_?GetTypeLib@CCmdTarget@@UAEJKPAPAUITypeLib@@@Z 5f58eee0     MFC42D:MFC42D.DLL
 0002:00000ee4       __imp_?GetTypeInfoCount@CCmdTarget@@UAEIXZ 5f58eee4     MFC42D:MFC42D.DLL
 0002:00000ee8       __imp_?GetTypeLibCache@CCmdTarget@@UAEPAVCTypeLibCache@@XZ 5f58eee8     MFC42D:MFC42D.DLL
 0002:00000eec       __imp_?GetDispatchMap@CCmdTarget@@MBEPBUAFX_DISPMAP@@XZ 5f58eeec     MFC42D:MFC42D.DLL
 0002:00000ef0       __imp_?GetMessageMap@CCmdTarget@@MBEPBUAFX_MSGMAP@@XZ 5f58eef0     MFC42D:MFC42D.DLL
 0002:00000ef4       __imp_?GetCommandMap@CCmdTarget@@MBEPBUAFX_OLECMDMAP@@XZ 5f58eef4     MFC42D:MFC42D.DLL
 0002:00000ef8       __imp_?OnCreateAggregates@CCmdTarget@@UAEHXZ 5f58eef8     MFC42D:MFC42D.DLL
 0002:00000efc       __imp_?GetConnectionMap@CCmdTarget@@MBEPBUAFX_CONNECTIONMAP@@XZ 5f58eefc     MFC42D:MFC42D.DLL
 0002:00000f00       __imp_?GetEventSinkMap@CCmdTarget@@MBEPBUAFX_EVENTSINKMAP@@XZ 5f58ef00     MFC42D:MFC42D.DLL
 0002:00000f04       __imp_?GetConnectionHook@CCmdTarget@@MAEPAUIConnectionPoint@@ABU_GUID@@@Z 5f58ef04     MFC42D:MFC42D.DLL
 0002:00000f08       __imp_?GetInterfaceHook@CCmdTarget@@UAEPAUIUnknown@@PBX@Z 5f58ef08     MFC42D:MFC42D.DLL
 0002:00000f0c       __imp_?GetExtraConnectionPoints@CCmdTarget@@MAEHPAVCPtrArray@@@Z 5f58ef0c     MFC42D:MFC42D.DLL
 0002:00000f10       __imp_?AfxGetThread@@YGPAVCWinThread@@XZ 5f58ef10     MFC42D:MFC42D.DLL
 0002:00000f14       __imp_?AfxOleSetUserCtrl@@YGXH@Z 5f58ef14     MFC42D:MFC42D.DLL
 0002:00000f18       __imp_?AfxTrace@@YAXPBDZZ  5f58ef18     MFC42D:MFC42D.DLL
 0002:00000f1c       __imp_??3CObject@@SGXPAXPBDH@Z 5f58ef1c     MFC42D:MFC42D.DLL
 0002:00000f20       __imp_??2CObject@@SGPAXIPBDH@Z 5f58ef20     MFC42D:MFC42D.DLL
 0002:00000f24       __imp_?AfxOleGetMessageFilter@@YGPAVCOleMessageFilter@@XZ 5f58ef24     MFC42D:MFC42D.DLL
 0002:00000f28       __imp_??1CDC@@UAE@XZ       5f58ef28     MFC42D:MFC42D.DLL
 0002:00000f2c       __imp_??1CView@@UAE@XZ     5f58ef2c     MFC42D:MFC42D.DLL
 0002:00000f30       __imp_??1CDWordArray@@UAE@XZ 5f58ef30     MFC42D:MFC42D.DLL
 0002:00000f34       __imp_??1CCmdTarget@@UAE@XZ 5f58ef34     MFC42D:MFC42D.DLL
 0002:00000f38       __imp_??1CString@@QAE@XZ   5f58ef38     MFC42D:MFC42D.DLL
 0002:00000f3c       __imp_??1CMemFile@@UAE@XZ  5f58ef3c     MFC42D:MFC42D.DLL
 0002:00000f40       __imp_??1AFX_MODULE_STATE@@UAE@XZ 5f58ef40     MFC42D:MFC42D.DLL
 0002:00000f44       __imp_??2@YAPAXI@Z         5f58ef44     MFC42D:MFC42D.DLL
 0002:00000f48       __imp_??3@YAXPAX@Z         5f58ef48     MFC42D:MFC42D.DLL
 0002:00000f4c       __imp_??1CWinApp@@UAE@XZ   5f58ef4c     MFC42D:MFC42D.DLL
 0002:00000f50       __imp_??0AFX_MODULE_STATE@@QAE@HP6GJPAUHWND__@@IIJ@ZKH@Z 5f58ef50     MFC42D:MFC42D.DLL
 0002:00000f54       __imp_?AfxWndProc@@YGJPAUHWND__@@IIJ@Z 5f58ef54     MFC42D:MFC42D.DLL
 0002:00000f58       __imp_?GetCharFormat@CFontDialog@@QBEXAAU_charformat@@@Z 5f58ef58     MFC42D:MFC42D.DLL
 0002:00000f5c       __imp_??0CWinApp@@QAE@PBD@Z 5f58ef5c     MFC42D:MFC42D.DLL
 0002:00000f60       __imp_?DoModal@CFontDialog@@UAEHXZ 5f58ef60     MFC42D:MFC42D.DLL
 0002:00000f64       __imp_?Copy@CRichEditCtrl@@QAEXXZ 5f58ef64     MFC42D:MFC42D.DLL
 0002:00000f68       __imp_?AssertValid@CWnd@@UBEXXZ 5f58ef68     MFC42D:MFC42D.DLL
 0002:00000f6c       \177MFC42D_NULL_THUNK_DATA 5f58ef6c     MFC42D:MFC42D.DLL
 0002:00000f70       __imp___adjust_fdiv        5f58ef70     msvcrtd:MSVCRTD.dll
 0002:00000f74       __imp___malloc_dbg         5f58ef74     msvcrtd:MSVCRTD.dll
 0002:00000f78       __imp___initterm           5f58ef78     msvcrtd:MSVCRTD.dll
 0002:00000f7c       __imp___free_dbg           5f58ef7c     msvcrtd:MSVCRTD.dll
 0002:00000f80       __imp_??1type_info@@UAE@XZ 5f58ef80     msvcrtd:MSVCRTD.dll
 0002:00000f84       __imp_?terminate@@YAXXZ    5f58ef84     msvcrtd:MSVCRTD.dll
 0002:00000f88       __imp___except_handler3    5f58ef88     msvcrtd:MSVCRTD.dll
 0002:00000f8c       __imp___onexit             5f58ef8c     msvcrtd:MSVCRTD.dll
 0002:00000f90       __imp____dllonexit         5f58ef90     msvcrtd:MSVCRTD.dll
 0002:00000f94       __imp___mbsrchr            5f58ef94     msvcrtd:MSVCRTD.dll
 0002:00000f98       __imp__wcsncpy             5f58ef98     msvcrtd:MSVCRTD.dll
 0002:00000f9c       __imp__wcscpy              5f58ef9c     msvcrtd:MSVCRTD.dll
 0002:00000fa0       __imp___vsnprintf          5f58efa0     msvcrtd:MSVCRTD.dll
 0002:00000fa4       __imp___ltoa               5f58efa4     msvcrtd:MSVCRTD.dll
 0002:00000fa8       __imp___ultoa              5f58efa8     msvcrtd:MSVCRTD.dll
 0002:00000fac       __imp___ismbcspace         5f58efac     msvcrtd:MSVCRTD.dll
 0002:00000fb0       __imp___ismbcdigit         5f58efb0     msvcrtd:MSVCRTD.dll
 0002:00000fb4       __imp__strtol              5f58efb4     msvcrtd:MSVCRTD.dll
 0002:00000fb8       __imp__strtoul             5f58efb8     msvcrtd:MSVCRTD.dll
 0002:00000fbc       __imp__malloc              5f58efbc     msvcrtd:MSVCRTD.dll
 0002:00000fc0       __imp__swprintf            5f58efc0     msvcrtd:MSVCRTD.dll
 0002:00000fc4       __imp___itoa               5f58efc4     msvcrtd:MSVCRTD.dll
 0002:00000fc8       __imp__modf                5f58efc8     msvcrtd:MSVCRTD.dll
 0002:00000fcc       __imp__strftime            5f58efcc     msvcrtd:MSVCRTD.dll
 0002:00000fd0       __imp__localtime           5f58efd0     msvcrtd:MSVCRTD.dll
 0002:00000fd4       __imp__time                5f58efd4     msvcrtd:MSVCRTD.dll
 0002:00000fd8       __imp__ceil                5f58efd8     msvcrtd:MSVCRTD.dll
 0002:00000fdc       __imp__fabs                5f58efdc     msvcrtd:MSVCRTD.dll
 0002:00000fe0       __imp__floor               5f58efe0     msvcrtd:MSVCRTD.dll
 0002:00000fe4       __imp__labs                5f58efe4     msvcrtd:MSVCRTD.dll
 0002:00000fe8       __imp___ftol               5f58efe8     msvcrtd:MSVCRTD.dll
 0002:00000fec       __imp___mbschr             5f58efec     msvcrtd:MSVCRTD.dll
 0002:00000ff0       __imp__realloc             5f58eff0     msvcrtd:MSVCRTD.dll
 0002:00000ff4       __imp___strdup             5f58eff4     msvcrtd:MSVCRTD.dll
 0002:00000ff8       __imp__free                5f58eff8     msvcrtd:MSVCRTD.dll
 0002:00000ffc       __imp___purecall           5f58effc     msvcrtd:MSVCRTD.dll
 0002:00001000       __imp___mbctype            5f58f000     msvcrtd:MSVCRTD.dll
 0002:00001004       __imp__memset              5f58f004     msvcrtd:MSVCRTD.dll
 0002:00001008       __imp__wcslen              5f58f008     msvcrtd:MSVCRTD.dll
 0002:0000100c       __imp__memcpy              5f58f00c     msvcrtd:MSVCRTD.dll
 0002:00001010       __imp___CxxThrowException@8 5f58f010     msvcrtd:MSVCRTD.dll
 0002:00001014       __imp___CrtDbgReport       5f58f014     msvcrtd:MSVCRTD.dll
 0002:00001018       __imp__memcmp              5f58f018     msvcrtd:MSVCRTD.dll
 0002:0000101c       __imp___mbsinc             5f58f01c     msvcrtd:MSVCRTD.dll
 0002:00001020       __imp__atol                5f58f020     msvcrtd:MSVCRTD.dll
 0002:00001024       __imp__memmove             5f58f024     msvcrtd:MSVCRTD.dll
 0002:00001028       __imp___mbsnbcmp           5f58f028     msvcrtd:MSVCRTD.dll
 0002:0000102c       __imp____CxxFrameHandler   5f58f02c     msvcrtd:MSVCRTD.dll
 0002:00001030       \177MSVCRTD_NULL_THUNK_DATA 5f58f030     msvcrtd:MSVCRTD.dll
 0002:00001034       __imp__IsWindow@4          5f58f034     user32:USER32.dll
 0002:00001038       __imp__CopyRect@8          5f58f038     user32:USER32.dll
 0002:0000103c       __imp__IsClipboardFormatAvailable@4 5f58f03c     user32:USER32.dll
 0002:00001040       __imp__SendMessageA@16     5f58f040     user32:USER32.dll
 0002:00001044       __imp__EnableWindow@8      5f58f044     user32:USER32.dll
 0002:00001048       __imp__GetWindowTextA@12   5f58f048     user32:USER32.dll
 0002:0000104c       __imp__GetActiveWindow@0   5f58f04c     user32:USER32.dll
 0002:00001050       __imp__GetWindowTextLengthA@4 5f58f050     user32:USER32.dll
 0002:00001054       __imp__InSendMessage@0     5f58f054     user32:USER32.dll
 0002:00001058       __imp__ReleaseCapture@0    5f58f058     user32:USER32.dll
 0002:0000105c       __imp__PeekMessageA@20     5f58f05c     user32:USER32.dll
 0002:00001060       __imp__GetKeyState@4       5f58f060     user32:USER32.dll
 0002:00001064       __imp__GetCursorPos@4      5f58f064     user32:USER32.dll
 0002:00001068       __imp__DispatchMessageA@4  5f58f068     user32:USER32.dll
 0002:0000106c       __imp__PostThreadMessageA@16 5f58f06c     user32:USER32.dll
 0002:00001070       __imp__DestroyMenu@4       5f58f070     user32:USER32.dll
 0002:00001074       __imp__RegisterClipboardFormatA@4 5f58f074     user32:USER32.dll
 0002:00001078       __imp__IsMenu@4            5f58f078     user32:USER32.dll
 0002:0000107c       __imp__GetMenuItemID@8     5f58f07c     user32:USER32.dll
 0002:00001080       __imp__InsertMenuA@20      5f58f080     user32:USER32.dll
 0002:00001084       __imp__AppendMenuA@16      5f58f084     user32:USER32.dll
 0002:00001088       __imp__GetMenuStringA@20   5f58f088     user32:USER32.dll
 0002:0000108c       __imp__GetMenuState@12     5f58f08c     user32:USER32.dll
 0002:00001090       __imp__GetSubMenu@8        5f58f090     user32:USER32.dll
 0002:00001094       __imp__GetMenuItemCount@4  5f58f094     user32:USER32.dll
 0002:00001098       __imp__RemoveMenu@12       5f58f098     user32:USER32.dll
 0002:0000109c       __imp__ReleaseDC@8         5f58f09c     user32:USER32.dll
 0002:000010a0       __imp__WindowFromDC@4      5f58f0a0     user32:USER32.dll
 0002:000010a4       __imp__GetDC@4             5f58f0a4     user32:USER32.dll
 0002:000010a8       __imp__IsRectEmpty@4       5f58f0a8     user32:USER32.dll
 0002:000010ac       __imp__SetScrollRange@20   5f58f0ac     user32:USER32.dll
 0002:000010b0       __imp__SetFocus@4          5f58f0b0     user32:USER32.dll
 0002:000010b4       __imp__GetParent@4         5f58f0b4     user32:USER32.dll
 0002:000010b8       __imp__GetFocus@0          5f58f0b8     user32:USER32.dll
 0002:000010bc       __imp__DestroyIcon@4       5f58f0bc     user32:USER32.dll
 0002:000010c0       __imp__RegisterWindowMessageA@4 5f58f0c0     user32:USER32.dll
 0002:000010c4       __imp__CountClipboardFormats@0 5f58f0c4     user32:USER32.dll
 0002:000010c8       __imp__GetSystemMetrics@4  5f58f0c8     user32:USER32.dll
 0002:000010cc       __imp__wsprintfA           5f58f0cc     user32:USER32.dll
 0002:000010d0       __imp__CopyAcceleratorTableA@12 5f58f0d0     user32:USER32.dll
 0002:000010d4       __imp__AdjustWindowRectEx@16 5f58f0d4     user32:USER32.dll
 0002:000010d8       __imp__SetWindowContextHelpId@8 5f58f0d8     user32:USER32.dll
 0002:000010dc       __imp__GetWindow@8         5f58f0dc     user32:USER32.dll
 0002:000010e0       __imp__SetWindowPos@28     5f58f0e0     user32:USER32.dll
 0002:000010e4       __imp__MapDialogRect@8     5f58f0e4     user32:USER32.dll
 0002:000010e8       __imp__GetDlgItem@8        5f58f0e8     user32:USER32.dll
 0002:000010ec       __imp__CharNextA@4         5f58f0ec     user32:USER32.dll
 0002:000010f0       __imp__IsWindowVisible@4   5f58f0f0     user32:USER32.dll
 0002:000010f4       __imp__IsDialogMessageA@8  5f58f0f4     user32:USER32.dll
 0002:000010f8       __imp__GetDlgCtrlID@4      5f58f0f8     user32:USER32.dll
 0002:000010fc       __imp__ClipCursor@4        5f58f0fc     user32:USER32.dll
 0002:00001100       __imp__InflateRect@12      5f58f100     user32:USER32.dll
 0002:00001104       __imp__DestroyWindow@4     5f58f104     user32:USER32.dll
 0002:00001108       __imp__SetWindowLongA@12   5f58f108     user32:USER32.dll
 0002:0000110c       __imp__DefWindowProcA@16   5f58f10c     user32:USER32.dll
 0002:00001110       __imp__CallWindowProcA@20  5f58f110     user32:USER32.dll
 0002:00001114       __imp__SetParent@8         5f58f114     user32:USER32.dll
 0002:00001118       __imp__DrawEdge@16         5f58f118     user32:USER32.dll
 0002:0000111c       __imp__ShowWindow@8        5f58f11c     user32:USER32.dll
 0002:00001120       __imp__GetWindowRect@8     5f58f120     user32:USER32.dll
 0002:00001124       __imp__GetMenu@4           5f58f124     user32:USER32.dll
 0002:00001128       __imp__GetDesktopWindow@0  5f58f128     user32:USER32.dll
 0002:0000112c       __imp__PostMessageA@16     5f58f12c     user32:USER32.dll
 0002:00001130       __imp__GetClassNameA@12    5f58f130     user32:USER32.dll
 0002:00001134       __imp__IsChild@8           5f58f134     user32:USER32.dll
 0002:00001138       __imp__IntersectRect@12    5f58f138     user32:USER32.dll
 0002:0000113c       __imp__ScreenToClient@8    5f58f13c     user32:USER32.dll
 0002:00001140       __imp__MoveWindow@24       5f58f140     user32:USER32.dll
 0002:00001144       __imp__MessageBoxA@16      5f58f144     user32:USER32.dll
 0002:00001148       __imp__EnumChildWindows@12 5f58f148     user32:USER32.dll
 0002:0000114c       __imp__LockWindowUpdate@4  5f58f14c     user32:USER32.dll
 0002:00001150       __imp__GetSysColor@4       5f58f150     user32:USER32.dll
 0002:00001154       __imp__SetCursor@4         5f58f154     user32:USER32.dll
 0002:00001158       __imp__LoadCursorA@8       5f58f158     user32:USER32.dll
 0002:0000115c       __imp__PtInRect@12         5f58f15c     user32:USER32.dll
 0002:00001160       __imp__SetRectEmpty@4      5f58f160     user32:USER32.dll
 0002:00001164       __imp__OffsetRect@12       5f58f164     user32:USER32.dll
 0002:00001168       __imp__GetDialogBaseUnits@0 5f58f168     user32:USER32.dll
 0002:0000116c       __imp__MessageBeep@4       5f58f16c     user32:USER32.dll
 0002:00001170       __imp__GetWindowLongA@8    5f58f170     user32:USER32.dll
 0002:00001174       __imp__CreateMenu@0        5f58f174     user32:USER32.dll
 0002:00001178       \177USER32_NULL_THUNK_DATA 5f58f178     user32:USER32.dll
 0002:000011a0       _IID_IDocHostUIHandlerDispatch 5f58f1a0     dllole.obj
 0002:000011b0       _IID_IInternalConnection   5f58f1b0     dllole.obj
 0002:000011c0       _IID_IAxWinAmbientDispatch 5f58f1c0     dllole.obj
 0002:000011d0       _IID_IAxWinHostWindow      5f58f1d0     dllole.obj
 0002:000011e0       _IID_IRegistrar            5f58f1e0     dllole.obj
 0002:000011f0       _CLSID_Registrar           5f58f1f0     dllole.obj
 0002:00001200       _LIBID_ATLLib              5f58f200     dllole.obj
 0002:00001210       ??_C@_0L@LDKI@MFC42D?4DLL?$AA@ 5f58f210     dllole.obj
 0002:0000121c       ??_C@_00A@?$AA@            5f58f21c     dllole.obj
 0002:00001220       ??_C@_0BK@CHHF@RichEdit?5Text?5and?5Objects?$AA@ 5f58f220     oleinit.obj
 0002:0000123c       ??_C@_0BB@HIML@Rich?5Text?5Format?$AA@ 5f58f23c     oleinit.obj
 0002:00001250       ??_C@_09IKIM@FileNameW?$AA@ 5f58f250     oleinit.obj
 0002:0000125c       ??_C@_08NJLM@FileName?$AA@ 5f58f25c     oleinit.obj
 0002:00001268       ??_C@_0BH@FOOO@Link?5Source?5Descriptor?$AA@ 5f58f268     oleinit.obj
 0002:00001280       ??_C@_0BC@GMEI@Object?5Descriptor?$AA@ 5f58f280     oleinit.obj
 0002:00001294       ??_C@_0M@KPGD@Link?5Source?$AA@ 5f58f294     oleinit.obj
 0002:000012a0       ??_C@_0N@LHIH@Embed?5Source?$AA@ 5f58f2a0     oleinit.obj
 0002:000012b0       ??_C@_0BA@IEJA@Embedded?5Object?$AA@ 5f58f2b0     oleinit.obj
 0002:000012c0       ??_C@_0L@KADP@ObjectLink?$AA@ 5f58f2c0     oleinit.obj
 0002:000012cc       ??_C@_09NJ@OwnerLink?$AA@  5f58f2cc     oleinit.obj
 0002:000012d8       ??_C@_06LLCL@Native?$AA@   5f58f2d8     oleinit.obj
 0002:000012e0       ??_C@_0CN@JJKE@Warning?3?5OleInitialize?5returned?5@ 5f58f2e0     oleinit.obj
 0002:00001310       ??_C@_09LHIP@Embedding?$AA@ 5f58f310     oleinit.obj
 0002:0000131c       ??_C@_0L@POJA@Automation?$AA@ 5f58f31c     oleinit.obj
 0002:00001328       ?classCOleLinkingDoc@COleLinkingDoc@@2UCRuntimeClass@@B 5f58f328     olecli1.obj
 0002:00001340       ??_C@_0P@EIOM@COleLinkingDoc?$AA@ 5f58f340     olecli1.obj
 0002:00001350       ?interfaceMap@COleClientItem@@1UAFX_INTERFACEMAP@@B 5f58f350     olecli1.obj
 0002:00001358       ?_interfaceEntries@COleClientItem@@0QBUAFX_INTERFACEMAP_ENTRY@@B 5f58f358     olecli1.obj
 0002:00001384       ??_7COleClientItem@@6B@    5f58f384     olecli1.obj
 0002:00001470       ??_7XOleClientSite@COleClientItem@@6B@ 5f58f470     olecli1.obj
 0002:00001498       ??_7XAdviseSink@COleClientItem@@6B@ 5f58f498     olecli1.obj
 0002:000014bc       ??_7XOleIPSite@COleClientItem@@6B@ 5f58f4bc     olecli1.obj
 0002:000014f8       ??_C@_0O@COMH@Embedding?5?$CFlu?$AA@ 5f58f4f8     olecli1.obj
 0002:00001508       ??_C@_0M@GLOE@DocShortcut?$AA@ 5f58f508     olecli1.obj
 0002:00001514       ??_C@_0M@JONA@DefaultIcon?$AA@ 5f58f514     olecli1.obj
 0002:00001520       ??_C@_05DNNF@clsid?$AA@    5f58f520     olecli1.obj
 0002:00001528       ??_C@_08NDGO@lpw?5?$CB?$DN?50?$AA@ 5f58f528     olecli1.obj
 0002:00001534       ??_C@_0CH@OMLG@E?3?28665?2vc98?2mfc?2atl?2include?2atl@ 5f58f534     olecli1.obj
 0002:0000155c       ??_C@_08PEKM@lpa?5?$CB?$DN?50?$AA@ 5f58f55c     olecli1.obj
 0002:00001568       ??_C@_0CN@MKCO@Warning?3?5unable?5to?5create?5child?5@ 5f58f568     olecli1.obj
 0002:00001598       ??_C@_02DILL@?$CFs?$AA@    5f58f598     olecli1.obj
 0002:0000159c       ??_C@_0EA@BHCI@Warning?5OnNewDocument?5failed?5dur@ 5f58f59c     olecli1.obj
 0002:000015dc       ??_C@_0CL@NAHC@Warning?3?5unable?5to?5open?5child?5st@ 5f58f5dc     olecli1.obj
 0002:00001608       ??_C@_0DH@LDBM@Warning?3?5object?5does?5not?5support@ 5f58f608     olecli1.obj
 0002:00001640       ??_C@_0DC@MPHG@Warning?3?5unable?5to?5get?5moniker?5f@ 5f58f640     olecli1.obj
 0002:00001674       ??_C@_0DC@DPDJ@Warning?3?5unable?5to?5get?5moniker?5f@ 5f58f674     olecli1.obj
 0002:000016a8       ??_C@_13HMCP@?$AA?2?$AA?$AA@ 5f58f6a8     olecli1.obj
 0002:000016ac       ??_C@_0BB@JMCJ@?6m_hWndServer?5?$DN?5?$AA@ 5f58f6ac     olecli1.obj
 0002:000016c0       ??_C@_0BE@DEMF@?6m_pInPlaceFrame?5?$DN?5?$AA@ 5f58f6c0     olecli1.obj
 0002:000016d4       ??_C@_0BH@JIDM@?6m_dwContainerStyle?5?$DN?5?$AA@ 5f58f6d4     olecli1.obj
 0002:000016ec       ??_C@_0M@EFKC@?6m_pView?5?$DN?5?$AA@ 5f58f6ec     olecli1.obj
 0002:000016f8       ??_C@_0BB@JNMD@?6m_nItemState?5?$DN?5?$AA@ 5f58f6f8     olecli1.obj
 0002:0000170c       ??_C@_0BC@CJ@?6m_bNeedCommit?5?$DN?5?$AA@ 5f58f70c     olecli1.obj
 0002:00001720       ??_C@_0BD@DFML@?6m_lpNewStorage?5?$DN?5?$AA@ 5f58f720     olecli1.obj
 0002:00001734       ??_C@_0P@HJAA@?6m_bMoniker?5?$DN?5?$AA@ 5f58f734     olecli1.obj
 0002:00001744       ??_C@_0BD@CALL@?6m_bLinkUnavail?5?$DN?5?$AA@ 5f58f744     olecli1.obj
 0002:00001758       ??_C@_0BD@DPMG@?6m_dwConnection?5?$DN?5?$AA@ 5f58f758     olecli1.obj
 0002:0000176c       ??_C@_0BC@DIDM@?6m_lpLockBytes?5?$DN?5?$AA@ 5f58f76c     olecli1.obj
 0002:00001780       ??_C@_0BA@LKEM@?6m_lpStorage?5?$DN?5?$AA@ 5f58f780     olecli1.obj
 0002:00001790       ??_C@_0N@EFDC@?6m_scLast?5?$DN?5?$AA@ 5f58f790     olecli1.obj
 0002:000017a0       ??_C@_0BC@DBNB@?6m_nDrawAspect?5?$DN?5?$AA@ 5f58f7a0     olecli1.obj
 0002:000017b4       ??_C@_0BD@MOJB@?6m_dwItemNumber?5?$DN?5?$AA@ 5f58f7b4     olecli1.obj
 0002:000017c8       ??_C@_0O@EOEE@m_lpObject?5?$DN?5?$AA@ 5f58f7c8     olecli1.obj
 0002:000017d8       ?interfaceMap@COleFrameHook@@1UAFX_INTERFACEMAP@@B 5f58f7d8     olecli2.obj
 0002:000017e0       ?_interfaceEntries@COleFrameHook@@0QBUAFX_INTERFACEMAP_ENTRY@@B 5f58f7e0     olecli2.obj
 0002:00001804       ??_7COleFrameHook@@6B@     5f58f804     olecli2.obj
 0002:00001890       ??_7XOleInPlaceFrame@COleFrameHook@@6B@ 5f58f890     olecli2.obj
 0002:000018d0       ??_7XOleCommandTarget@COleFrameHook@@6B@ 5f58f8d0     olecli2.obj
 0002:000018e4       ??_C@_0CH@MBBF@E?3?28665?2vc98?2mfc?2mfc?2include?2afx@ 5f58f8e4     olecli2.obj
 0002:0000190c       ??_C@_0CJ@LLBM@Warning?3?5operation?5returned?5scod@ 5f58f90c     olecli3.obj
 0002:00001938       ?interfaceMap@COleDataSource@@1UAFX_INTERFACEMAP@@B 5f58f938     oledobj2.obj
 0002:00001940       ?_interfaceEntries@COleDataSource@@0QBUAFX_INTERFACEMAP_ENTRY@@B 5f58f940     oledobj2.obj
 0002:00001950       ?interfaceMap@CEnumFormatEtc@@1UAFX_INTERFACEMAP@@B 5f58f950     oledobj2.obj
 0002:00001958       ?_interfaceEntries@CEnumFormatEtc@@0QBUAFX_INTERFACEMAP_ENTRY@@B 5f58f958     oledobj2.obj
 0002:0000196c       ??_7COleDataSource@@6B@    5f58f96c     oledobj2.obj
 0002:000019d8       ??_7XDataObject@COleDataSource@@6B@ 5f58f9d8     oledobj2.obj
 0002:00001a0c       ??_7CEnumFormatEtc@@6B@    5f58fa0c     oledobj2.obj
 0002:00001a74       ??_C@_01BJG@?6?$AA@        5f58fa74     oledobj2.obj
 0002:00001a78       ??_C@_03JNEF@?6?7?$HN?$AA@ 5f58fa78     oledobj2.obj
 0002:00001a7c       ??_C@_0BB@GMOB@?6?7?5m_nDataDir?5?$DN?5?$AA@ 5f58fa7c     oledobj2.obj
 0002:00001a90       ??_C@_0BI@PNP@?6?7?5m_stgMedium?4tymed?5?$DN?5?$AA@ 5f58fa90     oledobj2.obj
 0002:00001aa8       ??_C@_0BI@EFAF@?6?7?5m_formatEtc?4tymed?5?$DN?5?$AA@ 5f58faa8     oledobj2.obj
 0002:00001ac0       ??_C@_0BJ@LPOO@?6?7?5m_formatEtc?4lindex?5?$DN?5?$AA@ 5f58fac0     oledobj2.obj
 0002:00001adc       ??_C@_0BL@HFLA@?6?7?5m_formatEtc?4dwAspect?5?$DN?5?$AA@ 5f58fadc     oledobj2.obj
 0002:00001af8       ??_C@_0BG@LHAO@?6?7?5m_formatEtc?4pdt?5?$DN?5?$AA@ 5f58faf8     oledobj2.obj
 0002:00001b10       ??_C@_0BL@IPEG@?6?7?5m_formatEtc?4cfFormat?5?$DN?5?$AA@ 5f58fb10     oledobj2.obj
 0002:00001b2c       ??_C@_09EIHB@?6?7entry?5?$FL?$AA@ 5f58fb2c     oledobj2.obj
 0002:00001b38       ??_C@_05EJJM@?$FN?5?$DN?5?$HL?$AA@ 5f58fb38     oledobj2.obj
 0002:00001b40       ??_C@_0BB@IFBL@?6m_pDataCache?5?$DN?5?$AA@ 5f58fb40     oledobj2.obj
 0002:00001b54       ??_C@_0M@NOBL@?6m_nSize?5?$DN?5?$AA@ 5f58fb54     oledobj2.obj
 0002:00001b60       ??_C@_0O@JNKF@m_nMaxSize?5?$DN?5?$AA@ 5f58fb60     oledobj2.obj
 0002:00001b70       ?classCOleDispatchException@COleDispatchException@@2UCRuntimeClass@@B 5f58fb70     oledisp1.obj
 0002:00001b88       ??_C@_0BG@OGI@COleDispatchException?$AA@ 5f58fb88     oledisp1.obj
 0002:00001ba0       ?_afxRetVal@@3QBIB         5f58fba0     oledisp1.obj
 0002:00001bdc       ?_afxByRef@@3QBIB          5f58fbdc     oledisp1.obj
 0002:00001c18       ?_afxByValue@@3QBIB        5f58fc18     oledisp1.obj
 0002:00001c54       ??_C@_0CP@MIP@Warning?3?5automation?5property?5coe@ 5f58fc54     oledisp1.obj
 0002:00001c88       ??_7COleDispatchImpl@@6B@  5f58fc88     oledisp1.obj
 0002:00001ca8       ??_C@_0CP@OPOA@Warning?3?5automation?5argument?5coe@ 5f58fca8     oledisp1.obj
 0002:00001cd8       ??_C@_0CN@BHMH@Error?3?5stack?5overflow?5in?5IDispat@ 5f58fcd8     oledisp1.obj
 0002:00001d0c       ??_7COleDispatchException@@6B@ 5f58fd0c     oledisp1.obj
 0002:00001d28       ??_C@_0CP@DOIF@Warning?3?5CreateDispatch?5returnin@ 5f58fd28     oledisp2.obj
 0002:00001d58       ??_C@_0DD@MKKH@Warning?3?5automation?5return?5value@ 5f58fd58     oledisp2.obj
 0002:00001d8c       ??_C@_0DJ@LJMD@Warning?3?5attempt?5to?5call?5Invoke?5@ 5f58fd8c     oledisp2.obj
 0002:00001dc8       ?classCOlePasteSpecialDialog@COlePasteSpecialDialog@@2UCRuntimeClass@@B 5f58fdc8     oledlgs1.obj
 0002:00001de0       ??_C@_0BH@NAFF@COlePasteSpecialDialog?$AA@ 5f58fde0     oledlgs1.obj
 0002:00001df8       ?classCOleUpdateDialog@COleUpdateDialog@@2UCRuntimeClass@@B 5f58fdf8     oledlgs1.obj
 0002:00001e10       ??_C@_0BB@HGD@COleUpdateDialog?$AA@ 5f58fe10     oledlgs1.obj
 0002:00001e28       ?classCOleLinksDialog@COleLinksDialog@@2UCRuntimeClass@@B 5f58fe28     oledlgs1.obj
 0002:00001e40       ??_C@_0BA@PIHM@COleLinksDialog?$AA@ 5f58fe40     oledlgs1.obj
 0002:00001e50       ?classCOleChangeIconDialog@COleChangeIconDialog@@2UCRuntimeClass@@B 5f58fe50     oledlgs1.obj
 0002:00001e68       ??_C@_0BF@JMPM@COleChangeIconDialog?$AA@ 5f58fe68     oledlgs1.obj
 0002:00001e80       ?classCOleConvertDialog@COleConvertDialog@@2UCRuntimeClass@@B 5f58fe80     oledlgs1.obj
 0002:00001e98       ??_C@_0BC@CIPN@COleConvertDialog?$AA@ 5f58fe98     oledlgs1.obj
 0002:00001eb0       ?classCOleInsertDialog@COleInsertDialog@@2UCRuntimeClass@@B 5f58feb0     oledlgs1.obj
 0002:00001ec8       ??_C@_0BB@KPPE@COleInsertDialog?$AA@ 5f58fec8     oledlgs1.obj
 0002:00001ee0       ??_7COleUILinkInfo@@6B@    5f58fee0     oledlgs1.obj
 0002:00001f14       ??_7IOleUILinkInfoA@@6B@   5f58ff14     oledlgs1.obj
 0002:00001f48       ??_7IOleUILinkContainerA@@6B@ 5f58ff48     oledlgs1.obj
 0002:00001f78       ??_7COleInsertDialog@@6B@  5f58ff78     oledlgs1.obj
 0002:00002050       ??_C@_0BD@KJLP@CLSID?2?$CFs?2DocObject?$AA@ 5f590050     oledlgs1.obj
 0002:00002064       ??_C@_09LLJL@DocObject?$AA@ 5f590064     oledlgs1.obj
 0002:00002070       ??_C@_09IKLH@Ole1Class?$AA@ 5f590070     oledlgs1.obj
 0002:0000207c       ??_C@_0L@PBL@Insertable?$AA@ 5f59007c     oledlgs1.obj
 0002:00002088       ??_C@_05FGFK@CLSID?$AA@    5f590088     oledlgs1.obj
 0002:00002090       ??_C@_0DF@IHKK@Warning?3?5failed?5to?5set?5iconic?5as@ 5f590090     oledlgs1.obj
 0002:000020c8       ??_C@_0BD@CHHM@?6m_io?4hMetaPict?5?$DN?5?$AA@ 5f5900c8     oledlgs1.obj
 0002:000020dc       ??_C@_0DB@BLDH@?6hook?5function?5set?5to?5non?9standa@ 5f5900dc     oledlgs1.obj
 0002:00002110       ??_C@_0DB@MAOJ@?6hook?5function?5set?5to?5standard?5M@ 5f590110     oledlgs1.obj
 0002:00002144       ??_C@_0BD@IPNN@?6m_io?4hResource?5?$DN?5?$AA@ 5f590144     oledlgs1.obj
 0002:00002158       ??_C@_0BG@EDJJ@?6m_io?4lpszTemplate?5?$DN?5?$AA@ 5f590158     oledlgs1.obj
 0002:00002170       ??_C@_0BD@ELPK@?6m_io?4hInstance?5?$DN?5?$AA@ 5f590170     oledlgs1.obj
 0002:00002184       ??_C@_0BD@JLLA@?6m_io?4lCustData?5?$DN?5?$AA@ 5f590184     oledlgs1.obj
 0002:00002198       ??_C@_0BF@PECB@?6m_io?4lpszCaption?5?$DN?5?$AA@ 5f590198     oledlgs1.obj
 0002:000021b0       ??_C@_0BD@NMHJ@?6m_io?4hWndOwner?5?$DN?5?$AA@ 5f5901b0     oledlgs1.obj
 0002:000021c4       ??_C@_0BB@FCGN@?6m_io?4dwFlags?5?$DN?5?$AA@ 5f5901c4     oledlgs1.obj
 0002:000021d8       ??_C@_0BC@LPPE@?6m_io?4cbStruct?5?$DN?5?$AA@ 5f5901d8     oledlgs1.obj
 0002:000021ec       ??_C@_0BA@KFFI@m_szFileName?5?$DN?5?$AA@ 5f5901ec     oledlgs1.obj
 0002:00002200       ??_7COleConvertDialog@@6B@ 5f590200     oledlgs1.obj
 0002:000022d8       ??_C@_0BN@NCPK@?6m_cv?4fObjectsIconChanged?5?$DN?5?$AA@ 5f5902d8     oledlgs1.obj
 0002:000022f8       ??_C@_0BG@FMAM@?6m_cv?4lpszUserType?5?$DN?5?$AA@ 5f5902f8     oledlgs1.obj
 0002:00002310       ??_C@_0BD@BAPC@?6m_cv?4hMetaPict?5?$DN?5?$AA@ 5f590310     oledlgs1.obj
 0002:00002324       ??_C@_0BJ@PDJL@?6m_cv?4fIsLinkedObject?5?$DN?5?$AA@ 5f590324     oledlgs1.obj
 0002:00002340       ??_C@_0BB@NDIA@?6m_cv?4wFormat?5?$DN?5?$AA@ 5f590340     oledlgs1.obj
 0002:00002354       ??_C@_0BC@DIHB@?6m_cv?4dvAspect?5?$DN?5?$AA@ 5f590354     oledlgs1.obj
 0002:00002368       ??_C@_0BD@LIFD@?6m_cv?4hResource?5?$DN?5?$AA@ 5f590368     oledlgs1.obj
 0002:0000237c       ??_C@_0BG@NAOD@?6m_cv?4lpszTemplate?5?$DN?5?$AA@ 5f59037c     oledlgs1.obj
 0002:00002394       ??_C@_0BD@HMHE@?6m_cv?4hInstance?5?$DN?5?$AA@ 5f590394     oledlgs1.obj
 0002:000023a8       ??_C@_0BD@KMDO@?6m_cv?4lCustData?5?$DN?5?$AA@ 5f5903a8     oledlgs1.obj
 0002:000023bc       ??_C@_0BF@IOJB@?6m_cv?4lpszCaption?5?$DN?5?$AA@ 5f5903bc     oledlgs1.obj
 0002:000023d4       ??_C@_0BD@OLPH@?6m_cv?4hWndOwner?5?$DN?5?$AA@ 5f5903d4     oledlgs1.obj
 0002:000023e8       ??_C@_0BB@KHMP@?6m_cv?4dwFlags?5?$DN?5?$AA@ 5f5903e8     oledlgs1.obj
 0002:000023fc       ??_C@_0BB@HIEM@m_cv?4cbStruct?5?$DN?5?$AA@ 5f5903fc     oledlgs1.obj
 0002:00002414       ??_7COleChangeIconDialog@@6B@ 5f590414     oledlgs1.obj
 0002:000024ec       ??_C@_0BD@HGNJ@?6m_ci?4hMetaPict?5?$DN?5?$AA@ 5f5904ec     oledlgs1.obj
 0002:00002500       ??_C@_0BD@NOHI@?6m_ci?4hResource?5?$DN?5?$AA@ 5f590500     oledlgs1.obj
 0002:00002514       ??_C@_0BG@PPBE@?6m_ci?4lpszTemplate?5?$DN?5?$AA@ 5f590514     oledlgs1.obj
 0002:0000252c       ??_C@_0BD@BKFP@?6m_ci?4hInstance?5?$DN?5?$AA@ 5f59052c     oledlgs1.obj
 0002:00002540       ??_C@_0BD@MKBF@?6m_ci?4lCustData?5?$DN?5?$AA@ 5f590540     oledlgs1.obj
 0002:00002554       ??_C@_0BF@HJOD@?6m_ci?4lpszCaption?5?$DN?5?$AA@ 5f590554     oledlgs1.obj
 0002:0000256c       ??_C@_0BD@INNM@?6m_ci?4hWndOwner?5?$DN?5?$AA@ 5f59056c     oledlgs1.obj
 0002:00002580       ??_C@_0BB@BHKG@?6m_ci?4dwFlags?5?$DN?5?$AA@ 5f590580     oledlgs1.obj
 0002:00002594       ??_C@_0BB@FDPM@m_ci?4cbStruct?5?$DN?5?$AA@ 5f590594     oledlgs1.obj
 0002:000025ac       ??_7COleLinksDialog@@6B@   5f5905ac     oledlgs1.obj
 0002:00002684       ??_C@_0BD@HAKN@?6m_el?4hResource?5?$DN?5?$AA@ 5f590684     oledlgs1.obj
 0002:00002698       ??_C@_0BG@KHIK@?6m_el?4lpszTemplate?5?$DN?5?$AA@ 5f590698     oledlgs1.obj
 0002:000026b0       ??_C@_0BD@LEIK@?6m_el?4hInstance?5?$DN?5?$AA@ 5f5906b0     oledlgs1.obj
 0002:000026c4       ??_C@_0BD@GEMA@?6m_el?4lCustData?5?$DN?5?$AA@ 5f5906c4     oledlgs1.obj
 0002:000026d8       ??_C@_0BF@OHOP@?6m_el?4lpszCaption?5?$DN?5?$AA@ 5f5906d8     oledlgs1.obj
 0002:000026f0       ??_C@_0BD@CDAJ@?6m_el?4hWndOwner?5?$DN?5?$AA@ 5f5906f0     oledlgs1.obj
 0002:00002704       ??_C@_0BB@CKIK@?6m_el?4dwFlags?5?$DN?5?$AA@ 5f590704     oledlgs1.obj
 0002:00002718       ??_C@_0BC@MPIM@?6m_el?4cbStruct?5?$DN?5?$AA@ 5f590718     oledlgs1.obj
 0002:00002730       ??_7COleUpdateDialog@@6B@  5f590730     oledlgs1.obj
 0002:00002808       ??_C@_0BA@OFIG@m_strCaption?5?$DN?5?$AA@ 5f590808     oledlgs1.obj
 0002:0000281c       ??_7COlePasteSpecialDialog@@6B@ 5f59081c     oledlgs1.obj
 0002:000028f4       ??_C@_0P@JJLH@?6m_ps?4fLink?5?$DN?5?$AA@ 5f5908f4     oledlgs1.obj
 0002:00002904       ??_C@_0BI@PHBO@?6m_ps?4nSelectedIndex?5?$DN?5?$AA@ 5f590904     oledlgs1.obj
 0002:0000291c       ??_C@_0BE@OPOD@?6m_ps?4cLinkTypes?5?$DN?5?$AA@ 5f59091c     oledlgs1.obj
 0002:00002930       ??_C@_0BH@IOIO@?6m_ps?4cPasteEntries?5?$DN?5?$AA@ 5f590930     oledlgs1.obj
 0002:00002948       ??_C@_0BG@GBAG@?6m_ps?4lpSrcDataObj?5?$DN?5?$AA@ 5f590948     oledlgs1.obj
 0002:00002960       ??_C@_0BD@PEKC@?6m_ps?4hResource?5?$DN?5?$AA@ 5f590960     oledlgs1.obj
 0002:00002974       ??_C@_0BG@JFBL@?6m_ps?4lpszTemplate?5?$DN?5?$AA@ 5f590974     oledlgs1.obj
 0002:0000298c       ??_C@_0BD@DAIF@?6m_ps?4hInstance?5?$DN?5?$AA@ 5f59098c     oledlgs1.obj
 0002:000029a0       ??_C@_0BD@OAMP@?6m_ps?4lCustData?5?$DN?5?$AA@ 5f5909a0     oledlgs1.obj
 0002:000029b4       ??_C@_0BF@HGCH@?6m_ps?4lpszCaption?5?$DN?5?$AA@ 5f5909b4     oledlgs1.obj
 0002:000029cc       ??_C@_0BD@KHAG@?6m_ps?4hWndOwner?5?$DN?5?$AA@ 5f5909cc     oledlgs1.obj
 0002:000029e0       ??_C@_0BB@JIOH@?6m_ps?4dwFlags?5?$DN?5?$AA@ 5f5909e0     oledlgs1.obj
 0002:000029f4       ??_C@_0BB@IJHD@m_ps?4cbStruct?5?$DN?5?$AA@ 5f5909f4     oledlgs1.obj
 0002:00002a08       ??_C@_0CH@ICMM@Warning?3?5failed?5to?5set?5iconic?5as@ 5f590a08     oledlgs1.obj
 0002:00002a30       ??_C@_0CB@CMHB@Warning?3?5CreateFromData?5failed?4?6@ 5f590a30     oledlgs1.obj
 0002:00002a54       ??_C@_0CH@BNEA@Warning?3?5CreateStaticFromData?5fa@ 5f590a54     oledlgs1.obj
 0002:00002a7c       ??_C@_0CF@PLKL@Warning?3?5CreateLinkFromData?5fail@ 5f590a7c     oledlgs1.obj
 0002:00002aa8       ?classCOleBusyDialog@COleBusyDialog@@2UCRuntimeClass@@B 5f590aa8     oledlgs2.obj
 0002:00002ac0       ??_C@_0P@CLOH@COleBusyDialog?$AA@ 5f590ac0     oledlgs2.obj
 0002:00002ad0       ?classCOleDialog@COleDialog@@2UCRuntimeClass@@B 5f590ad0     oledlgs2.obj
 0002:00002ae8       ??_C@_0L@HMIO@COleDialog?$AA@ 5f590ae8     oledlgs2.obj
 0002:00002af8       ??_7COleDialog@@6B@        5f590af8     oledlgs2.obj
 0002:00002bd0       ??_C@_0BA@LHGD@m_nLastError?5?$DN?5?$AA@ 5f590bd0     oledlgs2.obj
 0002:00002be4       ??_7COleBusyDialog@@6B@    5f590be4     oledlgs2.obj
 0002:00002cbc       ??_C@_0P@PHCO@?6m_bz?4hTask?5?$DN?5?$AA@ 5f590cbc     oledlgs2.obj
 0002:00002ccc       ??_C@_0BD@PJDN@?6m_bz?4hResource?5?$DN?5?$AA@ 5f590ccc     oledlgs2.obj
 0002:00002ce0       ??_C@_0BG@LEJO@?6m_bz?4lpszTemplate?5?$DN?5?$AA@ 5f590ce0     oledlgs2.obj
 0002:00002cf8       ??_C@_0BD@DNBK@?6m_bz?4hInstance?5?$DN?5?$AA@ 5f590cf8     oledlgs2.obj
 0002:00002d0c       ??_C@_0BD@ONFA@?6m_bz?4lCustData?5?$DN?5?$AA@ 5f590d0c     oledlgs2.obj
 0002:00002d20       ??_C@_0BF@PDKP@?6m_bz?4lpszCaption?5?$DN?5?$AA@ 5f590d20     oledlgs2.obj
 0002:00002d38       ??_C@_0BD@KKJJ@?6m_bz?4hWndOwner?5?$DN?5?$AA@ 5f590d38     oledlgs2.obj
 0002:00002d4c       ??_C@_0BB@COFM@?6m_bz?4dwFlags?5?$DN?5?$AA@ 5f590d4c     oledlgs2.obj
 0002:00002d60       ??_C@_0BB@BGMF@m_bz?4cbStruct?5?$DN?5?$AA@ 5f590d60     oledlgs2.obj
 0002:00002d78       ?classCOleChangeSourceDialog@COleChangeSourceDialog@@2UCRuntimeClass@@B 5f590d78     oledlgs3.obj
 0002:00002d90       ??_C@_0BH@HBLJ@COleChangeSourceDialog?$AA@ 5f590d90     oledlgs3.obj
 0002:00002da8       ?classCOlePropertiesDialog@COlePropertiesDialog@@2UCRuntimeClass@@B 5f590da8     oledlgs3.obj
 0002:00002dc0       ??_C@_0BF@IDJJ@COlePropertiesDialog?$AA@ 5f590dc0     oledlgs3.obj
 0002:00002ddc       ??_7COlePropertiesDialog@@6B@ 5f590ddc     oledlgs3.obj
 0002:00002ebc       ??_7XOleUIObjInfo@COlePropertiesDialog@@6B@ 5f590ebc     oledlgs3.obj
 0002:00002ee0       ??_7IOleUIObjInfoA@@6B@    5f590ee0     oledlgs3.obj
 0002:00002f04       ??_7COleChangeSourceDialog@@6B@ 5f590f04     oledlgs3.obj
 0002:00002fdc       ??_C@_0BD@JJEH@?6m_cs?4hResource?5?$DN?5?$AA@ 5f590fdc     oledlgs3.obj
 0002:00002ff0       ??_C@_0BG@PEEF@?6m_cs?4lpszTemplate?5?$DN?5?$AA@ 5f590ff0     oledlgs3.obj
 0002:00003008       ??_C@_0BD@FNGA@?6m_cs?4hInstance?5?$DN?5?$AA@ 5f591008     oledlgs3.obj
 0002:0000301c       ??_C@_0BD@INCK@?6m_cs?4lCustData?5?$DN?5?$AA@ 5f59101c     oledlgs3.obj
 0002:00003030       ??_C@_0BF@CIFJ@?6m_cs?4lpszCaption?5?$DN?5?$AA@ 5f591030     oledlgs3.obj
 0002:00003048       ??_C@_0BD@MKOD@?6m_cs?4hWndOwner?5?$DN?5?$AA@ 5f591048     oledlgs3.obj
 0002:0000305c       ??_C@_0BB@HNIP@?6m_cs?4dwFlags?5?$DN?5?$AA@ 5f59105c     oledlgs3.obj
 0002:00003070       ??_C@_0BB@GMJG@m_cs?4cbStruct?5?$DN?5?$AA@ 5f591070     oledlgs3.obj
 0002:00003088       ??_7_AFX_OLE_STATE@@6B@    5f591088     oledata.obj
 0002:00003090       ??_7CNoTrackObject@@6B@    5f591090     oledata.obj
 0002:00003094       ??_C@_0O@MAFH@?6?7?5punkVal?5?$DN?5?$AA@ 5f591094     olevar.obj
 0002:000030a4       ??_C@_0M@GFHL@?6?7?5scode?5?$DN?5?$AA@ 5f5910a4     olevar.obj
 0002:000030b0       ??_C@_0O@EOOF@?6?7?5bstrVal?5?$DN?5?$AA@ 5f5910b0     olevar.obj
 0002:000030c0       ??_C@_0L@KHBD@?6?7?5date?5?$DN?5?$AA@ 5f5910c0     olevar.obj
 0002:000030cc       ??_C@_0N@PCIP@?6?7?5dblVal?5?$DN?5?$AA@ 5f5910cc     olevar.obj
 0002:000030dc       ??_C@_0N@BKHL@?6?7?5fltVal?5?$DN?5?$AA@ 5f5910dc     olevar.obj
 0002:000030ec       ??_C@_0M@NOJL@?6?7?5cyVal?5?$DN?5?$AA@ 5f5910ec     olevar.obj
 0002:000030f8       ??_C@_0L@PIPP@?6?7?5lVal?5?$DN?5?$AA@ 5f5910f8     olevar.obj
 0002:00003104       ??_C@_0L@GMDM@?6?7?5iVal?5?$DN?5?$AA@ 5f591104     olevar.obj
 0002:00003110       ??_C@_0L@GLCP@?6?7?5bVal?5?$DN?5?$AA@ 5f591110     olevar.obj
 0002:0000311c       ??_C@_0O@NJPJ@?6?7?5VT_BOOL?5?$DN?5?$AA@ 5f59111c     olevar.obj
 0002:0000312c       ??_C@_08JIFF@?6?7?5vt?5?$DN?5?$AA@ 5f59112c     olevar.obj
 0002:00003138       ??_C@_0BF@NHIO@?6COleVariant?5Object?3?$AA@ 5f591138     olevar.obj
 0002:00003150       __real@8@40038000000000000000 5f591150     olevar.obj
 0002:00003158       __real@4@40038000000000000000 5f591158     olevar.obj
 0002:0000315c       ??_C@_0CK@JMOE@?6COleCurrency?5VarCyFromStr?5call?5@ 5f59115c     olevar.obj
 0002:00003188       ??_C@_0O@GEHN@?6?7Currency?5?$DN?5?$AA@ 5f591188     olevar.obj
 0002:00003198       ??_C@_0O@DBAA@?6?7m_status?5?$DN?5?$AA@ 5f591198     olevar.obj
 0002:000031a8       ??_C@_0BG@PNJ@?6COleCurrency?5Object?3?$AA@ 5f5911a8     olevar.obj
 0002:000031c0       __real@8@400fa8c0000000000000 5f5911c0     olevar.obj
 0002:000031c8       __real@8@00000000000000000000 5f5911c8     olevar.obj
 0002:000031d0       __real@8@c012a081a00000000000 5f5911d0     olevar.obj
 0002:000031d8       __real@8@4014b492040000000000 5f5911d8     olevar.obj
 0002:000031e0       ??_C@_0DA@FCDK@?6FileTimeToLocalFileTime?5failed?4@ 5f5911e0     olevar.obj
 0002:00003210       ??_C@_0CM@PAKN@?6COleDateTime?5VarDateFromStr?5cal@ 5f591210     olevar.obj
 0002:0000323c       ??_C@_09IMNF@?6?7date?5?$DN?5?$AA@ 5f59123c     olevar.obj
 0002:00003248       ??_C@_0BG@FBOI@?6COleDateTime?5Object?3?$AA@ 5f591248     olevar.obj
 0002:00003260       __real@8@4003c000000000000000 5f591260     olevar.obj
 0002:00003268       __real@8@3fedc22e450672894800 5f591268     olevar.obj
 0002:00003270       __real@8@4004f000000000000000 5f591270     olevar.obj
 0002:00003278       __real@8@4009b400000000000000 5f591278     olevar.obj
 0002:00003280       __real@8@4014dcb2640000000000 5f591280     olevar.obj
 0002:00003288       __real@8@c014dcb2640000000000 5f591288     olevar.obj
 0002:00003290       ??_C@_0O@CNBC@?6?7dateSpan?5?$DN?5?$AA@ 5f591290     olevar.obj
 0002:000032a0       ??_C@_0BK@NGPI@?6COleDateTimeSpan?5Object?3?$AA@ 5f5912a0     olevar.obj
 0002:000032bc       ??_C@_03FGJK@?5?$DN?5?$AA@ 5f5912bc     olevar.obj
 0002:000032c0       ??_C@_01KHLB@?$FL?$AA@     5f5912c0     olevar.obj
 0002:000032c4       ??_C@_01FIMD@?$FN?$AA@     5f5912c4     olevar.obj
 0002:000032c8       ??_C@_02GGCO@?6?7?$AA@     5f5912c8     olevar.obj
 0002:000032cc       ??_C@_03JBDO@?6?7?$CI?$AA@ 5f5912cc     olevar.obj
 0002:000032d0       ??_C@_02GIEM@?0?5?$AA@     5f5912d0     olevar.obj
 0002:000032d4       ??_C@_01KMMP@?$CJ?$AA@     5f5912d4     olevar.obj
 0002:000032d8       ??_C@_09FDDC@?6?7bounds?3?$AA@ 5f5912d8     olevar.obj
 0002:000032e4       ??_C@_07LGGH@?6?7vt?5?$DN?5?$AA@ 5f5912e4     olevar.obj
 0002:000032ec       ??_C@_0BH@NEKA@?6COleSafeArray?5Object?3?$AA@ 5f5912ec     olevar.obj
 0002:00003308       ?classCOleServerItem@COleServerItem@@2UCRuntimeClass@@B 5f591308     oledoc1.obj
 0002:00003320       ??_C@_0P@ODMG@COleServerItem?$AA@ 5f591320     oledoc1.obj
 0002:00003330       ?classCOleClientItem@COleClientItem@@2UCRuntimeClass@@B 5f591330     oledoc1.obj
 0002:00003348       ??_C@_0P@JNNP@COleClientItem?$AA@ 5f591348     oledoc1.obj
 0002:00003358       ?classCOleDocument@COleDocument@@2UCRuntimeClass@@B 5f591358     oledoc1.obj
 0002:00003370       ??_C@_0N@KLEF@COleDocument?$AA@ 5f591370     oledoc1.obj
 0002:00003380       ??_C@_08NNLJ@CDocItem?$AA@ 5f591380     oledoc1.obj
 0002:0000338c       ??_C@_0CM@MMBL@?7perhaps?5AfxOleInit?$CI?$CJ?5has?5not?5be@ 5f59138c     oledoc1.obj
 0002:000033b8       ??_C@_0DC@OHFM@Warning?3?5CoGetMalloc?$CIMEMCTX_TASK@ 5f5913b8     oledoc1.obj
 0002:000033f0       ??_7COleDocument@@6B@      5f5913f0     oledoc1.obj
 0002:000034d8       ??_C@_0DF@GLPN@Warning?3?5destroying?5COleDocument@ 5f5914d8     oledoc1.obj
 0002:00003510       ??_C@_0DH@OIJJ@Warning?3?5OnOpenDocument?5replaces@ 5f591510     oledoc1.obj
 0002:00003548       ??_C@_08IBMA@Contents?$AA@ 5f591548     oledoc1.obj
 0002:00003554       ??_C@_09HEBF@?6m_ptd?5?$DN?5?$AA@ 5f591554     oledoc1.obj
 0002:00003560       ??_C@_0BA@DJOI@?6m_bRemember?5?$DN?5?$AA@ 5f591560     oledoc1.obj
 0002:00003570       ??_C@_0BC@BIJ@?6m_bSameAsLoad?5?$DN?5?$AA@ 5f591570     oledoc1.obj
 0002:00003584       ??_C@_0BA@MPDA@?6m_lpRootStg?5?$DN?5?$AA@ 5f591584     oledoc1.obj
 0002:00003594       ??_C@_0BA@IKCF@?6m_bEmbedded?5?$DN?5?$AA@ 5f591594     oledoc1.obj
 0002:000035a4       ??_C@_0BD@KBMC@?6m_bLastVisible?5?$DN?5?$AA@ 5f5915a4     oledoc1.obj
 0002:000035b8       ??_C@_0BH@BKJA@?6m_dwNextItemNumber?5?$DN?5?$AA@ 5f5915b8     oledoc1.obj
 0002:000035d0       ??_C@_05KIFI@with?5?$AA@   5f5915d0     oledoc1.obj
 0002:000035d8       ??_C@_0L@EFON@?5doc?5items?$AA@ 5f5915d8     oledoc1.obj
 0002:000035e8       ??_7CDocItem@@6B@          5f5915e8     oledoc1.obj
 0002:00003644       ??_C@_0P@NBEM@m_pDocument?5?$DN?5?$AA@ 5f591644     oledoc1.obj
 0002:00003658       ?interfaceMap@COleDropSource@@1UAFX_INTERFACEMAP@@B 5f591658     oledrop1.obj
 0002:00003660       ?_interfaceEntries@COleDropSource@@0QBUAFX_INTERFACEMAP_ENTRY@@B 5f591660     oledrop1.obj
 0002:00003694       ??_7COleDropSource@@6B@    5f591694     oledrop1.obj
 0002:000036fc       ??_7XDropSource@COleDropSource@@6B@ 5f5916fc     oledrop1.obj
 0002:00003710       ??_C@_0BL@ICEB@?6m_rectStartDrag?4bottom?5?$DN?5?$AA@ 5f591710     oledrop1.obj
 0002:0000372c       ??_C@_0BK@NCCF@?6m_rectStartDrag?4right?5?$DN?5?$AA@ 5f59172c     oledrop1.obj
 0002:00003748       ??_C@_0BI@LLBJ@?6m_rectStartDrag?4top?5?$DN?5?$AA@ 5f591748     oledrop1.obj
 0002:00003760       ??_C@_0BJ@IMOF@?6m_rectStartDrag?4left?5?$DN?5?$AA@ 5f591760     oledrop1.obj
 0002:0000377c       ??_C@_0BC@ECHL@m_bDragStarted?5?$DN?5?$AA@ 5f59177c     oledrop1.obj
 0002:00003790       ?interfaceMap@COleDropTarget@@1UAFX_INTERFACEMAP@@B 5f591790     oledrop2.obj
 0002:00003798       ?_interfaceEntries@COleDropTarget@@0QBUAFX_INTERFACEMAP_ENTRY@@B 5f591798     oledrop2.obj
 0002:000037e8       ??_7COleDropTarget@@6B@    5f5917e8     oledrop2.obj
 0002:00003860       ??_7XDropTarget@COleDropTarget@@6B@ 5f591860     oledrop2.obj
 0002:0000387c       ??_C@_0CG@HKAA@?7may?5cause?5RIPs?5under?5debug?5Wind@ 5f59187c     oledrop2.obj
 0002:000038a4       ??_C@_0DI@PFLH@COleDropTarget?3?3Revoke?5not?5calle@ 5f5918a4     oledrop2.obj
 0002:000038dc       ??_C@_0BB@OINI@?6m_dwLastTick?5?$DN?5?$AA@ 5f5918dc     oledrop2.obj
 0002:000038f0       ??_C@_0P@NGLE@?6m_nTimerID?5?$DN?5?$AA@ 5f5918f0     oledrop2.obj
 0002:00003900       ??_C@_0BD@KEMD@?6m_lpDataObject?5?$DN?5?$AA@ 5f591900     oledrop2.obj
 0002:00003914       ??_C@_09BKNC@m_hWnd?5?$DN?5?$AA@ 5f591914     oledrop2.obj
 0002:00003920       ?interfaceMap@COleMessageFilter@@1UAFX_INTERFACEMAP@@B 5f591920     olemsgf.obj
 0002:00003928       ?_interfaceEntries@COleMessageFilter@@0QBUAFX_INTERFACEMAP_ENTRY@@B 5f591928     olemsgf.obj
 0002:00003938       ?_afxSignificantMsgs@@3QBIB 5f591938     olemsgf.obj
 0002:00003978       ??_7COleMessageFilter@@6B@ 5f591978     olemsgf.obj
 0002:000039ec       ??_7XMessageFilter@COleMessageFilter@@6B@ 5f5919ec     olemsgf.obj
 0002:00003a04       ??_C@_0P@JKLE@?6m_nTimeout?5?$DN?5?$AA@ 5f591a04     olemsgf.obj
 0002:00003a14       ??_C@_0BB@PGOJ@?6m_nBusyReply?5?$DN?5?$AA@ 5f591a14     olemsgf.obj
 0002:00003a28       ??_C@_0BC@GKAC@?6m_nRetryReply?5?$DN?5?$AA@ 5f591a28     olemsgf.obj
 0002:00003a3c       ??_C@_0BC@IEIC@?6m_bUnblocking?5?$DN?5?$AA@ 5f591a3c     olemsgf.obj
 0002:00003a50       ??_C@_0BL@KMOL@?6m_bEnableNotResponding?5?$DN?5?$AA@ 5f591a50     olemsgf.obj
 0002:00003a6c       ??_C@_0BC@KPPB@?6m_bEnableBusy?5?$DN?5?$AA@ 5f591a6c     olemsgf.obj
 0002:00003a80       ??_C@_0BB@MEI@?6m_nBusyCount?5?$DN?5?$AA@ 5f591a80     olemsgf.obj
 0002:00003a94       ??_C@_0BB@EDJN@m_bRegistered?5?$DN?5?$AA@ 5f591a94     olemsgf.obj
 0002:00003aac       ??_7CEnumArray@@6B@        5f591aac     oleenum.obj
 0002:00003b18       ??_7XEnumVOID@CEnumArray@@6B@ 5f591b18     oleenum.obj
 0002:00003b38       ??_7IEnumVOID@@6B@         5f591b38     oleenum.obj
 0002:00003b58       ?classCOleObjectFactory@COleObjectFactory@@2UCRuntimeClass@@B 5f591b58     olefact.obj
 0002:00003b70       ??_C@_0BC@HKPN@COleObjectFactory?$AA@ 5f591b70     olefact.obj
 0002:00003b88       ?interfaceMap@COleObjectFactory@@1UAFX_INTERFACEMAP@@B 5f591b88     olefact.obj
 0002:00003b90       ?_interfaceEntries@COleObjectFactory@@0QBUAFX_INTERFACEMAP_ENTRY@@B 5f591b90     olefact.obj
 0002:00003bac       ??_7COleObjectFactory@@6B@ 5f591bac     olefact.obj
 0002:00003c24       ??_7XClassFactory@COleObjectFactory@@6B@ 5f591c24     olefact.obj
 0002:00003c44       ??_C@_0DD@FLGE@Warning?3?5CoRegisterClassObject?5f@ 5f591c44     olefact.obj
 0002:00003c78       ??_C@_0CP@CCDB@Warning?3?5object?5created?5with?5ref@ 5f591c78     olefact.obj
 0002:00003ca8       ??_C@_0BE@OGII@?6m_bLicenseValid?5?$DN?5?$AA@ 5f591ca8     olefact.obj
 0002:00003cbc       ??_C@_0BG@HOFD@?6m_bLicenseChecked?5?$DN?5?$AA@ 5f591cbc     olefact.obj
 0002:00003cd4       ??_C@_0BB@CECH@?6m_lpszProgID?5?$DN?5?$AA@ 5f591cd4     olefact.obj
 0002:00003ce8       ??_C@_0BF@OMHN@?6m_bMultiInstance?5?$DN?5?$AA@ 5f591ce8     olefact.obj
 0002:00003d00       ??_C@_0BE@BMEC@?6m_pRuntimeClass?5?$DN?5?$AA@ 5f591d00     olefact.obj
 0002:00003d14       ??_C@_0M@GKHL@?6m_clsid?5?$DN?5?$AA@ 5f591d14     olefact.obj
 0002:00003d20       ??_C@_0BC@KNA@?6m_bRegistered?5?$DN?5?$AA@ 5f591d20     olefact.obj
 0002:00003d34       ??_C@_0BB@GHJL@?6m_dwRegister?5?$DN?5?$AA@ 5f591d34     olefact.obj
 0002:00003d48       ??_C@_0BC@HEHA@m_pNextFactory?5?$DN?5?$AA@ 5f591d48     olefact.obj
 0002:00003d60       ?classCOleIPFrameWnd@COleIPFrameWnd@@2UCRuntimeClass@@B 5f591d60     oleipfrm.obj
 0002:00003d78       ??_C@_0P@CBLJ@COleIPFrameWnd?$AA@ 5f591d78     oleipfrm.obj
 0002:00003d88       ?messageMap@COleIPFrameWnd@@1UAFX_MSGMAP@@B 5f591d88     oleipfrm.obj
 0002:00003d90       ?_messageEntries@COleIPFrameWnd@@0QBUAFX_MSGMAP_ENTRY@@B 5f591d90     oleipfrm.obj
 0002:00003ecc       ??_7COleCntrFrameWnd@@6B@  5f591ecc     oleipfrm.obj
 0002:00003fcc       ??_7COleIPFrameWnd@@6B@    5f591fcc     oleipfrm.obj
 0002:000040e8       ??_C@_0BC@GPEG@?6m_hSharedMenu?5?$DN?5?$AA@ 5f5920e8     oleipfrm.obj
 0002:000040fc       ??_C@_0BE@EIME@?6m_bInsideRecalc?5?$DN?5?$AA@ 5f5920fc     oleipfrm.obj
 0002:00004110       ??_C@_0P@MHEP@?6m_rectClip?5?$DN?5?$AA@ 5f592110     oleipfrm.obj
 0002:00004120       ??_C@_0O@FEOJ@?6m_rectPos?5?$DN?5?$AA@ 5f592120     oleipfrm.obj
 0002:00004130       ??_C@_0P@JLOC@?6m_hOleMenu?5?$DN?5?$AA@ 5f592130     oleipfrm.obj
 0002:00004140       ??_C@_0BB@PHGG@?6m_lpDocFrame?5?$DN?5?$AA@ 5f592140     oleipfrm.obj
 0002:00004154       ??_C@_0N@LBG@m_lpFrame?5?$DN?5?$AA@ 5f592154     oleipfrm.obj
 0002:00004168       ?interfaceMap@COleLinkingDoc@@1UAFX_INTERFACEMAP@@B 5f592168     olelink.obj
 0002:00004170       ?_interfaceEntries@COleLinkingDoc@@0QBUAFX_INTERFACEMAP_ENTRY@@B 5f592170     olelink.obj
 0002:000041a4       ??_7COleLinkingDoc@@6B@    5f5921a4     olelink.obj
 0002:0000429c       ??_7XPersistFile@COleLinkingDoc@@6B@ 5f59229c     olelink.obj
 0002:000042c4       ??_7XOleItemContainer@COleLinkingDoc@@6B@ 5f5922c4     olelink.obj
 0002:000042e8       ??_C@_0DF@OLP@Warning?3?5Unable?5to?5register?5moni@ 5f5922e8     olelink.obj
 0002:00004320       ??_C@_0CL@JGGO@?7implementation?5failed?5to?5find?5i@ 5f592320     olelink.obj
 0002:0000434c       ??_C@_0DF@JBIB@Warning?3?5default?5COleLinkingDoc?3@ 5f59234c     olelink.obj
 0002:00004384       ??_C@_0BB@BIHL@?6with?5no?5factory?$AA@ 5f592384     olelink.obj
 0002:00004398       ??_C@_0BA@KOFE@?6with?5factory?3?5?$AA@ 5f592398     olelink.obj
 0002:000043a8       ??_C@_0BD@KPFI@?6m_bVisibleLock?5?$DN?5?$AA@ 5f5923a8     olelink.obj
 0002:000043c0       ?classCOleException@COleException@@2UCRuntimeClass@@B 5f5923c0     olemisc.obj
 0002:000043d8       ??_C@_0O@EEPE@COleException?$AA@ 5f5923d8     olemisc.obj
 0002:000043e8       ??_C@_0BB@FEOB@FACILITY_WINDOWS?$AA@ 5f5923e8     olemisc.obj
 0002:000043fc       ??_C@_0P@NGEF@FACILITY_WIN32?$AA@ 5f5923fc     olemisc.obj
 0002:0000440c       ??_C@_0O@BJCN@FACILITY_0x06?$AA@ 5f59240c     olemisc.obj
 0002:0000441c       ??_C@_0O@OGJE@FACILITY_0x05?$AA@ 5f59241c     olemisc.obj
 0002:0000442c       ??_C@_0N@HAFM@FACILITY_ITF?$AA@ 5f59242c     olemisc.obj
 0002:0000443c       ??_C@_0BB@LABF@FACILITY_STORAGE?$AA@ 5f59243c     olemisc.obj
 0002:00004450       ??_C@_0BC@MMLL@FACILITY_DISPATCH?$AA@ 5f592450     olemisc.obj
 0002:00004464       ??_C@_0N@GNNJ@FACILITY_RPC?$AA@ 5f592464     olemisc.obj
 0002:00004474       ??_C@_0O@CKPN@FACILITY_NULL?$AA@ 5f592474     olemisc.obj
 0002:00004484       ??_C@_0P@EJLP@SEVERITY_ERROR?$AA@ 5f592484     olemisc.obj
 0002:00004494       ??_C@_0BB@HNBI@SEVERITY_SUCCESS?$AA@ 5f592494     olemisc.obj
 0002:00004dc0       ??_C@_0BL@BBDA@VIEW_S_FIRST?4?4?4VIEW_S_LAST?$AA@ 5f592dc0     olemisc.obj
 0002:00004ddc       ??_C@_0BL@FDEF@VIEW_E_FIRST?4?4?4VIEW_E_LAST?$AA@ 5f592ddc     olemisc.obj
 0002:00004df8       ??_C@_0BN@OJHK@REGDB_S_FIRST?4?4?4REGDB_S_LAST?$AA@ 5f592df8     olemisc.obj
 0002:00004e18       ??_C@_0BN@LINN@REGDB_E_FIRST?4?4?4REGDB_E_LAST?$AA@ 5f592e18     olemisc.obj
 0002:00004e38       ??_C@_0BJ@LDNK@OLE_S_FIRST?4?4?4OLE_S_LAST?$AA@ 5f592e38     olemisc.obj
 0002:00004e54       ??_C@_0BJ@CDPN@OLE_E_FIRST?4?4?4OLE_E_LAST?$AA@ 5f592e54     olemisc.obj
 0002:00004e70       ??_C@_0BP@LNJ@OLEOBJ_S_FIRST?4?4?4OLEOBJ_S_LAST?$AA@ 5f592e70     olemisc.obj
 0002:00004e90       ??_C@_0BP@FJGN@OLEOBJ_E_FIRST?4?4?4OLEOBJ_E_LAST?$AA@ 5f592e90     olemisc.obj
 0002:00004eb0       ??_C@_0BH@CIDM@MK_S_FIRST?4?4?4MK_S_LAST?$AA@ 5f592eb0     olemisc.obj
 0002:00004ec8       ??_C@_0BH@OKNN@MK_E_FIRST?4?4?4MK_E_LAST?$AA@ 5f592ec8     olemisc.obj
 0002:00004ee0       ??_C@_0CB@PFHE@MARSHAL_S_FIRST?4?4?4MARSHAL_S_LAST@ 5f592ee0     olemisc.obj
 0002:00004f04       ??_C@_0CB@JCMD@MARSHAL_E_FIRST?4?4?4MARSHAL_E_LAST@ 5f592f04     olemisc.obj
 0002:00004f28       ??_C@_0CB@OBKF@INPLACE_S_FIRST?4?4?4INPLACE_S_LAST@ 5f592f28     olemisc.obj
 0002:00004f4c       ??_C@_0CB@IGBC@INPLACE_E_FIRST?4?4?4INPLACE_E_LAST@ 5f592f4c     olemisc.obj
 0002:00004f70       ??_C@_0BL@BPFC@ENUM_S_FIRST?4?4?4ENUM_S_LAST?$AA@ 5f592f70     olemisc.obj
 0002:00004f8c       ??_C@_0BL@FNCH@ENUM_E_FIRST?4?4?4ENUM_E_LAST?$AA@ 5f592f8c     olemisc.obj
 0002:00004fa8       ??_C@_0CD@MDEB@DRAGDROP_S_FIRST?4?4?4DRAGDROP_S_LA@ 5f592fa8     olemisc.obj
 0002:00004fcc       ??_C@_0CD@MKMD@DRAGDROP_E_FIRST?4?4?4DRAGDROP_E_LA@ 5f592fcc     olemisc.obj
 0002:00004ff0       ??_C@_0BL@FEGO@DATA_S_FIRST?4?4?4DATA_S_LAST?$AA@ 5f592ff0     olemisc.obj
 0002:0000500c       ??_C@_0BL@BGBL@DATA_E_FIRST?4?4?4DATA_E_LAST?$AA@ 5f59300c     olemisc.obj
 0002:00005028       ??_C@_0BH@NNJL@CO_S_FIRST?4?4?4CO_S_LAST?$AA@ 5f593028     olemisc.obj
 0002:00005040       ??_C@_0BH@BPHK@CO_E_FIRST?4?4?4CO_E_LAST?$AA@ 5f593040     olemisc.obj
 0002:00005058       ??_C@_0CF@FBAG@CONVERT10_S_FIRST?4?4?4CONVERT10_S_@ 5f593058     olemisc.obj
 0002:00005080       ??_C@_0CF@CMOK@CONVERT10_E_FIRST?4?4?4CONVERT10_E_@ 5f593080     olemisc.obj
 0002:000050a8       ??_C@_0CB@HENF@CLIPBRD_S_FIRST?4?4?4CLIPBRD_S_LAST@ 5f5930a8     olemisc.obj
 0002:000050cc       ??_C@_0CB@BDGC@CLIPBRD_E_FIRST?4?4?4CLIPBRD_E_LAST@ 5f5930cc     olemisc.obj
 0002:000050f0       ??_C@_0CH@MFPB@CLIENTSITE_S_FIRST?4?4?4CLIENTSITE_@ 5f5930f0     olemisc.obj
 0002:00005118       ??_C@_0CH@MGGJ@CLIENTSITE_E_FIRST?4?4?4CLIENTSITE_@ 5f593118     olemisc.obj
 0002:00005140       ??_C@_0CL@DCFF@CLASSFACTORY_S_FIRST?4?4?4CLASSFACT@ 5f593140     olemisc.obj
 0002:0000516c       ??_C@_0CL@FKOP@CLASSFACTORY_E_FIRST?4?4?4CLASSFACT@ 5f59316c     olemisc.obj
 0002:00005198       ??_C@_0BN@BFHH@CACHE_S_FIRST?4?4?4CACHE_S_LAST?$AA@ 5f593198     olemisc.obj
 0002:000051b8       ??_C@_0BN@EENA@CACHE_E_FIRST?4?4?4CACHE_E_LAST?$AA@ 5f5931b8     olemisc.obj
 0002:000051d8       ??_C@_0M@EJHN@VIEW_E_DRAW?$AA@ 5f5931d8     olemisc.obj
 0002:000051e4       ??_C@_0BF@DOMI@TYPE_E_WRONGTYPEKIND?$AA@ 5f5931e4     olemisc.obj
 0002:000051fc       ??_C@_0BD@KID@TYPE_E_UNSUPFORMAT?$AA@ 5f5931fc     olemisc.obj
 0002:00005210       ??_C@_0BD@NMIN@TYPE_E_UNKNOWNLCID?$AA@ 5f593210     olemisc.obj
 0002:00005224       ??_C@_0BF@MJPL@TYPE_E_UNDEFINEDTYPE?$AA@ 5f593224     olemisc.obj
 0002:0000523c       ??_C@_0BE@HAEH@TYPE_E_TYPEMISMATCH?$AA@ 5f59323c     olemisc.obj
 0002:00005250       ??_C@_0BC@JDHF@TYPE_E_SIZETOOBIG?$AA@ 5f593250     olemisc.obj
 0002:00005264       ??_C@_0BG@FFPJ@TYPE_E_REGISTRYACCESS?$AA@ 5f593264     olemisc.obj
 0002:0000527c       ??_C@_0BP@GAEP@TYPE_E_QUALIFIEDNAMEDISALLOWED?$AA@ 5f59327c     olemisc.obj
 0002:0000529c       ??_C@_0BD@GAJB@TYPE_E_OUTOFBOUNDS?$AA@ 5f59329c     olemisc.obj
 0002:000052b0       ??_C@_0BE@HBBE@TYPE_E_NAMECONFLICT?$AA@ 5f5932b0     olemisc.obj
 0002:000052c4       ??_C@_0BI@IKOE@TYPE_E_LIBNOTREGISTERED?$AA@ 5f5932c4     olemisc.obj
 0002:000052dc       ??_C@_0P@GDJH@TYPE_E_IOERROR?$AA@ 5f5932dc     olemisc.obj
 0002:000052ec       ??_C@_0BD@BDCM@TYPE_E_INVDATAREAD?$AA@ 5f5932ec     olemisc.obj
 0002:00005300       ??_C@_0BE@LHHL@TYPE_E_INVALIDSTATE?$AA@ 5f593300     olemisc.obj
 0002:00005314       ??_C@_0BN@IIKI@TYPE_E_INCONSISTENTPROPFUNCS?$AA@ 5f593314     olemisc.obj
 0002:00005334       ??_C@_0BH@PKEE@TYPE_E_ELEMENTNOTFOUND?$AA@ 5f593334     olemisc.obj
 0002:0000534c       ??_C@_0BD@HFCB@TYPE_E_DUPLICATEID?$AA@ 5f59334c     olemisc.obj
 0002:00005360       ??_C@_0BL@KFLM@TYPE_E_DLLFUNCTIONNOTFOUND?$AA@ 5f593360     olemisc.obj
 0002:0000537c       ??_C@_0BE@LKMM@TYPE_E_CIRCULARTYPE?$AA@ 5f59337c     olemisc.obj
 0002:00005390       ??_C@_0BH@OEOC@TYPE_E_CANTLOADLIBRARY?$AA@ 5f593390     olemisc.obj
 0002:000053a8       ??_C@_0BJ@PDNG@TYPE_E_CANTCREATETMPFILE?$AA@ 5f5933a8     olemisc.obj
 0002:000053c4       ??_C@_0BG@HMOE@TYPE_E_BUFFERTOOSMALL?$AA@ 5f5933c4     olemisc.obj
 0002:000053dc       ??_C@_0BF@FACD@TYPE_E_BADMODULEKIND?$AA@ 5f5933dc     olemisc.obj
 0002:000053f4       ??_C@_0BF@DCPG@TYPE_E_AMBIGUOUSNAME?$AA@ 5f5933f4     olemisc.obj
 0002:0000540c       ??_C@_0BB@MCHJ@STG_E_WRITEFAULT?$AA@ 5f59340c     olemisc.obj
 0002:00005420       ??_C@_0O@CGJ@STG_E_UNKNOWN?$AA@ 5f593420     olemisc.obj
 0002:00005430       ??_C@_0BM@PNME@STG_E_UNIMPLEMENTEDFUNCTION?$AA@ 5f593430     olemisc.obj
 0002:0000544c       ??_C@_0BH@KKDE@STG_E_TOOMANYOPENFILES?$AA@ 5f59344c     olemisc.obj
 0002:00005464       ??_C@_0BF@LHLD@STG_E_SHAREVIOLATION?$AA@ 5f593464     olemisc.obj
 0002:0000547c       ??_C@_0BE@PMHE@STG_E_SHAREREQUIRED?$AA@ 5f59347c     olemisc.obj
 0002:00005490       ??_C@_0BA@NAPD@STG_E_SEEKERROR?$AA@ 5f593490     olemisc.obj
 0002:000054a0       ??_C@_0P@ODBJ@STG_E_REVERTED?$AA@ 5f5934a0     olemisc.obj
 0002:000054b0       ??_C@_0BA@ENNI@STG_E_READFAULT?$AA@ 5f5934b0     olemisc.obj
 0002:000054c0       ??_C@_0BD@MAIA@STG_E_PATHNOTFOUND?$AA@ 5f5934c0     olemisc.obj
 0002:000054d4       ??_C@_0BA@NFPJ@STG_E_OLDFORMAT?$AA@ 5f5934d4     olemisc.obj
 0002:000054e4       ??_C@_0N@CCGN@STG_E_OLDDLL?$AA@ 5f5934e4     olemisc.obj
 0002:000054f4       ??_C@_0BK@KDLL@STG_E_NOTFILEBASEDSTORAGE?$AA@ 5f5934f4     olemisc.obj
 0002:00005510       ??_C@_0BB@FHLH@STG_E_NOTCURRENT?$AA@ 5f593510     olemisc.obj
 0002:00005524       ??_C@_0BC@JPKH@STG_E_NOMOREFILES?$AA@ 5f593524     olemisc.obj
 0002:00005538       ??_C@_0BB@KIFE@STG_E_MEDIUMFULL?$AA@ 5f593538     olemisc.obj
 0002:0000554c       ??_C@_0BE@PJLD@STG_E_LOCKVIOLATION?$AA@ 5f59354c     olemisc.obj
 0002:00005560       ??_C@_0BF@EEHM@STG_E_INVALIDPOINTER?$AA@ 5f593560     olemisc.obj
 0002:00005578       ??_C@_0BH@DEML@STG_E_INVALIDPARAMETER?$AA@ 5f593578     olemisc.obj
 0002:00005590       ??_C@_0BC@FGBC@STG_E_INVALIDNAME?$AA@ 5f593590     olemisc.obj
 0002:000055a4       ??_C@_0BE@MKFL@STG_E_INVALIDHEADER?$AA@ 5f5935a4     olemisc.obj
 0002:000055b8       ??_C@_0BE@MFIL@STG_E_INVALIDHANDLE?$AA@ 5f5935b8     olemisc.obj
 0002:000055cc       ??_C@_0BG@BIHE@STG_E_INVALIDFUNCTION?$AA@ 5f5935cc     olemisc.obj
 0002:000055e4       ??_C@_0BC@EMKL@STG_E_INVALIDFLAG?$AA@ 5f5935e4     olemisc.obj
 0002:000055f8       ??_C@_0M@EFDG@STG_E_INUSE?$AA@ 5f5935f8     olemisc.obj
 0002:00005604       ??_C@_0BJ@OANH@STG_E_INSUFFICIENTMEMORY?$AA@ 5f593604     olemisc.obj
 0002:00005620       ??_C@_0BD@HNDG@STG_E_FILENOTFOUND?$AA@ 5f593620     olemisc.obj
 0002:00005634       ??_C@_0BI@GNCB@STG_E_FILEALREADYEXISTS?$AA@ 5f593634     olemisc.obj
 0002:0000564c       ??_C@_0BJ@NBHO@STG_E_EXTANTMARSHALLINGS?$AA@ 5f59364c     olemisc.obj
 0002:00005668       ??_C@_0BL@LBKA@STG_E_DISKISWRITEPROTECTED?$AA@ 5f593668     olemisc.obj
 0002:00005684       ??_C@_0P@CDEO@STG_E_CANTSAVE?$AA@ 5f593684     olemisc.obj
 0002:00005694       ??_C@_0BD@EICG@STG_E_ACCESSDENIED?$AA@ 5f593694     olemisc.obj
 0002:000056a8       ??_C@_0BG@PCHB@STG_E_ABNORMALAPIEXIT?$AA@ 5f5936a8     olemisc.obj
 0002:000056c0       ??_C@_0BD@JAPF@RPC_E_WRONG_THREAD?$AA@ 5f5936c0     olemisc.obj
 0002:000056d4       ??_C@_0BB@IMFM@RPC_E_UNEXPECTED?$AA@ 5f5936d4     olemisc.obj
 0002:000056e8       ??_C@_0BG@GBJK@RPC_E_THREAD_NOT_INIT?$AA@ 5f5936e8     olemisc.obj
 0002:00005700       ??_C@_0BG@JMDA@RPC_E_SYS_CALL_FAILED?$AA@ 5f593700     olemisc.obj
 0002:00005718       ??_C@_0BC@GELD@RPC_E_SERVERFAULT?$AA@ 5f593718     olemisc.obj
 0002:0000572c       ??_C@_0BM@NJMP@RPC_E_SERVERCALL_RETRYLATER?$AA@ 5f59372c     olemisc.obj
 0002:00005748       ??_C@_0BK@LGIK@RPC_E_SERVERCALL_REJECTED?$AA@ 5f593748     olemisc.obj
 0002:00005764       ??_C@_0BG@NHGE@RPC_E_SERVER_DIED_DNE?$AA@ 5f593764     olemisc.obj
 0002:0000577c       ??_C@_0BC@IEPI@RPC_E_SERVER_DIED?$AA@ 5f59377c     olemisc.obj
 0002:00005790       ??_C@_0CA@NNPK@RPC_E_SERVER_CANTUNMARSHAL_DATA?$AA@ 5f593790     olemisc.obj
 0002:000057b0       ??_C@_0BO@PBDM@RPC_E_SERVER_CANTMARSHAL_DATA?$AA@ 5f5937b0     olemisc.obj
 0002:000057d0       ??_C@_0M@CMMO@RPC_E_RETRY?$AA@ 5f5937d0     olemisc.obj
 0002:000057dc       ??_C@_0BH@IACH@RPC_E_OUT_OF_RESOURCES?$AA@ 5f5937dc     olemisc.obj
 0002:000057f4       ??_C@_0BF@GPDN@RPC_E_NOT_REGISTERED?$AA@ 5f5937f4     olemisc.obj
 0002:0000580c       ??_C@_0BE@IDOO@RPC_E_INVALIDMETHOD?$AA@ 5f59380c     olemisc.obj
 0002:00005820       ??_C@_0BI@DDIP@RPC_E_INVALID_PARAMETER?$AA@ 5f593820     olemisc.obj
 0002:00005838       ??_C@_0BJ@DCAC@RPC_E_INVALID_DATAPACKET?$AA@ 5f593838     olemisc.obj
 0002:00005854       ??_C@_0BD@PO@RPC_E_INVALID_DATA?$AA@ 5f593854     olemisc.obj
 0002:00005868       ??_C@_0BH@NBG@RPC_E_INVALID_CALLDATA?$AA@ 5f593868     olemisc.obj
 0002:00005880       ??_C@_0M@JFCB@RPC_E_FAULT?$AA@ 5f593880     olemisc.obj
 0002:0000588c       ??_C@_0BD@HNKB@RPC_E_DISCONNECTED?$AA@ 5f59388c     olemisc.obj
 0002:000058a0       ??_C@_0BM@KEOD@RPC_E_CONNECTION_TERMINATED?$AA@ 5f5938a0     olemisc.obj
 0002:000058bc       ??_C@_0BC@INIG@RPC_E_CLIENT_DIED?$AA@ 5f5938bc     olemisc.obj
 0002:000058d0       ??_C@_0CA@EKFA@RPC_E_CLIENT_CANTUNMARSHAL_DATA?$AA@ 5f5938d0     olemisc.obj
 0002:000058f0       ??_C@_0BO@IBCJ@RPC_E_CLIENT_CANTMARSHAL_DATA?$AA@ 5f5938f0     olemisc.obj
 0002:00005910       ??_C@_0BD@CBIE@RPC_E_CHANGED_MODE?$AA@ 5f593910     olemisc.obj
 0002:00005924       ??_C@_0BI@HEFH@RPC_E_CANTTRANSMIT_CALL?$AA@ 5f593924     olemisc.obj
 0002:0000593c       ??_C@_0BK@BFAI@RPC_E_CANTPOST_INSENDCALL?$AA@ 5f59393c     olemisc.obj
 0002:00005958       ??_C@_0CC@KEOJ@RPC_E_CANTCALLOUT_ININPUTSYNCCAL@ 5f593958     olemisc.obj
 0002:0000597c       ??_C@_0CB@IKHF@RPC_E_CANTCALLOUT_INEXTERNALCALL@ 5f59397c     olemisc.obj
 0002:000059a0       ??_C@_0BO@FIAD@RPC_E_CANTCALLOUT_INASYNCCALL?$AA@ 5f5939a0     olemisc.obj
 0002:000059c0       ??_C@_0BI@BODI@RPC_E_CANTCALLOUT_AGAIN?$AA@ 5f5939c0     olemisc.obj
 0002:000059d8       ??_C@_0BE@FCIF@RPC_E_CALL_REJECTED?$AA@ 5f5939d8     olemisc.obj
 0002:000059ec       ??_C@_0BE@NKHI@RPC_E_CALL_CANCELED?$AA@ 5f5939ec     olemisc.obj
 0002:00005a00       ??_C@_0BM@EEED@RPC_E_ATTEMPTED_MULTITHREAD?$AA@ 5f593a00     olemisc.obj
 0002:00005a1c       ??_C@_0BD@GKF@REGDB_E_WRITEREGDB?$AA@ 5f593a1c     olemisc.obj
 0002:00005a30       ??_C@_0BC@HJEG@REGDB_E_READREGDB?$AA@ 5f593a30     olemisc.obj
 0002:00005a44       ??_C@_0BD@NEAK@REGDB_E_KEYMISSING?$AA@ 5f593a44     olemisc.obj
 0002:00005a58       ??_C@_0BF@ENHM@REGDB_E_INVALIDVALUE?$AA@ 5f593a58     olemisc.obj
 0002:00005a70       ??_C@_0BC@EOK@REGDB_E_IIDNOTREG?$AA@ 5f593a70     olemisc.obj
 0002:00005a84       ??_C@_0BE@PII@REGDB_E_CLASSNOTREG?$AA@ 5f593a84     olemisc.obj
 0002:00005a98       ??_C@_0BB@ICH@OLEOBJ_E_NOVERBS?$AA@ 5f593a98     olemisc.obj
 0002:00005aac       ??_C@_0BF@CFIB@OLEOBJ_E_INVALIDVERB?$AA@ 5f593aac     olemisc.obj
 0002:00005ac4       ??_C@_0BD@HFND@OLE_E_WRONGCOMPOBJ?$AA@ 5f593ac4     olemisc.obj
 0002:00005ad8       ??_C@_0N@LJOM@OLE_E_STATIC?$AA@ 5f593ad8     olemisc.obj
 0002:00005ae8       ??_C@_0BK@GAIP@OLE_E_PROMPTSAVECANCELLED?$AA@ 5f593ae8     olemisc.obj
 0002:00005b04       ??_C@_0O@GNCI@OLE_E_OLEVERB?$AA@ 5f593b04     olemisc.obj
 0002:00005b14       ??_C@_0BB@JNNN@OLE_E_NOTRUNNING?$AA@ 5f593b14     olemisc.obj
 0002:00005b28       ??_C@_0BI@DOAN@OLE_E_NOT_INPLACEACTIVE?$AA@ 5f593b28     olemisc.obj
 0002:00005b40       ??_C@_0BA@KCAF@OLE_E_NOSTORAGE?$AA@ 5f593b40     olemisc.obj
 0002:00005b50       ??_C@_0BD@BCBD@OLE_E_NOCONNECTION?$AA@ 5f593b50     olemisc.obj
 0002:00005b64       ??_C@_0O@NJCH@OLE_E_NOCACHE?$AA@ 5f593b64     olemisc.obj
 0002:00005b74       ??_C@_0BC@JBBH@OLE_E_INVALIDRECT?$AA@ 5f593b74     olemisc.obj
 0002:00005b88       ??_C@_0BC@HBGB@OLE_E_INVALIDHWND?$AA@ 5f593b88     olemisc.obj
 0002:00005b9c       ??_C@_0BC@BFPC@OLE_E_ENUM_NOMORE?$AA@ 5f593b9c     olemisc.obj
 0002:00005bb0       ??_C@_0BA@IPMP@OLE_E_CLASSDIFF?$AA@ 5f593bb0     olemisc.obj
 0002:00005bc0       ??_C@_0BC@HFDL@OLE_E_CANTCONVERT?$AA@ 5f593bc0     olemisc.obj
 0002:00005bd4       ??_C@_0BG@PNJG@OLE_E_CANT_GETMONIKER?$AA@ 5f593bd4     olemisc.obj
 0002:00005bec       ??_C@_0BI@CFOJ@OLE_E_CANT_BINDTOSOURCE?$AA@ 5f593bec     olemisc.obj
 0002:00005c04       ??_C@_0M@OPML@OLE_E_BLANK?$AA@ 5f593c04     olemisc.obj
 0002:00005c10       ??_C@_0BJ@KCME@OLE_E_ADVISENOTSUPPORTED?$AA@ 5f593c10     olemisc.obj
 0002:00005c2c       ??_C@_0L@KKHN@OLE_E_ADVF?$AA@ 5f593c2c     olemisc.obj
 0002:00005c38       ??_C@_0BB@LKHO@MK_E_UNAVAILABLE?$AA@ 5f593c38     olemisc.obj
 0002:00005c4c       ??_C@_0M@FPAP@MK_E_SYNTAX?$AA@ 5f593c4c     olemisc.obj
 0002:00005c58       ??_C@_0O@JEII@MK_E_NOTBOUND?$AA@ 5f593c58     olemisc.obj
 0002:00005c68       ??_C@_0BB@CGPA@MK_E_NOTBINDABLE?$AA@ 5f593c68     olemisc.obj
 0002:00005c7c       ??_C@_0P@JOCA@MK_E_NOSTORAGE?$AA@ 5f593c7c     olemisc.obj
 0002:00005c8c       ??_C@_0O@EBPJ@MK_E_NOPREFIX?$AA@ 5f593c8c     olemisc.obj
 0002:00005c9c       ??_C@_0O@BMDP@MK_E_NOOBJECT?$AA@ 5f593c9c     olemisc.obj
 0002:00005cac       ??_C@_0P@GJCI@MK_E_NOINVERSE?$AA@ 5f593cac     olemisc.obj
 0002:00005cbc       ??_C@_0BD@DDAE@MK_E_NO_NORMALIZED?$AA@ 5f593cbc     olemisc.obj
 0002:00005cd0       ??_C@_0BB@NHEK@MK_E_NEEDGENERIC?$AA@ 5f593cd0     olemisc.obj
 0002:00005ce4       ??_C@_0BE@INIG@MK_E_MUSTBOTHERUSER?$AA@ 5f593ce4     olemisc.obj
 0002:00005cf8       ??_C@_0BG@ILAE@MK_E_INVALIDEXTENSION?$AA@ 5f593cf8     olemisc.obj
 0002:00005d10       ??_C@_0CH@PHBE@MK_E_INTERMEDIATEINTERFACENOTSUP@ 5f593d10     olemisc.obj
 0002:00005d38       ??_C@_0BG@JGDM@MK_E_EXCEEDEDDEADLINE?$AA@ 5f593d38     olemisc.obj
 0002:00005d50       ??_C@_0BI@MKAC@MK_E_ENUMERATION_FAILED?$AA@ 5f593d50     olemisc.obj
 0002:00005d68       ??_C@_0BF@NPHN@MK_E_CONNECTMANUALLY?$AA@ 5f593d68     olemisc.obj
 0002:00005d80       ??_C@_0BC@CLAA@MK_E_CANTOPENFILE?$AA@ 5f593d80     olemisc.obj
 0002:00005d94       ??_C@_0BD@GCCM@MEM_E_INVALID_SIZE?$AA@ 5f593d94     olemisc.obj
 0002:00005da8       ??_C@_0BD@IOEH@MEM_E_INVALID_ROOT?$AA@ 5f593da8     olemisc.obj
 0002:00005dbc       ??_C@_0BD@HMOK@MEM_E_INVALID_LINK?$AA@ 5f593dbc     olemisc.obj
 0002:00005dd0       ??_C@_0BG@NFLN@INPLACE_E_NOTUNDOABLE?$AA@ 5f593dd0     olemisc.obj
 0002:00005de8       ??_C@_0BG@NEEK@INPLACE_E_NOTOOLSPACE?$AA@ 5f593de8     olemisc.obj
 0002:00005e00       ??_C@_0L@OBAK@DV_E_TYMED?$AA@ 5f593e00     olemisc.obj
 0002:00005e0c       ??_C@_0P@CKCH@DV_E_STGMEDIUM?$AA@ 5f593e0c     olemisc.obj
 0002:00005e1c       ??_C@_0O@OFOL@DV_E_STATDATA?$AA@ 5f593e1c     olemisc.obj
 0002:00005e2c       ??_C@_0BD@IDLA@DV_E_NOIVIEWOBJECT?$AA@ 5f593e2c     olemisc.obj
 0002:00005e40       ??_C@_0M@LFPF@DV_E_LINDEX?$AA@ 5f593e40     olemisc.obj
 0002:00005e4c       ??_C@_0P@BDIB@DV_E_FORMATETC?$AA@ 5f593e4c     olemisc.obj
 0002:00005e5c       ??_C@_0BJ@MFG@DV_E_DVTARGETDEVICE_SIZE?$AA@ 5f593e5c     olemisc.obj
 0002:00005e78       ??_C@_0BE@IMCM@DV_E_DVTARGETDEVICE?$AA@ 5f593e78     olemisc.obj
 0002:00005e8c       ??_C@_0O@IIGO@DV_E_DVASPECT?$AA@ 5f593e8c     olemisc.obj
 0002:00005e9c       ??_C@_0BA@OMEF@DV_E_CLIPFORMAT?$AA@ 5f593e9c     olemisc.obj
 0002:00005eac       ??_C@_0BJ@KCOG@DRAGDROP_E_NOTREGISTERED?$AA@ 5f593eac     olemisc.obj
 0002:00005ec8       ??_C@_0BH@CFBH@DRAGDROP_E_INVALIDHWND?$AA@ 5f593ec8     olemisc.obj
 0002:00005ee0       ??_C@_0BN@GCLF@DRAGDROP_E_ALREADYREGISTERED?$AA@ 5f593ee0     olemisc.obj
 0002:00005f00       ??_C@_0BD@FPAE@DISP_E_UNKNOWNNAME?$AA@ 5f593f00     olemisc.obj
 0002:00005f14       ??_C@_0BD@EBLA@DISP_E_UNKNOWNLCID?$AA@ 5f593f14     olemisc.obj
 0002:00005f28       ??_C@_0BI@BKFO@DISP_E_UNKNOWNINTERFACE?$AA@ 5f593f28     olemisc.obj
 0002:00005f40       ??_C@_0BE@GINK@DISP_E_TYPEMISMATCH?$AA@ 5f593f40     olemisc.obj
 0002:00005f54       ??_C@_0BI@ONEA@DISP_E_PARAMNOTOPTIONAL?$AA@ 5f593f54     olemisc.obj
 0002:00005f6c       ??_C@_0BF@BKDN@DISP_E_PARAMNOTFOUND?$AA@ 5f593f6c     olemisc.obj
 0002:00005f84       ??_C@_0BA@GHFB@DISP_E_OVERFLOW?$AA@ 5f593f84     olemisc.obj
 0002:00005f94       ??_C@_0BG@DJIC@DISP_E_NOTACOLLECTION?$AA@ 5f593f94     olemisc.obj
 0002:00005fac       ??_C@_0BD@MFHE@DISP_E_NONAMEDARGS?$AA@ 5f593fac     olemisc.obj
 0002:00005fc0       ??_C@_0BG@DMGK@DISP_E_MEMBERNOTFOUND?$AA@ 5f593fc0     olemisc.obj
 0002:00005fd8       ??_C@_0BB@IEIB@DISP_E_EXCEPTION?$AA@ 5f593fd8     olemisc.obj
 0002:00005fec       ??_C@_0BC@FHKP@DISP_E_BADVARTYPE?$AA@ 5f593fec     olemisc.obj
 0002:00006000       ??_C@_0BF@IKPH@DISP_E_BADPARAMCOUNT?$AA@ 5f594000     olemisc.obj
 0002:00006018       ??_C@_0BA@DLMK@DISP_E_BADINDEX?$AA@ 5f594018     olemisc.obj
 0002:00006028       ??_C@_0BB@GP@DISP_E_BADCALLEE?$AA@ 5f594028     olemisc.obj
 0002:0000603c       ??_C@_0BF@PNAE@DISP_E_ARRAYISLOCKED?$AA@ 5f59403c     olemisc.obj
 0002:00006054       ??_C@_0BO@LMOC@CONVERT10_E_STG_NO_STD_STREAM?$AA@ 5f594054     olemisc.obj
 0002:00006074       ??_C@_0BE@NF@CONVERT10_E_STG_FMT?$AA@ 5f594074     olemisc.obj
 0002:00006088       ??_C@_0BO@MDDA@CONVERT10_E_STG_DIB_TO_BITMAP?$AA@ 5f594088     olemisc.obj
 0002:000060a8       ??_C@_0BK@PNGG@CONVERT10_E_OLESTREAM_PUT?$AA@ 5f5940a8     olemisc.obj
 0002:000060c4       ??_C@_0BK@IME@CONVERT10_E_OLESTREAM_GET?$AA@ 5f5940c4     olemisc.obj
 0002:000060e0       ??_C@_0BK@OPIG@CONVERT10_E_OLESTREAM_FMT?$AA@ 5f5940e0     olemisc.obj
 0002:000060fc       ??_C@_0CE@NBMK@CONVERT10_E_OLESTREAM_BITMAP_TO_@ 5f5940fc     olemisc.obj
 0002:00006120       ??_C@_0BD@IGGN@CO_E_WRONGOSFORAPP?$AA@ 5f594120     olemisc.obj
 0002:00006134       ??_C@_0BF@GIFE@CO_E_SERVER_STOPPING?$AA@ 5f594134     olemisc.obj
 0002:0000614c       ??_C@_0BJ@GJB@CO_E_SERVER_EXEC_FAILURE?$AA@ 5f59414c     olemisc.obj
 0002:00006168       ??_C@_0BF@PIKI@CO_E_SCM_RPC_FAILURE?$AA@ 5f594168     olemisc.obj
 0002:00006180       ??_C@_0P@DCAF@CO_E_SCM_ERROR?$AA@ 5f594180     olemisc.obj
 0002:00006190       ??_C@_0BI@LDEK@CO_E_OBJSRV_RPC_FAILURE?$AA@ 5f594190     olemisc.obj
 0002:000061a8       ??_C@_0P@OMLE@CO_E_OBJNOTREG?$AA@ 5f5941a8     olemisc.obj
 0002:000061b8       ??_C@_0BF@PKMO@CO_E_OBJNOTCONNECTED?$AA@ 5f5941b8     olemisc.obj
 0002:000061d0       ??_C@_0O@KJGN@CO_E_OBJISREG?$AA@ 5f5941d0     olemisc.obj
 0002:000061e0       ??_C@_0BE@EFPN@CO_E_NOTINITIALIZED?$AA@ 5f5941e0     olemisc.obj
 0002:000061f4       ??_C@_0P@KKED@CO_E_IIDSTRING?$AA@ 5f5941f4     olemisc.obj
 0002:00006204       ??_C@_0BA@DCHM@CO_E_ERRORINDLL?$AA@ 5f594204     olemisc.obj
 0002:00006214       ??_C@_0BA@PKPD@CO_E_ERRORINAPP?$AA@ 5f594214     olemisc.obj
 0002:00006224       ??_C@_0BB@DGAA@CO_E_DLLNOTFOUND?$AA@ 5f594224     olemisc.obj
 0002:00006238       ??_C@_0BB@JFMG@CO_E_CLASSSTRING?$AA@ 5f594238     olemisc.obj
 0002:0000624c       ??_C@_0BJ@DHFM@CO_E_CLASS_CREATE_FAILED?$AA@ 5f59424c     olemisc.obj
 0002:00006268       ??_C@_0BI@KADN@CO_E_CANTDETERMINECLASS?$AA@ 5f594268     olemisc.obj
 0002:00006280       ??_C@_0O@CEIB@CO_E_BAD_PATH?$AA@ 5f594280     olemisc.obj
 0002:00006290       ??_C@_0BC@MIJJ@CO_E_APPSINGLEUSE?$AA@ 5f594290     olemisc.obj
 0002:000062a4       ??_C@_0BB@PEGM@CO_E_APPNOTFOUND?$AA@ 5f5942a4     olemisc.obj
 0002:000062b8       ??_C@_0BB@EGCE@CO_E_APPDIDNTREG?$AA@ 5f5942b8     olemisc.obj
 0002:000062cc       ??_C@_0BI@LPFC@CO_E_ALREADYINITIALIZED?$AA@ 5f5942cc     olemisc.obj
 0002:000062e4       ??_C@_0BD@FIPH@CLIPBRD_E_CANT_SET?$AA@ 5f5942e4     olemisc.obj
 0002:000062f8       ??_C@_0BE@MCIO@CLIPBRD_E_CANT_OPEN?$AA@ 5f5942f8     olemisc.obj
 0002:0000630c       ??_C@_0BF@OABI@CLIPBRD_E_CANT_EMPTY?$AA@ 5f59430c     olemisc.obj
 0002:00006324       ??_C@_0BF@DMOK@CLIPBRD_E_CANT_CLOSE?$AA@ 5f594324     olemisc.obj
 0002:0000633c       ??_C@_0BD@DHGF@CLIPBRD_E_BAD_DATA?$AA@ 5f59433c     olemisc.obj
 0002:00006350       ??_C@_0BG@KBLK@CLASS_E_NOAGGREGATION?$AA@ 5f594350     olemisc.obj
 0002:00006368       ??_C@_0BK@OJDN@CLASS_E_CLASSNOTAVAILABLE?$AA@ 5f594368     olemisc.obj
 0002:00006384       ??_C@_0BI@LGBI@CACHE_E_NOCACHE_UPDATED?$AA@ 5f594384     olemisc.obj
 0002:0000639c       ??_C@_0P@IBAM@E_ACCESSDENIED?$AA@ 5f59439c     olemisc.obj
 0002:000063ac       ??_C@_06MPFC@E_FAIL?$AA@   5f5943ac     olemisc.obj
 0002:000063b4       ??_C@_07BBFK@E_ABORT?$AA@  5f5943b4     olemisc.obj
 0002:000063bc       ??_C@_08HCGG@E_HANDLE?$AA@ 5f5943bc     olemisc.obj
 0002:000063c8       ??_C@_09FCML@E_POINTER?$AA@ 5f5943c8     olemisc.obj
 0002:000063d4       ??_C@_0O@OKLN@E_NOINTERFACE?$AA@ 5f5943d4     olemisc.obj
 0002:000063e4       ??_C@_0N@OEAO@E_INVALIDARG?$AA@ 5f5943e4     olemisc.obj
 0002:000063f4       ??_C@_0O@EBOJ@E_OUTOFMEMORY?$AA@ 5f5943f4     olemisc.obj
 0002:00006404       ??_C@_09DGOK@E_NOTIMPL?$AA@ 5f594404     olemisc.obj
 0002:00006410       ??_C@_0N@KFCI@E_UNEXPECTED?$AA@ 5f594410     olemisc.obj
 0002:00006420       ??_C@_0BG@GHLI@VIEW_S_ALREADY_FROZEN?$AA@ 5f594420     olemisc.obj
 0002:00006438       ??_C@_0BA@ODMA@STG_S_CONVERTED?$AA@ 5f594438     olemisc.obj
 0002:00006448       ??_C@_0O@LMGC@OLEOBJ_S_LAST?$AA@ 5f594448     olemisc.obj
 0002:00006458       ??_C@_0BF@NEDD@OLEOBJ_S_INVALIDVERB?$AA@ 5f594458     olemisc.obj
 0002:00006470       ??_C@_0BF@ILAM@OLEOBJ_S_INVALIDHWND?$AA@ 5f594470     olemisc.obj
 0002:00006488       ??_C@_0BL@PKNP@OLEOBJ_S_CANNOT_DOVERB_NOW?$AA@ 5f594488     olemisc.obj
 0002:000064a4       ??_C@_0N@KKEF@OLE_S_USEREG?$AA@ 5f5944a4     olemisc.obj
 0002:000064b4       ??_C@_0N@ILOC@OLE_S_STATIC?$AA@ 5f5944b4     olemisc.obj
 0002:000064c4       ??_C@_0BF@NFAK@OLE_S_MAC_CLIPFORMAT?$AA@ 5f5944c4     olemisc.obj
 0002:000064dc       ??_C@_07MPHM@MK_S_US?$AA@  5f5944dc     olemisc.obj
 0002:000064e4       ??_C@_0BF@JEJH@MK_S_REDUCED_TO_SELF?$AA@ 5f5944e4     olemisc.obj
 0002:000064fc       ??_C@_0BO@JADJ@MK_S_MONIKERALREADYREGISTERED?$AA@ 5f5944fc     olemisc.obj
 0002:0000651c       ??_C@_07EGID@MK_S_ME?$AA@  5f59451c     olemisc.obj
 0002:00006524       ??_C@_08CAEH@MK_S_HIM?$AA@ 5f594524     olemisc.obj
 0002:00006530       ??_C@_0BE@DPEC@INPLACE_S_TRUNCATED?$AA@ 5f594530     olemisc.obj
 0002:00006544       ??_C@_0BN@CANI@DRAGDROP_S_USEDEFAULTCURSORS?$AA@ 5f594544     olemisc.obj
 0002:00006564       ??_C@_0BA@HKCB@DRAGDROP_S_DROP?$AA@ 5f594564     olemisc.obj
 0002:00006574       ??_C@_0BC@LMCE@DRAGDROP_S_CANCEL?$AA@ 5f594574     olemisc.obj
 0002:00006588       ??_C@_0BF@LEIP@DATA_S_SAMEFORMATETC?$AA@ 5f594588     olemisc.obj
 0002:000065a0       ??_C@_0BM@OOOI@CONVERT10_S_NO_PRESENTATION?$AA@ 5f5945a0     olemisc.obj
 0002:000065bc       ??_C@_0BO@HNEP@CACHE_S_SOMECACHES_NOTUPDATED?$AA@ 5f5945bc     olemisc.obj
 0002:000065dc       ??_C@_0BC@NMDD@CACHE_S_SAMECACHE?$AA@ 5f5945dc     olemisc.obj
 0002:000065f0       ??_C@_0BP@BLBM@CACHE_S_FORMATETC_NOTSUPPORTED?$AA@ 5f5945f0     olemisc.obj
 0002:00006610       ??_C@_07PDAH@S_FALSE?$AA@  5f594610     olemisc.obj
 0002:00006618       ??_C@_04JECD@S_OK?$AA@     5f594618     olemisc.obj
 0002:00006620       ??_C@_0BD@HIFJ@?$DMUnknown?5Facility?$DO?$AA@ 5f594620     olemisc.obj
 0002:00006634       ??_C@_0CE@IEAA@severity?3?5?$CFs?0?5facility?3?5?$CFs?5?$CI$?$CF08@ 5f594634     olemisc.obj
 0002:00006658       ??_C@_0BD@BOCN@range?3?5?$CFs?5?$CI$?$CF08lX?$CJ?$AA@ 5f594658     olemisc.obj
 0002:0000666c       ??_C@_0M@HCJP@?$CFs?5?$CI$?$CF08lX?$CJ?$AA@ 5f59466c     olemisc.obj
 0002:00006678       ??_C@_0DC@MCGB@Warning?3?5constructing?5COleExcept@ 5f594678     olemisc.obj
 0002:000066ac       ??_C@_0BA@DNCN@lpDevModeW?5?$CB?$DN?50?$AA@ 5f5946ac     olemisc.obj
 0002:000066bc       ??_C@_07LGIJ@DISPLAY?$AA@  5f5946bc     olemisc.obj
 0002:000066c4       ??_C@_0BA@BKOP@lpDevModeA?5?$CB?$DN?50?$AA@ 5f5946c4     olemisc.obj
 0002:000066d8       ?classCOleStreamFile@COleStreamFile@@2UCRuntimeClass@@B 5f5946d8     olestrm.obj
 0002:000066f0       ??_C@_0P@CGBG@COleStreamFile?$AA@ 5f5946f0     olestrm.obj
 0002:00006704       ??_7COleStreamFile@@6B@    5f594704     olestrm.obj
 0002:00006764       ??_C@_02PJJB@?$CC?6?$AA@   5f594764     olestrm.obj
 0002:00006768       ??_C@_0BF@MCAF@m_strStorageName?5?$DN?5?$CC?$AA@ 5f594768     olestrm.obj
 0002:00006780       ??_C@_0O@MEPH@m_lpStream?5?$DN?5?$AA@ 5f594780     olestrm.obj
 0002:00006790       ?classCOleServerDoc@COleServerDoc@@2UCRuntimeClass@@B 5f594790     olesvr1.obj
 0002:000067a8       ??_C@_0O@ELE@COleServerDoc?$AA@ 5f5947a8     olesvr1.obj
 0002:000067b8       ?interfaceMap@COleServerDoc@@1UAFX_INTERFACEMAP@@B 5f5947b8     olesvr1.obj
 0002:000067c0       ?_interfaceEntries@COleServerDoc@@0QBUAFX_INTERFACEMAP_ENTRY@@B 5f5947c0     olesvr1.obj
 0002:000067f8       ?messageMap@COleServerDoc@@1UAFX_MSGMAP@@B 5f5947f8     olesvr1.obj
 0002:00006800       ?_messageEntries@COleServerDoc@@0QBUAFX_MSGMAP_ENTRY@@B 5f594800     olesvr1.obj
 0002:0000687c       ??_7COleServerDoc@@6B@     5f59487c     olesvr1.obj
 0002:000069c8       ??_7XPersistStorage@COleServerDoc@@6B@ 5f5949c8     olesvr1.obj
 0002:000069f4       ??_7XOleObject@COleServerDoc@@6B@ 5f5949f4     olesvr1.obj
 0002:00006a58       ??_7XDataObject@COleServerDoc@@6B@ 5f594a58     olesvr1.obj
 0002:00006a8c       ??_7XOleInPlaceObject@COleServerDoc@@6B@ 5f594a8c     olesvr1.obj
 0002:00006ab4       ??_7XOleInPlaceActiveObject@COleServerDoc@@6B@ 5f594ab4     olesvr1.obj
 0002:00006adc       ??_C@_0DN@OECB@Warning?3?5zero?5?8zoom?5denominator?8@ 5f594adc     olesvr1.obj
 0002:00006b1c       ??_C@_0BM@MODF@?7failed?5to?5find?5item?5?8?$CFs?8?4?6?$AA@ 5f594b1c     olesvr1.obj
 0002:00006b38       ??_C@_0EA@NLBA@Warning?3?5default?5COleServerDoc?3?3@ 5f594b38     olesvr1.obj
 0002:00006b78       ??_C@_0CN@CBGM@Warning?3?5OnUpdateDocument?5failed@ 5f594b78     olesvr1.obj
 0002:00006ba8       ??_C@_0BC@JDAG@?6m_dwOrigStyle?5?$DN?5?$AA@ 5f594ba8     olesvr1.obj
 0002:00006bbc       ??_C@_0BD@IBCE@?6m_bCntrVisible?5?$DN?5?$AA@ 5f594bbc     olesvr1.obj
 0002:00006bd0       ??_C@_0BB@HMNG@?6m_strHostObj?5?$DN?5?$AA@ 5f594bd0     olesvr1.obj
 0002:00006be4       ??_C@_0BC@JBGM@m_lpClientSite?5?$DN?5?$AA@ 5f594be4     olesvr1.obj
 0002:00006bf8       ??_C@_0BJ@FFMJ@with?5no?5original?5parent?6?$AA@ 5f594bf8     olesvr1.obj
 0002:00006c14       ??_C@_0BI@GHAM@?6with?5original?5parent?3?5?$AA@ 5f594c14     olesvr1.obj
 0002:00006c2c       ??_C@_0BJ@CNKJ@?6with?5no?5in?9place?5frame?6?$AA@ 5f594c2c     olesvr1.obj
 0002:00006c48       ??_C@_0BH@HIOP@?6with?5in?9place?5frame?3?5?$AA@ 5f594c48     olesvr1.obj
 0002:00006c60       ?interfaceMap@COleServerItem@@1UAFX_INTERFACEMAP@@B 5f594c60     olesvr2.obj
 0002:00006c68       ?_interfaceEntries@COleServerItem@@0QBUAFX_INTERFACEMAP_ENTRY@@B 5f594c68     olesvr2.obj
 0002:00006c84       ??_7COleServerItem@@6B@    5f594c84     olesvr2.obj
 0002:00006d34       ??_7CItemDataSource@COleServerItem@@6B@ 5f594d34     olesvr2.obj
 0002:00006da0       ??_7XOleObject@COleServerItem@@6B@ 5f594da0     olesvr2.obj
 0002:00006e04       ??_7XDataObject@COleServerItem@@6B@ 5f594e04     olesvr2.obj
 0002:00006e34       ??_C@_0CO@KIPM@?7will?5not?5work?5with?5some?5apps?5li@ 5f594e34     olesvr2.obj
 0002:00006e64       ??_C@_0DA@CODI@Warning?3?5COleServerItem?5has?5no?5n@ 5f594e64     olesvr2.obj
 0002:00006e94       ??_C@_0CN@ELPE@Warning?3?5HIMETRIC?5natural?5size?5i@ 5f594e94     olesvr2.obj
 0002:00006ec4       ??_C@_0CN@HMAH@?7presentation?5metafile?5may?5be?5ba@ 5f594ec4     olesvr2.obj
 0002:00006ef4       ??_C@_0DA@GLHD@Warning?3?5OnGetExtent?5failed?5duri@ 5f594ef4     olesvr2.obj
 0002:00006f24       ??_C@_0CL@FNJD@calling?5COleServerItem?3?3OnDrawEx@ 5f594f24     olesvr2.obj
 0002:00006f50       ??_C@_0CM@KOCB@Warning?3?5unable?5to?5get?5moniker?5f@ 5f594f50     olesvr2.obj
 0002:00006f7c       ??_C@_0BF@OOCM@?6with?5m_dataSource?3?5?$AA@ 5f594f7c     olesvr2.obj
 0002:00006f94       ??_C@_0BJ@NNND@?6m_lpDataAdviseHolder?5?$DN?5?$AA@ 5f594f94     olesvr2.obj
 0002:00006fb0       ??_C@_0BI@EGAL@?6m_lpOleAdviseHolder?5?$DN?5?$AA@ 5f594fb0     olesvr2.obj
 0002:00006fc8       ??_C@_0BC@MFJM@?6m_strItemName?5?$DN?5?$AA@ 5f594fc8     olesvr2.obj
 0002:00006fdc       ??_C@_0BC@BDB@?6m_bAutoDelete?5?$DN?5?$AA@ 5f594fdc     olesvr2.obj
 0002:00006ff0       ??_C@_0BB@GJMC@m_bNeedUnlock?5?$DN?5?$AA@ 5f594ff0     olesvr2.obj
 0002:00007398       ??_C@_02MECO@?$CFd?$AA@    5f595398     olereg.obj
 0002:0000739c       ??_C@_0EA@JDBP@Warning?3?5StringFromCLSID?5failed?5@ 5f59539c     olereg.obj
 0002:000073dc       ??_C@_02EEIP@?4?$CK?$AA@   5f5953dc     olereg.obj
 0002:000073e0       ??_C@_0CD@JLBC@Warning?3?5skipping?5empty?5key?5?8?$CFs?8@ 5f5953e0     olereg.obj
 0002:00007404       ??_C@_0CP@ECBG@Error?3?5failed?5setting?5key?5?8?$CFs?8?5t@ 5f595404     olereg.obj
 0002:00007434       ??_C@_0BL@FDON@?7intended?5value?5was?5?8?$CFs?8?4?6?$AA@ 5f595434     olereg.obj
 0002:00007450       ??_C@_0DG@LPNG@Warning?3?5Leaving?5value?5?8?$CFs?8?5for?5@ 5f595450     olereg.obj
 0002:0000748c       ??_7COleTemplateServer@@6B@ 5f59548c     oletsvr.obj
 0002:00007500       ??_C@_0EI@FPDN@Error?3?5not?5enough?5information?5in@ 5f595500     oletsvr.obj
 0002:00007548       ??_C@_0EG@GJJP@Error?3?5not?5enough?5information?5in@ 5f595548     oletsvr.obj
 0002:000077f0       ??_C@_08KIPN@IID_NULL?$AA@ 5f5957f0     oleunk.obj
 0002:000077fc       ??_C@_0BB@GJDL@IID_IViewObject2?$AA@ 5f5957fc     oleunk.obj
 0002:00007810       ??_C@_0BA@IFJI@IID_IViewObject?$AA@ 5f595810     oleunk.obj
 0002:00007820       ??_C@_0N@LBDP@IID_IUnknown?$AA@ 5f595820     oleunk.obj
 0002:00007830       ??_C@_0BB@LCAG@IID_IStubManager?$AA@ 5f595830     oleunk.obj
 0002:00007844       ??_C@_0M@LNGD@IID_IStream?$AA@ 5f595844     oleunk.obj
 0002:00007850       ??_C@_0N@FNAH@IID_IStorage?$AA@ 5f595850     oleunk.obj
 0002:00007860       ??_C@_0BE@PIN@IID_IStdMarshalInfo?$AA@ 5f595860     oleunk.obj
 0002:00007874       ??_C@_0BI@NGAL@IID_IRunningObjectTable?$AA@ 5f595874     oleunk.obj
 0002:0000788c       ??_C@_0BE@JDJL@IID_IRunnableObject?$AA@ 5f59588c     oleunk.obj
 0002:000078a0       ??_C@_0N@CIC@IID_IRpcStub?$AA@ 5f5958a0     oleunk.obj
 0002:000078b0       ??_C@_0O@IJKE@IID_IRpcProxy?$AA@ 5f5958b0     oleunk.obj
 0002:000078c0       ??_C@_0BA@LKLP@IID_IRpcChannel?$AA@ 5f5958c0     oleunk.obj
 0002:000078d0       ??_C@_0BB@IOEJ@IID_IRootStorage?$AA@ 5f5958d0     oleunk.obj
 0002:000078e4       ??_C@_0BC@JDHA@IID_IProxyManager?$AA@ 5f5958e4     oleunk.obj
 0002:000078f8       ??_C@_0BD@DEIH@IID_IPersistStream?$AA@ 5f5958f8     oleunk.obj
 0002:0000790c       ??_C@_0BE@EKIO@IID_IPersistStorage?$AA@ 5f59590c     oleunk.obj
 0002:00007920       ??_C@_0BB@FCIP@IID_IPersistFile?$AA@ 5f595920     oleunk.obj
 0002:00007934       ??_C@_0N@EENH@IID_IPersist?$AA@ 5f595934     oleunk.obj
 0002:00007944       ??_C@_0BG@DMGB@IID_IParseDisplayName?$AA@ 5f595944     oleunk.obj
 0002:0000795c       ??_C@_0P@HPIB@IID_IPSFactory?$AA@ 5f59595c     oleunk.obj
 0002:0000796c       ??_C@_0P@CADM@IID_IOleWindow?$AA@ 5f59596c     oleunk.obj
 0002:0000797c       ??_C@_0BA@IADL@IID_IOlePresObj?$AA@ 5f59597c     oleunk.obj
 0002:0000798c       ??_C@_0P@OBGD@IID_IOleObject?$AA@ 5f59598c     oleunk.obj
 0002:0000799c       ??_C@_0BA@NNNA@IID_IOleManager?$AA@ 5f59599c     oleunk.obj
 0002:000079ac       ??_C@_0N@FOFL@IID_IOleLink?$AA@ 5f5959ac     oleunk.obj
 0002:000079bc       ??_C@_0BG@PBDH@IID_IOleItemContainer?$AA@ 5f5959bc     oleunk.obj
 0002:000079d4       ??_C@_0BI@OLNG@IID_IOleInPlaceUIWindow?$AA@ 5f5959d4     oleunk.obj
 0002:000079ec       ??_C@_0BE@OJME@IID_IOleInPlaceSite?$AA@ 5f5959ec     oleunk.obj
 0002:00007a00       ??_C@_0BG@JKFN@IID_IOleInPlaceObject?$AA@ 5f595a00     oleunk.obj
 0002:00007a18       ??_C@_0BF@IJNC@IID_IOleInPlaceFrame?$AA@ 5f595a18     oleunk.obj
 0002:00007a30       ??_C@_0BM@BGLO@IID_IOleInPlaceActiveObject?$AA@ 5f595a30     oleunk.obj
 0002:00007a4c       ??_C@_0BC@HLPG@IID_IOleContainer?$AA@ 5f595a4c     oleunk.obj
 0002:00007a60       ??_C@_0BD@NOBJ@IID_IOleClientSite?$AA@ 5f595a60     oleunk.obj
 0002:00007a74       ??_C@_0BF@MLIB@IID_IOleCacheControl?$AA@ 5f595a74     oleunk.obj
 0002:00007a8c       ??_C@_0P@FCPL@IID_IOleCache2?$AA@ 5f595a8c     oleunk.obj
 0002:00007a9c       ??_C@_0O@EFPD@IID_IOleCache?$AA@ 5f595a9c     oleunk.obj
 0002:00007aac       ??_C@_0BF@NNC@IID_IOleAdviseHolder?$AA@ 5f595aac     oleunk.obj
 0002:00007ac4       ??_C@_0N@DLFE@IID_IMoniker?$AA@ 5f595ac4     oleunk.obj
 0002:00007ad4       ??_C@_0BD@LLPF@IID_IMessageFilter?$AA@ 5f595ad4     oleunk.obj
 0002:00007ae8       ??_C@_0N@PDEB@IID_IMarshal?$AA@ 5f595ae8     oleunk.obj
 0002:00007af8       ??_C@_0M@BONK@IID_IMalloc?$AA@ 5f595af8     oleunk.obj
 0002:00007b04       ??_C@_0P@BFCK@IID_ILockBytes?$AA@ 5f595b04     oleunk.obj
 0002:00007b14       ??_C@_0BF@DHJA@IID_IInternalMoniker?$AA@ 5f595b14     oleunk.obj
 0002:00007b2c       ??_C@_0BB@EEMD@IID_IEnumVARIANT?$AA@ 5f595b2c     oleunk.obj
 0002:00007b40       ??_C@_0BB@OJAA@IID_IEnumUnknown?$AA@ 5f595b40     oleunk.obj
 0002:00007b54       ??_C@_0BA@IPPN@IID_IEnumString?$AA@ 5f595b54     oleunk.obj
 0002:00007b64       ??_C@_0BB@EFJF@IID_IEnumSTATSTG?$AA@ 5f595b64     oleunk.obj
 0002:00007b78       ??_C@_0BC@DOPN@IID_IEnumSTATDATA?$AA@ 5f595b78     oleunk.obj
 0002:00007b8c       ??_C@_0BB@OFCP@IID_IEnumOLEVERB?$AA@ 5f595b8c     oleunk.obj
 0002:00007ba0       ??_C@_0BB@GDGL@IID_IEnumMoniker?$AA@ 5f595ba0     oleunk.obj
 0002:00007bb4       ??_C@_0BA@CILK@IID_IEnumHolder?$AA@ 5f595bb4     oleunk.obj
 0002:00007bc4       ??_C@_0BB@HMKE@IID_IEnumGeneric?$AA@ 5f595bc4     oleunk.obj
 0002:00007bd8       ??_C@_0BD@IOFK@IID_IEnumFORMATETC?$AA@ 5f595bd8     oleunk.obj
 0002:00007bec       ??_C@_0BC@HEGK@IID_IEnumCallback?$AA@ 5f595bec     oleunk.obj
 0002:00007c00       ??_C@_0BA@LAN@IID_IDropTarget?$AA@ 5f595c00     oleunk.obj
 0002:00007c10       ??_C@_0BA@JHBI@IID_IDropSource?$AA@ 5f595c10     oleunk.obj
 0002:00007c20       ??_C@_0O@MMLG@IID_IDispatch?$AA@ 5f595c20     oleunk.obj
 0002:00007c30       ??_C@_0BB@PNNK@IID_IDfReserved3?$AA@ 5f595c30     oleunk.obj
 0002:00007c44       ??_C@_0BB@FHEN@IID_IDfReserved2?$AA@ 5f595c44     oleunk.obj
 0002:00007c58       ??_C@_0BB@KIPE@IID_IDfReserved1?$AA@ 5f595c58     oleunk.obj
 0002:00007c6c       ??_C@_0BB@PMNF@IID_IDebugStream?$AA@ 5f595c6c     oleunk.obj
 0002:00007c80       ??_C@_0L@JGFF@IID_IDebug?$AA@ 5f595c80     oleunk.obj
 0002:00007c8c       ??_C@_0BA@LAJJ@IID_IDataObject?$AA@ 5f595c8c     oleunk.obj
 0002:00007c9c       ??_C@_0BG@GJIF@IID_IDataAdviseHolder?$AA@ 5f595c9c     oleunk.obj
 0002:00007cb4       ??_C@_0L@GPEP@IID_IPrint?$AA@ 5f595cb4     oleunk.obj
 0002:00007cc0       ??_C@_0BF@IDLL@IID_IOleDocumentView?$AA@ 5f595cc0     oleunk.obj
 0002:00007cd8       ??_C@_0BF@LDPM@IID_IOleDocumentSite?$AA@ 5f595cd8     oleunk.obj
 0002:00007cf0       ??_C@_0BB@NKNJ@IID_IOleDocument?$AA@ 5f595cf0     oleunk.obj
 0002:00007d04       ??_C@_0BG@LOJB@IID_IOleCommandTarget?$AA@ 5f595d04     oleunk.obj
 0002:00007d1c       ??_C@_0BK@NIDF@IID_IEnumOleDocumentViews?$AA@ 5f595d1c     oleunk.obj
 0002:00007d38       ??_C@_0BG@HLGF@IID_IContinueCallback?$AA@ 5f595d38     oleunk.obj
 0002:00007d50       ??_C@_0BC@FAJA@IID_IClassFactory?$AA@ 5f595d50     oleunk.obj
 0002:00007d64       ??_C@_0N@MOKO@IID_IBindCtx?$AA@ 5f595d64     oleunk.obj
 0002:00007d74       ??_C@_0BB@LKJN@IID_IAdviseSink2?$AA@ 5f595d74     oleunk.obj
 0002:00007d88       ??_C@_0BA@CDIA@IID_IAdviseSink?$AA@ 5f595d88     oleunk.obj
 0002:00007d98       ??_C@_05GFGM@?$CF2?42X?$AA@ 5f595d98     oleunk.obj
 0002:00007da0       ??_C@_0BD@FJGA@?$CF8?48X?9?$CF4?44X?9?$CF4?44X?9?$AA@ 5f595da0     oleunk.obj
 0002:00007db8       ??_7CInnerUnknown@@6B@     5f595db8     oleunk.obj
 0002:00007dc8       ??_7COleException@@6B@     5f595dc8     oleunk.obj
 0002:00007de8       ?interfaceMap@CEnumOleVerb@@1UAFX_INTERFACEMAP@@B 5f595de8     oleverb.obj
 0002:00007df0       ?_interfaceEntries@CEnumOleVerb@@0QBUAFX_INTERFACEMAP_ENTRY@@B 5f595df0     oleverb.obj
 0002:00007e04       ??_7CEnumOleVerb@@6B@      5f595e04     oleverb.obj
 0002:00007e6c       ??_C@_0P@JAMM@?$DMunknown?5verb?$DO?$AA@ 5f595e6c     oleverb.obj
 0002:00007e80       ?classCRichEditView@CRichEditView@@2UCRuntimeClass@@B 5f595e80     viewrich.obj
 0002:00007e98       ??_C@_0O@OMMG@CRichEditView?$AA@ 5f595e98     viewrich.obj
 0002:00007ea8       ?classCRichEditDoc@CRichEditDoc@@2UCRuntimeClass@@B 5f595ea8     viewrich.obj
 0002:00007ec0       ??_C@_0N@HOLH@CRichEditDoc?$AA@ 5f595ec0     viewrich.obj
 0002:00007ed0       ??_C@_0BC@CJOP@CRichEditCntrItem?$AA@ 5f595ed0     viewrich.obj
 0002:00007ef0       ?interfaceMap@CRichEditView@@1UAFX_INTERFACEMAP@@B 5f595ef0     viewrich.obj
 0002:00007ef8       ?_interfaceEntries@CRichEditView@@0QBUAFX_INTERFACEMAP_ENTRY@@B 5f595ef8     viewrich.obj
 0002:00007f08       ?messageMap@CRichEditView@@1UAFX_MSGMAP@@B 5f595f08     viewrich.obj
 0002:00007f10       ?_messageEntries@CRichEditView@@0QBUAFX_MSGMAP_ENTRY@@B 5f595f10     viewrich.obj
 0002:000081e0       ??_C@_0BE@OBBF@commdlg_FindReplace?$AA@ 5f5961e0     viewrich.obj
 0002:000081f8       ??_7CRichEditView@@6B@     5f5961f8     viewrich.obj
 0002:00008334       ??_C@_08LOAO@RICHEDIT?$AA@ 5f596334     viewrich.obj
 0002:00008344       ??_7XRichEditOleCallback@CRichEditView@@6B@ 5f596344     viewrich.obj
 0002:0000837c       ??_7IRichEditOleCallback@@6B@ 5f59637c     viewrich.obj
 0002:000083b0       ??_C@_0BB@CEKL@End?5of?5Document?6?$AA@ 5f5963b0     viewrich.obj
 0002:000083c4       ??_C@_02MMHC@?6?$AN?$AA@   5f5963c4     viewrich.obj
 0002:000083c8       ??_C@_09EHNL@?6bNext?5?$DN?5?$AA@ 5f5963c8     viewrich.obj
 0002:000083d4       ??_C@_09GGLJ@?6bWord?5?$DN?5?$AA@ 5f5963d4     viewrich.obj
 0002:000083e0       ??_C@_09GAAD@?6bCase?5?$DN?5?$AA@ 5f5963e0     viewrich.obj
 0002:000083ec       ??_C@_0P@HKAL@?6strReplace?5?$DN?5?$AA@ 5f5963ec     viewrich.obj
 0002:000083fc       ??_C@_0M@FIBA@?6strFind?5?$DN?5?$AA@ 5f5963fc     viewrich.obj
 0002:00008408       ??_C@_0O@BAGE@?6bFindOnly?5?$DN?5?$AA@ 5f596408     viewrich.obj
 0002:00008418       ??_C@_0BE@BDLE@?6pFindReplaceDlg?5?$DN?5?$AA@ 5f596418     viewrich.obj
 0002:0000842c       ??_C@_0BG@LJPA@?6?5Static?5Member?5Data?3?$AA@ 5f59642c     viewrich.obj
 0002:00008444       ??_C@_0P@POCL@?6m_aPageStart?5?$AA@ 5f596444     viewrich.obj
 0002:00008458       ??_7CRichEditDoc@@6B@      5f596458     viewrich.obj
 0002:000085ac       ??_7CRichEditCntrItem@@6B@ 5f5965ac     viewrich.obj
 0002:00008698       ??_7_AFX_RICHEDIT_STATE@@6B@ 5f596698     viewrich.obj
 0002:0000869c       ??_C@_0CJ@KOGB@Info?3?5AfxDllCanUnloadNow?5returni@ 5f59669c     oledll.obj
 0002:000086cc       ??_7CTypeLibCacheMap@@6B@  5f5966cc     oletyplb.obj
 0002:000086e8       ?classCMonikerFile@CMonikerFile@@2UCRuntimeClass@@B 5f5966e8     olemon.obj
 0002:00008700       ??_C@_0N@CIKC@CMonikerFile?$AA@ 5f596700     olemon.obj
 0002:00008714       ??_7CMonikerFile@@6B@      5f596714     olemon.obj
 0002:0000878c       ??_7_AfxBindHost@@6B@      5f59678c     olemon.obj
 0002:000087a8       ??_7IBindHost@@6B@         5f5967a8     olemon.obj
 0002:000087c0       ??_C@_0O@KOAJ@?6m_Moniker?5?$DN?5?$AA@ 5f5967c0     olemon.obj
 0002:000087d0       ??_C@_0CH@DDEF@E?3?28665?2vc98?2mfc?2mfc?2include?2afx@ 5f5967d0     olemon.obj
 0002:000087f8       ?classCMonthCalCtrl@CMonthCalCtrl@@2UCRuntimeClass@@B 5f5967f8     winctrl5.obj
 0002:00008810       ??_C@_0O@MIA@CMonthCalCtrl?$AA@ 5f596810     winctrl5.obj
 0002:00008820       ?classCDateTimeCtrl@CDateTimeCtrl@@2UCRuntimeClass@@B 5f596820     winctrl5.obj
 0002:00008838       ??_C@_0O@BJFB@CDateTimeCtrl?$AA@ 5f596838     winctrl5.obj
 0002:00008858       ??_C@_0BC@GKLI@SysDateTimePick32?$AA@ 5f596858     winctrl5.obj
 0002:00008870       ??_7CDateTimeCtrl@@6B@     5f596870     winctrl5.obj
 0002:00008930       ??_C@_0O@NFNC@SysMonthCal32?$AA@ 5f596930     winctrl5.obj
 0002:00008944       ??_7CMonthCalCtrl@@6B@     5f596944     winctrl5.obj
 0002:00008a04       ??_C@_0EA@ILLA@Warning?3?5initial?5dialog?5data?5is?5@ 5f596a04     winctrl5.obj
 0002:00008a48       ?classCHtmlView@CHtmlView@@2UCRuntimeClass@@B 5f596a48     viewhtml.obj
 0002:00008a60       ??_C@_09GHGJ@CHtmlView?$AA@ 5f596a60     viewhtml.obj
 0002:00008a70       ?eventsinkMap@CHtmlView@@1UAFX_EVENTSINKMAP@@B 5f596a70     viewhtml.obj
 0002:00008a80       ?_eventsinkEntries@CHtmlView@@0QBUAFX_EVENTSINKMAP_ENTRY@@B 5f596a80     viewhtml.obj
 0002:00008d78       ??_C@_01KLAB@?$AL?$AA@     5f596d78     viewhtml.obj
 0002:00008d7c       ??_C@_02HJK@IK?$AA@        5f596d7c     viewhtml.obj
 0002:00008d80       ??_C@_07LMNJ@?7LLLLLK?$AA@ 5f596d80     viewhtml.obj
 0002:00008d88       ??_C@_02PINK@?7L?$AA@      5f596d88     viewhtml.obj
 0002:00008d8c       ??_C@_02JAPO@?$AD?$AL?$AA@ 5f596d8c     viewhtml.obj
 0002:00008d90       ??_C@_02MEEG@?$AD?$AD?$AA@ 5f596d90     viewhtml.obj
 0002:00008d94       ??_C@_01KLMK@?$AO?$AA@     5f596d94     viewhtml.obj
 0002:00008d98       ?messageMap@CHtmlView@@1UAFX_MSGMAP@@B 5f596d98     viewhtml.obj
 0002:00008da0       ?_messageEntries@CHtmlView@@0QBUAFX_MSGMAP_ENTRY@@B 5f596da0     viewhtml.obj
 0002:00008e1c       ??_7CHtmlView@@6B@         5f596e1c     viewhtml.obj
 0002:00008f80       ??_C@_0M@PCJJ@res?3?1?1?$CFs?1?$CFs?$AA@ 5f596f80     viewhtml.obj
 0002:00008f8c       ??_C@_0M@OAM@res?3?1?1?$CFs?1?$CFd?$AA@ 5f596f8c     viewhtml.obj
 0002:00008f98       ??_C@_0DM@FLMO@Dialog?5has?5OLE?5controls?0?5but?5no?5@ 5f596f98     occmgr.obj
 0002:00008fd4       ??_C@_0DG@GNMC@DLGINIT?5resource?5was?5found?0?5but?5@ 5f596fd4     occmgr.obj
 0002:0000900c       ??_C@_0CJ@GM@?$DO?$DO?$DO?5Is?5the?5control?5properly?5regi@ 5f59700c     occmgr.obj
 0002:00009038       ??_C@_0BK@BFDM@?$DO?$DO?$DO?5Result?5code?3?50x?$CF08lx?6?$AA@ 5f597038     occmgr.obj
 0002:00009054       ??_C@_0CI@LMIH@Unable?5to?5convert?5?$CC?$CFls?$CC?5to?5a?5cla@ 5f597054     occmgr.obj
 0002:0000907c       ??_C@_0DA@GCFP@Error?3?5no?5data?5exchange?5control?5@ 5f59707c     occmgr.obj
 0002:000090b0       ??_7COccManager@@6B@       5f5970b0     occmgr.obj
 0002:000090d8       ?interfaceMap@CEnumUnknown@@1UAFX_INTERFACEMAP@@B 5f5970d8     occcont.obj
 0002:000090e0       ?_interfaceEntries@CEnumUnknown@@0QBUAFX_INTERFACEMAP_ENTRY@@B 5f5970e0     occcont.obj
 0002:000090f0       ?dispatchMap@COleControlContainer@@1UAFX_DISPMAP@@B 5f5970f0     occcont.obj
 0002:00009100       ?_dispatchEntries@COleControlContainer@@0QBUAFX_DISPMAP_ENTRY@@B 5f597100     occcont.obj
 0002:00009120       ?interfaceMap@COleControlContainer@@1UAFX_INTERFACEMAP@@B 5f597120     occcont.obj
 0002:00009128       ?_interfaceEntries@COleControlContainer@@0QBUAFX_INTERFACEMAP_ENTRY@@B 5f597128     occcont.obj
 0002:00009140       ??_C@_0DN@NDMB@?$DO?$DO?$DO?5You?5should?5call?5it?5in?5your?5a@ 5f597140     occcont.obj
 0002:00009180       ??_C@_0DN@PMFD@Warning?3?5AfxEnableControlContain@ 5f597180     occcont.obj
 0002:000091c4       ??_7COleControlContainer@@6B@ 5f5971c4     occcont.obj
 0002:0000925c       ??_7XOleIPFrame@COleControlContainer@@6B@ 5f59725c     occcont.obj
 0002:0000929c       ??_7XOleContainer@COleControlContainer@@6B@ 5f59729c     occcont.obj
 0002:000092b8       ??_7CEnumUnknown@@6B@      5f5972b8     occcont.obj
 0002:00009320       _IID_IDataSourceListener   5f597320     occsite.obj
 0002:00009330       _IID_IDataSource           5f597330     occsite.obj
 0002:00009350       ?_afxAmbients@@3QBU__unnamed@@B 5f597350     occsite.obj
 0002:00009390       ?interfaceMap@COleControlSite@@1UAFX_INTERFACEMAP@@B 5f597390     occsite.obj
 0002:00009398       ?_interfaceEntries@COleControlSite@@0QBUAFX_INTERFACEMAP_ENTRY@@B 5f597398     occsite.obj
 0002:000093d8       _IID_IDCInfo               5f5973d8     occsite.obj
 0002:000093e8       _IID_IDataConvert          5f5973e8     occsite.obj
 0002:000093fc       ??_7COleControlSite@@6B@   5f5973fc     occsite.obj
 0002:000094c8       ??_7XOleClientSite@COleControlSite@@6B@ 5f5974c8     occsite.obj
 0002:000094f0       ??_7XOleIPSite@COleControlSite@@6B@ 5f5974f0     occsite.obj
 0002:00009530       ??_7XOleControlSite@COleControlSite@@6B@ 5f597530     occsite.obj
 0002:0000955c       ??_7XAmbientProps@COleControlSite@@6B@ 5f59755c     occsite.obj
 0002:0000957c       ??_7XPropertyNotifySink@COleControlSite@@6B@ 5f59757c     occsite.obj
 0002:00009594       ??_7XEventSink@COleControlSite@@6B@ 5f597594     occsite.obj
 0002:000095b4       ??_7XBoundObjectSite@COleControlSite@@6B@ 5f5975b4     occsite.obj
 0002:000095c8       ??_7XNotifyDBEvents@COleControlSite@@6B@ 5f5975c8     occsite.obj
 0002:000095f4       ??_7XRowsetNotify@COleControlSite@@6B@ 5f5975f4     occsite.obj
 0002:00009610       ??_7IBoundObjectSite@@6B@  5f597610     occsite.obj
 0002:00009624       ??_7INotifyDBEvents@@6B@   5f597624     occsite.obj
 0002:00009650       ??_7IRowsetNotify@@6B@     5f597650     occsite.obj
 0002:00009668       ??_C@_0EA@KGHC@IOleInPlaceObject?5not?5supported?5@ 5f597668     occsite.obj
 0002:000096a8       ??_C@_0CP@DGPI@Persistence?5not?5supported?5on?5OLE@ 5f5976a8     occsite.obj
 0002:000096d8       ??_C@_0CM@LFKC@InitNew?5or?5Load?5on?5OLE?5control?5?$CF@ 5f5976d8     occsite.obj
 0002:00009704       ??_C@_0CK@HBAC@SetClientSite?5on?5OLE?5control?5?$CFls@ 5f597704     occsite.obj
 0002:00009730       ??_C@_0CM@NHNE@?$DO?$DO?$DO?5Is?5the?5control?5is?5properly?5r@ 5f597730     occsite.obj
 0002:0000975c       ??_C@_0CN@DPNB@CoCreateInstance?5of?5OLE?5control?5@ 5f59775c     occsite.obj
 0002:0000978c       ??_C@_0CN@PLJA@Warning?3?5control?5has?5no?5IDispatc@ 5f59778c     occsite.obj
 0002:000097c0       ??_7CDataSourceControl@@6B@ 5f5977c0     occsite.obj
 0002:000097d8       ??_C@_0BF@GPJA@m_pAccessorInfo?5?$CB?$DN?50?$AA@ 5f5977d8     occsite.obj
 0002:000097f0       ??_C@_0L@DJPI@atldbcli?4h?$AA@ 5f5977f0     occsite.obj
 0002:000097fc       ??_C@_09HJIK@pUnk?5?$CB?$DN?50?$AA@ 5f5977fc     occsite.obj
 0002:00009808       ??_C@_0BF@IFGJ@m_pAccessorInfo?5?$DN?$DN?50?$AA@ 5f597808     occsite.obj
 0002:00009820       ??_C@_0BC@CNEL@m_nAccessors?5?$DN?$DN?50?$AA@ 5f597820     occsite.obj
 0002:00009834       ??_C@_0BA@EFBK@m_spRowset?5?$CB?$DN?50?$AA@ 5f597834     occsite.obj
 0002:00009844       ??_C@_0BB@OJDA@m_pAccessor?5?$CB?$DN?50?$AA@ 5f597844     occsite.obj
 0002:00009858       ??_C@_0CB@CEAB@GetData?5failed?5?9?5HRESULT?5?$DN?50x?$CFX?6@ 5f597858     occsite.obj
 0002:0000987c       ??_C@_05BFMC@ATL?3?5?$AA@  5f59787c     occsite.obj
 0002:00009884       ??_C@_09PLJB@atlbase?4h?$AA@ 5f597884     occsite.obj
 0002:00009890       ??_C@_0BI@CIAH@nBuf?5?$DM?5sizeof?$CIszBuffer?$CJ?$AA@ 5f597890     occsite.obj
 0002:000098a8       ??_C@_0BJ@NICA@nAccessor?5?$DM?5m_nAccessors?$AA@ 5f5978a8     occsite.obj
 0002:000098c4       ??_C@_0M@DLL@m_hRow?5?$CB?$DN?50?$AA@ 5f5978c4     occsite.obj
 0002:000098d0       ??_C@_0BH@DLBO@nAccessor?$DMm_nAccessors?$AA@ 5f5978d0     occsite.obj
 0002:000098e8       ??_C@_0CF@OLLL@Binding?5entry?5?$CFd?5failed?4?5Status?3@ 5f5978e8     occsite.obj
 0002:00009910       ??_C@_0P@NDGD@pAccessor?5?$CB?$DN?50?$AA@ 5f597910     occsite.obj
 0002:00009920       ??_C@_0BA@IMI@pHAccessor?5?$CB?$DN?50?$AA@ 5f597920     occsite.obj
 0002:00009930       ??_C@_0P@PHAP@pBindings?5?$CB?$DN?50?$AA@ 5f597930     occsite.obj
 0002:00009940       ??_C@_0O@JCIO@pBinding?5?$CB?$DN?50?$AA@ 5f597940     occsite.obj
 0002:00009950       ??_C@_0BD@PMHF@m_pColumnInfo?5?$CB?$DN?50?$AA@ 5f597950     occsite.obj
 0002:00009964       ??_C@_0CG@FMPB@Unsupported?5DBTYPE?5?$CI?$CFd?$CJ?5in?5colum@ 5f597964     occsite.obj
 0002:00009990       __real@8@4002a000000000000000 5f597990     occsite.obj
 0002:00009998       ??_C@_0N@CNMG@pStatus?5?$CB?$DN?50?$AA@ 5f597998     occsite.obj
 0002:000099a8       ??_C@_0BG@GDJO@m_nEntry?5?$DM?5m_nColumns?$AA@ 5f5979a8     occsite.obj
 0002:000099c0       ??_C@_04PPJP@p?$DN?$DN0?$AA@ 5f5979c0     occsite.obj
 0002:000099c8       ??_C@_04GBK@p?$CB?$DN0?$AA@ 5f5979c8     occsite.obj
 0002:000099d0       ??_C@_0DF@JBBA@m_pColumnInfo?$FLnColumn?$FN?4ulColumnS@ 5f5979d0     occsite.obj
 0002:00009a08       ??_C@_0L@IMO@pData?5?$CB?$DN?50?$AA@ 5f597a08     occsite.obj
 0002:00009a18       ??_7COleControlLock@@6B@   5f597a18     occlock.obj
 0002:00009a20       ?classCDocObjectServerItem@CDocObjectServerItem@@2UCRuntimeClass@@B 5f597a20     oledocob.obj
 0002:00009a38       ??_C@_0BF@FCEC@CDocObjectServerItem?$AA@ 5f597a38     oledocob.obj
 0002:00009a50       ?interfaceMap@CDocObjectServer@@1UAFX_INTERFACEMAP@@B 5f597a50     oledocob.obj
 0002:00009a58       ?_interfaceEntries@CDocObjectServer@@0QBUAFX_INTERFACEMAP_ENTRY@@B 5f597a58     oledocob.obj
 0002:00009a88       ?messageMap@CDocObjectServer@@1UAFX_MSGMAP@@B 5f597a88     oledocob.obj
 0002:00009a90       ?_messageEntries@CDocObjectServer@@0QBUAFX_MSGMAP_ENTRY@@B 5f597a90     oledocob.obj
 0002:00009aa8       ?classCDocObjectServer@CDocObjectServer@@2UCRuntimeClass@@B 5f597aa8     oledocob.obj
 0002:00009ac0       ??_C@_0BB@ICMG@CDocObjectServer?$AA@ 5f597ac0     oledocob.obj
 0002:00009ad8       ??_7CDocObjectServer@@6B@  5f597ad8     oledocob.obj
 0002:00009b44       ??_7XOleObject@CDocObjectServer@@6B@ 5f597b44     oledocob.obj
 0002:00009ba8       ??_7XOleDocument@CDocObjectServer@@6B@ 5f597ba8     oledocob.obj
 0002:00009bc4       ??_7XOleDocumentView@CDocObjectServer@@6B@ 5f597bc4     oledocob.obj
 0002:00009c08       ??_7XOleCommandTarget@CDocObjectServer@@6B@ 5f597c08     oledocob.obj
 0002:00009c20       ??_7XPrint@CDocObjectServer@@6B@ 5f597c20     oledocob.obj
 0002:00009c38       ??_C@_0DL@MFIO@Error?3?5An?5appropriate?5DocObject?5@ 5f597c38     oledocob.obj
 0002:00009c74       ??_C@_0EB@JHJF@CDocObjectServer?3?3XOleDocument?3?3@ 5f597c74     oledocob.obj
 0002:00009cb8       ??_C@_0P@PBDG@m_pViewSite?5?$DN?5?$AA@ 5f597cb8     oledocob.obj
 0002:00009cc8       ??_C@_0O@KKDN@m_pDocSite?5?$DN?5?$AA@ 5f597cc8     oledocob.obj
 0002:00009cdc       ??_7CDocObjectServerItem@@6B@ 5f597cdc     oledocob.obj
 0002:00009d8c       ??_7COleCmdUI@@6B@         5f597d8c     oledoctg.obj
 0002:00009da0       ??_C@_0EH@PLND@Warning?3?5IOleCommandTarget?3?3Exec@ 5f597da0     oledoctg.obj
 0002:00009de8       ?messageMap@COleDocIPFrameWnd@@1UAFX_MSGMAP@@B 5f597de8     oledocip.obj
 0002:00009df0       ?_messageEntries@COleDocIPFrameWnd@@0QBUAFX_MSGMAP_ENTRY@@B 5f597df0     oledocip.obj
 0002:00009e08       ?classCOleDocIPFrameWnd@COleDocIPFrameWnd@@2UCRuntimeClass@@B 5f597e08     oledocip.obj
 0002:00009e20       ??_C@_0BC@DHMK@COleDocIPFrameWnd?$AA@ 5f597e20     oledocip.obj
 0002:00009e38       ??_7COleDocIPFrameWnd@@6B@ 5f597e38     oledocip.obj
 0002:00009f58       ?interfaceMap@COleDocObjectItem@@1UAFX_INTERFACEMAP@@B 5f597f58     oledoccl.obj
 0002:00009f60       ?_interfaceEntries@COleDocObjectItem@@0QBUAFX_INTERFACEMAP_ENTRY@@B 5f597f60     oledoccl.obj
 0002:00009f70       ?classCOleDocObjectItem@COleDocObjectItem@@2UCRuntimeClass@@B 5f597f70     oledoccl.obj
 0002:00009f88       ??_C@_0BC@ODBE@COleDocObjectItem?$AA@ 5f597f88     oledoccl.obj
 0002:00009fa0       ??_7COleDocObjectItem@@6B@ 5f597fa0     oledoccl.obj
 0002:0000a090       ??_7XOleDocumentSite@COleDocObjectItem@@6B@ 5f598090     oledoccl.obj
 0002:0000a0a0       ??_C@_05JKGE@?$CFs?5?$CFs?$AA@ 5f5980a0     oledoccl.obj
 0002:0000a0a8       ??_C@_0DP@FKOC@Error?3?5COleDocObjectItem?3?3OnInse@ 5f5980a8     oledoccl.obj
 0002:0000a0e8       ??_C@_0CK@IGIM@IOleCommandTarget?3?3Exec?$CI?$CJ?5return@ 5f5980e8     oledoccl.obj
 0002:0000a114       ??_C@_0CA@HODD@IPrint?3?3Print?$CI?$CJ?5returned?5?$CF8?48X?6?$AA@ 5f598114     oledoccl.obj
 0002:0000a138       ?classCAsyncMonikerFile@CAsyncMonikerFile@@2UCRuntimeClass@@B 5f598138     oleasmon.obj
 0002:0000a150       ??_C@_0BC@OCAO@CAsyncMonikerFile?$AA@ 5f598150     oleasmon.obj
 0002:0000a168       ??_7CAsyncMonikerFile@@6B@ 5f598168     oleasmon.obj
 0002:0000a218       ??_7_AfxBindStatusCallback@@6B@ 5f598218     oleasmon.obj
 0002:0000a248       ??_7CInnerUnknown@_AfxBindStatusCallback@@6B@ 5f598248     oleasmon.obj
 0002:0000a258       ??_7IBindStatusCallback@@6B@ 5f598258     oleasmon.obj
 0002:0000a284       ??_C@_0CH@MDKP@?6m_pAfxBSCCurrent?9?$DOGetModuleStat@ 5f598284     oleasmon.obj
 0002:0000a2ac       ??_C@_0CP@JLPE@?6m_pAfxBSCCurrent?9?$DOGetpThisOfInn@ 5f5982ac     oleasmon.obj
 0002:0000a2dc       ??_C@_0CI@DKMD@?6m_pAfxBSCCurrent?9?$DOGetInnerUnkno@ 5f5982dc     oleasmon.obj
 0002:0000a304       ??_C@_0CO@OBDK@?6m_pAfxBSCCurrent?9?$DOGetControllin@ 5f598304     oleasmon.obj
 0002:0000a334       ??_C@_0CE@CFCF@?6m_pAfxBSCCurrent?9?$DOGetRefcount?$CI?$CJ@ 5f598334     oleasmon.obj
 0002:0000a358       ??_C@_0CB@HOPK@?6m_pAfxBSCCurrent?9?$DOGetOwner?$CI?$CJ?5?$DN?5@ 5f598358     oleasmon.obj
 0002:0000a37c       ??_C@_0BF@HPLG@?6m_pAfxBSCCurrent?5?$DN?5?$AA@ 5f59837c     oleasmon.obj
 0002:0000a394       ??_C@_0BB@DDKI@?6m_pFormatEtc?5?$DN?5?$AA@ 5f598394     oleasmon.obj
 0002:0000a3a8       ??_C@_0O@DNLE@?6m_Binding?5?$DN?5?$AA@ 5f5983a8     oleasmon.obj
 0002:0000a3b8       ?classCOleResizeBar@COleResizeBar@@2UCRuntimeClass@@B 5f5983b8     olebar.obj
 0002:0000a3d0       ??_C@_0O@BGCL@COleResizeBar?$AA@ 5f5983d0     olebar.obj
 0002:0000a3e0       ?messageMap@COleResizeBar@@1UAFX_MSGMAP@@B 5f5983e0     olebar.obj
 0002:0000a3e8       ?_messageEntries@COleResizeBar@@0QBUAFX_MSGMAP_ENTRY@@B 5f5983e8     olebar.obj
 0002:0000a494       ??_7COleResizeBar@@6B@     5f598494     olebar.obj
 0002:0000a57c       ??_C@_0BB@LGBH@AfxControlBar42d?$AA@ 5f59857c     olebar.obj
 0002:0000a590       ?classCOleControl@COleControl@@2UCRuntimeClass@@B 5f598590     ctlcore.obj
 0002:0000a5a8       ??_C@_0M@EGDG@COleControl?$AA@ 5f5985a8     ctlcore.obj
 0002:0000a5b8       ?messageMap@COleControl@@1UAFX_MSGMAP@@B 5f5985b8     ctlcore.obj
 0002:0000a5c0       ?_messageEntries@COleControl@@0QBUAFX_MSGMAP_ENTRY@@B 5f5985c0     ctlcore.obj
 0002:0000aa10       ?eventMap@COleControl@@1UAFX_EVENTMAP@@B 5f598a10     ctlcore.obj
 0002:0000aa20       ?interfaceMap@COleControl@@1UAFX_INTERFACEMAP@@B 5f598a20     ctlcore.obj
 0002:0000aa28       ?_interfaceEntries@COleControl@@0QBUAFX_INTERFACEMAP_ENTRY@@B 5f598a28     ctlcore.obj
 0002:0000aae4       ??_7COleControl@@6B@       5f598ae4     ctlcore.obj
 0002:0000ace0       ??_7XPersistStorage@COleControl@@6B@ 5f598ce0     ctlcore.obj
 0002:0000ad0c       ??_7XPersistStreamInit@COleControl@@6B@ 5f598d0c     ctlcore.obj
 0002:0000ad34       ??_7XPersistMemory@COleControl@@6B@ 5f598d34     ctlcore.obj
 0002:0000ad5c       ??_7XPersistPropertyBag@COleControl@@6B@ 5f598d5c     ctlcore.obj
 0002:0000ad7c       ??_7XOleObject@COleControl@@6B@ 5f598d7c     ctlcore.obj
 0002:0000ade0       ??_7XViewObject@COleControl@@6B@ 5f598de0     ctlcore.obj
 0002:0000ae20       ??_7XDataObject@COleControl@@6B@ 5f598e20     ctlcore.obj
 0002:0000ae54       ??_7XOleInPlaceObject@COleControl@@6B@ 5f598e54     ctlcore.obj
 0002:0000ae84       ??_7XOleInPlaceActiveObject@COleControl@@6B@ 5f598e84     ctlcore.obj
 0002:0000aeb0       ??_7XOleCache@COleControl@@6B@ 5f598eb0     ctlcore.obj
 0002:0000aed4       ??_7XOleControl@COleControl@@6B@ 5f598ed4     ctlcore.obj
 0002:0000aef4       ??_7XProvideClassInfo@COleControl@@6B@ 5f598ef4     ctlcore.obj
 0002:0000af0c       ??_7XSpecifyPropertyPages@COleControl@@6B@ 5f598f0c     ctlcore.obj
 0002:0000af20       ??_7XPerPropertyBrowsing@COleControl@@6B@ 5f598f20     ctlcore.obj
 0002:0000af40       ??_7XFontNotification@COleControl@@6B@ 5f598f40     ctlcore.obj
 0002:0000af58       ??_7XQuickActivate@COleControl@@6B@ 5f598f58     ctlcore.obj
 0002:0000af74       ??_7XPointerInactive@COleControl@@6B@ 5f598f74     ctlcore.obj
 0002:0000af8c       ??_C@_06NEML@?$CINULL?$CJ?$AA@ 5f598f8c     ctlcore.obj
 0002:0000af94       ??_C@_07KCHC@0x?$CF08lx?$AA@ 5f598f94     ctlcore.obj
 0002:0000af9c       ??_C@_0O@GJBD@?6m_bUIDead?5?$DN?5?$AA@ 5f598f9c     ctlcore.obj
 0002:0000afac       ??_C@_0BD@FKID@?6m_bSimpleFrame?5?$DN?5?$AA@ 5f598fac     ctlcore.obj
 0002:0000afc0       ??_C@_0BC@HCBP@?6m_bConvertVBX?5?$DN?5?$AA@ 5f598fc0     ctlcore.obj
 0002:0000afd4       ??_C@_0BG@DGPF@?6m_bChangingExtent?5?$DN?5?$AA@ 5f598fd4     ctlcore.obj
 0002:0000afec       ??_C@_0M@NMDE@?6m_bOpen?5?$DN?5?$AA@ 5f598fec     ctlcore.obj
 0002:0000aff8       ??_C@_0BL@GHHG@?6m_bPendingUIActivation?5?$DN?5?$AA@ 5f598ff8     ctlcore.obj
 0002:0000b014       ??_C@_0BA@BKLA@?6m_bUIActive?5?$DN?5?$AA@ 5f599014     ctlcore.obj
 0002:0000b024       ??_C@_0BF@HHGG@?6m_bInPlaceActive?5?$DN?5?$AA@ 5f599024     ctlcore.obj
 0002:0000b03c       ??_C@_0BD@IOMN@?6m_iDblClkState?5?$DN?5?$AA@ 5f59903c     ctlcore.obj
 0002:0000b050       ??_C@_0BD@GJIM@?6m_iButtonState?5?$DN?5?$AA@ 5f599050     ctlcore.obj
 0002:0000b064       ??_C@_0BH@KOMC@?6m_bCountOnAmbients?5?$DN?5?$AA@ 5f599064     ctlcore.obj
 0002:0000b07c       ??_C@_0BA@BOKL@?6m_bModified?5?$DN?5?$AA@ 5f59907c     ctlcore.obj
 0002:0000b08c       ??_C@_0BK@GELF@?6m_bFinalReleaseCalled?5?$DN?5?$AA@ 5f59908c     ctlcore.obj
 0002:0000b0a8       ??_C@_0P@KCGN@?6m_cyExtent?5?$DN?5?$AA@ 5f5990a8     ctlcore.obj
 0002:0000b0b8       ??_C@_0P@CNKP@?6m_cxExtent?5?$DN?5?$AA@ 5f5990b8     ctlcore.obj
 0002:0000b0c8       ??_C@_0M@HIFN@?6m_rcPos?5?$DN?5?$AA@ 5f5990c8     ctlcore.obj
 0002:0000b0d4       ??_C@_0BE@BOHF@?6m_cEventsFrozen?5?$DN?5?$AA@ 5f5990d4     ctlcore.obj
 0002:0000b0e8       ??_C@_0BG@IAJB@?6m_dwVersionLoaded?5?$DN?5?$AA@ 5f5990e8     ctlcore.obj
 0002:0000b100       ??_C@_0BC@BCLH@?6m_piidEvents?5?$DN?5?5?$AA@ 5f599100     ctlcore.obj
 0002:0000b114       ??_C@_0BC@EKAH@?6m_piidPrimary?5?$DN?5?$AA@ 5f599114     ctlcore.obj
 0002:0000b128       ??_C@_0BD@DIIE@?6m_pModuleState?5?$DN?5?$AA@ 5f599128     ctlcore.obj
 0002:0000b13c       ??_C@_0BB@KJOA@AfxOleControl42d?$AA@ 5f59913c     ctlcore.obj
 0002:0000b150       ??_C@_0DD@LJNL@Warning?3?5COleControl?3?3fastBeginP@ 5f599150     ctlcore.obj
 0002:0000b184       ??_C@_0DA@FOMA@Warning?3?5no?5message?5line?5prompt?5@ 5f599184     ctlcore.obj
 0002:0000b1b8       ??_7XEventConnPt@COleControl@@6B@ 5f5991b8     ctlcore.obj
 0002:0000b228       ??_7XPropConnPt@COleControl@@6B@ 5f599228     ctlcore.obj
 0002:0000b298       ??_7CReflectorWnd@@6B@     5f599298     ctlcore.obj
 0002:0000b35c       ??_7CParkingWnd@@6B@       5f59935c     ctlcore.obj
 0002:0000b420       ?connectionMap@COleControl@@1UAFX_CONNECTIONMAP@@B 5f599420     ctlconn.obj
 0002:0000b428       ?_connectionEntries@COleControl@@0QBUAFX_CONNECTIONMAP_ENTRY@@B 5f599428     ctlconn.obj
 0002:0000b438       ??_C@_0DE@KHI@?$HL?$CF08lX?9?$CF04X?9?$CF04X?9?$CF02X?$CF02X?9?$CF02X?$CF0@ 5f599438     ctldata.obj
 0002:0000b470       ??_7CControlDataSource@COleControl@@6B@ 5f599470     ctldata.obj
 0002:0000b4d8       ?_afxStockEvents@@3QBKB    5f5994d8     ctlevent.obj
 0002:0000b500       ??_C@_08EIKH@ComboBox?$AA@ 5f599500     ctlevent.obj
 0002:0000b50c       ??_C@_07NOMM@ListBox?$AA@  5f59950c     ctlevent.obj
 0002:0000b514       ??_C@_04EDLP@Edit?$AA@     5f599514     ctlevent.obj
 0002:0000b51c       ??_C@_07GFMD@?$ACH?6?$AO?$AO?$ADK?$AA@ 5f59951c     ctlevent.obj
 0002:0000b528       ?classCOleControlModule@COleControlModule@@2UCRuntimeClass@@B 5f599528     ctlmodul.obj
 0002:0000b540       ??_C@_0BC@KPIB@COleControlModule?$AA@ 5f599540     ctlmodul.obj
 0002:0000b558       ?messageMap@CControlFrameWnd@@1UAFX_MSGMAP@@B 5f599558     ctlframe.obj
 0002:0000b560       ?_messageEntries@CControlFrameWnd@@0QBUAFX_MSGMAP_ENTRY@@B 5f599560     ctlframe.obj
 0002:0000b5ac       ??_7CControlFrameWnd@@6B@  5f5995ac     ctlframe.obj
 0002:0000b670       ??_C@_09JNCA@AfxWnd42d?$AA@ 5f599670     ctlframe.obj
 0002:0000b67c       ??_C@_0CM@COH@Warning?3?5failed?5to?5create?5CContr@ 5f59967c     ctlframe.obj
 0002:0000b6a8       ?_afxFontDescDefault@@3UtagFONTDESC@@B 5f5996a8     ctlfont.obj
 0002:0000b6c8       ??_C@_1BM@LDDO@?$AAM?$AAS?$AA?5?$AAS?$AAa?$AAn?$AAs?$AA?5?$AAS?$AAe?$AAr?$AAi?$AAf?$AA?$AA@ 5f5996c8     ctlfont.obj
 0002:0000b6e8       ?interfaceMap@CEnumConnPoints@@1UAFX_INTERFACEMAP@@B 5f5996e8     oleconn.obj
 0002:0000b6f0       ?_interfaceEntries@CEnumConnPoints@@0QBUAFX_INTERFACEMAP_ENTRY@@B 5f5996f0     oleconn.obj
 0002:0000b700       ?interfaceMap@CEnumConnections@@1UAFX_INTERFACEMAP@@B 5f599700     oleconn.obj
 0002:0000b708       ?_interfaceEntries@CEnumConnections@@0QBUAFX_INTERFACEMAP_ENTRY@@B 5f599708     oleconn.obj
 0002:0000b71c       ??_7CConnectionPoint@@6B@  5f59971c     oleconn.obj
 0002:0000b78c       ??_7XConnPt@CConnectionPoint@@6B@ 5f59978c     oleconn.obj
 0002:0000b7b0       ??_7CEnumConnections@@6B@  5f5997b0     oleconn.obj
 0002:0000b81c       ??_7CEnumConnPoints@@6B@   5f59981c     oleconn.obj
 0002:0000b888       ??_7COleConnPtContainer@@6B@ 5f599888     oleconn.obj
 0002:0000b8a0       ?_afx_CLSID_StdPicture2_V1@@3U_GUID@@B 5f5998a0     ctlpropx.obj
 0002:0000b8b0       ??_C@_08ONGB@_ExtentY?$AA@ 5f5998b0     ctlpropx.obj
 0002:0000b8bc       ??_C@_08EHPG@_ExtentX?$AA@ 5f5998bc     ctlpropx.obj
 0002:0000b8c8       ??_C@_08PNKC@_Version?$AA@ 5f5998c8     ctlpropx.obj
 0002:0000b8d8       ??_7CArchivePropExchange@@6B@ 5f5998d8     ctlpropx.obj
 0002:0000b8f0       ??_7CResetPropExchange@@6B@ 5f5998f0     ctlpropx.obj
 0002:0000b908       ??_7CAsyncPropExchange@@6B@ 5f599908     ctlpropx.obj
 0002:0000b91c       ??_C@_0P@BMCK@FontStrikethru?$AA@ 5f59991c     ctlpropx.obj
 0002:0000b92c       ??_C@_0O@BGLC@FontUnderline?$AA@ 5f59992c     ctlpropx.obj
 0002:0000b93c       ??_C@_0L@ECJP@FontItalic?$AA@ 5f59993c     ctlpropx.obj
 0002:0000b948       ??_C@_08MING@FontBold?$AA@ 5f599948     ctlpropx.obj
 0002:0000b954       ??_C@_08ODBD@FontSize?$AA@ 5f599954     ctlpropx.obj
 0002:0000b960       ??_C@_08LHPB@FontName?$AA@ 5f599960     ctlpropx.obj
 0002:0000b96c       ??_C@_0BP@PMCF@No?5client?5site?5in?5PX_DataPath?$CB?$AA@ 5f59996c     ctlpropx.obj
 0002:0000b98c       ??_C@_0BL@CLJC@No?5control?5in?5PX_DataPath?$CB?$AA@ 5f59998c     ctlpropx.obj
 0002:0000b9a8       ?classCOlePropertyPage@COlePropertyPage@@2UCRuntimeClass@@B 5f5999a8     ctlppg.obj
 0002:0000b9c0       ??_C@_0BB@LGDG@COlePropertyPage?$AA@ 5f5999c0     ctlppg.obj
 0002:0000b9d8       ?_afxUpdateList@@3QBUNotifyInfo@@B 5f5999d8     ctlppg.obj
 0002:0000ba08       ?_afxNotifyList@@3QBUNotifyInfo@@B 5f599a08     ctlppg.obj
 0002:0000ba38       ??_C@_07EOKN@listbox?$AA@  5f599a38     ctlppg.obj
 0002:0000ba40       ??_C@_08PKA@combobox?$AA@  5f599a40     ctlppg.obj
 0002:0000ba4c       ??_C@_06LPKL@button?$AA@   5f599a4c     ctlppg.obj
 0002:0000ba54       ??_C@_04OJPN@edit?$AA@     5f599a54     ctlppg.obj
 0002:0000ba60       ?messageMap@COlePropertyPage@@1UAFX_MSGMAP@@B 5f599a60     ctlppg.obj
 0002:0000ba68       ?_messageEntries@COlePropertyPage@@0QBUAFX_MSGMAP_ENTRY@@B 5f599a68     ctlppg.obj
 0002:0000bab0       ?interfaceMap@COlePropertyPage@@1UAFX_INTERFACEMAP@@B 5f599ab0     ctlppg.obj
 0002:0000bab8       ?_interfaceEntries@COlePropertyPage@@0QBUAFX_INTERFACEMAP_ENTRY@@B 5f599ab8     ctlppg.obj
 0002:0000bad4       ??_7AFX_DDPDATA@@6B@       5f599ad4     ctlppg.obj
 0002:0000bae8       ??_C@_0CB@BHFH@?5Font?5should?5be?5MS?5Sans?5Serif?58?4@ 5f599ae8     ctlppg.obj
 0002:0000bb0c       ??_C@_0CM@IHAN@Property?5page?5?8?$CFs?8?5uses?5a?5nonsta@ 5f599b0c     ctlppg.obj
 0002:0000bb38       ??_C@_0N@KBJM@MS?5Shell?5Dlg?$AA@ 5f599b38     ctlppg.obj
 0002:0000bb48       ??_C@_04JCAN@Helv?$AA@     5f599b48     ctlppg.obj
 0002:0000bb50       ??_C@_0O@JHLN@MS?5Sans?5Serif?$AA@ 5f599b50     ctlppg.obj
 0002:0000bb60       ??_C@_0BG@PJFA@Property?5page?5warning?$AA@ 5f599b60     ctlppg.obj
 0002:0000bb78       ??_C@_0DG@EFMM@?5Dimensions?5should?5be?5250x62?5or?5@ 5f599b78     ctlppg.obj
 0002:0000bbb0       ??_C@_0N@FPKC@Warning?3?5?$CFs?6?$AA@ 5f599bb0     ctlppg.obj
 0002:0000bbc0       ??_C@_0CP@DBCC@Property?5page?5?8?$CFs?8?5has?5nonstanda@ 5f599bc0     ctlppg.obj
 0002:0000bbf4       ??_7COlePropertyPage@@6B@  5f599bf4     ctlppg.obj
 0002:0000bce0       ??_7XPropertyPage@COlePropertyPage@@6B@ 5f599ce0     ctlppg.obj
 0002:0000bd20       ??_7XPropNotifySink@COlePropertyPage@@6B@ 5f599d20     ctlppg.obj
 0002:0000bd34       ??_C@_04IGNI@EDIT?$AA@     5f599d34     ctlppg.obj
 0002:0000bd40       ?classCCachedDataPathProperty@CCachedDataPathProperty@@2UCRuntimeClass@@B 5f599d40     ctlprop.obj
 0002:0000bd58       ??_C@_0BI@EKAI@CCachedDataPathProperty?$AA@ 5f599d58     ctlprop.obj
 0002:0000bd70       ?classCDataPathProperty@CDataPathProperty@@2UCRuntimeClass@@B 5f599d70     ctlprop.obj
 0002:0000bd88       ??_C@_0BC@OBPM@CDataPathProperty?$AA@ 5f599d88     ctlprop.obj
 0002:0000bd9c       ?_afxAmbientFlags@@3QBKB   5f599d9c     ctlprop.obj
 0002:0000bdc4       ?_afxStockProps@@3QBKB     5f599dc4     ctlprop.obj
 0002:0000be14       ??_C@_0L@DKNK@Appearance?$AA@ 5f599e14     ctlprop.obj
 0002:0000be20       ??_C@_07FFME@Enabled?$AA@  5f599e20     ctlprop.obj
 0002:0000be28       ??_C@_0M@CCHM@BorderStyle?$AA@ 5f599e28     ctlprop.obj
 0002:0000be34       ??_C@_04CLJC@Font?$AA@     5f599e34     ctlprop.obj
 0002:0000be3c       ??_C@_09ODIG@BackColor?$AA@ 5f599e3c     ctlprop.obj
 0002:0000be48       ??_C@_09MDL@ForeColor?$AA@ 5f599e48     ctlprop.obj
 0002:0000be54       ??_C@_04BNNJ@Text?$AA@     5f599e54     ctlprop.obj
 0002:0000be5c       ??_C@_07FMLO@Caption?$AA@  5f599e5c     ctlprop.obj
 0002:0000be64       ??_C@_0M@GLJK@_StockProps?$AA@ 5f599e64     ctlprop.obj
 0002:0000be70       ??_C@_0P@CJNJ@?6m_strPath?5?$DN?5?$CC?$AA@ 5f599e70     ctlprop.obj
 0002:0000be80       ??_C@_0P@NANG@?6m_pControl?5?$DN?5?$AA@ 5f599e80     ctlprop.obj
 0002:0000be90       ?_afxFontDescHelv@@3UtagFONTDESC@@B 5f599e90     ctlpset.obj
 0002:0000beb0       ??_C@_19OFHG@?$AAH?$AAe?$AAl?$AAv?$AA?$AA@ 5f599eb0     ctlpset.obj
 0002:0000bec0       ?_afx_CLSID_StdPicture_V1@@3U_GUID@@B 5f599ec0     ctlpset.obj
 0002:0000bed0       ?_afx_CLSID_StdFont_V1@@3U_GUID@@B 5f599ed0     ctlpset.obj
 0002:0000bee0       ??_C@_0CH@PGBF@Failed?5to?5allocate?5memory?5for?5st@ 5f599ee0     ctlpset.obj
 0002:0000bf08       ??_C@_0BP@BOB@CreateStreamOnHGlobal?5failed?4?6?$AA@ 5f599f08     ctlpset.obj
 0002:0000bf28       ??_C@_0CF@PGGM@CPropertySet?3?3WriteToStream?5fail@ 5f599f28     ctlpset.obj
 0002:0000bf50       ??_C@_0BI@FPIA@DoPropExchange?5failed?4?6?$AA@ 5f599f50     ctlpset.obj
 0002:0000bf68       ??_C@_0CC@ONFG@CPropertySet?3?3AddSection?5failed?4@ 5f599f68     ctlpset.obj
 0002:0000bf8c       ??_C@_0CA@IILE@IStorage?3?3CreateStream?5failed?4?6?$AA@ 5f599f8c     ctlpset.obj
 0002:0000bfac       ??_C@_1BC@DBBK@?$AAC?$AAo?$AAn?$AAt?$AAe?$AAn?$AAt?$AAs?$AA?$AA@ 5f599fac     ctlpset.obj
 0002:0000bfc0       ??_C@_0CG@PJBL@StgCreateDocfileOnILockBytes?5fai@ 5f599fc0     ctlpset.obj
 0002:0000bfe8       ??_C@_0CD@ONN@CreateILockBytesOnHGlobal?5failed@ 5f599fe8     ctlpset.obj
 0002:0000c00c       ??_C@_0CP@LJIM@Propset?5only?5supported?5for?5strea@ 5f59a00c     ctlpset.obj
 0002:0000c03c       ??_C@_0DJ@GGJO@CLSID_PersistPropset?5section?5not@ 5f59a03c     ctlpset.obj
 0002:0000c078       ??_C@_0CG@KPJI@CPropertySet?3?3ReadFromStream?5fai@ 5f59a078     ctlpset.obj
 0002:0000c0a0       ??_C@_0CA@OFOL@Failed?5to?5open?5content?5stream?4?6?$AA@ 5f59a0a0     ctlpset.obj
 0002:0000c0c4       ??_7CPropsetPropExchange@@6B@ 5f59a0c4     ctlpset.obj
 0002:0000c0d8       ?_afxPropPageClass@@3QBQBDB 5f59a0d8     ctlreg.obj
 0002:0000c0e4       ??_C@_0BC@IJIG@InprocServer32?$AA?$CF2?$AA@ 5f59a0e4     ctlreg.obj
 0002:0000c0f8       ?_afxCtrlClassID@@3QBQBDB  5f59a0f8     ctlreg.obj
 0002:0000c120       ??_C@_0L@HJLI@Version?$AA?$CF7?$AA@ 5f59a120     ctlreg.obj
 0002:0000c12c       ??_C@_0L@GFBB@TypeLib?$AA?$CF6?$AA@ 5f59a12c     ctlreg.obj
 0002:0000c138       ??_C@_08CFN@Control?$AA?$AA@ 5f59a138     ctlreg.obj
 0002:0000c144       ??_C@_0BA@GBNN@MiscStatus?21?$AA?$CF5?$AA@ 5f59a144     ctlreg.obj
 0002:0000c154       ??_C@_0N@DJBP@MiscStatus?$AA0?$AA@ 5f59a154     ctlreg.obj
 0002:0000c164       ??_C@_0BH@FMOH@ToolboxBitmap32?$AA?$CF3?0?5?$CF4?$AA@ 5f59a164     ctlreg.obj
 0002:0000c17c       ??_C@_0BC@CDBB@InprocServer32?$AA?$CF3?$AA@ 5f59a17c     ctlreg.obj
 0002:0000c190       ??_C@_09KME@ProgID?$AA?$CF2?$AA@ 5f59a190     ctlreg.obj
 0002:0000c19c       ?_afxCtrlProgID@@3QBQBDB   5f59a19c     ctlreg.obj
 0002:0000c1a8       ??_C@_08GKNE@CLSID?$AA?$CF2?$AA@ 5f59a1a8     ctlreg.obj
 0002:0000c1b4       ??_C@_03MIFF@?$AA?$CF1?$AA@ 5f59a1b4     ctlreg.obj
 0002:0000c1b8       ??_C@_0L@EBJK@Interface?2?$AA@ 5f59a1b8     ctlreg.obj
 0002:0000c1c4       ??_C@_0CO@JGLP@Warning?3?5Could?5not?5load?5type?5lib@ 5f59a1c4     ctlreg.obj
 0002:0000c1f4       ??_C@_05PFD@win32?$AA@     5f59a1f4     ctlreg.obj
 0002:0000c1fc       ??_C@_05IIFK@win16?$AA@    5f59a1fc     ctlreg.obj
 0002:0000c204       ??_C@_05MNJD@FLAGS?$AA@    5f59a204     ctlreg.obj
 0002:0000c20c       ??_C@_07GOJG@HELPDIR?$AA@  5f59a20c     ctlreg.obj
 0002:0000c214       ??_C@_0L@IMLO@TYPELIB?2?$CFs?$AA@ 5f59a214     ctlreg.obj
 0002:0000c220       ??_C@_0P@CMNN@ThreadingModel?$AA@ 5f59a220     ctlreg.obj
 0002:0000c230       ??_C@_0P@IIOA@InprocServer32?$AA@ 5f59a230     ctlreg.obj
 0002:0000c240       ??_C@_08BJKM@CLSID?2?$CFs?$AA@ 5f59a240     ctlreg.obj
 0002:0000c24c       ??_C@_05LFKM@?$CFd?4?$CFd?$AA@ 5f59a24c     ctlreg.obj
 0002:0000c254       ??_C@_0BA@OPOP@ToolboxBitmap32?$AA@ 5f59a254     ctlreg.obj
 0002:0000c264       ??_C@_0M@KNGN@CLSID?2?$CFs?2?$CFs?$AA@ 5f59a264     ctlreg.obj
 0002:0000c270       ??_C@_0N@OPAM@InprocServer?$AA@ 5f59a270     ctlreg.obj
 0002:0000c280       ?_afxResizeStyle@@3HB      5f59a280     ctltrack.obj
 0002:0000c288       ??_7CControlRectTracker@@6B@ 5f59a288     ctltrack.obj
 0002:0000c2a0       ??_C@_0BN@FGCC@CProperty?3?3AllocValue?5failed?$AA@ 5f59a2a0     olepset.obj
 0002:0000c2c0       ??_C@_0CF@KMMN@Write?5of?5section?5header?5failed?5?$CI@ 5f59a2c0     olepset.obj
 0002:0000c2e8       ??_C@_0BI@HHCD@Write?5of?5?8pido?8?5failed?6?$AA@ 5f59a2e8     olepset.obj
 0002:0000c300       ??_C@_0CI@DHPP@Warning?3?5Wrote?5empty?5property?5se@ 5f59a300     olepset.obj
 0002:0000c328       ??_C@_0CF@MDDL@Write?5of?5section?5header?5failed?5?$CI@ 5f59a328     olepset.obj
 0002:0000c350       ??_C@_0CE@HOIF@Failed?5to?5add?5entry?5to?5dictionar@ 5f59a350     olepset.obj
 0002:0000c374       ??_C@_0CC@LPMO@Read?5of?5dictionary?5entry?5failed?4@ 5f59a374     olepset.obj
 0002:0000c398       ??_C@_0CD@INEG@Read?5of?5dictionary?5header?5failed@ 5f59a398     olepset.obj
 0002:0000c3bc       ??_C@_0CD@EHMG@Write?5of?5dictionary?5entry?5failed@ 5f59a3bc     olepset.obj
 0002:0000c3e0       ??_C@_0CE@EELO@Write?5of?5dictionary?5header?5faile@ 5f59a3e0     olepset.obj
 0002:0000c404       ??_C@_0BJ@FAOI@Write?5of?5?8fido?8?5failed?4?6?$AA@ 5f59a404     olepset.obj
 0002:0000c420       ??_C@_0CE@HDCK@Warning?3?5Wrote?5empty?5property?5se@ 5f59a420     olepset.obj
 0002:0000c444       ??_C@_0CG@DNK@Write?5of?5Property?5Set?5Header?5fai@ 5f59a444     olepset.obj
 0002:0000c470       ?_afx_CLSID_BlobProperty@@3U_GUID@@B 5f59a470     ctlpbag.obj
 0002:0000c484       ??_7CBlobProperty@@6B@     5f59a484     ctlpbag.obj
 0002:0000c4a8       ??_7CPropbagPropExchange@@6B@ 5f59a4a8     ctlpbag.obj
 0002:0000c4c0       ??_7_AFXCTL_AMBIENT_CACHE@@6B@ 5f59a4c0     ctlquick.obj
 0002:0000c4c8       ?classCWindowlessDC@CWindowlessDC@@2UCRuntimeClass@@B 5f59a4c8     ctlnownd.obj
 0002:0000c4e0       ??_C@_0O@FBOP@CWindowlessDC?$AA@ 5f59a4e0     ctlnownd.obj
 0002:0000c4f4       ??_7CWindowlessDC@@6B@     5f59a4f4     ctlnownd.obj
 0002:0000c570       ?classCColorPropPage@CColorPropPage@@2UCRuntimeClass@@B 5f59a570     ppgcolor.obj
 0002:0000c588       ??_C@_0P@PKCG@CColorPropPage?$AA@ 5f59a588     ppgcolor.obj
 0002:0000c5b0       ?guid@CColorPropPage@@2U_GUID@@B 5f59a5b0     ppgcolor.obj
 0002:0000c5c0       ?messageMap@CColorPropPage@@1UAFX_MSGMAP@@B 5f59a5c0     ppgcolor.obj
 0002:0000c5c8       ?_messageEntries@CColorPropPage@@0QBUAFX_MSGMAP_ENTRY@@B 5f59a5c8     ppgcolor.obj
 0002:0000c790       ?_afxSysColorsList@@3QBUSysColorsInfo@@B 5f59a790     ppgcolor.obj
 0002:0000c844       ??_7CColorButton@@6B@      5f59a844     ppgcolor.obj
 0002:0000c90c       ??_7CColorPropPage@@6B@    5f59a90c     ppgcolor.obj
 0002:0000c9fc       ??_7CColorPropPageFactory@CColorPropPage@@6B@ 5f59a9fc     ppgcolor.obj
 0002:0000ca70       ?classCFontPropPage@CFontPropPage@@2UCRuntimeClass@@B 5f59aa70     ppgfont.obj
 0002:0000ca88       ??_C@_0O@IMID@CFontPropPage?$AA@ 5f59aa88     ppgfont.obj
 0002:0000cab0       ?guid@CFontPropPage@@2U_GUID@@B 5f59aab0     ppgfont.obj
 0002:0000cac0       ?messageMap@CFontPropPage@@1UAFX_MSGMAP@@B 5f59aac0     ppgfont.obj
 0002:0000cac8       ?_messageEntries@CFontPropPage@@0QBUAFX_MSGMAP_ENTRY@@B 5f59aac8     ppgfont.obj
 0002:0000cbd4       ??_7CFontPropPage@@6B@     5f59abd4     ppgfont.obj
 0002:0000ccc8       ??_7CSizeComboBox@@6B@     5f59acc8     ppgfont.obj
 0002:0000cd9c       ??_7CFontComboBox@@6B@     5f59ad9c     ppgfont.obj
 0002:0000ce70       ??_7CFontPropPageFactory@CFontPropPage@@6B@ 5f59ae70     ppgfont.obj
 0002:0000cee8       ?classCPicturePropPage@CPicturePropPage@@2UCRuntimeClass@@B 5f59aee8     ppgpict.obj
 0002:0000cf00       ??_C@_0BB@EHCI@CPicturePropPage?$AA@ 5f59af00     ppgpict.obj
 0002:0000cf30       ?guid@CPicturePropPage@@2U_GUID@@B 5f59af30     ppgpict.obj
 0002:0000cf40       ?messageMap@CPicturePropPage@@1UAFX_MSGMAP@@B 5f59af40     ppgpict.obj
 0002:0000cf48       ?_messageEntries@CPicturePropPage@@0QBUAFX_MSGMAP_ENTRY@@B 5f59af48     ppgpict.obj
 0002:0000cfc4       ??_7CPicturePropPage@@6B@  5f59afc4     ppgpict.obj
 0002:0000d0b4       ??_7CPicturePropPageFactory@CPicturePropPage@@6B@ 5f59b0b4     ppgpict.obj
 0002:0000d128       ?classCStockPropPage@CStockPropPage@@2UCRuntimeClass@@B 5f59b128     ppgstock.obj
 0002:0000d140       ??_C@_0P@GBDL@CStockPropPage?$AA@ 5f59b140     ppgstock.obj
 0002:0000d150       ?messageMap@CStockPropPage@@1UAFX_MSGMAP@@B 5f59b150     ppgstock.obj
 0002:0000d158       ?_messageEntries@CStockPropPage@@0QBUAFX_MSGMAP_ENTRY@@B 5f59b158     ppgstock.obj
 0002:0000d174       ??_7CStockPropPage@@6B@    5f59b174     ppgstock.obj
 0002:0000d25c       ??_C@_02NCNO@B?$AC?$AA@    5f59b25c     ctlinl.obj
 0002:0000d260       ??_C@_01PAOO@B?$AA@        5f59b260     ctlinl.obj
 0002:0000d264       ??_C@_04CKMP@?$AC?$AC?$AD?$AD?$AA@ 5f59b264     ctlinl.obj
 0002:0000d26c       ??_C@_01PPLJ@?$AD?$AA@     5f59b26c     ctlinl.obj
 0002:0000d274       ??_7CPropExchange@@6B@     5f59b274     ctlinl.obj
 0002:0000d28c       ??_7CDataPathProperty@@6B@ 5f59b28c     ctlinl.obj
 0002:0000d34c       ??_7CCachedDataPathProperty@@6B@ 5f59b34c     ctlinl.obj
 0002:0000d438       ??_7type_info@@6B@         5f59b438     msvcrtd:ti_inst.obj
 0002:0000d43c       ??_C@_08JKC@crtdll?4c?$AA@ 5f59b43c     msvcrtd:crtdll.obj
 0002:0000d448       _IID_IOleInPlaceSite       5f59b448     uuid:oleidl_i_guid15.obj
 0002:0000d458       _IID_IOleWindow            5f59b458     uuid:oleidl_i_guid8.obj
 0002:0000d468       _IID_IAdviseSink           5f59b468     uuid:objidl_i_guid27.obj
 0002:0000d478       _IID_IOleClientSite        5f59b478     uuid:oleidl_i_guid6.obj
 0002:0000d488       _GUID_NULL                 5f59b488     uuid:cguid_i_guid0.obj
 0002:0000d498       _IID_IOleLink              5f59b498     uuid:oleidl_i_guid9.obj
 0002:0000d4a8       _IID_IViewObject2          5f59b4a8     uuid:oleidl_i_guid18.obj
 0002:0000d4b8       _IID_IOleObject            5f59b4b8     uuid:oleidl_i_guid7.obj
 0002:0000d4c8       _IID_IUnknown              5f59b4c8     uuid:unknwn_i_guid0.obj
 0002:0000d4d8       _IID_IPersistStorage       5f59b4d8     uuid:objidl_i_guid22.obj
 0002:0000d4e8       _IID_IPersistStream        5f59b4e8     uuid:objidl_i_guid13.obj
 0002:0000d4f8       _IID_IPersistStreamInit    5f59b4f8     uuid:ocidl_i_guid16.obj
 0002:0000d508       _IID_IOleCache             5f59b508     uuid:oleidl_i_guid1.obj
 0002:0000d518       _IID_IDataObject           5f59b518     uuid:objidl_i_guid31.obj
 0002:0000d528       _IID_IOleInPlaceFrame      5f59b528     uuid:oleidl_i_guid13.obj
 0002:0000d538       _IID_IOleInPlaceUIWindow   5f59b538     uuid:oleidl_i_guid11.obj
 0002:0000d548       _IID_IOleInPlaceObject     5f59b548     uuid:oleidl_i_guid14.obj
 0002:0000d558       _IID_IOleCommandTarget     5f59b558     uuid:docobj_i_guid6.obj
 0002:0000d568       _IID_IEnumFORMATETC        5f59b568     uuid:objidl_i_guid24.obj
 0002:0000d578       _IID_IDispatch             5f59b578     uuid:oaidl_i_guid4.obj
 0002:0000d588       _IID_IDropSource           5f59b588     uuid:oleidl_i_guid19.obj
 0002:0000d598       _IID_IDropTarget           5f59b598     uuid:oleidl_i_guid20.obj
 0002:0000d5a8       _IID_IMessageFilter        5f59b5a8     uuid:objidl_i_guid33.obj
 0002:0000d5b8       _IID_IClassFactory2        5f59b5b8     uuid:ocidl_i_guid4.obj
 0002:0000d5c8       _IID_IClassFactory         5f59b5c8     uuid:unknwn_i_guid1.obj
 0002:0000d5d8       _IID_IOleItemContainer     5f59b5d8     uuid:oleidl_i_guid10.obj
 0002:0000d5e8       _IID_IOleContainer         5f59b5e8     uuid:oleidl_i_guid5.obj
 0002:0000d5f8       _IID_IParseDisplayName     5f59b5f8     uuid:oleidl_i_guid4.obj
 0002:0000d608       _IID_IPersistFile          5f59b608     uuid:objidl_i_guid21.obj
 0002:0000d618       _IID_IPersist              5f59b618     uuid:objidl_i_guid12.obj
 0002:0000d628       _IID_IStorage              5f59b628     uuid:objidl_i_guid20.obj
 0002:0000d638       _IID_IOleInPlaceActiveObject 5f59b638     uuid:oleidl_i_guid12.obj
 0002:0000d648       _IID_IOleDocumentSite      5f59b648     uuid:docobj_i_guid1.obj
 0002:0000d658       _IID_IViewObject           5f59b658     uuid:oleidl_i_guid17.obj
 0002:0000d668       _IID_IStubManager          5f59b668     uuid:cguid_i_guid3.obj
 0002:0000d678       _IID_IStream               5f59b678     uuid:objidl_i_guid18.obj
 0002:0000d688       _IID_IStdMarshalInfo       5f59b688     uuid:objidl_i_guid3.obj
 0002:0000d698       _IID_IRunningObjectTable   5f59b698     uuid:objidl_i_guid11.obj
 0002:0000d6a8       _IID_IRunnableObject       5f59b6a8     uuid:objidl_i_guid10.obj
 0002:0000d6b8       _IID_IRpcStub              5f59b6b8     uuid:cguid_i_guid2.obj
 0002:0000d6c8       _IID_IRpcProxy             5f59b6c8     uuid:cguid_i_guid4.obj
 0002:0000d6d8       _IID_IRpcChannel           5f59b6d8     uuid:cguid_i_guid1.obj
 0002:0000d6e8       _IID_IRootStorage          5f59b6e8     uuid:objidl_i_guid26.obj
 0002:0000d6f8       _IID_IProxyManager         5f59b6f8     uuid:cguid_i_guid5.obj
 0002:0000d708       _IID_IPSFactory            5f59b708     uuid:cguid_i_guid6.obj
 0002:0000d718       _IID_IOlePresObj           5f59b718     uuid:cguid_i_guid18.obj
 0002:0000d728       _IID_IOleManager           5f59b728     uuid:cguid_i_guid17.obj
 0002:0000d738       _IID_IOleCacheControl      5f59b738     uuid:oleidl_i_guid3.obj
 0002:0000d748       _IID_IOleCache2            5f59b748     uuid:oleidl_i_guid2.obj
 0002:0000d758       _IID_IOleAdviseHolder      5f59b758     uuid:oleidl_i_guid0.obj
 0002:0000d768       _IID_IMoniker              5f59b768     uuid:objidl_i_guid14.obj
 0002:0000d778       _IID_IMarshal              5f59b778     uuid:objidl_i_guid0.obj
 0002:0000d788       _IID_IMalloc               5f59b788     uuid:objidl_i_guid1.obj
 0002:0000d798       _IID_ILockBytes            5f59b798     uuid:objidl_i_guid23.obj
 0002:0000d7a8       _IID_IInternalMoniker      5f59b7a8     uuid:cguid_i_guid7.obj
 0002:0000d7b8       _IID_IEnumVARIANT          5f59b7b8     uuid:oaidl_i_guid5.obj
 0002:0000d7c8       _IID_IEnumUnknown          5f59b7c8     uuid:objidl_i_guid7.obj
 0002:0000d7d8       _IID_IEnumString           5f59b7d8     uuid:objidl_i_guid16.obj
 0002:0000d7e8       _IID_IEnumSTATSTG          5f59b7e8     uuid:objidl_i_guid19.obj
 0002:0000d7f8       _IID_IEnumSTATDATA         5f59b7f8     uuid:objidl_i_guid25.obj
 0002:0000d808       _IID_IEnumOLEVERB          5f59b808     uuid:oleidl_i_guid21.obj
 0002:0000d818       _IID_IEnumMoniker          5f59b818     uuid:objidl_i_guid9.obj
 0002:0000d828       _IID_IEnumHolder           5f59b828     uuid:cguid_i_guid15.obj
 0002:0000d838       _IID_IEnumGeneric          5f59b838     uuid:cguid_i_guid14.obj
 0002:0000d848       _IID_IEnumCallback         5f59b848     uuid:cguid_i_guid16.obj
 0002:0000d858       _IID_IDfReserved3          5f59b858     uuid:cguid_i_guid10.obj
 0002:0000d868       _IID_IDfReserved2          5f59b868     uuid:cguid_i_guid9.obj
 0002:0000d878       _IID_IDfReserved1          5f59b878     uuid:cguid_i_guid8.obj
 0002:0000d888       _IID_IDebugStream          5f59b888     uuid:cguid_i_guid20.obj
 0002:0000d898       _IID_IDebug                5f59b898     uuid:cguid_i_guid19.obj
 0002:0000d8a8       _IID_IDataAdviseHolder     5f59b8a8     uuid:objidl_i_guid32.obj
 0002:0000d8b8       _IID_IPrint                5f59b8b8     uuid:docobj_i_guid5.obj
 0002:0000d8c8       _IID_IOleDocumentView      5f59b8c8     uuid:docobj_i_guid2.obj
 0002:0000d8d8       _IID_IOleDocument          5f59b8d8     uuid:docobj_i_guid0.obj
 0002:0000d8e8       _IID_IEnumOleDocumentViews 5f59b8e8     uuid:docobj_i_guid3.obj
 0002:0000d8f8       _IID_IContinueCallback     5f59b8f8     uuid:docobj_i_guid4.obj
 0002:0000d908       _IID_IBindCtx              5f59b908     uuid:objidl_i_guid8.obj
 0002:0000d918       _IID_IAdviseSink2          5f59b918     uuid:objidl_i_guid29.obj
 0002:0000d928       _IID_IBindHost             5f59b928     uuid:urlmon_i_guid11.obj
 0002:0000d938       _IID_IWebBrowser2          5f59b938     uuid:exdisp_i_guid4.obj
 0002:0000d948       _CLSID_WebBrowser          5f59b948     uuid:exdisp_i_guid7.obj
 0002:0000d958       _IID_IFontDisp             5f59b958     uuid:ocidl_i_guid22.obj
 0002:0000d968       _DBPROPSET_PROVIDERCONNATTR 5f59b968     uuid:guids.obj
 0002:0000d978       _DBPROPSET_PROVIDERSTMTATTR 5f59b978     uuid:guids.obj
 0002:0000d988       _DBPROPSET_PROVIDERDBINIT  5f59b988     uuid:guids.obj
 0002:0000d998       _DBPROPSET_PROVIDERROWSET  5f59b998     uuid:guids.obj
 0002:0000d9a8       _DBPROPSET_PROVIDERDATASOURCEINFO 5f59b9a8     uuid:guids.obj
 0002:0000d9b8       _IID_ITransaction          5f59b9b8     uuid:guids.obj
 0002:0000d9c8       _IID_ITransactionDispenser 5f59b9c8     uuid:guids.obj
 0002:0000d9d8       _IID_ITransactionOptions   5f59b9d8     uuid:guids.obj
 0002:0000d9e8       _IID_ITransactionOutcomeEvents 5f59b9e8     uuid:guids.obj
 0002:0000d9f8       _CLSID_MSDASQL             5f59b9f8     uuid:guids.obj
 0002:0000da08       _CLSID_MSDASQL_ENUMERATOR  5f59ba08     uuid:guids.obj
 0002:0000da18       _IID_IRowsetChangeExtInfo  5f59ba18     uuid:guids.obj
 0002:0000da28       _IID_ISQLGetDiagField      5f59ba28     uuid:guids.obj
 0002:0000da38       _IID_ISQLRequestDiagFields 5f59ba38     uuid:guids.obj
 0002:0000da48       _CLSID_OLEDB_ROWPOSITIONLIBRARY 5f59ba48     uuid:guids.obj
 0002:0000da58       _CLSID_OLEDB_CONVERSIONLIBRARY 5f59ba58     uuid:guids.obj
 0002:0000da68       _CLSID_MSDAVTM             5f59ba68     uuid:guids.obj
 0002:0000da78       _CLSID_EXTENDEDERRORINFO   5f59ba78     uuid:guids.obj
 0002:0000da88       _CLSID_OLEDB_ENUMERATOR    5f59ba88     uuid:guids.obj
 0002:0000da98       _IID_IRowsetCurrentIndex   5f59ba98     uuid:guids.obj
 0002:0000daa8       _IID_IGetSourceRow         5f59baa8     uuid:guids.obj
 0002:0000dab8       _IID_IGetSession           5f59bab8     uuid:guids.obj
 0002:0000dac8       _IID_IRegisterProvider     5f59bac8     uuid:guids.obj
 0002:0000dad8       _IID_IColumnsInfo2         5f59bad8     uuid:guids.obj
 0002:0000dae8       _IID_IDBBinderProperties   5f59bae8     uuid:guids.obj
 0002:0000daf8       _IID_ICreateRow            5f59baf8     uuid:guids.obj
 0002:0000db08       _IID_IScopedOperations     5f59bb08     uuid:guids.obj
 0002:0000db18       _IID_IBindResource         5f59bb18     uuid:guids.obj
 0002:0000db28       _IID_IGetRow               5f59bb28     uuid:guids.obj
 0002:0000db38       _IID_IRowSchemaChange      5f59bb38     uuid:guids.obj
 0002:0000db48       _IID_IRowChange            5f59bb48     uuid:guids.obj
 0002:0000db58       _IID_IRow                  5f59bb58     uuid:guids.obj
 0002:0000db68       _IID_ITableDefinitionWithConstraints 5f59bb68     uuid:guids.obj
 0002:0000db78       _IID_ITableCreation        5f59bb78     uuid:guids.obj
 0002:0000db88       _IID_ISecurityInfo         5f59bb88     uuid:guids.obj
 0002:0000db98       _IID_IObjectAccessControl  5f59bb98     uuid:guids.obj
 0002:0000dba8       _IID_ITrusteeGroupAdmin    5f59bba8     uuid:guids.obj
 0002:0000dbb8       _IID_ITrusteeAdmin         5f59bbb8     uuid:guids.obj
 0002:0000dbc8       _IID_ITransactionObject    5f59bbc8     uuid:guids.obj
 0002:0000dbd8       _IID_ITransactionJoin      5f59bbd8     uuid:guids.obj
 0002:0000dbe8       _IID_ITransactionLocal     5f59bbe8     uuid:guids.obj
 0002:0000dbf8       _IID_IGetDataSource        5f59bbf8     uuid:guids.obj
 0002:0000dc08       _IID_ISQLErrorInfo         5f59bc08     uuid:guids.obj
 0002:0000dc18       _IID_IErrorLookup          5f59bc18     uuid:guids.obj
 0002:0000dc28       _IID_IErrorRecords         5f59bc28     uuid:guids.obj
 0002:0000dc38       _IID_IParentRowset         5f59bc38     uuid:guids.obj
 0002:0000dc48       _IID_IRowsetRefresh        5f59bc48     uuid:guids.obj
 0002:0000dc58       _IID_ICommandPersist       5f59bc58     uuid:guids.obj
 0002:0000dc68       _IID_IRowsetChapterMember  5f59bc68     uuid:guids.obj
 0002:0000dc78       _IID_IAlterIndex           5f59bc78     uuid:guids.obj
 0002:0000dc88       _IID_IAlterTable           5f59bc88     uuid:guids.obj
 0002:0000dc98       _IID_IMDRangeRowset        5f59bc98     uuid:guids.obj
 0002:0000dca8       _IID_IMDFind               5f59bca8     uuid:guids.obj
 0002:0000dcb8       _IID_IMDDataset            5f59bcb8     uuid:guids.obj
 0002:0000dcc8       _IID_IProvideMoniker       5f59bcc8     uuid:guids.obj
 0002:0000dcd8       _IID_IDBSchemaRowset       5f59bcd8     uuid:guids.obj
 0002:0000dce8       _IID_IDBSecurityInfo       5f59bce8     uuid:guids.obj
 0002:0000dcf8       _IID_IDBSchemaCommand      5f59bcf8     uuid:guids.obj
 0002:0000dd08       _IID_ITableRename          5f59bd08     uuid:guids.obj
 0002:0000dd18       _IID_IOpenRowset           5f59bd18     uuid:guids.obj
 0002:0000dd28       _IID_ITableDefinition      5f59bd28     uuid:guids.obj
 0002:0000dd38       _IID_IIndexDefinition      5f59bd38     uuid:guids.obj
 0002:0000dd48       _IID_ISessionProperties    5f59bd48     uuid:guids.obj
 0002:0000dd58       _IID_IDBAsynchStatus       5f59bd58     uuid:guids.obj
 0002:0000dd68       _IID_IDBAsynchNotify       5f59bd68     uuid:guids.obj
 0002:0000dd78       _IID_IDBDataSourceAdmin    5f59bd78     uuid:guids.obj
 0002:0000dd88       _IID_IDBInfo               5f59bd88     uuid:guids.obj
 0002:0000dd98       _IID_IDBInitialize         5f59bd98     uuid:guids.obj
 0002:0000dda8       _IID_IDBProperties         5f59bda8     uuid:guids.obj
 0002:0000ddb8       _IID_ISourcesRowset        5f59bdb8     uuid:guids.obj
 0002:0000ddc8       _IID_IDBCreateSession      5f59bdc8     uuid:guids.obj
 0002:0000ddd8       _IID_IDBCreateCommand      5f59bdd8     uuid:guids.obj
 0002:0000dde8       _IID_IColumnsInfo          5f59bde8     uuid:guids.obj
 0002:0000ddf8       _IID_IColumnsRowset        5f59bdf8     uuid:guids.obj
 0002:0000de08       _IID_IQuery                5f59be08     uuid:guids.obj
 0002:0000de18       _IID_ICommandWithParameters 5f59be18     uuid:guids.obj
 0002:0000de28       _IID_ICommandValidate      5f59be28     uuid:guids.obj
 0002:0000de38       _IID_ICommandTree          5f59be38     uuid:guids.obj
 0002:0000de48       _IID_ICommandText          5f59be48     uuid:guids.obj
 0002:0000de58       _IID_ICommandProperties    5f59be58     uuid:guids.obj
 0002:0000de68       _IID_ICommandPrepare       5f59be68     uuid:guids.obj
 0002:0000de78       _IID_ICommandCost          5f59be78     uuid:guids.obj
 0002:0000de88       _IID_IConvertType          5f59be88     uuid:guids.obj
 0002:0000de98       _IID_IMultipleResults      5f59be98     uuid:guids.obj
 0002:0000dea8       _IID_ICommand              5f59bea8     uuid:guids.obj
 0002:0000deb8       _IID_IReadData             5f59beb8     uuid:guids.obj
 0002:0000dec8       _IID_IRowsetCopyRows       5f59bec8     uuid:guids.obj
 0002:0000ded8       _IID_IRowsetWatchRegion    5f59bed8     uuid:guids.obj
 0002:0000dee8       _IID_IRowsetWatchNotify    5f59bee8     uuid:guids.obj
 0002:0000def8       _IID_IRowsetWatchAll       5f59bef8     uuid:guids.obj
 0002:0000df08       _IID_IRowsetIndex          5f59bf08     uuid:guids.obj
 0002:0000df18       _IID_IRowsetNotify         5f59bf18     uuid:guids.obj
 0002:0000df28       _IID_IRowsetKeys           5f59bf28     uuid:guids.obj
 0002:0000df38       _IID_IRowsetAsynch         5f59bf38     uuid:guids.obj
 0002:0000df48       _IID_IRowsetWithParameters 5f59bf48     uuid:guids.obj
 0002:0000df58       _IID_IRowsetNewRowAfter    5f59bf58     uuid:guids.obj
 0002:0000df68       _IID_IRowsetIdentity       5f59bf68     uuid:guids.obj
 0002:0000df78       _IID_IRowsetNextRowset     5f59bf78     uuid:guids.obj
 0002:0000df88       _IID_IRowsetUpdate         5f59bf88     uuid:guids.obj
 0002:0000df98       _IID_IRowsetChange         5f59bf98     uuid:guids.obj
 0002:0000dfa8       _IID_IRowsetExactScroll    5f59bfa8     uuid:guids.obj
 0002:0000dfb8       _IID_IRowsetView           5f59bfb8     uuid:guids.obj
 0002:0000dfc8       _IID_IViewFilter           5f59bfc8     uuid:guids.obj
 0002:0000dfd8       _IID_IViewSort             5f59bfd8     uuid:guids.obj
 0002:0000dfe8       _IID_IViewChapter          5f59bfe8     uuid:guids.obj
 0002:0000dff8       _IID_IViewRowset           5f59bff8     uuid:guids.obj
 0002:0000e008       _IID_IRowPositionChange    5f59c008     uuid:guids.obj
 0002:0000e018       _IID_IRowPosition          5f59c018     uuid:guids.obj
 0002:0000e028       _IID_IRowsetFind           5f59c028     uuid:guids.obj
 0002:0000e038       _IID_IChapteredRowset      5f59c038     uuid:guids.obj
 0002:0000e048       _IID_IRowsetScroll         5f59c048     uuid:guids.obj
 0002:0000e058       _IID_IRowsetResynch        5f59c058     uuid:guids.obj
 0002:0000e068       _IID_IRowsetLocate         5f59c068     uuid:guids.obj
 0002:0000e078       _IID_IRowsetInfo           5f59c078     uuid:guids.obj
 0002:0000e088       _IID_IRowset               5f59c088     uuid:guids.obj
 0002:0000e098       _IID_IAccessor             5f59c098     uuid:guids.obj
 0002:0000e0a8       _DBGUID_SQL                5f59c0a8     uuid:guids.obj
 0002:0000e0b8       _DBGUID_DEFAULT            5f59c0b8     uuid:guids.obj
 0002:0000e0c8       _DBGUID_DBSQL              5f59c0c8     uuid:guids.obj
 0002:0000e0d8       _DBPROPSET_VIEW            5f59c0d8     uuid:guids.obj
 0002:0000e0e8       _DBPROPSET_PROPERTIESINERROR 5f59c0e8     uuid:guids.obj
 0002:0000e0f8       _DBPROPSET_DBINITALL       5f59c0f8     uuid:guids.obj
 0002:0000e108       _DBPROPSET_SESSIONALL      5f59c108     uuid:guids.obj
 0002:0000e118       _DBPROPSET_SESSION         5f59c118     uuid:guids.obj
 0002:0000e128       _DBPROPSET_ROWSETALL       5f59c128     uuid:guids.obj
 0002:0000e138       _DBPROPSET_DATASOURCEINFOALL 5f59c138     uuid:guids.obj
 0002:0000e148       _DBPROPSET_DATASOURCEALL   5f59c148     uuid:guids.obj
 0002:0000e158       _DBPROPSET_TABLE           5f59c158     uuid:guids.obj
 0002:0000e168       _DBPROPSET_ROWSET          5f59c168     uuid:guids.obj
 0002:0000e178       _DBPROPSET_INDEX           5f59c178     uuid:guids.obj
 0002:0000e188       _DBPROPSET_DBINIT          5f59c188     uuid:guids.obj
 0002:0000e198       _DBPROPSET_DATASOURCEINFO  5f59c198     uuid:guids.obj
 0002:0000e1a8       _DBPROPSET_DATASOURCE      5f59c1a8     uuid:guids.obj
 0002:0000e1b8       _DBPROPSET_COLUMN          5f59c1b8     uuid:guids.obj
 0002:0000e1c8       _PSGUID_QUERY              5f59c1c8     uuid:guids.obj
 0002:0000e1d8       _DBCOL_SPECIALCOL          5f59c1d8     uuid:guids.obj
 0002:0000e1e8       _DBCOL_SELFCOLUMNS         5f59c1e8     uuid:guids.obj
 0002:0000e1f8       _DBSCHEMA_PROCEDURE_COLUMNS 5f59c1f8     uuid:guids.obj
 0002:0000e208       _DBSCHEMA_PRIMARY_KEYS     5f59c208     uuid:guids.obj
 0002:0000e218       _DBSCHEMA_FOREIGN_KEYS     5f59c218     uuid:guids.obj
 0002:0000e228       _DBSCHEMA_PROCEDURE_PARAMETERS 5f59c228     uuid:guids.obj
 0002:0000e238       _DBSCHEMA_VIEW_TABLE_USAGE 5f59c238     uuid:guids.obj
 0002:0000e248       _DBSCHEMA_VIEW_COLUMN_USAGE 5f59c248     uuid:guids.obj
 0002:0000e258       _DBSCHEMA_VIEWS            5f59c258     uuid:guids.obj
 0002:0000e268       _DBSCHEMA_PROVIDER_TYPES   5f59c268     uuid:guids.obj
 0002:0000e278       _DBSCHEMA_TRANSLATIONS     5f59c278     uuid:guids.obj
 0002:0000e288       _DBSCHEMA_TABLES           5f59c288     uuid:guids.obj
 0002:0000e298       _DBSCHEMA_STATISTICS       5f59c298     uuid:guids.obj
 0002:0000e2a8       _DBSCHEMA_SQL_LANGUAGES    5f59c2a8     uuid:guids.obj
 0002:0000e2b8       _DBSCHEMA_SCHEMATA         5f59c2b8     uuid:guids.obj
 0002:0000e2c8       _DBSCHEMA_PROCEDURES       5f59c2c8     uuid:guids.obj
 0002:0000e2d8       _DBSCHEMA_USAGE_PRIVILEGES 5f59c2d8     uuid:guids.obj
 0002:0000e2e8       _DBSCHEMA_TABLE_PRIVILEGES 5f59c2e8     uuid:guids.obj
 0002:0000e2f8       _DBSCHEMA_COLUMN_PRIVILEGES 5f59c2f8     uuid:guids.obj
 0002:0000e308       _DBSCHEMA_INDEXES          5f59c308     uuid:guids.obj
 0002:0000e318       _DBSCHEMA_COLUMN_DOMAIN_USAGE 5f59c318     uuid:guids.obj
 0002:0000e328       _DBSCHEMA_TABLE_CONSTRAINTS 5f59c328     uuid:guids.obj
 0002:0000e338       _DBSCHEMA_REFERENTIAL_CONSTRAINTS 5f59c338     uuid:guids.obj
 0002:0000e348       _DBSCHEMA_KEY_COLUMN_USAGE 5f59c348     uuid:guids.obj
 0002:0000e358       _DBSCHEMA_CONSTRAINT_TABLE_USAGE 5f59c358     uuid:guids.obj
 0002:0000e368       _DBSCHEMA_CONSTRAINT_COLUMN_USAGE 5f59c368     uuid:guids.obj
 0002:0000e378       _DBSCHEMA_CHECK_CONSTRAINTS 5f59c378     uuid:guids.obj
 0002:0000e388       _DBSCHEMA_COLUMNS          5f59c388     uuid:guids.obj
 0002:0000e398       _DBSCHEMA_COLLATIONS       5f59c398     uuid:guids.obj
 0002:0000e3a8       _DBSCHEMA_CHARACTER_SETS   5f59c3a8     uuid:guids.obj
 0002:0000e3b8       _DBSCHEMA_CATALOGS         5f59c3b8     uuid:guids.obj
 0002:0000e3c8       _DBSCHEMA_ASSERTIONS       5f59c3c8     uuid:guids.obj
 0002:0000e3d8       _DBCOLUMN_KEYCOLUMN        5f59c3d8     uuid:guids.obj
 0002:0000e3f0       _DBCOLUMN_BASETABLEVERSION 5f59c3f0     uuid:guids.obj
 0002:0000e408       _MDSCHEMA_MEMBERS          5f59c408     uuid:guids.obj
 0002:0000e418       _MDSCHEMA_PROPERTIES       5f59c418     uuid:guids.obj
 0002:0000e428       _MDSCHEMA_MEASURES         5f59c428     uuid:guids.obj
 0002:0000e438       _MDSCHEMA_LEVELS           5f59c438     uuid:guids.obj
 0002:0000e448       _MDSCHEMA_HIERARCHIES      5f59c448     uuid:guids.obj
 0002:0000e458       _MDSCHEMA_DIMENSIONS       5f59c458     uuid:guids.obj
 0002:0000e468       _MDSCHEMA_CUBES            5f59c468     uuid:guids.obj
 0002:0000e478       _DBGUID_MDX                5f59c478     uuid:guids.obj
 0002:0000e488       _MDGUID_MDX                5f59c488     uuid:guids.obj
 0002:0000e498       _DBSCHEMA_TABLES_INFO      5f59c498     uuid:guids.obj
 0002:0000e4a8       _DBCOLUMN_MAYSORT          5f59c4a8     uuid:guids.obj
 0002:0000e4c0       _DBCOLUMN_CLSID            5f59c4c0     uuid:guids.obj
 0002:0000e4d8       _DBCOLUMN_COLUMNSIZE       5f59c4d8     uuid:guids.obj
 0002:0000e4f0       _DBCOLUMN_OCTETLENGTH      5f59c4f0     uuid:guids.obj
 0002:0000e508       _DBCOLUMN_NUMERICPRECISIONRADIX 5f59c508     uuid:guids.obj
 0002:0000e520       _DBCOLUMN_DATETIMEPRECISION 5f59c520     uuid:guids.obj
 0002:0000e538       _DBCOLUMN_DOMAINSCHEMA     5f59c538     uuid:guids.obj
 0002:0000e550       _DBCOLUMN_DOMAINCATALOG    5f59c550     uuid:guids.obj
 0002:0000e568       _DBCOLUMN_TYPEINFO         5f59c568     uuid:guids.obj
 0002:0000e580       _DBCOLUMN_PROPID           5f59c580     uuid:guids.obj
 0002:0000e598       _DBCOLUMN_GUID             5f59c598     uuid:guids.obj
 0002:0000e5b0       _DBCOLUMN_BASESCHEMANAME   5f59c5b0     uuid:guids.obj
 0002:0000e5c8       _DBCOLUMN_BASECATALOGNAME  5f59c5c8     uuid:guids.obj
 0002:0000e5e0       _DBCOLUMN_ISUNIQUE         5f59c5e0     uuid:guids.obj
 0002:0000e5f8       _DBCOLUMN_ISSEARCHABLE     5f59c5f8     uuid:guids.obj
 0002:0000e610       _DBCOLUMN_ISCASESENSITIVE  5f59c610     uuid:guids.obj
 0002:0000e628       _DBCOLUMN_ISAUTOINCREMENT  5f59c628     uuid:guids.obj
 0002:0000e640       _DBCOLUMN_HASDEFAULT       5f59c640     uuid:guids.obj
 0002:0000e658       _DBCOLUMN_DOMAINNAME       5f59c658     uuid:guids.obj
 0002:0000e670       _DBCOLUMN_DEFAULTVALUE     5f59c670     uuid:guids.obj
 0002:0000e688       _DBCOLUMN_COMPUTEMODE      5f59c688     uuid:guids.obj
 0002:0000e6a0       _DBCOLUMN_COLLATINGSEQUENCE 5f59c6a0     uuid:guids.obj
 0002:0000e6b8       _DBCOLUMN_BASETABLENAME    5f59c6b8     uuid:guids.obj
 0002:0000e6d0       _DBCOLUMN_BASECOLUMNNAME   5f59c6d0     uuid:guids.obj
 0002:0000e6e8       _DBCOLUMN_FLAGS            5f59c6e8     uuid:guids.obj
 0002:0000e700       _DBCOLUMN_SCALE            5f59c700     uuid:guids.obj
 0002:0000e718       _DBCOLUMN_PRECISION        5f59c718     uuid:guids.obj
 0002:0000e730       _DBCOLUMN_TYPE             5f59c730     uuid:guids.obj
 0002:0000e748       _DBCOLUMN_NUMBER           5f59c748     uuid:guids.obj
 0002:0000e760       _DBCOLUMN_NAME             5f59c760     uuid:guids.obj
 0002:0000e778       _DBCOLUMN_IDNAME           5f59c778     uuid:guids.obj
 0002:0000e790       _DB_NULLID                 5f59c790     uuid:guids.obj
 0002:0000e7a8       _CLSID_DataConvert         5f59c7a8     uuid:guids.obj
 0002:0000e7b8       _CLSID_MRCM                5f59c7b8     uuid:guids.obj
 0002:0000e7c8       _CLSID_RCM                 5f59c7c8     uuid:guids.obj
 0002:0000e7d8       _CLSID_CCM                 5f59c7d8     uuid:guids.obj
 0002:0000e7e8       _CLSID_SCM                 5f59c7e8     uuid:guids.obj
 0002:0000e7f8       _CLSID_DCM                 5f59c7f8     uuid:guids.obj
 0002:0000e808       _CLSID_MSDADCM             5f59c808     uuid:guids.obj
 0002:0000e818       _CLSID_MSDAINITIALIZE      5f59c818     uuid:guids.obj
 0002:0000e828       _CLSID_DataLinks           5f59c828     uuid:guids.obj
 0002:0000e838       _IID_IDataSourceLocator    5f59c838     uuid:guids.obj
 0002:0000e848       _LIBID_MSDASC              5f59c848     uuid:guids.obj
 0002:0000e858       _IID_IDBPromptCustomize    5f59c858     uuid:guids.obj
 0002:0000e868       _IID_IDataInitialize       5f59c868     uuid:guids.obj
 0002:0000e878       _IID_IDBPromptInitialize   5f59c878     uuid:guids.obj
 0002:0000e888       _IID_IJoinSessionPool      5f59c888     uuid:guids.obj
 0002:0000e898       _IID_IPoolSession          5f59c898     uuid:guids.obj
 0002:0000e8a8       _IID_IOuterUnknown         5f59c8a8     uuid:guids.obj
 0002:0000e8b8       _IID_IService              5f59c8b8     uuid:guids.obj
 0002:0000e8c8       _IID_INotifyDBEvents       5f59c8c8     uuid:cguid_i_guid84.obj
 0002:0000e8d8       _IID_IBoundObjectSite      5f59c8d8     uuid:cguid_i_guid91.obj
 0002:0000e8e8       _IID_IOleControlSite       5f59c8e8     uuid:ocidl_i_guid9.obj
 0002:0000e8f8       _IID_IPropertyNotifySink   5f59c8f8     uuid:ocidl_i_guid13.obj
 0002:0000e908       _IID_IFont                 5f59c908     uuid:ocidl_i_guid19.obj
 0002:0000e918       _IID_IQuickActivate        5f59c918     uuid:ocidl_i_guid40.obj
 0002:0000e928       _IID_IPersistMemory        5f59c928     uuid:ocidl_i_guid15.obj
 0002:0000e938       _IID_IOleControl           5f59c938     uuid:ocidl_i_guid8.obj
 0002:0000e948       _IID_IConnectionPointContainer 5f59c948     uuid:ocidl_i_guid3.obj
 0002:0000e958       _IID_IProvideClassInfo     5f59c958     uuid:ocidl_i_guid5.obj
 0002:0000e968       _IID_IProvideClassInfo2    5f59c968     uuid:ocidl_i_guid6.obj
 0002:0000e978       _IID_ICursorUpdateARow     5f59c978     uuid:cguid_i_guid83.obj
 0002:0000e988       _IID_ICursorMove           5f59c988     uuid:cguid_i_guid81.obj
 0002:0000e998       _IID_ICursor               5f59c998     uuid:cguid_i_guid80.obj
 0002:0000e9a8       _COLUMNID_INVALID          5f59c9a8     uuid:vcguids.obj
 0002:0000e9c0       _COLUMN_AUTOINCREMENT      5f59c9c0     uuid:vcguids.obj
 0002:0000e9d8       _COLUMN_BASECOLUMNNAME     5f59c9d8     uuid:vcguids.obj
 0002:0000e9f0       _COLUMN_BASENAME           5f59c9f0     uuid:vcguids.obj
 0002:0000ea08       _COLUMN_BINARYCOMPARABLE   5f59ca08     uuid:vcguids.obj
 0002:0000ea20       _COLUMN_BINDTYPE           5f59ca20     uuid:vcguids.obj
 0002:0000ea38       _COLUMN_CASESENSITIVE      5f59ca38     uuid:vcguids.obj
 0002:0000ea50       _COLUMN_COLLATINGORDER     5f59ca50     uuid:vcguids.obj
 0002:0000ea68       _COLUMN_COLUMNID           5f59ca68     uuid:vcguids.obj
 0002:0000ea80       _COLUMN_CURSORCOLUMN       5f59ca80     uuid:vcguids.obj
 0002:0000ea98       _COLUMN_DATACOLUMN         5f59ca98     uuid:vcguids.obj
 0002:0000eab0       _COLUMN_DEFAULTVALUE       5f59cab0     uuid:vcguids.obj
 0002:0000eac8       _COLUMN_ENTRYIDMAXLENGTH   5f59cac8     uuid:vcguids.obj
 0002:0000eae0       _COLUMN_FIXED              5f59cae0     uuid:vcguids.obj
 0002:0000eaf8       _COLUMN_HASDEFAULT         5f59caf8     uuid:vcguids.obj
 0002:0000eb10       _COLUMN_MAXLENGTH          5f59cb10     uuid:vcguids.obj
 0002:0000eb28       _COLUMN_MULTIVALUED        5f59cb28     uuid:vcguids.obj
 0002:0000eb40       _COLUMN_NAME               5f59cb40     uuid:vcguids.obj
 0002:0000eb58       _COLUMN_NULLABLE           5f59cb58     uuid:vcguids.obj
 0002:0000eb70       _COLUMN_PHYSICALSORT       5f59cb70     uuid:vcguids.obj
 0002:0000eb88       _COLUMN_NUMBER             5f59cb88     uuid:vcguids.obj
 0002:0000eba0       _COLUMN_ROWENTRYID         5f59cba0     uuid:vcguids.obj
 0002:0000ebb8       _COLUMN_SCALE              5f59cbb8     uuid:vcguids.obj
 0002:0000ebd0       _COLUMN_SEARCHABLE         5f59cbd0     uuid:vcguids.obj
 0002:0000ebe8       _COLUMN_TYPE               5f59cbe8     uuid:vcguids.obj
 0002:0000ec00       _COLUMN_UNIQUE             5f59cc00     uuid:vcguids.obj
 0002:0000ec18       _COLUMN_UPDATABLE          5f59cc18     uuid:vcguids.obj
 0002:0000ec30       _COLUMN_VERSION            5f59cc30     uuid:vcguids.obj
 0002:0000ec48       _COLUMN_STATUS             5f59cc48     uuid:vcguids.obj
 0002:0000ec60       _COLUMN_BMKTEMPORARY       5f59cc60     uuid:vcguids.obj
 0002:0000ec78       _COLUMN_BMKTEMPORARYREL    5f59cc78     uuid:vcguids.obj
 0002:0000ec90       _COLUMN_BMKCURSOR          5f59cc90     uuid:vcguids.obj
 0002:0000eca8       _COLUMN_BMKCURSORREL       5f59cca8     uuid:vcguids.obj
 0002:0000ecc0       _COLUMN_BMKSESSION         5f59ccc0     uuid:vcguids.obj
 0002:0000ecd8       _COLUMN_BMKSESSIONREL      5f59ccd8     uuid:vcguids.obj
 0002:0000ecf0       _COLUMN_BMKPERSIST         5f59ccf0     uuid:vcguids.obj
 0002:0000ed08       _COLUMN_BMKPERSISTREL      5f59cd08     uuid:vcguids.obj
 0002:0000ed20       _DBBMK_INVALID             5f59cd20     uuid:vcguids.obj
 0002:0000ed24       _DBBMK_CURRENT             5f59cd24     uuid:vcguids.obj
 0002:0000ed28       _DBBMK_BEGINNING           5f59cd28     uuid:vcguids.obj
 0002:0000ed2c       _DBBMK_END                 5f59cd2c     uuid:vcguids.obj
 0002:0000ed30       _IID_ISequentialStream     5f59cd30     uuid:objidl_i_guid17.obj
 0002:0000ed40       _IID_IBoundObject          5f59cd40     uuid:cguid_i_guid90.obj
 0002:0000ed50       _IID_IBindStatusCallback   5f59cd50     uuid:urlmon_i_guid3.obj
 0002:0000ed60       _IID_IServiceProvider      5f59cd60     uuid:servprov_i_guid0.obj
 0002:0000ed70       _IID_IPerPropertyBrowsing  5f59cd70     uuid:ocidl_i_guid36.obj
 0002:0000ed80       _IID_ISpecifyPropertyPages 5f59cd80     uuid:ocidl_i_guid14.obj
 0002:0000ed90       _IID_IPersistPropertyBag   5f59cd90     uuid:ocidl_i_guid17.obj
 0002:0000eda0       _IID_IOleInPlaceObjectWindowless 5f59cda0     uuid:ocidl_i_guid24.obj
 0002:0000edb0       _IID_IViewObjectEx         5f59cdb0     uuid:ocidl_i_guid27.obj
 0002:0000edc0       _IID_IPointerInactive      5f59cdc0     uuid:ocidl_i_guid32.obj
 0002:0000edd0       _CLSID_ConvertVBX          5f59cdd0     uuid:cguid_i_guid56.obj
 0002:0000ede0       _CLSID_PersistPropset      5f59cde0     uuid:cguid_i_guid55.obj
 0002:0000edf0       _IID_IOleInPlaceSiteEx     5f59cdf0     uuid:ocidl_i_guid25.obj
 0002:0000ee00       _IID_IOleInPlaceSiteWindowless 5f59ce00     uuid:ocidl_i_guid26.obj
 0002:0000ee10       _IID_IEnumConnectionPoints 5f59ce10     uuid:ocidl_i_guid2.obj
 0002:0000ee20       _IID_IEnumConnections      5f59ce20     uuid:ocidl_i_guid0.obj
 0002:0000ee30       _IID_IConnectionPoint      5f59ce30     uuid:ocidl_i_guid1.obj
 0002:0000ee40       _IID_ISimpleFrameSite      5f59ce40     uuid:ocidl_i_guid18.obj
 0002:0000ee50       _IID_IPicture              5f59ce50     uuid:ocidl_i_guid20.obj
 0002:0000ee60       _IID_IPictureDisp          5f59ce60     uuid:ocidl_i_guid23.obj
 0002:0000ee70       _CLSID_StdPicture          5f59ce70     uuid:cguid_i_guid58.obj
 0002:0000ee80       _IID_IPropertyPage         5f59ce80     uuid:ocidl_i_guid10.obj
 0002:0000ee90       _IID_IPropertyPage2        5f59ce90     uuid:ocidl_i_guid11.obj
 0002:0000eea0       _CLSID_CColorPropPage      5f59cea0     uuid:cguid_i_guid50.obj
 0002:0000eeb0       _CLSID_CFontPropPage       5f59ceb0     uuid:cguid_i_guid49.obj
 0002:0000eec0       _CLSID_StdFont             5f59cec0     uuid:cguid_i_guid57.obj
 0002:0000eed0       _GUID_COLOR                5f59ced0     uuid:cguid_i_guid60.obj
 0002:0000eee0       __sz_OLEPRO32              5f59cee0     olepro32:OLEPRO32.DLL
 0002:0000eef0       __sz_ADVAPI32              5f59cef0     advapi32:ADVAPI32.dll
 0002:0000ef00       __sz_ole32                 5f59cf00     ole32:ole32.dll
 0002:0000ef10       __sz_OLEAUT32              5f59cf10     oleaut32:OLEAUT32.dll
 0002:0000ef20       __sz_oledlg                5f59cf20     oledlg:oledlg.dll
 0002:0000ef30       __sz_urlmon                5f59cf30     urlmon:urlmon.dll
 0002:0000ef40       __sz_SHELL32               5f59cf40     shell32:SHELL32.dll
 0002:0000ef50       ??_R1A@?0A@A@CObject@@8    5f59cf50     olecli1.obj
 0002:0000ef68       ??_R1A@?0A@A@CCmdTarget@@8 5f59cf68     olecli1.obj
 0002:0000ef80       ??_R1A@?0A@A@CDocItem@@8   5f59cf80     olecli1.obj
 0002:0000ef98       ??_R1A@?0A@A@COleClientItem@@8 5f59cf98     olecli1.obj
 0002:0000efb0       ??_R2COleClientItem@@8     5f59cfb0     olecli1.obj
 0002:0000efc8       ??_R3COleClientItem@@8     5f59cfc8     olecli1.obj
 0002:0000efd8       ??_R4COleClientItem@@6B@   5f59cfd8     olecli1.obj
 0002:0000eff0       ??_R1A@?0A@A@IUnknown@@8   5f59cff0     olecli1.obj
 0002:0000f008       ??_R1A@?0A@A@IOleClientSite@@8 5f59d008     olecli1.obj
 0002:0000f020       ??_R1A@?0A@A@XOleClientSite@COleClientItem@@8 5f59d020     olecli1.obj
 0002:0000f038       ??_R2XOleClientSite@COleClientItem@@8 5f59d038     olecli1.obj
 0002:0000f048       ??_R3XOleClientSite@COleClientItem@@8 5f59d048     olecli1.obj
 0002:0000f058       ??_R4XOleClientSite@COleClientItem@@6B@ 5f59d058     olecli1.obj
 0002:0000f070       ??_R1A@?0A@A@IAdviseSink@@8 5f59d070     olecli1.obj
 0002:0000f088       ??_R1A@?0A@A@XAdviseSink@COleClientItem@@8 5f59d088     olecli1.obj
 0002:0000f0a0       ??_R2XAdviseSink@COleClientItem@@8 5f59d0a0     olecli1.obj
 0002:0000f0b0       ??_R3XAdviseSink@COleClientItem@@8 5f59d0b0     olecli1.obj
 0002:0000f0c0       ??_R4XAdviseSink@COleClientItem@@6B@ 5f59d0c0     olecli1.obj
 0002:0000f0d8       ??_R1A@?0A@A@IOleWindow@@8 5f59d0d8     olecli1.obj
 0002:0000f0f0       ??_R1A@?0A@A@IOleInPlaceSite@@8 5f59d0f0     olecli1.obj
 0002:0000f108       ??_R1A@?0A@A@XOleIPSite@COleClientItem@@8 5f59d108     olecli1.obj
 0002:0000f120       ??_R2XOleIPSite@COleClientItem@@8 5f59d120     olecli1.obj
 0002:0000f138       ??_R3XOleIPSite@COleClientItem@@8 5f59d138     olecli1.obj
 0002:0000f148       ??_R4XOleIPSite@COleClientItem@@6B@ 5f59d148     olecli1.obj
 0002:0000f160       ??_R1A@?0A@A@COleFrameHook@@8 5f59d160     olecli2.obj
 0002:0000f178       ??_R2COleFrameHook@@8      5f59d178     olecli2.obj
 0002:0000f188       ??_R3COleFrameHook@@8      5f59d188     olecli2.obj
 0002:0000f198       ??_R4COleFrameHook@@6B@    5f59d198     olecli2.obj
 0002:0000f1b0       ??_R1A@?0A@A@IOleInPlaceUIWindow@@8 5f59d1b0     olecli2.obj
 0002:0000f1c8       ??_R1A@?0A@A@IOleInPlaceFrame@@8 5f59d1c8     olecli2.obj
 0002:0000f1e0       ??_R1A@?0A@A@XOleInPlaceFrame@COleFrameHook@@8 5f59d1e0     olecli2.obj
 0002:0000f1f8       ??_R2XOleInPlaceFrame@COleFrameHook@@8 5f59d1f8     olecli2.obj
 0002:0000f210       ??_R3XOleInPlaceFrame@COleFrameHook@@8 5f59d210     olecli2.obj
 0002:0000f220       ??_R4XOleInPlaceFrame@COleFrameHook@@6B@ 5f59d220     olecli2.obj
 0002:0000f238       ??_R1A@?0A@A@IOleCommandTarget@@8 5f59d238     olecli2.obj
 0002:0000f250       ??_R1A@?0A@A@XOleCommandTarget@COleFrameHook@@8 5f59d250     olecli2.obj
 0002:0000f268       ??_R2XOleCommandTarget@COleFrameHook@@8 5f59d268     olecli2.obj
 0002:0000f278       ??_R3XOleCommandTarget@COleFrameHook@@8 5f59d278     olecli2.obj
 0002:0000f288       ??_R4XOleCommandTarget@COleFrameHook@@6B@ 5f59d288     olecli2.obj
 0002:0000f2a0       ??_R1A@?0A@A@COleDataSource@@8 5f59d2a0     oledobj2.obj
 0002:0000f2b8       ??_R2COleDataSource@@8     5f59d2b8     oledobj2.obj
 0002:0000f2c8       ??_R3COleDataSource@@8     5f59d2c8     oledobj2.obj
 0002:0000f2d8       ??_R4COleDataSource@@6B@   5f59d2d8     oledobj2.obj
 0002:0000f2f0       ??_R1A@?0A@A@IDataObject@@8 5f59d2f0     oledobj2.obj
 0002:0000f308       ??_R1A@?0A@A@XDataObject@COleDataSource@@8 5f59d308     oledobj2.obj
 0002:0000f320       ??_R2XDataObject@COleDataSource@@8 5f59d320     oledobj2.obj
 0002:0000f330       ??_R3XDataObject@COleDataSource@@8 5f59d330     oledobj2.obj
 0002:0000f340       ??_R4XDataObject@COleDataSource@@6B@ 5f59d340     oledobj2.obj
 0002:0000f358       ??_R1A@?0A@A@CEnumArray@@8 5f59d358     oledobj2.obj
 0002:0000f370       ??_R1A@?0A@A@CEnumFormatEtc@@8 5f59d370     oledobj2.obj
 0002:0000f388       ??_R2CEnumFormatEtc@@8     5f59d388     oledobj2.obj
 0002:0000f3a0       ??_R3CEnumFormatEtc@@8     5f59d3a0     oledobj2.obj
 0002:0000f3b0       ??_R4CEnumFormatEtc@@6B@   5f59d3b0     oledobj2.obj
 0002:0000f3c8       ??_R1A@?0A@A@IDispatch@@8  5f59d3c8     oledisp1.obj
 0002:0000f3e0       ??_R1A@?0A@A@COleDispatchImpl@@8 5f59d3e0     oledisp1.obj
 0002:0000f3f8       ??_R2COleDispatchImpl@@8   5f59d3f8     oledisp1.obj
 0002:0000f408       ??_R3COleDispatchImpl@@8   5f59d408     oledisp1.obj
 0002:0000f418       ??_R4COleDispatchImpl@@6B@ 5f59d418     oledisp1.obj
 0002:0000f430       ??_R1A@?0A@A@CException@@8 5f59d430     oledisp1.obj
 0002:0000f448       ??_R1A@?0A@A@COleDispatchException@@8 5f59d448     oledisp1.obj
 0002:0000f460       ??_R2COleDispatchException@@8 5f59d460     oledisp1.obj
 0002:0000f470       ??_R3COleDispatchException@@8 5f59d470     oledisp1.obj
 0002:0000f480       ??_R4COleDispatchException@@6B@ 5f59d480     oledisp1.obj
 0002:0000f498       ??_R1A@?0A@A@IOleUILinkContainerA@@8 5f59d498     oledlgs1.obj
 0002:0000f4b0       ??_R1A@?0A@A@IOleUILinkInfoA@@8 5f59d4b0     oledlgs1.obj
 0002:0000f4c8       ??_R1A@?0A@A@COleUILinkInfo@@8 5f59d4c8     oledlgs1.obj
 0002:0000f4e0       ??_R2COleUILinkInfo@@8     5f59d4e0     oledlgs1.obj
 0002:0000f4f8       ??_R3COleUILinkInfo@@8     5f59d4f8     oledlgs1.obj
 0002:0000f508       ??_R4COleUILinkInfo@@6B@   5f59d508     oledlgs1.obj
 0002:0000f520       ??_R2IOleUILinkInfoA@@8    5f59d520     oledlgs1.obj
 0002:0000f530       ??_R3IOleUILinkInfoA@@8    5f59d530     oledlgs1.obj
 0002:0000f540       ??_R4IOleUILinkInfoA@@6B@  5f59d540     oledlgs1.obj
 0002:0000f558       ??_R2IOleUILinkContainerA@@8 5f59d558     oledlgs1.obj
 0002:0000f568       ??_R3IOleUILinkContainerA@@8 5f59d568     oledlgs1.obj
 0002:0000f578       ??_R4IOleUILinkContainerA@@6B@ 5f59d578     oledlgs1.obj
 0002:0000f590       ??_R1A@?0A@A@CWnd@@8       5f59d590     oledlgs1.obj
 0002:0000f5a8       ??_R1A@?0A@A@CDialog@@8    5f59d5a8     oledlgs1.obj
 0002:0000f5c0       ??_R1A@?0A@A@CCommonDialog@@8 5f59d5c0     oledlgs1.obj
 0002:0000f5d8       ??_R1A@?0A@A@COleDialog@@8 5f59d5d8     oledlgs1.obj
 0002:0000f5f0       ??_R1A@?0A@A@COleInsertDialog@@8 5f59d5f0     oledlgs1.obj
 0002:0000f608       ??_R2COleInsertDialog@@8   5f59d608     oledlgs1.obj
 0002:0000f628       ??_R3COleInsertDialog@@8   5f59d628     oledlgs1.obj
 0002:0000f638       ??_R4COleInsertDialog@@6B@ 5f59d638     oledlgs1.obj
 0002:0000f650       ??_R1A@?0A@A@COleConvertDialog@@8 5f59d650     oledlgs1.obj
 0002:0000f668       ??_R2COleConvertDialog@@8  5f59d668     oledlgs1.obj
 0002:0000f688       ??_R3COleConvertDialog@@8  5f59d688     oledlgs1.obj
 0002:0000f698       ??_R4COleConvertDialog@@6B@ 5f59d698     oledlgs1.obj
 0002:0000f6b0       ??_R1A@?0A@A@COleChangeIconDialog@@8 5f59d6b0     oledlgs1.obj
 0002:0000f6c8       ??_R2COleChangeIconDialog@@8 5f59d6c8     oledlgs1.obj
 0002:0000f6e8       ??_R3COleChangeIconDialog@@8 5f59d6e8     oledlgs1.obj
 0002:0000f6f8       ??_R4COleChangeIconDialog@@6B@ 5f59d6f8     oledlgs1.obj
 0002:0000f710       ??_R1A@?0A@A@COleLinksDialog@@8 5f59d710     oledlgs1.obj
 0002:0000f728       ??_R2COleLinksDialog@@8    5f59d728     oledlgs1.obj
 0002:0000f748       ??_R3COleLinksDialog@@8    5f59d748     oledlgs1.obj
 0002:0000f758       ??_R4COleLinksDialog@@6B@  5f59d758     oledlgs1.obj
 0002:0000f770       ??_R1A@?0A@A@COleUpdateDialog@@8 5f59d770     oledlgs1.obj
 0002:0000f788       ??_R2COleUpdateDialog@@8   5f59d788     oledlgs1.obj
 0002:0000f7b0       ??_R3COleUpdateDialog@@8   5f59d7b0     oledlgs1.obj
 0002:0000f7c0       ??_R4COleUpdateDialog@@6B@ 5f59d7c0     oledlgs1.obj
 0002:0000f7d8       ??_R1A@?0A@A@COlePasteSpecialDialog@@8 5f59d7d8     oledlgs1.obj
 0002:0000f7f0       ??_R2COlePasteSpecialDialog@@8 5f59d7f0     oledlgs1.obj
 0002:0000f810       ??_R3COlePasteSpecialDialog@@8 5f59d810     oledlgs1.obj
 0002:0000f820       ??_R4COlePasteSpecialDialog@@6B@ 5f59d820     oledlgs1.obj
 0002:0000f838       ??_R2COleDialog@@8         5f59d838     oledlgs2.obj
 0002:0000f858       ??_R3COleDialog@@8         5f59d858     oledlgs2.obj
 0002:0000f868       ??_R4COleDialog@@6B@       5f59d868     oledlgs2.obj
 0002:0000f880       ??_R1A@?0A@A@COleBusyDialog@@8 5f59d880     oledlgs2.obj
 0002:0000f898       ??_R2COleBusyDialog@@8     5f59d898     oledlgs2.obj
 0002:0000f8b8       ??_R3COleBusyDialog@@8     5f59d8b8     oledlgs2.obj
 0002:0000f8c8       ??_R4COleBusyDialog@@6B@   5f59d8c8     oledlgs2.obj
 0002:0000f8e0       ??_R1A@?0A@A@COlePropertiesDialog@@8 5f59d8e0     oledlgs3.obj
 0002:0000f8f8       ??_R2COlePropertiesDialog@@8 5f59d8f8     oledlgs3.obj
 0002:0000f918       ??_R3COlePropertiesDialog@@8 5f59d918     oledlgs3.obj
 0002:0000f928       ??_R4COlePropertiesDialog@@6B@ 5f59d928     oledlgs3.obj
 0002:0000f940       ??_R1A@?0A@A@IOleUIObjInfoA@@8 5f59d940     oledlgs3.obj
 0002:0000f958       ??_R1A@?0A@A@XOleUIObjInfo@COlePropertiesDialog@@8 5f59d958     oledlgs3.obj
 0002:0000f970       ??_R2XOleUIObjInfo@COlePropertiesDialog@@8 5f59d970     oledlgs3.obj
 0002:0000f980       ??_R3XOleUIObjInfo@COlePropertiesDialog@@8 5f59d980     oledlgs3.obj
 0002:0000f990       ??_R4XOleUIObjInfo@COlePropertiesDialog@@6B@ 5f59d990     oledlgs3.obj
 0002:0000f9a8       ??_R2IOleUIObjInfoA@@8     5f59d9a8     oledlgs3.obj
 0002:0000f9b8       ??_R3IOleUIObjInfoA@@8     5f59d9b8     oledlgs3.obj
 0002:0000f9c8       ??_R4IOleUIObjInfoA@@6B@   5f59d9c8     oledlgs3.obj
 0002:0000f9e0       ??_R1A@?0A@A@COleChangeSourceDialog@@8 5f59d9e0     oledlgs3.obj
 0002:0000f9f8       ??_R2COleChangeSourceDialog@@8 5f59d9f8     oledlgs3.obj
 0002:0000fa18       ??_R3COleChangeSourceDialog@@8 5f59da18     oledlgs3.obj
 0002:0000fa28       ??_R4COleChangeSourceDialog@@6B@ 5f59da28     oledlgs3.obj
 0002:0000fa40       ??_R1A@?0A@A@CNoTrackObject@@8 5f59da40     oledata.obj
 0002:0000fa58       ??_R1A@?0A@A@_AFX_OLE_STATE@@8 5f59da58     oledata.obj
 0002:0000fa70       ??_R2_AFX_OLE_STATE@@8     5f59da70     oledata.obj
 0002:0000fa80       ??_R3_AFX_OLE_STATE@@8     5f59da80     oledata.obj
 0002:0000fa90       ??_R4_AFX_OLE_STATE@@6B@   5f59da90     oledata.obj
 0002:0000faa4       ??_R2CNoTrackObject@@8     5f59daa4     oledata.obj
 0002:0000fab0       ??_R3CNoTrackObject@@8     5f59dab0     oledata.obj
 0002:0000fac0       ??_R4CNoTrackObject@@6B@   5f59dac0     oledata.obj
 0002:0000fad8       ??_R1A@?0A@A@CDocument@@8  5f59dad8     oledoc1.obj
 0002:0000faf0       ??_R1A@?0A@A@COleDocument@@8 5f59daf0     oledoc1.obj
 0002:0000fb08       ??_R2COleDocument@@8       5f59db08     oledoc1.obj
 0002:0000fb20       ??_R3COleDocument@@8       5f59db20     oledoc1.obj
 0002:0000fb30       ??_R4COleDocument@@6B@     5f59db30     oledoc1.obj
 0002:0000fb48       ??_R2CDocItem@@8           5f59db48     oledoc1.obj
 0002:0000fb58       ??_R3CDocItem@@8           5f59db58     oledoc1.obj
 0002:0000fb68       ??_R4CDocItem@@6B@         5f59db68     oledoc1.obj
 0002:0000fb80       ??_R1A@?0A@A@COleDropSource@@8 5f59db80     oledrop1.obj
 0002:0000fb98       ??_R2COleDropSource@@8     5f59db98     oledrop1.obj
 0002:0000fba8       ??_R3COleDropSource@@8     5f59dba8     oledrop1.obj
 0002:0000fbb8       ??_R4COleDropSource@@6B@   5f59dbb8     oledrop1.obj
 0002:0000fbd0       ??_R1A@?0A@A@IDropSource@@8 5f59dbd0     oledrop1.obj
 0002:0000fbe8       ??_R1A@?0A@A@XDropSource@COleDropSource@@8 5f59dbe8     oledrop1.obj
 0002:0000fc00       ??_R2XDropSource@COleDropSource@@8 5f59dc00     oledrop1.obj
 0002:0000fc10       ??_R3XDropSource@COleDropSource@@8 5f59dc10     oledrop1.obj
 0002:0000fc20       ??_R4XDropSource@COleDropSource@@6B@ 5f59dc20     oledrop1.obj
 0002:0000fc38       ??_R1A@?0A@A@COleDropTarget@@8 5f59dc38     oledrop2.obj
 0002:0000fc50       ??_R2COleDropTarget@@8     5f59dc50     oledrop2.obj
 0002:0000fc60       ??_R3COleDropTarget@@8     5f59dc60     oledrop2.obj
 0002:0000fc70       ??_R4COleDropTarget@@6B@   5f59dc70     oledrop2.obj
 0002:0000fc88       ??_R1A@?0A@A@IDropTarget@@8 5f59dc88     oledrop2.obj
 0002:0000fca0       ??_R1A@?0A@A@XDropTarget@COleDropTarget@@8 5f59dca0     oledrop2.obj
 0002:0000fcb8       ??_R2XDropTarget@COleDropTarget@@8 5f59dcb8     oledrop2.obj
 0002:0000fcc8       ??_R3XDropTarget@COleDropTarget@@8 5f59dcc8     oledrop2.obj
 0002:0000fcd8       ??_R4XDropTarget@COleDropTarget@@6B@ 5f59dcd8     oledrop2.obj
 0002:0000fcf0       ??_R1A@?0A@A@COleMessageFilter@@8 5f59dcf0     olemsgf.obj
 0002:0000fd08       ??_R2COleMessageFilter@@8  5f59dd08     olemsgf.obj
 0002:0000fd18       ??_R3COleMessageFilter@@8  5f59dd18     olemsgf.obj
 0002:0000fd28       ??_R4COleMessageFilter@@6B@ 5f59dd28     olemsgf.obj
 0002:0000fd40       ??_R1A@?0A@A@IMessageFilter@@8 5f59dd40     olemsgf.obj
 0002:0000fd58       ??_R1A@?0A@A@XMessageFilter@COleMessageFilter@@8 5f59dd58     olemsgf.obj
 0002:0000fd70       ??_R2XMessageFilter@COleMessageFilter@@8 5f59dd70     olemsgf.obj
 0002:0000fd80       ??_R3XMessageFilter@COleMessageFilter@@8 5f59dd80     olemsgf.obj
 0002:0000fd90       ??_R4XMessageFilter@COleMessageFilter@@6B@ 5f59dd90     olemsgf.obj
 0002:0000fda8       ??_R2CEnumArray@@8         5f59dda8     oleenum.obj
 0002:0000fdb8       ??_R3CEnumArray@@8         5f59ddb8     oleenum.obj
 0002:0000fdc8       ??_R4CEnumArray@@6B@       5f59ddc8     oleenum.obj
 0002:0000fde0       ??_R1A@?0A@A@IEnumVOID@@8  5f59dde0     oleenum.obj
 0002:0000fdf8       ??_R1A@?0A@A@XEnumVOID@CEnumArray@@8 5f59ddf8     oleenum.obj
 0002:0000fe10       ??_R2XEnumVOID@CEnumArray@@8 5f59de10     oleenum.obj
 0002:0000fe20       ??_R3XEnumVOID@CEnumArray@@8 5f59de20     oleenum.obj
 0002:0000fe30       ??_R4XEnumVOID@CEnumArray@@6B@ 5f59de30     oleenum.obj
 0002:0000fe48       ??_R2IEnumVOID@@8          5f59de48     oleenum.obj
 0002:0000fe58       ??_R3IEnumVOID@@8          5f59de58     oleenum.obj
 0002:0000fe68       ??_R4IEnumVOID@@6B@        5f59de68     oleenum.obj
 0002:0000fe80       ??_R1A@?0A@A@COleObjectFactory@@8 5f59de80     olefact.obj
 0002:0000fe98       ??_R2COleObjectFactory@@8  5f59de98     olefact.obj
 0002:0000fea8       ??_R3COleObjectFactory@@8  5f59dea8     olefact.obj
 0002:0000feb8       ??_R4COleObjectFactory@@6B@ 5f59deb8     olefact.obj
 0002:0000fed0       ??_R1A@?0A@A@IClassFactory@@8 5f59ded0     olefact.obj
 0002:0000fee8       ??_R1A@?0A@A@IClassFactory2@@8 5f59dee8     olefact.obj
 0002:0000ff00       ??_R1A@?0A@A@XClassFactory@COleObjectFactory@@8 5f59df00     olefact.obj
 0002:0000ff18       ??_R2XClassFactory@COleObjectFactory@@8 5f59df18     olefact.obj
 0002:0000ff30       ??_R3XClassFactory@COleObjectFactory@@8 5f59df30     olefact.obj
 0002:0000ff40       ??_R4XClassFactory@COleObjectFactory@@6B@ 5f59df40     olefact.obj
 0002:0000ff58       ??_R1A@?0A@A@CFrameWnd@@8  5f59df58     oleipfrm.obj
 0002:0000ff70       ??_R1A@?0A@A@COleCntrFrameWnd@@8 5f59df70     oleipfrm.obj
 0002:0000ff88       ??_R2COleCntrFrameWnd@@8   5f59df88     oleipfrm.obj
 0002:0000ffa0       ??_R3COleCntrFrameWnd@@8   5f59dfa0     oleipfrm.obj
 0002:0000ffb0       ??_R4COleCntrFrameWnd@@6B@ 5f59dfb0     oleipfrm.obj
 0002:0000ffc8       ??_R1A@?0A@A@COleIPFrameWnd@@8 5f59dfc8     oleipfrm.obj
 0002:0000ffe0       ??_R2COleIPFrameWnd@@8     5f59dfe0     oleipfrm.obj
 0002:0000fff8       ??_R3COleIPFrameWnd@@8     5f59dff8     oleipfrm.obj
 0002:00010008       ??_R4COleIPFrameWnd@@6B@   5f59e008     oleipfrm.obj
 0002:00010020       ??_R1A@?0A@A@COleLinkingDoc@@8 5f59e020     olelink.obj
 0002:00010038       ??_R2COleLinkingDoc@@8     5f59e038     olelink.obj
 0002:00010050       ??_R3COleLinkingDoc@@8     5f59e050     olelink.obj
 0002:00010060       ??_R4COleLinkingDoc@@6B@   5f59e060     olelink.obj
 0002:00010078       ??_R1A@?0A@A@IPersist@@8   5f59e078     olelink.obj
 0002:00010090       ??_R1A@?0A@A@IPersistFile@@8 5f59e090     olelink.obj
 0002:000100a8       ??_R1A@?0A@A@XPersistFile@COleLinkingDoc@@8 5f59e0a8     olelink.obj
 0002:000100c0       ??_R2XPersistFile@COleLinkingDoc@@8 5f59e0c0     olelink.obj
 0002:000100d8       ??_R3XPersistFile@COleLinkingDoc@@8 5f59e0d8     olelink.obj
 0002:000100e8       ??_R4XPersistFile@COleLinkingDoc@@6B@ 5f59e0e8     olelink.obj
 0002:00010100       ??_R1A@?0A@A@IParseDisplayName@@8 5f59e100     olelink.obj
 0002:00010118       ??_R1A@?0A@A@IOleContainer@@8 5f59e118     olelink.obj
 0002:00010130       ??_R1A@?0A@A@IOleItemContainer@@8 5f59e130     olelink.obj
 0002:00010148       ??_R1A@?0A@A@XOleItemContainer@COleLinkingDoc@@8 5f59e148     olelink.obj
 0002:00010160       ??_R2XOleItemContainer@COleLinkingDoc@@8 5f59e160     olelink.obj
 0002:00010178       ??_R3XOleItemContainer@COleLinkingDoc@@8 5f59e178     olelink.obj
 0002:00010188       ??_R4XOleItemContainer@COleLinkingDoc@@6B@ 5f59e188     olelink.obj
 0002:000101a0       ??_R1A@?0A@A@CFile@@8      5f59e1a0     olestrm.obj
 0002:000101b8       ??_R1A@?0A@A@COleStreamFile@@8 5f59e1b8     olestrm.obj
 0002:000101d0       ??_R2COleStreamFile@@8     5f59e1d0     olestrm.obj
 0002:000101e0       ??_R3COleStreamFile@@8     5f59e1e0     olestrm.obj
 0002:000101f0       ??_R4COleStreamFile@@6B@   5f59e1f0     olestrm.obj
 0002:00010208       ??_R1A@?0A@A@COleServerDoc@@8 5f59e208     olesvr1.obj
 0002:00010220       ??_R2COleServerDoc@@8      5f59e220     olesvr1.obj
 0002:00010240       ??_R3COleServerDoc@@8      5f59e240     olesvr1.obj
 0002:00010250       ??_R4COleServerDoc@@6B@    5f59e250     olesvr1.obj
 0002:00010268       ??_R1A@?0A@A@IPersistStorage@@8 5f59e268     olesvr1.obj
 0002:00010280       ??_R1A@?0A@A@XPersistStorage@COleServerDoc@@8 5f59e280     olesvr1.obj
 0002:00010298       ??_R2XPersistStorage@COleServerDoc@@8 5f59e298     olesvr1.obj
 0002:000102b0       ??_R3XPersistStorage@COleServerDoc@@8 5f59e2b0     olesvr1.obj
 0002:000102c0       ??_R4XPersistStorage@COleServerDoc@@6B@ 5f59e2c0     olesvr1.obj
 0002:000102d8       ??_R1A@?0A@A@IOleObject@@8 5f59e2d8     olesvr1.obj
 0002:000102f0       ??_R1A@?0A@A@XOleObject@COleServerDoc@@8 5f59e2f0     olesvr1.obj
 0002:00010308       ??_R2XOleObject@COleServerDoc@@8 5f59e308     olesvr1.obj
 0002:00010318       ??_R3XOleObject@COleServerDoc@@8 5f59e318     olesvr1.obj
 0002:00010328       ??_R4XOleObject@COleServerDoc@@6B@ 5f59e328     olesvr1.obj
 0002:00010340       ??_R1A@?0A@A@XDataObject@COleServerDoc@@8 5f59e340     olesvr1.obj
 0002:00010358       ??_R2XDataObject@COleServerDoc@@8 5f59e358     olesvr1.obj
 0002:00010368       ??_R3XDataObject@COleServerDoc@@8 5f59e368     olesvr1.obj
 0002:00010378       ??_R4XDataObject@COleServerDoc@@6B@ 5f59e378     olesvr1.obj
 0002:00010390       ??_R1A@?0A@A@IOleInPlaceObject@@8 5f59e390     olesvr1.obj
 0002:000103a8       ??_R1A@?0A@A@XOleInPlaceObject@COleServerDoc@@8 5f59e3a8     olesvr1.obj
 0002:000103c0       ??_R2XOleInPlaceObject@COleServerDoc@@8 5f59e3c0     olesvr1.obj
 0002:000103d8       ??_R3XOleInPlaceObject@COleServerDoc@@8 5f59e3d8     olesvr1.obj
 0002:000103e8       ??_R4XOleInPlaceObject@COleServerDoc@@6B@ 5f59e3e8     olesvr1.obj
 0002:00010400       ??_R1A@?0A@A@IOleInPlaceActiveObject@@8 5f59e400     olesvr1.obj
 0002:00010418       ??_R1A@?0A@A@XOleInPlaceActiveObject@COleServerDoc@@8 5f59e418     olesvr1.obj
 0002:00010430       ??_R2XOleInPlaceActiveObject@COleServerDoc@@8 5f59e430     olesvr1.obj
 0002:00010448       ??_R3XOleInPlaceActiveObject@COleServerDoc@@8 5f59e448     olesvr1.obj
 0002:00010458       ??_R4XOleInPlaceActiveObject@COleServerDoc@@6B@ 5f59e458     olesvr1.obj
 0002:00010470       ??_R1A@?0A@A@COleServerItem@@8 5f59e470     olesvr2.obj
 0002:00010488       ??_R2COleServerItem@@8     5f59e488     olesvr2.obj
 0002:000104a0       ??_R3COleServerItem@@8     5f59e4a0     olesvr2.obj
 0002:000104b0       ??_R4COleServerItem@@6B@   5f59e4b0     olesvr2.obj
 0002:000104c8       ??_R1A@?0A@A@CItemDataSource@COleServerItem@@8 5f59e4c8     olesvr2.obj
 0002:000104e0       ??_R2CItemDataSource@COleServerItem@@8 5f59e4e0     olesvr2.obj
 0002:000104f8       ??_R3CItemDataSource@COleServerItem@@8 5f59e4f8     olesvr2.obj
 0002:00010508       ??_R4CItemDataSource@COleServerItem@@6B@ 5f59e508     olesvr2.obj
 0002:00010520       ??_R1A@?0A@A@XOleObject@COleServerItem@@8 5f59e520     olesvr2.obj
 0002:00010538       ??_R2XOleObject@COleServerItem@@8 5f59e538     olesvr2.obj
 0002:00010548       ??_R3XOleObject@COleServerItem@@8 5f59e548     olesvr2.obj
 0002:00010558       ??_R4XOleObject@COleServerItem@@6B@ 5f59e558     olesvr2.obj
 0002:00010570       ??_R1A@?0A@A@XDataObject@COleServerItem@@8 5f59e570     olesvr2.obj
 0002:00010588       ??_R2XDataObject@COleServerItem@@8 5f59e588     olesvr2.obj
 0002:00010598       ??_R3XDataObject@COleServerItem@@8 5f59e598     olesvr2.obj
 0002:000105a8       ??_R4XDataObject@COleServerItem@@6B@ 5f59e5a8     olesvr2.obj
 0002:000105c0       ??_R1A@?0A@A@COleTemplateServer@@8 5f59e5c0     oletsvr.obj
 0002:000105d8       ??_R2COleTemplateServer@@8 5f59e5d8     oletsvr.obj
 0002:000105f0       ??_R3COleTemplateServer@@8 5f59e5f0     oletsvr.obj
 0002:00010600       ??_R4COleTemplateServer@@6B@ 5f59e600     oletsvr.obj
 0002:00010618       ??_R1A@?0A@A@CInnerUnknown@@8 5f59e618     oleunk.obj
 0002:00010630       ??_R2CInnerUnknown@@8      5f59e630     oleunk.obj
 0002:00010640       ??_R3CInnerUnknown@@8      5f59e640     oleunk.obj
 0002:00010650       ??_R4CInnerUnknown@@6B@    5f59e650     oleunk.obj
 0002:00010668       ??_R1A@?0A@A@COleException@@8 5f59e668     oleunk.obj
 0002:00010680       ??_R2COleException@@8      5f59e680     oleunk.obj
 0002:00010690       ??_R3COleException@@8      5f59e690     oleunk.obj
 0002:000106a0       ??_R4COleException@@6B@    5f59e6a0     oleunk.obj
 0002:000106b8       ??_R1A@?0A@A@CEnumOleVerb@@8 5f59e6b8     oleverb.obj
 0002:000106d0       ??_R2CEnumOleVerb@@8       5f59e6d0     oleverb.obj
 0002:000106e8       ??_R3CEnumOleVerb@@8       5f59e6e8     oleverb.obj
 0002:000106f8       ??_R4CEnumOleVerb@@6B@     5f59e6f8     oleverb.obj
 0002:00010710       ??_R1A@?0A@A@CView@@8      5f59e710     viewrich.obj
 0002:00010728       ??_R1A@?0A@A@CCtrlView@@8  5f59e728     viewrich.obj
 0002:00010740       ??_R1A@?0A@A@CRichEditView@@8 5f59e740     viewrich.obj
 0002:00010758       ??_R2CRichEditView@@8      5f59e758     viewrich.obj
 0002:00010778       ??_R3CRichEditView@@8      5f59e778     viewrich.obj
 0002:00010788       ??_R4CRichEditView@@6B@    5f59e788     viewrich.obj
 0002:000107a0       ??_R1A@?0A@A@IRichEditOleCallback@@8 5f59e7a0     viewrich.obj
 0002:000107b8       ??_R1A@?0A@A@XRichEditOleCallback@CRichEditView@@8 5f59e7b8     viewrich.obj
 0002:000107d0       ??_R2XRichEditOleCallback@CRichEditView@@8 5f59e7d0     viewrich.obj
 0002:000107e0       ??_R3XRichEditOleCallback@CRichEditView@@8 5f59e7e0     viewrich.obj
 0002:000107f0       ??_R4XRichEditOleCallback@CRichEditView@@6B@ 5f59e7f0     viewrich.obj
 0002:00010808       ??_R2IRichEditOleCallback@@8 5f59e808     viewrich.obj
 0002:00010818       ??_R3IRichEditOleCallback@@8 5f59e818     viewrich.obj
 0002:00010828       ??_R4IRichEditOleCallback@@6B@ 5f59e828     viewrich.obj
 0002:00010840       ??_R1A@?0A@A@CRichEditDoc@@8 5f59e840     viewrich.obj
 0002:00010858       ??_R2CRichEditDoc@@8       5f59e858     viewrich.obj
 0002:00010878       ??_R3CRichEditDoc@@8       5f59e878     viewrich.obj
 0002:00010888       ??_R4CRichEditDoc@@6B@     5f59e888     viewrich.obj
 0002:000108a0       ??_R1A@?0A@A@CRichEditCntrItem@@8 5f59e8a0     viewrich.obj
 0002:000108b8       ??_R2CRichEditCntrItem@@8  5f59e8b8     viewrich.obj
 0002:000108d0       ??_R3CRichEditCntrItem@@8  5f59e8d0     viewrich.obj
 0002:000108e0       ??_R4CRichEditCntrItem@@6B@ 5f59e8e0     viewrich.obj
 0002:000108f8       ??_R1A@?0A@A@_AFX_EDIT_STATE@@8 5f59e8f8     viewrich.obj
 0002:00010910       ??_R1A@?0A@A@_AFX_RICHEDIT_STATE@@8 5f59e910     viewrich.obj
 0002:00010928       ??_R2_AFX_RICHEDIT_STATE@@8 5f59e928     viewrich.obj
 0002:00010938       ??_R3_AFX_RICHEDIT_STATE@@8 5f59e938     viewrich.obj
 0002:00010948       ??_R4_AFX_RICHEDIT_STATE@@6B@ 5f59e948     viewrich.obj
 0002:00010960       ??_R1A@?0A@A@CMapPtrToPtr@@8 5f59e960     oletyplb.obj
 0002:00010978       ??_R1A@?0A@A@CTypeLibCacheMap@@8 5f59e978     oletyplb.obj
 0002:00010990       ??_R2CTypeLibCacheMap@@8   5f59e990     oletyplb.obj
 0002:000109a0       ??_R3CTypeLibCacheMap@@8   5f59e9a0     oletyplb.obj
 0002:000109b0       ??_R4CTypeLibCacheMap@@6B@ 5f59e9b0     oletyplb.obj
 0002:000109c8       ??_R1A@?0A@A@CMonikerFile@@8 5f59e9c8     olemon.obj
 0002:000109e0       ??_R2CMonikerFile@@8       5f59e9e0     olemon.obj
 0002:000109f8       ??_R3CMonikerFile@@8       5f59e9f8     olemon.obj
 0002:00010a08       ??_R4CMonikerFile@@6B@     5f59ea08     olemon.obj
 0002:00010a20       ??_R1A@?0A@A@IBindHost@@8  5f59ea20     olemon.obj
 0002:00010a38       ??_R1A@?0A@A@_AfxBindHost@@8 5f59ea38     olemon.obj
 0002:00010a50       ??_R2_AfxBindHost@@8       5f59ea50     olemon.obj
 0002:00010a60       ??_R3_AfxBindHost@@8       5f59ea60     olemon.obj
 0002:00010a70       ??_R4_AfxBindHost@@6B@     5f59ea70     olemon.obj
 0002:00010a88       ??_R2IBindHost@@8          5f59ea88     olemon.obj
 0002:00010a98       ??_R3IBindHost@@8          5f59ea98     olemon.obj
 0002:00010aa8       ??_R4IBindHost@@6B@        5f59eaa8     olemon.obj
 0002:00010ac0       ??_R1A@?0A@A@CDateTimeCtrl@@8 5f59eac0     winctrl5.obj
 0002:00010ad8       ??_R2CDateTimeCtrl@@8      5f59ead8     winctrl5.obj
 0002:00010af0       ??_R3CDateTimeCtrl@@8      5f59eaf0     winctrl5.obj
 0002:00010b00       ??_R4CDateTimeCtrl@@6B@    5f59eb00     winctrl5.obj
 0002:00010b18       ??_R1A@?0A@A@CMonthCalCtrl@@8 5f59eb18     winctrl5.obj
 0002:00010b30       ??_R2CMonthCalCtrl@@8      5f59eb30     winctrl5.obj
 0002:00010b48       ??_R3CMonthCalCtrl@@8      5f59eb48     winctrl5.obj
 0002:00010b58       ??_R4CMonthCalCtrl@@6B@    5f59eb58     winctrl5.obj
 0002:00010b70       ??_R1A@?0A@A@CScrollView@@8 5f59eb70     viewhtml.obj
 0002:00010b88       ??_R1A@?0A@A@CFormView@@8  5f59eb88     viewhtml.obj
 0002:00010ba0       ??_R1A@?0A@A@CHtmlView@@8  5f59eba0     viewhtml.obj
 0002:00010bb8       ??_R2CHtmlView@@8          5f59ebb8     viewhtml.obj
 0002:00010bd8       ??_R3CHtmlView@@8          5f59ebd8     viewhtml.obj
 0002:00010be8       ??_R4CHtmlView@@6B@        5f59ebe8     viewhtml.obj
 0002:00010c00       ??_R1A@?0A@A@COccManager@@8 5f59ec00     occmgr.obj
 0002:00010c18       ??_R2COccManager@@8        5f59ec18     occmgr.obj
 0002:00010c28       ??_R3COccManager@@8        5f59ec28     occmgr.obj
 0002:00010c38       ??_R4COccManager@@6B@      5f59ec38     occmgr.obj
 0002:00010c50       ??_R1A@?0A@A@COleControlContainer@@8 5f59ec50     occcont.obj
 0002:00010c68       ??_R2COleControlContainer@@8 5f59ec68     occcont.obj
 0002:00010c78       ??_R3COleControlContainer@@8 5f59ec78     occcont.obj
 0002:00010c88       ??_R4COleControlContainer@@6B@ 5f59ec88     occcont.obj
 0002:00010ca0       ??_R1A@?0A@A@XOleIPFrame@COleControlContainer@@8 5f59eca0     occcont.obj
 0002:00010cb8       ??_R2XOleIPFrame@COleControlContainer@@8 5f59ecb8     occcont.obj
 0002:00010cd0       ??_R3XOleIPFrame@COleControlContainer@@8 5f59ecd0     occcont.obj
 0002:00010ce0       ??_R4XOleIPFrame@COleControlContainer@@6B@ 5f59ece0     occcont.obj
 0002:00010cf8       ??_R1A@?0A@A@XOleContainer@COleControlContainer@@8 5f59ecf8     occcont.obj
 0002:00010d10       ??_R2XOleContainer@COleControlContainer@@8 5f59ed10     occcont.obj
 0002:00010d28       ??_R3XOleContainer@COleControlContainer@@8 5f59ed28     occcont.obj
 0002:00010d38       ??_R4XOleContainer@COleControlContainer@@6B@ 5f59ed38     occcont.obj
 0002:00010d50       ??_R1A@?0A@A@CEnumUnknown@@8 5f59ed50     occcont.obj
 0002:00010d68       ??_R2CEnumUnknown@@8       5f59ed68     occcont.obj
 0002:00010d80       ??_R3CEnumUnknown@@8       5f59ed80     occcont.obj
 0002:00010d90       ??_R4CEnumUnknown@@6B@     5f59ed90     occcont.obj
 0002:00010da8       ??_R1A@?0A@A@COleControlSite@@8 5f59eda8     occsite.obj
 0002:00010dc0       ??_R2COleControlSite@@8    5f59edc0     occsite.obj
 0002:00010dd0       ??_R3COleControlSite@@8    5f59edd0     occsite.obj
 0002:00010de0       ??_R4COleControlSite@@6B@  5f59ede0     occsite.obj
 0002:00010df8       ??_R1A@?0A@A@XOleClientSite@COleControlSite@@8 5f59edf8     occsite.obj
 0002:00010e10       ??_R2XOleClientSite@COleControlSite@@8 5f59ee10     occsite.obj
 0002:00010e20       ??_R3XOleClientSite@COleControlSite@@8 5f59ee20     occsite.obj
 0002:00010e30       ??_R4XOleClientSite@COleControlSite@@6B@ 5f59ee30     occsite.obj
 0002:00010e48       ??_R1A@?0A@A@XOleIPSite@COleControlSite@@8 5f59ee48     occsite.obj
 0002:00010e60       ??_R2XOleIPSite@COleControlSite@@8 5f59ee60     occsite.obj
 0002:00010e78       ??_R3XOleIPSite@COleControlSite@@8 5f59ee78     occsite.obj
 0002:00010e88       ??_R4XOleIPSite@COleControlSite@@6B@ 5f59ee88     occsite.obj
 0002:00010ea0       ??_R1A@?0A@A@IOleControlSite@@8 5f59eea0     occsite.obj
 0002:00010eb8       ??_R1A@?0A@A@XOleControlSite@COleControlSite@@8 5f59eeb8     occsite.obj
 0002:00010ed0       ??_R2XOleControlSite@COleControlSite@@8 5f59eed0     occsite.obj
 0002:00010ee0       ??_R3XOleControlSite@COleControlSite@@8 5f59eee0     occsite.obj
 0002:00010ef0       ??_R4XOleControlSite@COleControlSite@@6B@ 5f59eef0     occsite.obj
 0002:00010f08       ??_R1A@?0A@A@XAmbientProps@COleControlSite@@8 5f59ef08     occsite.obj
 0002:00010f20       ??_R2XAmbientProps@COleControlSite@@8 5f59ef20     occsite.obj
 0002:00010f30       ??_R3XAmbientProps@COleControlSite@@8 5f59ef30     occsite.obj
 0002:00010f40       ??_R4XAmbientProps@COleControlSite@@6B@ 5f59ef40     occsite.obj
 0002:00010f58       ??_R1A@?0A@A@IPropertyNotifySink@@8 5f59ef58     occsite.obj
 0002:00010f70       ??_R1A@?0A@A@XPropertyNotifySink@COleControlSite@@8 5f59ef70     occsite.obj
 0002:00010f88       ??_R2XPropertyNotifySink@COleControlSite@@8 5f59ef88     occsite.obj
 0002:00010f98       ??_R3XPropertyNotifySink@COleControlSite@@8 5f59ef98     occsite.obj
 0002:00010fa8       ??_R4XPropertyNotifySink@COleControlSite@@6B@ 5f59efa8     occsite.obj
 0002:00010fc0       ??_R1A@?0A@A@XEventSink@COleControlSite@@8 5f59efc0     occsite.obj
 0002:00010fd8       ??_R2XEventSink@COleControlSite@@8 5f59efd8     occsite.obj
 0002:00010fe8       ??_R3XEventSink@COleControlSite@@8 5f59efe8     occsite.obj
 0002:00010ff8       ??_R4XEventSink@COleControlSite@@6B@ 5f59eff8     occsite.obj
 0002:00011010       ??_R1A@?0A@A@IBoundObjectSite@@8 5f59f010     occsite.obj
 0002:00011028       ??_R1A@?0A@A@XBoundObjectSite@COleControlSite@@8 5f59f028     occsite.obj
 0002:00011040       ??_R2XBoundObjectSite@COleControlSite@@8 5f59f040     occsite.obj
 0002:00011050       ??_R3XBoundObjectSite@COleControlSite@@8 5f59f050     occsite.obj
 0002:00011060       ??_R4XBoundObjectSite@COleControlSite@@6B@ 5f59f060     occsite.obj
 0002:00011078       ??_R1A@?0A@A@INotifyDBEvents@@8 5f59f078     occsite.obj
 0002:00011090       ??_R1A@?0A@A@XNotifyDBEvents@COleControlSite@@8 5f59f090     occsite.obj
 0002:000110a8       ??_R2XNotifyDBEvents@COleControlSite@@8 5f59f0a8     occsite.obj
 0002:000110b8       ??_R3XNotifyDBEvents@COleControlSite@@8 5f59f0b8     occsite.obj
 0002:000110c8       ??_R4XNotifyDBEvents@COleControlSite@@6B@ 5f59f0c8     occsite.obj
 0002:000110e0       ??_R1A@?0A@A@IRowsetNotify@@8 5f59f0e0     occsite.obj
 0002:000110f8       ??_R1A@?0A@A@XRowsetNotify@COleControlSite@@8 5f59f0f8     occsite.obj
 0002:00011110       ??_R2XRowsetNotify@COleControlSite@@8 5f59f110     occsite.obj
 0002:00011120       ??_R3XRowsetNotify@COleControlSite@@8 5f59f120     occsite.obj
 0002:00011130       ??_R4XRowsetNotify@COleControlSite@@6B@ 5f59f130     occsite.obj
 0002:00011148       ??_R2IBoundObjectSite@@8   5f59f148     occsite.obj
 0002:00011158       ??_R3IBoundObjectSite@@8   5f59f158     occsite.obj
 0002:00011168       ??_R4IBoundObjectSite@@6B@ 5f59f168     occsite.obj
 0002:00011180       ??_R2INotifyDBEvents@@8    5f59f180     occsite.obj
 0002:00011190       ??_R3INotifyDBEvents@@8    5f59f190     occsite.obj
 0002:000111a0       ??_R4INotifyDBEvents@@6B@  5f59f1a0     occsite.obj
 0002:000111b8       ??_R2IRowsetNotify@@8      5f59f1b8     occsite.obj
 0002:000111c8       ??_R3IRowsetNotify@@8      5f59f1c8     occsite.obj
 0002:000111d8       ??_R4IRowsetNotify@@6B@    5f59f1d8     occsite.obj
 0002:000111f0       ??_R1A@?0A@A@CDataSourceControl@@8 5f59f1f0     occsite.obj
 0002:00011208       ??_R2CDataSourceControl@@8 5f59f208     occsite.obj
 0002:00011210       ??_R3CDataSourceControl@@8 5f59f210     occsite.obj
 0002:00011220       ??_R4CDataSourceControl@@6B@ 5f59f220     occsite.obj
 0002:00011238       ??_R1A@?0A@A@COleControlLock@@8 5f59f238     occlock.obj
 0002:00011250       ??_R2COleControlLock@@8    5f59f250     occlock.obj
 0002:00011258       ??_R3COleControlLock@@8    5f59f258     occlock.obj
 0002:00011268       ??_R4COleControlLock@@6B@  5f59f268     occlock.obj
 0002:00011280       ??_R1A@?0A@A@CDocObjectServer@@8 5f59f280     oledocob.obj
 0002:00011298       ??_R2CDocObjectServer@@8   5f59f298     oledocob.obj
 0002:000112a8       ??_R3CDocObjectServer@@8   5f59f2a8     oledocob.obj
 0002:000112b8       ??_R4CDocObjectServer@@6B@ 5f59f2b8     oledocob.obj
 0002:000112d0       ??_R1A@?0A@A@XOleObject@CDocObjectServer@@8 5f59f2d0     oledocob.obj
 0002:000112e8       ??_R2XOleObject@CDocObjectServer@@8 5f59f2e8     oledocob.obj
 0002:000112f8       ??_R3XOleObject@CDocObjectServer@@8 5f59f2f8     oledocob.obj
 0002:00011308       ??_R4XOleObject@CDocObjectServer@@6B@ 5f59f308     oledocob.obj
 0002:00011320       ??_R1A@?0A@A@IOleDocument@@8 5f59f320     oledocob.obj
 0002:00011338       ??_R1A@?0A@A@XOleDocument@CDocObjectServer@@8 5f59f338     oledocob.obj
 0002:00011350       ??_R2XOleDocument@CDocObjectServer@@8 5f59f350     oledocob.obj
 0002:00011360       ??_R3XOleDocument@CDocObjectServer@@8 5f59f360     oledocob.obj
 0002:00011370       ??_R4XOleDocument@CDocObjectServer@@6B@ 5f59f370     oledocob.obj
 0002:00011388       ??_R1A@?0A@A@IOleDocumentView@@8 5f59f388     oledocob.obj
 0002:000113a0       ??_R1A@?0A@A@XOleDocumentView@CDocObjectServer@@8 5f59f3a0     oledocob.obj
 0002:000113b8       ??_R2XOleDocumentView@CDocObjectServer@@8 5f59f3b8     oledocob.obj
 0002:000113c8       ??_R3XOleDocumentView@CDocObjectServer@@8 5f59f3c8     oledocob.obj
 0002:000113d8       ??_R4XOleDocumentView@CDocObjectServer@@6B@ 5f59f3d8     oledocob.obj
 0002:000113f0       ??_R1A@?0A@A@XOleCommandTarget@CDocObjectServer@@8 5f59f3f0     oledocob.obj
 0002:00011408       ??_R2XOleCommandTarget@CDocObjectServer@@8 5f59f408     oledocob.obj
 0002:00011418       ??_R3XOleCommandTarget@CDocObjectServer@@8 5f59f418     oledocob.obj
 0002:00011428       ??_R4XOleCommandTarget@CDocObjectServer@@6B@ 5f59f428     oledocob.obj
 0002:00011440       ??_R1A@?0A@A@IPrint@@8     5f59f440     oledocob.obj
 0002:00011458       ??_R1A@?0A@A@XPrint@CDocObjectServer@@8 5f59f458     oledocob.obj
 0002:00011470       ??_R2XPrint@CDocObjectServer@@8 5f59f470     oledocob.obj
 0002:00011480       ??_R3XPrint@CDocObjectServer@@8 5f59f480     oledocob.obj
 0002:00011490       ??_R4XPrint@CDocObjectServer@@6B@ 5f59f490     oledocob.obj
 0002:000114a8       ??_R1A@?0A@A@CDocObjectServerItem@@8 5f59f4a8     oledocob.obj
 0002:000114c0       ??_R2CDocObjectServerItem@@8 5f59f4c0     oledocob.obj
 0002:000114d8       ??_R3CDocObjectServerItem@@8 5f59f4d8     oledocob.obj
 0002:000114e8       ??_R4CDocObjectServerItem@@6B@ 5f59f4e8     oledocob.obj
 0002:00011500       ??_R1A@?0A@A@CCmdUI@@8     5f59f500     oledoctg.obj
 0002:00011518       ??_R1A@?0A@A@COleCmdUI@@8  5f59f518     oledoctg.obj
 0002:00011530       ??_R2COleCmdUI@@8          5f59f530     oledoctg.obj
 0002:00011540       ??_R3COleCmdUI@@8          5f59f540     oledoctg.obj
 0002:00011550       ??_R4COleCmdUI@@6B@        5f59f550     oledoctg.obj
 0002:00011568       ??_R1A@?0A@A@COleDocIPFrameWnd@@8 5f59f568     oledocip.obj
 0002:00011580       ??_R2COleDocIPFrameWnd@@8  5f59f580     oledocip.obj
 0002:000115a0       ??_R3COleDocIPFrameWnd@@8  5f59f5a0     oledocip.obj
 0002:000115b0       ??_R4COleDocIPFrameWnd@@6B@ 5f59f5b0     oledocip.obj
 0002:000115c8       ??_R1A@?0A@A@COleDocObjectItem@@8 5f59f5c8     oledoccl.obj
 0002:000115e0       ??_R2COleDocObjectItem@@8  5f59f5e0     oledoccl.obj
 0002:000115f8       ??_R3COleDocObjectItem@@8  5f59f5f8     oledoccl.obj
 0002:00011608       ??_R4COleDocObjectItem@@6B@ 5f59f608     oledoccl.obj
 0002:00011620       ??_R1A@?0A@A@IOleDocumentSite@@8 5f59f620     oledoccl.obj
 0002:00011638       ??_R1A@?0A@A@XOleDocumentSite@COleDocObjectItem@@8 5f59f638     oledoccl.obj
 0002:00011650       ??_R2XOleDocumentSite@COleDocObjectItem@@8 5f59f650     oledoccl.obj
 0002:00011660       ??_R3XOleDocumentSite@COleDocObjectItem@@8 5f59f660     oledoccl.obj
 0002:00011670       ??_R4XOleDocumentSite@COleDocObjectItem@@6B@ 5f59f670     oledoccl.obj
 0002:00011688       ??_R1A@?0A@A@CAsyncMonikerFile@@8 5f59f688     oleasmon.obj
 0002:000116a0       ??_R2CAsyncMonikerFile@@8  5f59f6a0     oleasmon.obj
 0002:000116b8       ??_R3CAsyncMonikerFile@@8  5f59f6b8     oleasmon.obj
 0002:000116c8       ??_R4CAsyncMonikerFile@@6B@ 5f59f6c8     oleasmon.obj
 0002:000116e0       ??_R1A@?0A@A@IBindStatusCallback@@8 5f59f6e0     oleasmon.obj
 0002:000116f8       ??_R1A@?0A@A@_AfxBindStatusCallback@@8 5f59f6f8     oleasmon.obj
 0002:00011710       ??_R2_AfxBindStatusCallback@@8 5f59f710     oleasmon.obj
 0002:00011720       ??_R3_AfxBindStatusCallback@@8 5f59f720     oleasmon.obj
 0002:00011730       ??_R4_AfxBindStatusCallback@@6B@ 5f59f730     oleasmon.obj
 0002:00011748       ??_R1A@?0A@A@CInnerUnknown@_AfxBindStatusCallback@@8 5f59f748     oleasmon.obj
 0002:00011760       ??_R2CInnerUnknown@_AfxBindStatusCallback@@8 5f59f760     oleasmon.obj
 0002:00011770       ??_R3CInnerUnknown@_AfxBindStatusCallback@@8 5f59f770     oleasmon.obj
 0002:00011780       ??_R4CInnerUnknown@_AfxBindStatusCallback@@6B@ 5f59f780     oleasmon.obj
 0002:00011798       ??_R2IBindStatusCallback@@8 5f59f798     oleasmon.obj
 0002:000117a8       ??_R3IBindStatusCallback@@8 5f59f7a8     oleasmon.obj
 0002:000117b8       ??_R4IBindStatusCallback@@6B@ 5f59f7b8     oleasmon.obj
 0002:000117d0       ??_R1A@?0A@A@CControlBar@@8 5f59f7d0     olebar.obj
 0002:000117e8       ??_R1A@?0A@A@COleResizeBar@@8 5f59f7e8     olebar.obj
 0002:00011800       ??_R2COleResizeBar@@8      5f59f800     olebar.obj
 0002:00011818       ??_R3COleResizeBar@@8      5f59f818     olebar.obj
 0002:00011828       ??_R4COleResizeBar@@6B@    5f59f828     olebar.obj
 0002:00011840       ??_R1A@?0A@A@COleControl@@8 5f59f840     ctlcore.obj
 0002:00011858       ??_R2COleControl@@8        5f59f858     ctlcore.obj
 0002:00011870       ??_R3COleControl@@8        5f59f870     ctlcore.obj
 0002:00011880       ??_R4COleControl@@6B@      5f59f880     ctlcore.obj
 0002:00011898       ??_R1A@?0A@A@XPersistStorage@COleControl@@8 5f59f898     ctlcore.obj
 0002:000118b0       ??_R2XPersistStorage@COleControl@@8 5f59f8b0     ctlcore.obj
 0002:000118c8       ??_R3XPersistStorage@COleControl@@8 5f59f8c8     ctlcore.obj
 0002:000118d8       ??_R4XPersistStorage@COleControl@@6B@ 5f59f8d8     ctlcore.obj
 0002:000118f0       ??_R1A@?0A@A@IPersistStreamInit@@8 5f59f8f0     ctlcore.obj
 0002:00011908       ??_R1A@?0A@A@XPersistStreamInit@COleControl@@8 5f59f908     ctlcore.obj
 0002:00011920       ??_R2XPersistStreamInit@COleControl@@8 5f59f920     ctlcore.obj
 0002:00011938       ??_R3XPersistStreamInit@COleControl@@8 5f59f938     ctlcore.obj
 0002:00011948       ??_R4XPersistStreamInit@COleControl@@6B@ 5f59f948     ctlcore.obj
 0002:00011960       ??_R1A@?0A@A@IPersistMemory@@8 5f59f960     ctlcore.obj
 0002:00011978       ??_R1A@?0A@A@XPersistMemory@COleControl@@8 5f59f978     ctlcore.obj
 0002:00011990       ??_R2XPersistMemory@COleControl@@8 5f59f990     ctlcore.obj
 0002:000119a8       ??_R3XPersistMemory@COleControl@@8 5f59f9a8     ctlcore.obj
 0002:000119b8       ??_R4XPersistMemory@COleControl@@6B@ 5f59f9b8     ctlcore.obj
 0002:000119d0       ??_R1A@?0A@A@IPersistPropertyBag@@8 5f59f9d0     ctlcore.obj
 0002:000119e8       ??_R1A@?0A@A@XPersistPropertyBag@COleControl@@8 5f59f9e8     ctlcore.obj
 0002:00011a00       ??_R2XPersistPropertyBag@COleControl@@8 5f59fa00     ctlcore.obj
 0002:00011a18       ??_R3XPersistPropertyBag@COleControl@@8 5f59fa18     ctlcore.obj
 0002:00011a28       ??_R4XPersistPropertyBag@COleControl@@6B@ 5f59fa28     ctlcore.obj
 0002:00011a40       ??_R1A@?0A@A@XOleObject@COleControl@@8 5f59fa40     ctlcore.obj
 0002:00011a58       ??_R2XOleObject@COleControl@@8 5f59fa58     ctlcore.obj
 0002:00011a68       ??_R3XOleObject@COleControl@@8 5f59fa68     ctlcore.obj
 0002:00011a78       ??_R4XOleObject@COleControl@@6B@ 5f59fa78     ctlcore.obj
 0002:00011a90       ??_R1A@?0A@A@IViewObject@@8 5f59fa90     ctlcore.obj
 0002:00011aa8       ??_R1A@?0A@A@IViewObject2@@8 5f59faa8     ctlcore.obj
 0002:00011ac0       ??_R1A@?0A@A@IViewObjectEx@@8 5f59fac0     ctlcore.obj
 0002:00011ad8       ??_R1A@?0A@A@XViewObject@COleControl@@8 5f59fad8     ctlcore.obj
 0002:00011af0       ??_R2XViewObject@COleControl@@8 5f59faf0     ctlcore.obj
 0002:00011b08       ??_R3XViewObject@COleControl@@8 5f59fb08     ctlcore.obj
 0002:00011b18       ??_R4XViewObject@COleControl@@6B@ 5f59fb18     ctlcore.obj
 0002:00011b30       ??_R1A@?0A@A@XDataObject@COleControl@@8 5f59fb30     ctlcore.obj
 0002:00011b48       ??_R2XDataObject@COleControl@@8 5f59fb48     ctlcore.obj
 0002:00011b58       ??_R3XDataObject@COleControl@@8 5f59fb58     ctlcore.obj
 0002:00011b68       ??_R4XDataObject@COleControl@@6B@ 5f59fb68     ctlcore.obj
 0002:00011b80       ??_R1A@?0A@A@IOleInPlaceObjectWindowless@@8 5f59fb80     ctlcore.obj
 0002:00011b98       ??_R1A@?0A@A@XOleInPlaceObject@COleControl@@8 5f59fb98     ctlcore.obj
 0002:00011bb0       ??_R2XOleInPlaceObject@COleControl@@8 5f59fbb0     ctlcore.obj
 0002:00011bc8       ??_R3XOleInPlaceObject@COleControl@@8 5f59fbc8     ctlcore.obj
 0002:00011bd8       ??_R4XOleInPlaceObject@COleControl@@6B@ 5f59fbd8     ctlcore.obj
 0002:00011bf0       ??_R1A@?0A@A@XOleInPlaceActiveObject@COleControl@@8 5f59fbf0     ctlcore.obj
 0002:00011c08       ??_R2XOleInPlaceActiveObject@COleControl@@8 5f59fc08     ctlcore.obj
 0002:00011c20       ??_R3XOleInPlaceActiveObject@COleControl@@8 5f59fc20     ctlcore.obj
 0002:00011c30       ??_R4XOleInPlaceActiveObject@COleControl@@6B@ 5f59fc30     ctlcore.obj
 0002:00011c48       ??_R1A@?0A@A@IOleCache@@8  5f59fc48     ctlcore.obj
 0002:00011c60       ??_R1A@?0A@A@XOleCache@COleControl@@8 5f59fc60     ctlcore.obj
 0002:00011c78       ??_R2XOleCache@COleControl@@8 5f59fc78     ctlcore.obj
 0002:00011c88       ??_R3XOleCache@COleControl@@8 5f59fc88     ctlcore.obj
 0002:00011c98       ??_R4XOleCache@COleControl@@6B@ 5f59fc98     ctlcore.obj
 0002:00011cb0       ??_R1A@?0A@A@IOleControl@@8 5f59fcb0     ctlcore.obj
 0002:00011cc8       ??_R1A@?0A@A@XOleControl@COleControl@@8 5f59fcc8     ctlcore.obj
 0002:00011ce0       ??_R2XOleControl@COleControl@@8 5f59fce0     ctlcore.obj
 0002:00011cf0       ??_R3XOleControl@COleControl@@8 5f59fcf0     ctlcore.obj
 0002:00011d00       ??_R4XOleControl@COleControl@@6B@ 5f59fd00     ctlcore.obj
 0002:00011d18       ??_R1A@?0A@A@IProvideClassInfo@@8 5f59fd18     ctlcore.obj
 0002:00011d30       ??_R1A@?0A@A@IProvideClassInfo2@@8 5f59fd30     ctlcore.obj
 0002:00011d48       ??_R1A@?0A@A@XProvideClassInfo@COleControl@@8 5f59fd48     ctlcore.obj
 0002:00011d60       ??_R2XProvideClassInfo@COleControl@@8 5f59fd60     ctlcore.obj
 0002:00011d78       ??_R3XProvideClassInfo@COleControl@@8 5f59fd78     ctlcore.obj
 0002:00011d88       ??_R4XProvideClassInfo@COleControl@@6B@ 5f59fd88     ctlcore.obj
 0002:00011da0       ??_R1A@?0A@A@ISpecifyPropertyPages@@8 5f59fda0     ctlcore.obj
 0002:00011db8       ??_R1A@?0A@A@XSpecifyPropertyPages@COleControl@@8 5f59fdb8     ctlcore.obj
 0002:00011dd0       ??_R2XSpecifyPropertyPages@COleControl@@8 5f59fdd0     ctlcore.obj
 0002:00011de0       ??_R3XSpecifyPropertyPages@COleControl@@8 5f59fde0     ctlcore.obj
 0002:00011df0       ??_R4XSpecifyPropertyPages@COleControl@@6B@ 5f59fdf0     ctlcore.obj
 0002:00011e08       ??_R1A@?0A@A@IPerPropertyBrowsing@@8 5f59fe08     ctlcore.obj
 0002:00011e20       ??_R1A@?0A@A@XPerPropertyBrowsing@COleControl@@8 5f59fe20     ctlcore.obj
 0002:00011e38       ??_R2XPerPropertyBrowsing@COleControl@@8 5f59fe38     ctlcore.obj
 0002:00011e48       ??_R3XPerPropertyBrowsing@COleControl@@8 5f59fe48     ctlcore.obj
 0002:00011e58       ??_R4XPerPropertyBrowsing@COleControl@@6B@ 5f59fe58     ctlcore.obj
 0002:00011e70       ??_R1A@?0A@A@XFontNotification@COleControl@@8 5f59fe70     ctlcore.obj
 0002:00011e88       ??_R2XFontNotification@COleControl@@8 5f59fe88     ctlcore.obj
 0002:00011e98       ??_R3XFontNotification@COleControl@@8 5f59fe98     ctlcore.obj
 0002:00011ea8       ??_R4XFontNotification@COleControl@@6B@ 5f59fea8     ctlcore.obj
 0002:00011ec0       ??_R1A@?0A@A@IQuickActivate@@8 5f59fec0     ctlcore.obj
 0002:00011ed8       ??_R1A@?0A@A@XQuickActivate@COleControl@@8 5f59fed8     ctlcore.obj
 0002:00011ef0       ??_R2XQuickActivate@COleControl@@8 5f59fef0     ctlcore.obj
 0002:00011f00       ??_R3XQuickActivate@COleControl@@8 5f59ff00     ctlcore.obj
 0002:00011f10       ??_R4XQuickActivate@COleControl@@6B@ 5f59ff10     ctlcore.obj
 0002:00011f28       ??_R1A@?0A@A@IPointerInactive@@8 5f59ff28     ctlcore.obj
 0002:00011f40       ??_R1A@?0A@A@XPointerInactive@COleControl@@8 5f59ff40     ctlcore.obj
 0002:00011f58       ??_R2XPointerInactive@COleControl@@8 5f59ff58     ctlcore.obj
 0002:00011f68       ??_R3XPointerInactive@COleControl@@8 5f59ff68     ctlcore.obj
 0002:00011f78       ??_R4XPointerInactive@COleControl@@6B@ 5f59ff78     ctlcore.obj
 0002:00011f90       ??_R1A@?0A@A@CConnectionPoint@@8 5f59ff90     ctlcore.obj
 0002:00011fa8       ??_R1A@?0A@A@XEventConnPt@COleControl@@8 5f59ffa8     ctlcore.obj
 0002:00011fc0       ??_R2XEventConnPt@COleControl@@8 5f59ffc0     ctlcore.obj
 0002:00011fd8       ??_R3XEventConnPt@COleControl@@8 5f59ffd8     ctlcore.obj
 0002:00011fe8       ??_R4XEventConnPt@COleControl@@6B@ 5f59ffe8     ctlcore.obj
 0002:00012000       ??_R1A@?0A@A@XPropConnPt@COleControl@@8 5f5a0000     ctlcore.obj
 0002:00012018       ??_R2XPropConnPt@COleControl@@8 5f5a0018     ctlcore.obj
 0002:00012030       ??_R3XPropConnPt@COleControl@@8 5f5a0030     ctlcore.obj
 0002:00012040       ??_R4XPropConnPt@COleControl@@6B@ 5f5a0040     ctlcore.obj
 0002:00012058       ??_R1A@?0A@A@CReflectorWnd@@8 5f5a0058     ctlcore.obj
 0002:00012070       ??_R2CReflectorWnd@@8      5f5a0070     ctlcore.obj
 0002:00012088       ??_R3CReflectorWnd@@8      5f5a0088     ctlcore.obj
 0002:00012098       ??_R4CReflectorWnd@@6B@    5f5a0098     ctlcore.obj
 0002:000120b0       ??_R1A@?0A@A@CParkingWnd@@8 5f5a00b0     ctlcore.obj
 0002:000120c8       ??_R2CParkingWnd@@8        5f5a00c8     ctlcore.obj
 0002:000120e0       ??_R3CParkingWnd@@8        5f5a00e0     ctlcore.obj
 0002:000120f0       ??_R4CParkingWnd@@6B@      5f5a00f0     ctlcore.obj
 0002:00012108       ??_R1A@?0A@A@CControlDataSource@COleControl@@8 5f5a0108     ctldata.obj
 0002:00012120       ??_R2CControlDataSource@COleControl@@8 5f5a0120     ctldata.obj
 0002:00012138       ??_R3CControlDataSource@COleControl@@8 5f5a0138     ctldata.obj
 0002:00012148       ??_R4CControlDataSource@COleControl@@6B@ 5f5a0148     ctldata.obj
 0002:00012160       ??_R1A@?0A@A@CControlFrameWnd@@8 5f5a0160     ctlframe.obj
 0002:00012178       ??_R2CControlFrameWnd@@8   5f5a0178     ctlframe.obj
 0002:00012190       ??_R3CControlFrameWnd@@8   5f5a0190     ctlframe.obj
 0002:000121a0       ??_R4CControlFrameWnd@@6B@ 5f5a01a0     ctlframe.obj
 0002:000121b8       ??_R2CConnectionPoint@@8   5f5a01b8     oleconn.obj
 0002:000121c8       ??_R3CConnectionPoint@@8   5f5a01c8     oleconn.obj
 0002:000121d8       ??_R4CConnectionPoint@@6B@ 5f5a01d8     oleconn.obj
 0002:000121f0       ??_R1A@?0A@A@IConnectionPoint@@8 5f5a01f0     oleconn.obj
 0002:00012208       ??_R1A@?0A@A@XConnPt@CConnectionPoint@@8 5f5a0208     oleconn.obj
 0002:00012220       ??_R2XConnPt@CConnectionPoint@@8 5f5a0220     oleconn.obj
 0002:00012230       ??_R3XConnPt@CConnectionPoint@@8 5f5a0230     oleconn.obj
 0002:00012240       ??_R4XConnPt@CConnectionPoint@@6B@ 5f5a0240     oleconn.obj
 0002:00012258       ??_R1A@?0A@A@CEnumConnections@@8 5f5a0258     oleconn.obj
 0002:00012270       ??_R2CEnumConnections@@8   5f5a0270     oleconn.obj
 0002:00012288       ??_R3CEnumConnections@@8   5f5a0288     oleconn.obj
 0002:00012298       ??_R4CEnumConnections@@6B@ 5f5a0298     oleconn.obj
 0002:000122b0       ??_R1A@?0A@A@CEnumConnPoints@@8 5f5a02b0     oleconn.obj
 0002:000122c8       ??_R2CEnumConnPoints@@8    5f5a02c8     oleconn.obj
 0002:000122e0       ??_R3CEnumConnPoints@@8    5f5a02e0     oleconn.obj
 0002:000122f0       ??_R4CEnumConnPoints@@6B@  5f5a02f0     oleconn.obj
 0002:00012308       ??_R1A@?0A@A@IConnectionPointContainer@@8 5f5a0308     oleconn.obj
 0002:00012320       ??_R1A@?0A@A@COleConnPtContainer@@8 5f5a0320     oleconn.obj
 0002:00012338       ??_R2COleConnPtContainer@@8 5f5a0338     oleconn.obj
 0002:00012348       ??_R3COleConnPtContainer@@8 5f5a0348     oleconn.obj
 0002:00012358       ??_R4COleConnPtContainer@@6B@ 5f5a0358     oleconn.obj
 0002:00012370       ??_R1A@?0A@A@CPropExchange@@8 5f5a0370     ctlpropx.obj
 0002:00012388       ??_R1A@?0A@A@CArchivePropExchange@@8 5f5a0388     ctlpropx.obj
 0002:000123a0       ??_R2CArchivePropExchange@@8 5f5a03a0     ctlpropx.obj
 0002:000123b0       ??_R3CArchivePropExchange@@8 5f5a03b0     ctlpropx.obj
 0002:000123c0       ??_R4CArchivePropExchange@@6B@ 5f5a03c0     ctlpropx.obj
 0002:000123d8       ??_R1A@?0A@A@CResetPropExchange@@8 5f5a03d8     ctlpropx.obj
 0002:000123f0       ??_R2CResetPropExchange@@8 5f5a03f0     ctlpropx.obj
 0002:00012400       ??_R3CResetPropExchange@@8 5f5a0400     ctlpropx.obj
 0002:00012410       ??_R4CResetPropExchange@@6B@ 5f5a0410     ctlpropx.obj
 0002:00012428       ??_R1A@?0A@A@CAsyncPropExchange@@8 5f5a0428     ctlpropx.obj
 0002:00012440       ??_R2CAsyncPropExchange@@8 5f5a0440     ctlpropx.obj
 0002:00012450       ??_R3CAsyncPropExchange@@8 5f5a0450     ctlpropx.obj
 0002:00012460       ??_R4CAsyncPropExchange@@6B@ 5f5a0460     ctlpropx.obj
 0002:00012478       ??_R1A@?0A@A@AFX_DDPDATA@@8 5f5a0478     ctlppg.obj
 0002:00012490       ??_R2AFX_DDPDATA@@8        5f5a0490     ctlppg.obj
 0002:000124a0       ??_R3AFX_DDPDATA@@8        5f5a04a0     ctlppg.obj
 0002:000124b0       ??_R4AFX_DDPDATA@@6B@      5f5a04b0     ctlppg.obj
 0002:000124c8       ??_R1A@?0A@A@COlePropertyPage@@8 5f5a04c8     ctlppg.obj
 0002:000124e0       ??_R2COlePropertyPage@@8   5f5a04e0     ctlppg.obj
 0002:000124f8       ??_R3COlePropertyPage@@8   5f5a04f8     ctlppg.obj
 0002:00012508       ??_R4COlePropertyPage@@6B@ 5f5a0508     ctlppg.obj
 0002:00012520       ??_R1A@?0A@A@IPropertyPage@@8 5f5a0520     ctlppg.obj
 0002:00012538       ??_R1A@?0A@A@IPropertyPage2@@8 5f5a0538     ctlppg.obj
 0002:00012550       ??_R1A@?0A@A@XPropertyPage@COlePropertyPage@@8 5f5a0550     ctlppg.obj
 0002:00012568       ??_R2XPropertyPage@COlePropertyPage@@8 5f5a0568     ctlppg.obj
 0002:00012580       ??_R3XPropertyPage@COlePropertyPage@@8 5f5a0580     ctlppg.obj
 0002:00012590       ??_R4XPropertyPage@COlePropertyPage@@6B@ 5f5a0590     ctlppg.obj
 0002:000125a8       ??_R1A@?0A@A@XPropNotifySink@COlePropertyPage@@8 5f5a05a8     ctlppg.obj
 0002:000125c0       ??_R2XPropNotifySink@COlePropertyPage@@8 5f5a05c0     ctlppg.obj
 0002:000125d0       ??_R3XPropNotifySink@COlePropertyPage@@8 5f5a05d0     ctlppg.obj
 0002:000125e0       ??_R4XPropNotifySink@COlePropertyPage@@6B@ 5f5a05e0     ctlppg.obj
 0002:000125f8       ??_R1A@?0A@A@CPropsetPropExchange@@8 5f5a05f8     ctlpset.obj
 0002:00012610       ??_R2CPropsetPropExchange@@8 5f5a0610     ctlpset.obj
 0002:00012620       ??_R3CPropsetPropExchange@@8 5f5a0620     ctlpset.obj
 0002:00012630       ??_R4CPropsetPropExchange@@6B@ 5f5a0630     ctlpset.obj
 0002:00012648       ??_R1A@?0A@A@CRectTracker@@8 5f5a0648     ctltrack.obj
 0002:00012660       ??_R1A@?0A@A@CControlRectTracker@@8 5f5a0660     ctltrack.obj
 0002:00012678       ??_R2CControlRectTracker@@8 5f5a0678     ctltrack.obj
 0002:00012688       ??_R3CControlRectTracker@@8 5f5a0688     ctltrack.obj
 0002:00012698       ??_R4CControlRectTracker@@6B@ 5f5a0698     ctltrack.obj
 0002:000126b0       ??_R1A@?0A@A@IPersistStream@@8 5f5a06b0     ctlpbag.obj
 0002:000126c8       ??_R1A@?0A@A@CBlobProperty@@8 5f5a06c8     ctlpbag.obj
 0002:000126e0       ??_R2CBlobProperty@@8      5f5a06e0     ctlpbag.obj
 0002:000126f8       ??_R3CBlobProperty@@8      5f5a06f8     ctlpbag.obj
 0002:00012708       ??_R4CBlobProperty@@6B@    5f5a0708     ctlpbag.obj
 0002:00012720       ??_R1A@?0A@A@CPropbagPropExchange@@8 5f5a0720     ctlpbag.obj
 0002:00012738       ??_R2CPropbagPropExchange@@8 5f5a0738     ctlpbag.obj
 0002:00012748       ??_R3CPropbagPropExchange@@8 5f5a0748     ctlpbag.obj
 0002:00012758       ??_R4CPropbagPropExchange@@6B@ 5f5a0758     ctlpbag.obj
 0002:00012770       ??_R1A@?0A@A@_AFXCTL_AMBIENT_CACHE@@8 5f5a0770     ctlquick.obj
 0002:00012788       ??_R2_AFXCTL_AMBIENT_CACHE@@8 5f5a0788     ctlquick.obj
 0002:00012798       ??_R3_AFXCTL_AMBIENT_CACHE@@8 5f5a0798     ctlquick.obj
 0002:000127a8       ??_R4_AFXCTL_AMBIENT_CACHE@@6B@ 5f5a07a8     ctlquick.obj
 0002:000127c0       ??_R1A@?0A@A@CDC@@8        5f5a07c0     ctlnownd.obj
 0002:000127d8       ??_R1A@?0A@A@CWindowlessDC@@8 5f5a07d8     ctlnownd.obj
 0002:000127f0       ??_R2CWindowlessDC@@8      5f5a07f0     ctlnownd.obj
 0002:00012800       ??_R3CWindowlessDC@@8      5f5a0800     ctlnownd.obj
 0002:00012810       ??_R4CWindowlessDC@@6B@    5f5a0810     ctlnownd.obj
 0002:00012828       ??_R1A@?0A@A@CButton@@8    5f5a0828     ppgcolor.obj
 0002:00012840       ??_R1A@?0A@A@CColorButton@@8 5f5a0840     ppgcolor.obj
 0002:00012858       ??_R2CColorButton@@8       5f5a0858     ppgcolor.obj
 0002:00012870       ??_R3CColorButton@@8       5f5a0870     ppgcolor.obj
 0002:00012880       ??_R4CColorButton@@6B@     5f5a0880     ppgcolor.obj
 0002:00012898       ??_R1A@?0A@A@CStockPropPage@@8 5f5a0898     ppgcolor.obj
 0002:000128b0       ??_R1A@?0A@A@CColorPropPage@@8 5f5a08b0     ppgcolor.obj
 0002:000128c8       ??_R2CColorPropPage@@8     5f5a08c8     ppgcolor.obj
 0002:000128e8       ??_R3CColorPropPage@@8     5f5a08e8     ppgcolor.obj
 0002:000128f8       ??_R4CColorPropPage@@6B@   5f5a08f8     ppgcolor.obj
 0002:00012910       ??_R1A@?0A@A@CColorPropPageFactory@CColorPropPage@@8 5f5a0910     ppgcolor.obj
 0002:00012928       ??_R2CColorPropPageFactory@CColorPropPage@@8 5f5a0928     ppgcolor.obj
 0002:00012940       ??_R3CColorPropPageFactory@CColorPropPage@@8 5f5a0940     ppgcolor.obj
 0002:00012950       ??_R4CColorPropPageFactory@CColorPropPage@@6B@ 5f5a0950     ppgcolor.obj
 0002:00012968       ??_R1A@?0A@A@CFontPropPage@@8 5f5a0968     ppgfont.obj
 0002:00012980       ??_R2CFontPropPage@@8      5f5a0980     ppgfont.obj
 0002:000129a0       ??_R3CFontPropPage@@8      5f5a09a0     ppgfont.obj
 0002:000129b0       ??_R4CFontPropPage@@6B@    5f5a09b0     ppgfont.obj
 0002:000129c8       ??_R1A@?0A@A@CComboBox@@8  5f5a09c8     ppgfont.obj
 0002:000129e0       ??_R1A@?0A@A@CSizeComboBox@@8 5f5a09e0     ppgfont.obj
 0002:000129f8       ??_R2CSizeComboBox@@8      5f5a09f8     ppgfont.obj
 0002:00012a10       ??_R3CSizeComboBox@@8      5f5a0a10     ppgfont.obj
 0002:00012a20       ??_R4CSizeComboBox@@6B@    5f5a0a20     ppgfont.obj
 0002:00012a38       ??_R1A@?0A@A@CFontComboBox@@8 5f5a0a38     ppgfont.obj
 0002:00012a50       ??_R2CFontComboBox@@8      5f5a0a50     ppgfont.obj
 0002:00012a68       ??_R3CFontComboBox@@8      5f5a0a68     ppgfont.obj
 0002:00012a78       ??_R4CFontComboBox@@6B@    5f5a0a78     ppgfont.obj
 0002:00012a90       ??_R1A@?0A@A@CFontPropPageFactory@CFontPropPage@@8 5f5a0a90     ppgfont.obj
 0002:00012aa8       ??_R2CFontPropPageFactory@CFontPropPage@@8 5f5a0aa8     ppgfont.obj
 0002:00012ac0       ??_R3CFontPropPageFactory@CFontPropPage@@8 5f5a0ac0     ppgfont.obj
 0002:00012ad0       ??_R4CFontPropPageFactory@CFontPropPage@@6B@ 5f5a0ad0     ppgfont.obj
 0002:00012ae8       ??_R1A@?0A@A@CPicturePropPage@@8 5f5a0ae8     ppgpict.obj
 0002:00012b00       ??_R2CPicturePropPage@@8   5f5a0b00     ppgpict.obj
 0002:00012b20       ??_R3CPicturePropPage@@8   5f5a0b20     ppgpict.obj
 0002:00012b30       ??_R4CPicturePropPage@@6B@ 5f5a0b30     ppgpict.obj
 0002:00012b48       ??_R1A@?0A@A@CPicturePropPageFactory@CPicturePropPage@@8 5f5a0b48     ppgpict.obj
 0002:00012b60       ??_R2CPicturePropPageFactory@CPicturePropPage@@8 5f5a0b60     ppgpict.obj
 0002:00012b78       ??_R3CPicturePropPageFactory@CPicturePropPage@@8 5f5a0b78     ppgpict.obj
 0002:00012b88       ??_R4CPicturePropPageFactory@CPicturePropPage@@6B@ 5f5a0b88     ppgpict.obj
 0002:00012ba0       ??_R2CStockPropPage@@8     5f5a0ba0     ppgstock.obj
 0002:00012bc0       ??_R3CStockPropPage@@8     5f5a0bc0     ppgstock.obj
 0002:00012bd0       ??_R4CStockPropPage@@6B@   5f5a0bd0     ppgstock.obj
 0002:00012be4       ??_R2CPropExchange@@8      5f5a0be4     ctlinl.obj
 0002:00012bf0       ??_R3CPropExchange@@8      5f5a0bf0     ctlinl.obj
 0002:00012c00       ??_R4CPropExchange@@6B@    5f5a0c00     ctlinl.obj
 0002:00012c18       ??_R1A@?0A@A@CDataPathProperty@@8 5f5a0c18     ctlinl.obj
 0002:00012c30       ??_R2CDataPathProperty@@8  5f5a0c30     ctlinl.obj
 0002:00012c50       ??_R3CDataPathProperty@@8  5f5a0c50     ctlinl.obj
 0002:00012c60       ??_R4CDataPathProperty@@6B@ 5f5a0c60     ctlinl.obj
 0002:00012c78       ??_R1A@?0A@A@CCachedDataPathProperty@@8 5f5a0c78     ctlinl.obj
 0002:00012c90       ??_R2CCachedDataPathProperty@@8 5f5a0c90     ctlinl.obj
 0002:00012cb0       ??_R3CCachedDataPathProperty@@8 5f5a0cb0     ctlinl.obj
 0002:00012cc0       ??_R4CCachedDataPathProperty@@6B@ 5f5a0cc0     ctlinl.obj
 0002:00012cd8       ??_R1A@?0A@A@type_info@@8  5f5a0cd8     msvcrtd:ti_inst.obj
 0002:00012cf0       ??_R2type_info@@8          5f5a0cf0     msvcrtd:ti_inst.obj
 0002:00012cf8       ??_R3type_info@@8          5f5a0cf8     msvcrtd:ti_inst.obj
 0002:00012d08       ??_R4type_info@@6B@        5f5a0d08     msvcrtd:ti_inst.obj
 0002:00013e50       __CT??_R0PAX@84            5f5a1e50     oledisp1.obj
 0002:00013e70       __CT??_R0PAVCObject@@@84   5f5a1e70     oledisp1.obj
 0002:00013e90       __CT??_R0PAVCException@@@84 5f5a1e90     oledisp1.obj
 0002:00013eb0       __CT??_R0PAVCOleDispatchException@@@84 5f5a1eb0     oledisp1.obj
 0002:00013ed0       __CTA4PAVCOleDispatchException@@ 5f5a1ed0     oledisp1.obj
 0002:00013ee8       __TI4PAVCOleDispatchException@@ 5f5a1ee8     oledisp1.obj
 0002:00015658       __CT??_R0PAVCOleException@@@84 5f5a3658     olemisc.obj
 0002:00015678       __CTA4PAVCOleException@@   5f5a3678     olemisc.obj
 0002:00015690       __TI4PAVCOleException@@    5f5a3690     olemisc.obj
 0002:00016f58       __CTA3PAVCException@@      5f5a4f58     oleverb.obj
 0002:00016f68       __TI3PAVCException@@       5f5a4f68     oleverb.obj
 0002:0001c928       __DELAY_IMPORT_DESCRIPTOR_OLEPRO32 5f5aa928     olepro32:OLEPRO32.DLL
 0002:0001c948       __DELAY_IMPORT_DESCRIPTOR_ADVAPI32 5f5aa948     advapi32:ADVAPI32.dll
 0002:0001c968       __DELAY_IMPORT_DESCRIPTOR_ole32 5f5aa968     ole32:ole32.dll
 0002:0001c988       __DELAY_IMPORT_DESCRIPTOR_OLEAUT32 5f5aa988     oleaut32:OLEAUT32.dll
 0002:0001c9a8       __DELAY_IMPORT_DESCRIPTOR_oledlg 5f5aa9a8     oledlg:oledlg.dll
 0002:0001c9c8       __DELAY_IMPORT_DESCRIPTOR_urlmon 5f5aa9c8     urlmon:urlmon.dll
 0002:0001c9e8       __DELAY_IMPORT_DESCRIPTOR_SHELL32 5f5aa9e8     shell32:SHELL32.dll
 0002:0001ca08       __NULL_DELAY_IMPORT_DESCRIPTOR 5f5aaa08     olepro32:OLEPRO32.DLL
 0002:0001ca50       \177ADVAPI32_NULL_THUNK_DATA_DLN 5f5aaa50     advapi32:ADVAPI32.dll
 0002:0001caf0       \177OLEAUT32_NULL_THUNK_DATA_DLN 5f5aaaf0     oleaut32:OLEAUT32.dll
 0002:0001cb08       \177OLEPRO32_NULL_THUNK_DATA_DLN 5f5aab08     olepro32:OLEPRO32.DLL
 0002:0001cb18       \177SHELL32_NULL_THUNK_DATA_DLN 5f5aab18     shell32:SHELL32.dll
 0002:0001cc50       \177ole32_NULL_THUNK_DATA_DLN 5f5aac50     ole32:ole32.dll
 0002:0001cc7c       \177oledlg_NULL_THUNK_DATA_DLN 5f5aac7c     oledlg:oledlg.dll
 0002:0001cc90       \177urlmon_NULL_THUNK_DATA_DLN 5f5aac90     urlmon:urlmon.dll
 0002:0001d3e4       \177OLEPRO32_NULL_THUNK_DATA_DLB 5f5ab3e4     olepro32:OLEPRO32.DLL
 0002:0001d3fc       \177ADVAPI32_NULL_THUNK_DATA_DLB 5f5ab3fc     advapi32:ADVAPI32.dll
 0002:0001d428       \177ole32_NULL_THUNK_DATA_DLB 5f5ab428     ole32:ole32.dll
 0002:0001d560       \177OLEAUT32_NULL_THUNK_DATA_DLB 5f5ab560     oleaut32:OLEAUT32.dll
 0002:0001d600       \177oledlg_NULL_THUNK_DATA_DLB 5f5ab600     oledlg:oledlg.dll
 0002:0001d62c       \177urlmon_NULL_THUNK_DATA_DLB 5f5ab62c     urlmon:urlmon.dll
 0002:0001d640       \177SHELL32_NULL_THUNK_DATA_DLB 5f5ab640     shell32:SHELL32.dll
 0002:0001d64c       __IMPORT_DESCRIPTOR_MFC42D 5f5ab64c     MFC42D:MFC42D.DLL
 0002:0001d660       __IMPORT_DESCRIPTOR_MSVCRTD 5f5ab660     msvcrtd:MSVCRTD.dll
 0002:0001d674       __IMPORT_DESCRIPTOR_KERNEL32 5f5ab674     kernel32:KERNEL32.dll
 0002:0001d688       __IMPORT_DESCRIPTOR_GDI32  5f5ab688     gdi32:GDI32.dll
 0002:0001d69c       __IMPORT_DESCRIPTOR_USER32 5f5ab69c     user32:USER32.dll
 0002:0001d6b0       __NULL_IMPORT_DESCRIPTOR   5f5ab6b0     MFC42D:MFC42D.DLL
 0003:00000000       ___xc_a                    5f5b1000     msvcrtd:cinitexe.obj
 0003:00000038       ___xc_z                    5f5b1038     msvcrtd:cinitexe.obj
 0003:0000003c       ___xi_a                    5f5b103c     msvcrtd:cinitexe.obj
 0003:00000040       ___xi_z                    5f5b1040     msvcrtd:cinitexe.obj
 0003:0000005c       __pRawDllMain              5f5b105c     dllole.obj
 0003:00000060       ?_afxForceVectorDelete_mfco@@3P6AXXZA 5f5b1060     dllole.obj
 0003:00000068       ?GUID_ATLVer30@ATL@@3U_GUID@@A 5f5b1068     dllole.obj
 0003:00000078       ?_afxTickCount@@3KA        5f5b1078     oleinit.obj
 0003:000000a0       ??_R0?AVCObject@@@8        5f5b10a0     olecli1.obj
 0003:000000b8       ??_R0?AVCCmdTarget@@@8     5f5b10b8     olecli1.obj
 0003:000000d8       ??_R0?AVCDocItem@@@8       5f5b10d8     olecli1.obj
 0003:000000f0       ??_R0?AVCOleClientItem@@@8 5f5b10f0     olecli1.obj
 0003:00000110       ??_R0?AUIUnknown@@@8       5f5b1110     olecli1.obj
 0003:00000128       ??_R0?AUIOleClientSite@@@8 5f5b1128     olecli1.obj
 0003:00000148       ??_R0?AVXOleClientSite@COleClientItem@@@8 5f5b1148     olecli1.obj
 0003:00000178       ??_R0?AUIAdviseSink@@@8    5f5b1178     olecli1.obj
 0003:00000198       ??_R0?AVXAdviseSink@COleClientItem@@@8 5f5b1198     olecli1.obj
 0003:000001c8       ??_R0?AUIOleWindow@@@8     5f5b11c8     olecli1.obj
 0003:000001e8       ??_R0?AUIOleInPlaceSite@@@8 5f5b11e8     olecli1.obj
 0003:00000208       ??_R0?AVXOleIPSite@COleClientItem@@@8 5f5b1208     olecli1.obj
 0003:00000230       ??_R0PAVCException@@@8     5f5b1230     olecli1.obj
 0003:00000258       ??_R0?AVCOleFrameHook@@@8  5f5b1258     olecli2.obj
 0003:00000278       ??_R0?AUIOleInPlaceUIWindow@@@8 5f5b1278     olecli2.obj
 0003:000002a0       ??_R0?AUIOleInPlaceFrame@@@8 5f5b12a0     olecli2.obj
 0003:000002c0       ??_R0?AVXOleInPlaceFrame@COleFrameHook@@@8 5f5b12c0     olecli2.obj
 0003:000002f0       ??_R0?AUIOleCommandTarget@@@8 5f5b12f0     olecli2.obj
 0003:00000310       ??_R0?AVXOleCommandTarget@COleFrameHook@@@8 5f5b1310     olecli2.obj
 0003:00000380       ??_R0?AVCOleDataSource@@@8 5f5b1380     oledobj2.obj
 0003:000003a0       ??_R0?AUIDataObject@@@8    5f5b13a0     oledobj2.obj
 0003:000003c0       ??_R0?AVXDataObject@COleDataSource@@@8 5f5b13c0     oledobj2.obj
 0003:000003f0       ??_R0?AVCEnumArray@@@8     5f5b13f0     oledobj2.obj
 0003:00000410       ??_R0?AVCEnumFormatEtc@@@8 5f5b1410     oledobj2.obj
 0003:00000440       ??_R0?AUIDispatch@@@8      5f5b1440     oledisp1.obj
 0003:00000458       ??_R0?AVCOleDispatchImpl@@@8 5f5b1458     oledisp1.obj
 0003:00000478       ??_R0PAVCOleException@@@8  5f5b1478     oledisp1.obj
 0003:00000498       ??_R0?AVCException@@@8     5f5b1498     oledisp1.obj
 0003:000004b8       ??_R0?AVCOleDispatchException@@@8 5f5b14b8     oledisp1.obj
 0003:000004e0       ??_R0PAX@8                 5f5b14e0     oledisp1.obj
 0003:000004f0       ??_R0PAVCObject@@@8        5f5b14f0     oledisp1.obj
 0003:00000508       ??_R0PAVCOleDispatchException@@@8 5f5b1508     oledisp1.obj
 0003:00000558       ??_R0?AUIOleUILinkContainerA@@@8 5f5b1558     oledlgs1.obj
 0003:00000580       ??_R0?AUIOleUILinkInfoA@@@8 5f5b1580     oledlgs1.obj
 0003:000005a0       ??_R0?AVCOleUILinkInfo@@@8 5f5b15a0     oledlgs1.obj
 0003:000005c0       ??_R0?AVCWnd@@@8           5f5b15c0     oledlgs1.obj
 0003:000005d8       ??_R0?AVCDialog@@@8        5f5b15d8     oledlgs1.obj
 0003:000005f0       ??_R0?AVCCommonDialog@@@8  5f5b15f0     oledlgs1.obj
 0003:00000610       ??_R0?AVCOleDialog@@@8     5f5b1610     oledlgs1.obj
 0003:00000630       ??_R0?AVCOleInsertDialog@@@8 5f5b1630     oledlgs1.obj
 0003:00000650       ??_R0?AVCOleConvertDialog@@@8 5f5b1650     oledlgs1.obj
 0003:00000670       ??_R0?AVCOleChangeIconDialog@@@8 5f5b1670     oledlgs1.obj
 0003:00000698       ??_R0?AVCOleLinksDialog@@@8 5f5b1698     oledlgs1.obj
 0003:000006b8       ??_R0?AVCOleUpdateDialog@@@8 5f5b16b8     oledlgs1.obj
 0003:000006d8       ??_R0?AVCOlePasteSpecialDialog@@@8 5f5b16d8     oledlgs1.obj
 0003:00000710       ??_R0?AVCOleBusyDialog@@@8 5f5b1710     oledlgs2.obj
 0003:00000740       ??_R0?AVCOlePropertiesDialog@@@8 5f5b1740     oledlgs3.obj
 0003:00000768       ??_R0?AUIOleUIObjInfoA@@@8 5f5b1768     oledlgs3.obj
 0003:00000788       ??_R0?AVXOleUIObjInfo@COlePropertiesDialog@@@8 5f5b1788     oledlgs3.obj
 0003:000007c0       ??_R0?AVCOleChangeSourceDialog@@@8 5f5b17c0     oledlgs3.obj
 0003:000007e8       ??_R0?AVCNoTrackObject@@@8 5f5b17e8     oledata.obj
 0003:00000808       ??_R0?AV_AFX_OLE_STATE@@@8 5f5b1808     oledata.obj
 0003:00000828       ?_afxMonthDays@@3PAHA      5f5b1828     olevar.obj
 0003:00000880       ?classCDocItem@CDocItem@@2UCRuntimeClass@@A 5f5b1880     oledoc1.obj
 0003:000008b0       ??_R0?AVCDocument@@@8      5f5b18b0     oledoc1.obj
 0003:000008c8       ??_R0?AVCOleDocument@@@8   5f5b18c8     oledoc1.obj
 0003:00000900       ??_R0?AVCOleDropSource@@@8 5f5b1900     oledrop1.obj
 0003:00000920       ??_R0?AUIDropSource@@@8    5f5b1920     oledrop1.obj
 0003:00000940       ??_R0?AVXDropSource@COleDropSource@@@8 5f5b1940     oledrop1.obj
 0003:00000980       ??_R0?AVCOleDropTarget@@@8 5f5b1980     oledrop2.obj
 0003:000009a0       ??_R0?AUIDropTarget@@@8    5f5b19a0     oledrop2.obj
 0003:000009c0       ??_R0?AVXDropTarget@COleDropTarget@@@8 5f5b19c0     oledrop2.obj
 0003:000009f8       ??_R0?AVCOleMessageFilter@@@8 5f5b19f8     olemsgf.obj
 0003:00000a18       ??_R0?AUIMessageFilter@@@8 5f5b1a18     olemsgf.obj
 0003:00000a38       ??_R0?AVXMessageFilter@COleMessageFilter@@@8 5f5b1a38     olemsgf.obj
 0003:00000a78       ??_R0?AUIEnumVOID@@@8      5f5b1a78     oleenum.obj
 0003:00000a90       ??_R0?AVXEnumVOID@CEnumArray@@@8 5f5b1a90     oleenum.obj
 0003:00000ac0       ??_R0?AVCOleObjectFactory@@@8 5f5b1ac0     olefact.obj
 0003:00000ae0       ??_R0?AUIClassFactory@@@8  5f5b1ae0     olefact.obj
 0003:00000b00       ??_R0?AUIClassFactory2@@@8 5f5b1b00     olefact.obj
 0003:00000b20       ??_R0?AVXClassFactory@COleObjectFactory@@@8 5f5b1b20     olefact.obj
 0003:00000b60       ??_R0?AVCFrameWnd@@@8      5f5b1b60     oleipfrm.obj
 0003:00000b78       ??_R0?AVCOleCntrFrameWnd@@@8 5f5b1b78     oleipfrm.obj
 0003:00000b98       ??_R0?AVCOleIPFrameWnd@@@8 5f5b1b98     oleipfrm.obj
 0003:00000bc8       ??_R0?AVCOleLinkingDoc@@@8 5f5b1bc8     olelink.obj
 0003:00000be8       ??_R0?AUIPersist@@@8       5f5b1be8     olelink.obj
 0003:00000c00       ??_R0?AUIPersistFile@@@8   5f5b1c00     olelink.obj
 0003:00000c20       ??_R0?AVXPersistFile@COleLinkingDoc@@@8 5f5b1c20     olelink.obj
 0003:00000c50       ??_R0?AUIParseDisplayName@@@8 5f5b1c50     olelink.obj
 0003:00000c70       ??_R0?AUIOleContainer@@@8  5f5b1c70     olelink.obj
 0003:00000c90       ??_R0?AUIOleItemContainer@@@8 5f5b1c90     olelink.obj
 0003:00000cb0       ??_R0?AVXOleItemContainer@COleLinkingDoc@@@8 5f5b1cb0     olelink.obj
 0003:00000d28       ??_R0?AVCFile@@@8          5f5b1d28     olestrm.obj
 0003:00000d40       ??_R0?AVCOleStreamFile@@@8 5f5b1d40     olestrm.obj
 0003:00000d78       ??_R0?AVCOleServerDoc@@@8  5f5b1d78     olesvr1.obj
 0003:00000d98       ??_R0?AUIPersistStorage@@@8 5f5b1d98     olesvr1.obj
 0003:00000db8       ??_R0?AVXPersistStorage@COleServerDoc@@@8 5f5b1db8     olesvr1.obj
 0003:00000de8       ??_R0?AUIOleObject@@@8     5f5b1de8     olesvr1.obj
 0003:00000e08       ??_R0?AVXOleObject@COleServerDoc@@@8 5f5b1e08     olesvr1.obj
 0003:00000e30       ??_R0?AVXDataObject@COleServerDoc@@@8 5f5b1e30     olesvr1.obj
 0003:00000e58       ??_R0?AUIOleInPlaceObject@@@8 5f5b1e58     olesvr1.obj
 0003:00000e78       ??_R0?AVXOleInPlaceObject@COleServerDoc@@@8 5f5b1e78     olesvr1.obj
 0003:00000ea8       ??_R0?AUIOleInPlaceActiveObject@@@8 5f5b1ea8     olesvr1.obj
 0003:00000ed0       ??_R0?AVXOleInPlaceActiveObject@COleServerDoc@@@8 5f5b1ed0     olesvr1.obj
 0003:00000f10       ??_R0?AVCOleServerItem@@@8 5f5b1f10     olesvr2.obj
 0003:00000f30       ??_R0?AVCItemDataSource@COleServerItem@@@8 5f5b1f30     olesvr2.obj
 0003:00000f60       ??_R0?AVXOleObject@COleServerItem@@@8 5f5b1f60     olesvr2.obj
 0003:00000f88       ??_R0?AVXDataObject@COleServerItem@@@8 5f5b1f88     olesvr2.obj
 0003:00000fd0       ??_R0?AVCOleTemplateServer@@@8 5f5b1fd0     oletsvr.obj
 0003:00001028       ??_R0?AVCInnerUnknown@@@8  5f5b2028     oleunk.obj
 0003:00001048       ??_R0?AVCOleException@@@8  5f5b2048     oleunk.obj
 0003:00001070       ??_R0?AVCEnumOleVerb@@@8   5f5b2070     oleverb.obj
 0003:00001090       ?classCRichEditCntrItem@CRichEditCntrItem@@2UCRuntimeClass@@A 5f5b2090     viewrich.obj
 0003:000010b8       ?lMaxSize@CRichEditView@@2KA 5f5b20b8     viewrich.obj
 0003:000010c0       ??_R0?AVCView@@@8          5f5b20c0     viewrich.obj
 0003:000010d8       ??_R0?AVCCtrlView@@@8      5f5b20d8     viewrich.obj
 0003:000010f0       ??_R0?AVCRichEditView@@@8  5f5b20f0     viewrich.obj
 0003:00001110       ??_R0?AUIRichEditOleCallback@@@8 5f5b2110     viewrich.obj
 0003:00001138       ??_R0?AVXRichEditOleCallback@CRichEditView@@@8 5f5b2138     viewrich.obj
 0003:00001170       ??_R0PAVCFileException@@@8 5f5b2170     viewrich.obj
 0003:00001190       ??_R0?AVCRichEditDoc@@@8   5f5b2190     viewrich.obj
 0003:000011b0       ??_R0?AVCRichEditCntrItem@@@8 5f5b21b0     viewrich.obj
 0003:000011d0       ??_R0?AV_AFX_EDIT_STATE@@@8 5f5b21d0     viewrich.obj
 0003:000011f0       ??_R0?AV_AFX_RICHEDIT_STATE@@@8 5f5b21f0     viewrich.obj
 0003:00001230       ??_R0?AVCMapPtrToPtr@@@8   5f5b2230     oletyplb.obj
 0003:00001250       ??_R0?AVCTypeLibCacheMap@@@8 5f5b2250     oletyplb.obj
 0003:00001288       ??_R0?AVCMonikerFile@@@8   5f5b2288     olemon.obj
 0003:000012a8       ??_R0?AUIBindHost@@@8      5f5b22a8     olemon.obj
 0003:000012c0       ??_R0?AV_AfxBindHost@@@8   5f5b22c0     olemon.obj
 0003:000012f0       ??_R0?AVCDateTimeCtrl@@@8  5f5b22f0     winctrl5.obj
 0003:00001310       ??_R0?AVCMonthCalCtrl@@@8  5f5b2310     winctrl5.obj
 0003:0000133c       ?_eventsinkEntryCount@CHtmlView@@0IA 5f5b233c     viewhtml.obj
 0003:00001350       ??_R0?AVCScrollView@@@8    5f5b2350     viewhtml.obj
 0003:00001370       ??_R0?AVCFormView@@@8      5f5b2370     viewhtml.obj
 0003:00001388       ??_R0?AVCHtmlView@@@8      5f5b2388     viewhtml.obj
 0003:000013b0       ??_R0?AVCOccManager@@@8    5f5b23b0     occmgr.obj
 0003:000013dc       ?_dwStockPropMask@COleControlContainer@@0KA 5f5b23dc     occcont.obj
 0003:000013e0       ?_dispatchEntryCount@COleControlContainer@@0IA 5f5b23e0     occcont.obj
 0003:000013f0       ??_R0?AVCOleControlContainer@@@8 5f5b23f0     occcont.obj
 0003:00001418       ??_R0?AVXOleIPFrame@COleControlContainer@@@8 5f5b2418     occcont.obj
 0003:00001448       ??_R0?AVXOleContainer@COleControlContainer@@@8 5f5b2448     occcont.obj
 0003:00001480       ??_R0?AVCEnumUnknown@@@8   5f5b2480     occcont.obj
 0003:000014a8       ??_R0?AVCOleControlSite@@@8 5f5b24a8     occsite.obj
 0003:000014c8       ??_R0?AVXOleClientSite@COleControlSite@@@8 5f5b24c8     occsite.obj
 0003:000014f8       ??_R0?AVXOleIPSite@COleControlSite@@@8 5f5b24f8     occsite.obj
 0003:00001528       ??_R0?AUIOleControlSite@@@8 5f5b2528     occsite.obj
 0003:00001548       ??_R0?AVXOleControlSite@COleControlSite@@@8 5f5b2548     occsite.obj
 0003:00001578       ??_R0?AVXAmbientProps@COleControlSite@@@8 5f5b2578     occsite.obj
 0003:000015a8       ??_R0?AUIPropertyNotifySink@@@8 5f5b25a8     occsite.obj
 0003:000015d0       ??_R0?AVXPropertyNotifySink@COleControlSite@@@8 5f5b25d0     occsite.obj
 0003:00001608       ??_R0?AVXEventSink@COleControlSite@@@8 5f5b2608     occsite.obj
 0003:00001638       ??_R0?AUIBoundObjectSite@@@8 5f5b2638     occsite.obj
 0003:00001658       ??_R0?AVXBoundObjectSite@COleControlSite@@@8 5f5b2658     occsite.obj
 0003:00001688       ??_R0?AUINotifyDBEvents@@@8 5f5b2688     occsite.obj
 0003:000016a8       ??_R0?AVXNotifyDBEvents@COleControlSite@@@8 5f5b26a8     occsite.obj
 0003:000016d8       ??_R0?AUIRowsetNotify@@@8  5f5b26d8     occsite.obj
 0003:000016f8       ??_R0?AVXRowsetNotify@COleControlSite@@@8 5f5b26f8     occsite.obj
 0003:00001728       ??_R0?AVCDataSourceControl@@@8 5f5b2728     occsite.obj
 0003:00001750       __GUID_0c733a05_2a1c_11ce_ade5_00aa0044773d 5f5b2750     occsite.obj
 0003:00001760       __GUID_0c733a11_2a1c_11ce_ade5_00aa0044773d 5f5b2760     occsite.obj
 0003:00001770       __GUID_0c733a8c_2a1c_11ce_ade5_00aa0044773d 5f5b2770     occsite.obj
 0003:00001790       ??_R0?AVCOleControlLock@@@8 5f5b2790     occlock.obj
 0003:000017f8       ??_R0?AVCDocObjectServer@@@8 5f5b27f8     oledocob.obj
 0003:00001818       ??_R0?AVXOleObject@CDocObjectServer@@@8 5f5b2818     oledocob.obj
 0003:00001848       ??_R0?AUIOleDocument@@@8   5f5b2848     oledocob.obj
 0003:00001868       ??_R0?AVXOleDocument@CDocObjectServer@@@8 5f5b2868     oledocob.obj
 0003:00001898       ??_R0?AUIOleDocumentView@@@8 5f5b2898     oledocob.obj
 0003:000018b8       ??_R0?AVXOleDocumentView@CDocObjectServer@@@8 5f5b28b8     oledocob.obj
 0003:000018e8       ??_R0?AVXOleCommandTarget@CDocObjectServer@@@8 5f5b28e8     oledocob.obj
 0003:00001920       ??_R0?AUIPrint@@@8         5f5b2920     oledocob.obj
 0003:00001938       ??_R0?AVXPrint@CDocObjectServer@@@8 5f5b2938     oledocob.obj
 0003:00001960       ??_R0?AVCDocObjectServerItem@@@8 5f5b2960     oledocob.obj
 0003:00001998       ??_R0?AVCCmdUI@@@8         5f5b2998     oledoctg.obj
 0003:000019b0       ??_R0?AVCOleCmdUI@@@8      5f5b29b0     oledoctg.obj
 0003:000019d8       ??_R0?AVCOleDocIPFrameWnd@@@8 5f5b29d8     oledocip.obj
 0003:00001a08       ??_R0?AVCOleDocObjectItem@@@8 5f5b2a08     oledoccl.obj
 0003:00001a28       ??_R0?AUIOleDocumentSite@@@8 5f5b2a28     oledoccl.obj
 0003:00001a48       ??_R0?AVXOleDocumentSite@COleDocObjectItem@@@8 5f5b2a48     oledoccl.obj
 0003:00001a90       ??_R0?AVCAsyncMonikerFile@@@8 5f5b2a90     oleasmon.obj
 0003:00001ab0       ??_R0?AUIBindStatusCallback@@@8 5f5b2ab0     oleasmon.obj
 0003:00001ad8       ??_R0?AV_AfxBindStatusCallback@@@8 5f5b2ad8     oleasmon.obj
 0003:00001b00       ??_R0?AVCInnerUnknown@_AfxBindStatusCallback@@@8 5f5b2b00     oleasmon.obj
 0003:00001b40       ??_R0?AVCControlBar@@@8    5f5b2b40     olebar.obj
 0003:00001b60       ??_R0?AVCOleResizeBar@@@8  5f5b2b60     olebar.obj
 0003:00001b98       ??_R0?AVCOleControl@@@8    5f5b2b98     ctlcore.obj
 0003:00001bb8       ??_R0?AVXPersistStorage@COleControl@@@8 5f5b2bb8     ctlcore.obj
 0003:00001be8       ??_R0?AUIPersistStreamInit@@@8 5f5b2be8     ctlcore.obj
 0003:00001c10       ??_R0?AVXPersistStreamInit@COleControl@@@8 5f5b2c10     ctlcore.obj
 0003:00001c40       ??_R0?AUIPersistMemory@@@8 5f5b2c40     ctlcore.obj
 0003:00001c60       ??_R0?AVXPersistMemory@COleControl@@@8 5f5b2c60     ctlcore.obj
 0003:00001c90       ??_R0?AUIPersistPropertyBag@@@8 5f5b2c90     ctlcore.obj
 0003:00001cb8       ??_R0?AVXPersistPropertyBag@COleControl@@@8 5f5b2cb8     ctlcore.obj
 0003:00001ce8       ??_R0?AVXOleObject@COleControl@@@8 5f5b2ce8     ctlcore.obj
 0003:00001d10       ??_R0?AUIViewObject@@@8    5f5b2d10     ctlcore.obj
 0003:00001d30       ??_R0?AUIViewObject2@@@8   5f5b2d30     ctlcore.obj
 0003:00001d50       ??_R0?AUIViewObjectEx@@@8  5f5b2d50     ctlcore.obj
 0003:00001d70       ??_R0?AVXViewObject@COleControl@@@8 5f5b2d70     ctlcore.obj
 0003:00001d98       ??_R0?AVXDataObject@COleControl@@@8 5f5b2d98     ctlcore.obj
 0003:00001dc0       ??_R0?AUIOleInPlaceObjectWindowless@@@8 5f5b2dc0     ctlcore.obj
 0003:00001df0       ??_R0?AVXOleInPlaceObject@COleControl@@@8 5f5b2df0     ctlcore.obj
 0003:00001e20       ??_R0?AVXOleInPlaceActiveObject@COleControl@@@8 5f5b2e20     ctlcore.obj
 0003:00001e58       ??_R0?AUIOleCache@@@8      5f5b2e58     ctlcore.obj
 0003:00001e70       ??_R0?AVXOleCache@COleControl@@@8 5f5b2e70     ctlcore.obj
 0003:00001e98       ??_R0?AUIOleControl@@@8    5f5b2e98     ctlcore.obj
 0003:00001eb8       ??_R0?AVXOleControl@COleControl@@@8 5f5b2eb8     ctlcore.obj
 0003:00001ee0       ??_R0?AUIProvideClassInfo@@@8 5f5b2ee0     ctlcore.obj
 0003:00001f00       ??_R0?AUIProvideClassInfo2@@@8 5f5b2f00     ctlcore.obj
 0003:00001f28       ??_R0?AVXProvideClassInfo@COleControl@@@8 5f5b2f28     ctlcore.obj
 0003:00001f58       ??_R0?AUISpecifyPropertyPages@@@8 5f5b2f58     ctlcore.obj
 0003:00001f80       ??_R0?AVXSpecifyPropertyPages@COleControl@@@8 5f5b2f80     ctlcore.obj
 0003:00001fb0       ??_R0?AUIPerPropertyBrowsing@@@8 5f5b2fb0     ctlcore.obj
 0003:00001fd8       ??_R0?AVXPerPropertyBrowsing@COleControl@@@8 5f5b2fd8     ctlcore.obj
 0003:00002008       ??_R0?AVXFontNotification@COleControl@@@8 5f5b3008     ctlcore.obj
 0003:00002038       ??_R0?AUIQuickActivate@@@8 5f5b3038     ctlcore.obj
 0003:00002058       ??_R0?AVXQuickActivate@COleControl@@@8 5f5b3058     ctlcore.obj
 0003:00002088       ??_R0?AUIPointerInactive@@@8 5f5b3088     ctlcore.obj
 0003:000020a8       ??_R0?AVXPointerInactive@COleControl@@@8 5f5b30a8     ctlcore.obj
 0003:000020d8       ??_R0?AVCConnectionPoint@@@8 5f5b30d8     ctlcore.obj
 0003:000020f8       ??_R0?AVXEventConnPt@COleControl@@@8 5f5b30f8     ctlcore.obj
 0003:00002120       ??_R0?AVXPropConnPt@COleControl@@@8 5f5b3120     ctlcore.obj
 0003:00002148       ??_R0?AVCReflectorWnd@@@8  5f5b3148     ctlcore.obj
 0003:00002168       ??_R0?AVCParkingWnd@@@8    5f5b3168     ctlcore.obj
 0003:000021a0       ??_R0?AVCControlDataSource@COleControl@@@8 5f5b31a0     ctldata.obj
 0003:00002200       ??_R0?AVCControlFrameWnd@@@8 5f5b3200     ctlframe.obj
 0003:00002258       ??_R0?AUIConnectionPoint@@@8 5f5b3258     oleconn.obj
 0003:00002278       ??_R0?AVXConnPt@CConnectionPoint@@@8 5f5b3278     oleconn.obj
 0003:000022a0       ??_R0?AVCEnumConnections@@@8 5f5b32a0     oleconn.obj
 0003:000022c0       ??_R0?AVCEnumConnPoints@@@8 5f5b32c0     oleconn.obj
 0003:000022e0       ??_R0?AUIConnectionPointContainer@@@8 5f5b32e0     oleconn.obj
 0003:00002308       ??_R0?AVCOleConnPtContainer@@@8 5f5b3308     oleconn.obj
 0003:00002358       ??_R0?AVCPropExchange@@@8  5f5b3358     ctlpropx.obj
 0003:00002378       ??_R0?AVCArchivePropExchange@@@8 5f5b3378     ctlpropx.obj
 0003:000023a0       ??_R0?AVCResetPropExchange@@@8 5f5b33a0     ctlpropx.obj
 0003:000023c8       ??_R0?AVCAsyncPropExchange@@@8 5f5b33c8     ctlpropx.obj
 0003:000023f8       ??_R0?AUAFX_DDPDATA@@@8    5f5b33f8     ctlppg.obj
 0003:00002418       ??_R0?AVCOlePropertyPage@@@8 5f5b3418     ctlppg.obj
 0003:00002438       ??_R0?AUIPropertyPage@@@8  5f5b3438     ctlppg.obj
 0003:00002458       ??_R0?AUIPropertyPage2@@@8 5f5b3458     ctlppg.obj
 0003:00002478       ??_R0?AVXPropertyPage@COlePropertyPage@@@8 5f5b3478     ctlppg.obj
 0003:000024a8       ??_R0?AVXPropNotifySink@COlePropertyPage@@@8 5f5b34a8     ctlppg.obj
 0003:000024f0       ??_R0?AVCPropsetPropExchange@@@8 5f5b34f0     ctlpset.obj
 0003:00002570       ??_R0?AVCRectTracker@@@8   5f5b3570     ctltrack.obj
 0003:00002590       ??_R0?AVCControlRectTracker@@@8 5f5b3590     ctltrack.obj
 0003:000025d8       ??_R0?AUIPersistStream@@@8 5f5b35d8     ctlpbag.obj
 0003:000025f8       ??_R0?AVCBlobProperty@@@8  5f5b35f8     ctlpbag.obj
 0003:00002618       ??_R0?AVCPropbagPropExchange@@@8 5f5b3618     ctlpbag.obj
 0003:00002650       ??_R0?AV_AFXCTL_AMBIENT_CACHE@@@8 5f5b3650     ctlquick.obj
 0003:00002688       ??_R0?AVCDC@@@8            5f5b3688     ctlnownd.obj
 0003:000026a0       ??_R0?AVCWindowlessDC@@@8  5f5b36a0     ctlnownd.obj
 0003:000026d0       ??_R0?AVCButton@@@8        5f5b36d0     ppgcolor.obj
 0003:000026e8       ??_R0?AVCColorButton@@@8   5f5b36e8     ppgcolor.obj
 0003:00002708       ??_R0?AVCStockPropPage@@@8 5f5b3708     ppgcolor.obj
 0003:00002728       ??_R0?AVCColorPropPage@@@8 5f5b3728     ppgcolor.obj
 0003:00002748       ??_R0?AVCColorPropPageFactory@CColorPropPage@@@8 5f5b3748     ppgcolor.obj
 0003:0000277c       ?_afxTTDefaults@@3PAHA     5f5b377c     ppgfont.obj
 0003:000027c8       ??_R0?AVCFontPropPage@@@8  5f5b37c8     ppgfont.obj
 0003:000027e8       ??_R0?AVCComboBox@@@8      5f5b37e8     ppgfont.obj
 0003:00002800       ??_R0?AVCSizeComboBox@@@8  5f5b3800     ppgfont.obj
 0003:00002820       ??_R0?AVCFontComboBox@@@8  5f5b3820     ppgfont.obj
 0003:00002840       ??_R0PAVCMemoryException@@@8 5f5b3840     ppgfont.obj
 0003:00002860       ??_R0?AVCFontPropPageFactory@CFontPropPage@@@8 5f5b3860     ppgfont.obj
 0003:00002898       ?_afxPictDescEmpty@@3UtagPICTDESC@@A 5f5b3898     ppgpict.obj
 0003:000028b8       ??_R0?AVCPicturePropPage@@@8 5f5b38b8     ppgpict.obj
 0003:000028d8       ??_R0?AVCPicturePropPageFactory@CPicturePropPage@@@8 5f5b38d8     ppgpict.obj
 0003:00002930       ??_R0?AVCDataPathProperty@@@8 5f5b3930     ctlinl.obj
 0003:00002950       ??_R0?AVCCachedDataPathProperty@@@8 5f5b3950     ctlinl.obj
 0003:00002980       ??_R0?AVtype_info@@@8      5f5b3980     msvcrtd:ti_inst.obj
 0003:000029a0       __imp__RegOpenKeyA@12      5f5b39a0     advapi32:ADVAPI32.dll
 0003:000029a4       __imp__RegDeleteKeyA@8     5f5b39a4     advapi32:ADVAPI32.dll
 0003:000029a8       __imp__RegCreateKeyA@12    5f5b39a8     advapi32:ADVAPI32.dll
 0003:000029ac       __imp__RegSetValueExA@24   5f5b39ac     advapi32:ADVAPI32.dll
 0003:000029b0       __imp__RegQueryValueA@16   5f5b39b0     advapi32:ADVAPI32.dll
 0003:000029b4       __imp__RegSetValueA@20     5f5b39b4     advapi32:ADVAPI32.dll
 0003:000029b8       __imp__RegCloseKey@4       5f5b39b8     advapi32:ADVAPI32.dll
 0003:000029bc       __imp__RegQueryValueExA@24 5f5b39bc     advapi32:ADVAPI32.dll
 0003:000029c0       __imp__RegOpenKeyExA@20    5f5b39c0     advapi32:ADVAPI32.dll
 0003:000029c4       __imp__RegEnumKeyA@16      5f5b39c4     advapi32:ADVAPI32.dll
 0003:000029c8       \177ADVAPI32_NULL_THUNK_DATA_DLA 5f5b39c8     advapi32:ADVAPI32.dll
 0003:000029cc       __imp__SafeArrayPutElement@12 5f5b39cc     oleaut32:OLEAUT32.dll
 0003:000029d0       __imp__VarBstrFromDate@20  5f5b39d0     oleaut32:OLEAUT32.dll
 0003:000029d4       __imp__VarDateFromStr@16   5f5b39d4     oleaut32:OLEAUT32.dll
 0003:000029d8       __imp__SysAllocStringByteLen@8 5f5b39d8     oleaut32:OLEAUT32.dll
 0003:000029dc       __imp__SysStringLen@4      5f5b39dc     oleaut32:OLEAUT32.dll
 0003:000029e0       __imp__LoadRegTypeLib@20   5f5b39e0     oleaut32:OLEAUT32.dll
 0003:000029e4       __imp__RegisterTypeLib@12  5f5b39e4     oleaut32:OLEAUT32.dll
 0003:000029e8       __imp__VariantTimeToSystemTime@12 5f5b39e8     oleaut32:OLEAUT32.dll
 0003:000029ec       __imp__LoadTypeLib@8       5f5b39ec     oleaut32:OLEAUT32.dll
 0003:000029f0       __imp__DosDateTimeToVariantTime@12 5f5b39f0     oleaut32:OLEAUT32.dll
 0003:000029f4       __imp__SafeArrayCreateVector@12 5f5b39f4     oleaut32:OLEAUT32.dll
 0003:000029f8       __imp__SafeArrayDestroyDescriptor@4 5f5b39f8     oleaut32:OLEAUT32.dll
 0003:000029fc       __imp__SafeArrayDestroyData@4 5f5b39fc     oleaut32:OLEAUT32.dll
 0003:00002a00       __imp__SafeArrayDestroy@4  5f5b3a00     oleaut32:OLEAUT32.dll
 0003:00002a04       __imp__SafeArrayUnlock@4   5f5b3a04     oleaut32:OLEAUT32.dll
 0003:00002a08       __imp__SafeArrayLock@4     5f5b3a08     oleaut32:OLEAUT32.dll
 0003:00002a0c       __imp__SafeArrayGetDim@4   5f5b3a0c     oleaut32:OLEAUT32.dll
 0003:00002a10       __imp__SafeArrayPtrOfIndex@12 5f5b3a10     oleaut32:OLEAUT32.dll
 0003:00002a14       __imp__SafeArrayGetElement@12 5f5b3a14     oleaut32:OLEAUT32.dll
 0003:00002a18       __imp__SafeArrayAllocDescriptor@8 5f5b3a18     oleaut32:OLEAUT32.dll
 0003:00002a1c       __imp__SafeArrayAllocData@4 5f5b3a1c     oleaut32:OLEAUT32.dll
 0003:00002a20       __imp__SafeArrayCopy@8     5f5b3a20     oleaut32:OLEAUT32.dll
 0003:00002a24       __imp__SafeArrayGetUBound@12 5f5b3a24     oleaut32:OLEAUT32.dll
 0003:00002a28       __imp__SafeArrayGetLBound@12 5f5b3a28     oleaut32:OLEAUT32.dll
 0003:00002a2c       __imp__VarBstrFromCy@20    5f5b3a2c     oleaut32:OLEAUT32.dll
 0003:00002a30       __imp__VarCyFromStr@16     5f5b3a30     oleaut32:OLEAUT32.dll
 0003:00002a34       __imp__SysStringByteLen@4  5f5b3a34     oleaut32:OLEAUT32.dll
 0003:00002a38       __imp__SafeArrayCreate@12  5f5b3a38     oleaut32:OLEAUT32.dll
 0003:00002a3c       __imp__SafeArrayRedim@8    5f5b3a3c     oleaut32:OLEAUT32.dll
 0003:00002a40       __imp__SafeArrayUnaccessData@4 5f5b3a40     oleaut32:OLEAUT32.dll
 0003:00002a44       __imp__SafeArrayGetElemsize@4 5f5b3a44     oleaut32:OLEAUT32.dll
 0003:00002a48       __imp__VariantClear@4      5f5b3a48     oleaut32:OLEAUT32.dll
 0003:00002a4c       __imp__VariantCopy@8       5f5b3a4c     oleaut32:OLEAUT32.dll
 0003:00002a50       __imp__SafeArrayAccessData@8 5f5b3a50     oleaut32:OLEAUT32.dll
 0003:00002a54       __imp__SysAllocString@4    5f5b3a54     oleaut32:OLEAUT32.dll
 0003:00002a58       __imp__SysFreeString@4     5f5b3a58     oleaut32:OLEAUT32.dll
 0003:00002a5c       __imp__SysReAllocStringLen@12 5f5b3a5c     oleaut32:OLEAUT32.dll
 0003:00002a60       __imp__SysAllocStringLen@8 5f5b3a60     oleaut32:OLEAUT32.dll
 0003:00002a64       __imp__VariantChangeType@16 5f5b3a64     oleaut32:OLEAUT32.dll
 0003:00002a68       \177OLEAUT32_NULL_THUNK_DATA_DLA 5f5b3a68     oleaut32:OLEAUT32.dll
 0003:00002a6c       __imp__OleCreateFontIndirect@12 5f5b3a6c     olepro32:OLEPRO32.DLL
 0003:00002a70       __imp__OleCreatePropertyFrame@44 5f5b3a70     olepro32:OLEPRO32.DLL
 0003:00002a74       __imp__OleLoadPicture@20   5f5b3a74     olepro32:OLEPRO32.DLL
 0003:00002a78       __imp__OleTranslateColor@12 5f5b3a78     olepro32:OLEPRO32.DLL
 0003:00002a7c       __imp__OleCreatePictureIndirect@16 5f5b3a7c     olepro32:OLEPRO32.DLL
 0003:00002a80       \177OLEPRO32_NULL_THUNK_DATA_DLA 5f5b3a80     olepro32:OLEPRO32.DLL
 0003:00002a84       __imp__ExtractIconA@12     5f5b3a84     shell32:SHELL32.dll
 0003:00002a88       __imp__DragFinish@4        5f5b3a88     shell32:SHELL32.dll
 0003:00002a8c       __imp__DragQueryFileA@16   5f5b3a8c     shell32:SHELL32.dll
 0003:00002a90       \177SHELL32_NULL_THUNK_DATA_DLA 5f5b3a90     shell32:SHELL32.dll
 0003:00002a94       __imp__ReadFmtUserTypeStg@12 5f5b3a94     ole32:ole32.dll
 0003:00002a98       __imp__CreateFileMoniker@8 5f5b3a98     ole32:ole32.dll
 0003:00002a9c       __imp__CoGetMalloc@8       5f5b3a9c     ole32:ole32.dll
 0003:00002aa0       __imp__StgCreateDocfile@16 5f5b3aa0     ole32:ole32.dll
 0003:00002aa4       __imp__StgOpenStorage@24   5f5b3aa4     ole32:ole32.dll
 0003:00002aa8       __imp__OleRegGetUserType@12 5f5b3aa8     ole32:ole32.dll
 0003:00002aac       __imp__GetClassFile@8      5f5b3aac     ole32:ole32.dll
 0003:00002ab0       __imp__ReadClassStg@8      5f5b3ab0     ole32:ole32.dll
 0003:00002ab4       __imp__StgIsStorageFile@4  5f5b3ab4     ole32:ole32.dll
 0003:00002ab8       __imp__CoLockObjectExternal@12 5f5b3ab8     ole32:ole32.dll
 0003:00002abc       __imp__RevokeDragDrop@4    5f5b3abc     ole32:ole32.dll
 0003:00002ac0       __imp__CoRegisterMessageFilter@8 5f5b3ac0     ole32:ole32.dll
 0003:00002ac4       __imp__CoRegisterClassObject@20 5f5b3ac4     ole32:ole32.dll
 0003:00002ac8       __imp__CoRevokeClassObject@4 5f5b3ac8     ole32:ole32.dll
 0003:00002acc       __imp__OleTranslateAccelerator@12 5f5b3acc     ole32:ole32.dll
 0003:00002ad0       __imp__IsAccelerator@16    5f5b3ad0     ole32:ole32.dll
 0003:00002ad4       __imp__CoCreateInstance@20 5f5b3ad4     ole32:ole32.dll
 0003:00002ad8       __imp__OleDestroyMenuDescriptor@4 5f5b3ad8     ole32:ole32.dll
 0003:00002adc       __imp__GetRunningObjectTable@8 5f5b3adc     ole32:ole32.dll
 0003:00002ae0       __imp__WriteClassStg@8     5f5b3ae0     ole32:ole32.dll
 0003:00002ae4       __imp__OleDuplicateData@12 5f5b3ae4     ole32:ole32.dll
 0003:00002ae8       __imp__SetConvertStg@8     5f5b3ae8     ole32:ole32.dll
 0003:00002aec       __imp__WriteFmtUserTypeStg@12 5f5b3aec     ole32:ole32.dll
 0003:00002af0       __imp__CoTreatAsClass@8    5f5b3af0     ole32:ole32.dll
 0003:00002af4       __imp__CoDisconnectObject@8 5f5b3af4     ole32:ole32.dll
 0003:00002af8       __imp__OleRegEnumVerbs@8   5f5b3af8     ole32:ole32.dll
 0003:00002afc       __imp__OleRegGetMiscStatus@12 5f5b3afc     ole32:ole32.dll
 0003:00002b00       __imp__CreateOleAdviseHolder@4 5f5b3b00     ole32:ole32.dll
 0003:00002b04       __imp__CreateDataAdviseHolder@4 5f5b3b04     ole32:ole32.dll
 0003:00002b08       __imp__CoGetClassObject@20 5f5b3b08     ole32:ole32.dll
 0003:00002b0c       __imp__StringFromGUID2@12  5f5b3b0c     ole32:ole32.dll
 0003:00002b10       __imp__CreateDataCache@16  5f5b3b10     ole32:ole32.dll
 0003:00002b14       __imp__ReadClassStm@8      5f5b3b14     ole32:ole32.dll
 0003:00002b18       __imp__OleLoadFromStream@12 5f5b3b18     ole32:ole32.dll
 0003:00002b1c       __imp__CLSIDFromString@8   5f5b3b1c     ole32:ole32.dll
 0003:00002b20       __imp__CLSIDFromProgID@8   5f5b3b20     ole32:ole32.dll
 0003:00002b24       __imp__CreateBindCtx@8     5f5b3b24     ole32:ole32.dll
 0003:00002b28       __imp__OleSetClipboard@4   5f5b3b28     ole32:ole32.dll
 0003:00002b2c       __imp__OleIsCurrentClipboard@4 5f5b3b2c     ole32:ole32.dll
 0003:00002b30       __imp__OleGetClipboard@4   5f5b3b30     ole32:ole32.dll
 0003:00002b34       __imp__CoTaskMemAlloc@4    5f5b3b34     ole32:ole32.dll
 0003:00002b38       __imp__OleRun@4            5f5b3b38     ole32:ole32.dll
 0003:00002b3c       __imp__OleQueryLinkFromData@4 5f5b3b3c     ole32:ole32.dll
 0003:00002b40       __imp__OleQueryCreateFromData@4 5f5b3b40     ole32:ole32.dll
 0003:00002b44       __imp__OleSetMenuDescriptor@20 5f5b3b44     ole32:ole32.dll
 0003:00002b48       __imp__OleIsRunning@4      5f5b3b48     ole32:ole32.dll
 0003:00002b4c       __imp__CreateItemMoniker@12 5f5b3b4c     ole32:ole32.dll
 0003:00002b50       __imp__CreateGenericComposite@12 5f5b3b50     ole32:ole32.dll
 0003:00002b54       __imp__CreateStreamOnHGlobal@12 5f5b3b54     ole32:ole32.dll
 0003:00002b58       __imp__OleSaveToStream@8   5f5b3b58     ole32:ole32.dll
 0003:00002b5c       __imp__WriteClassStm@8     5f5b3b5c     ole32:ole32.dll
 0003:00002b60       __imp__OleGetIconOfClass@12 5f5b3b60     ole32:ole32.dll
 0003:00002b64       __imp__ReleaseStgMedium@4  5f5b3b64     ole32:ole32.dll
 0003:00002b68       __imp__GetHGlobalFromILockBytes@8 5f5b3b68     ole32:ole32.dll
 0003:00002b6c       __imp__StgIsStorageILockBytes@4 5f5b3b6c     ole32:ole32.dll
 0003:00002b70       __imp__StgOpenStorageOnILockBytes@24 5f5b3b70     ole32:ole32.dll
 0003:00002b74       __imp__CreateILockBytesOnHGlobal@12 5f5b3b74     ole32:ole32.dll
 0003:00002b78       __imp__StgCreateDocfileOnILockBytes@16 5f5b3b78     ole32:ole32.dll
 0003:00002b7c       __imp__OleSave@12          5f5b3b7c     ole32:ole32.dll
 0003:00002b80       __imp__OleLoad@16          5f5b3b80     ole32:ole32.dll
 0003:00002b84       __imp__OleCreate@28        5f5b3b84     ole32:ole32.dll
 0003:00002b88       __imp__OleCreateLinkToFile@28 5f5b3b88     ole32:ole32.dll
 0003:00002b8c       __imp__OleCreateFromFile@32 5f5b3b8c     ole32:ole32.dll
 0003:00002b90       __imp__OleCreateStaticFromData@28 5f5b3b90     ole32:ole32.dll
 0003:00002b94       __imp__OleCreateLinkFromData@28 5f5b3b94     ole32:ole32.dll
 0003:00002b98       __imp__OleCreateFromData@28 5f5b3b98     ole32:ole32.dll
 0003:00002b9c       __imp__OleSetContainedObject@8 5f5b3b9c     ole32:ole32.dll
 0003:00002ba0       __imp__StringFromCLSID@8   5f5b3ba0     ole32:ole32.dll
 0003:00002ba4       __imp__CoTaskMemFree@4     5f5b3ba4     ole32:ole32.dll
 0003:00002ba8       __imp__OleLockRunning@12   5f5b3ba8     ole32:ole32.dll
 0003:00002bac       __imp__CoFreeUnusedLibraries@0 5f5b3bac     ole32:ole32.dll
 0003:00002bb0       __imp__OleUninitialize@0   5f5b3bb0     ole32:ole32.dll
 0003:00002bb4       __imp__OleInitialize@4     5f5b3bb4     ole32:ole32.dll
 0003:00002bb8       __imp__OleFlushClipboard@0 5f5b3bb8     ole32:ole32.dll
 0003:00002bbc       __imp__DoDragDrop@16       5f5b3bbc     ole32:ole32.dll
 0003:00002bc0       __imp__RegisterDragDrop@8  5f5b3bc0     ole32:ole32.dll
 0003:00002bc4       __imp__OleCreateMenuDescriptor@8 5f5b3bc4     ole32:ole32.dll
 0003:00002bc8       \177ole32_NULL_THUNK_DATA_DLA 5f5b3bc8     ole32:ole32.dll
 0003:00002bcc       __imp__OleUIInsertObjectA@4 5f5b3bcc     oledlg:oledlg.dll
 0003:00002bd0       __imp__OleUIUpdateLinksA@16 5f5b3bd0     oledlg:oledlg.dll
 0003:00002bd4       __imp__OleUIPasteSpecialA@4 5f5b3bd4     oledlg:oledlg.dll
 0003:00002bd8       __imp__OleUIBusyA@4        5f5b3bd8     oledlg:oledlg.dll
 0003:00002bdc       __imp__OleUIObjectPropertiesA@4 5f5b3bdc     oledlg:oledlg.dll
 0003:00002be0       __imp__OleUIChangeSourceA@4 5f5b3be0     oledlg:oledlg.dll
 0003:00002be4       __imp__OleUIAddVerbMenuA@36 5f5b3be4     oledlg:oledlg.dll
 0003:00002be8       __imp__OleUIEditLinksA@4   5f5b3be8     oledlg:oledlg.dll
 0003:00002bec       __imp__OleUIChangeIconA@4  5f5b3bec     oledlg:oledlg.dll
 0003:00002bf0       __imp__OleUIConvertA@4     5f5b3bf0     oledlg:oledlg.dll
 0003:00002bf4       \177oledlg_NULL_THUNK_DATA_DLA 5f5b3bf4     oledlg:oledlg.dll
 0003:00002bf8       __imp__IsAsyncMoniker@4    5f5b3bf8     urlmon:urlmon.dll
 0003:00002bfc       __imp__RegisterBindStatusCallback@16 5f5b3bfc     urlmon:urlmon.dll
 0003:00002c00       __imp__CreateAsyncBindCtx@16 5f5b3c00     urlmon:urlmon.dll
 0003:00002c04       __imp__CreateURLMoniker@12 5f5b3c04     urlmon:urlmon.dll
 0003:00002c08       \177urlmon_NULL_THUNK_DATA_DLA 5f5b3c08     urlmon:urlmon.dll
 0003:00002c10       ?ATL_CREATE_OBJECT@CComApartment@ATL@@2IA 5f5b3c10     dllole.obj
 0003:00002c18       ?m_libid@CComModule@ATL@@2U_GUID@@A 5f5b3c18     dllole.obj
 0003:00002c28       ?_pModule@ATL@@3PAVCComModule@1@A 5f5b3c28     dllole.obj
 0003:00003cd8       ?_afxOleWinApp@@3VCWinApp@@A 5f5b4cd8     dllole.obj
 0003:00003da0       ?_afxInitOleDllState@@3V_AFX_INIT_OLE_DLL_STATE@@A 5f5b4da0     dllole.obj
 0003:00003da4       ?_afxTickInit@@3HA         5f5b4da4     oleinit.obj
 0003:00003da8       ?_oleData@@3UOLE_DATA@@A   5f5b4da8     oleinit.obj
 0003:00003de8       ?_afxOleState@@3V?$CProcessLocal@V_AFX_OLE_STATE@@@@A 5f5b4de8     oledata.obj
 0003:00003dec       ?_init_CDocItem@@3UAFX_CLASSINIT@@A 5f5b4dec     oledoc1.obj
 0003:00003df4       ?nDragDelay@COleDropSource@@1IA 5f5b4df4     oledrop1.obj
 0003:00003df8       ?nDragMinDist@COleDropSource@@1IA 5f5b4df8     oledrop1.obj
 0003:00003e00       ?nScrollInterval@COleDropTarget@@1IA 5f5b4e00     oledrop2.obj
 0003:00003e04       ?nScrollDelay@COleDropTarget@@1IA 5f5b4e04     oledrop2.obj
 0003:00003e08       ?nScrollInset@COleDropTarget@@1HA 5f5b4e08     oledrop2.obj
 0003:00003edc       ?_init_CRichEditCntrItem@@3UAFX_CLASSINIT@@A 5f5b4edc     viewrich.obj
 0003:00003ee0       ?_afxMsgFindReplace2@@3IB  5f5b4ee0     viewrich.obj
 0003:00003ee4       ?_afxOccManager@@3V?$CProcessLocal@VCOccManager@@@@A 5f5b4ee4     occmgr.obj
 0003:00003f38       ?_afxLargeZero@@3T_LARGE_INTEGER@@A 5f5b4f38     ctlpset.obj
 0003:00003f40       ?_afxAmbientCache@@3V?$CThreadLocal@V_AFXCTL_AMBIENT_CACHE@@@@A 5f5b4f40     ctlquick.obj
 0003:00003f50       ?factory@CColorPropPage@@1VCColorPropPageFactory@1@A 5f5b4f50     ppgcolor.obj
 0003:00003f9c       ?hPal@@3PAUHPALETTE__@@A   5f5b4f9c     ppgcolor.obj
 0003:00003fa0       ?idClicked@CColorButton@@2IA 5f5b4fa0     ppgcolor.obj
 0003:00003fb0       ?factory@CFontPropPage@@1VCFontPropPageFactory@1@A 5f5b4fb0     ppgfont.obj
 0003:00004008       ?factory@CPicturePropPage@@1VCPicturePropPageFactory@1@A 5f5b5008     ppgpict.obj
 0003:00004058       __hmod__OLEPRO32           5f5b5058     olepro32:OLEPRO32.DLL
 0003:0000405c       __hmod__ADVAPI32           5f5b505c     advapi32:ADVAPI32.dll
 0003:00004060       __hmod__OLE32              5f5b5060     ole32:ole32.dll
 0003:00004064       __hmod__OLEAUT32           5f5b5064     oleaut32:OLEAUT32.dll
 0003:00004068       __hmod__OLEDLG             5f5b5068     oledlg:oledlg.dll
 0003:0000406c       __hmod__URLMON             5f5b506c     urlmon:urlmon.dll
 0003:00004070       __hmod__SHELL32            5f5b5070     shell32:SHELL32.dll
 0003:00004074       ___puiHead                 5f5b5074     delayimp:delayhlp.obj
 0003:00004078       ___pfnDliFailureHook       5f5b5078     delayimp:delayhk1.obj
 0003:0000407c       ___pfnDliNotifyHook        5f5b507c     delayimp:delayhk2.obj
 0003:00004080       __adjust_fdiv              5f5b5080     <common>
 0003:00004084       ___onexitend               5f5b5084     <common>
 0003:00004088       ___onexitbegin             5f5b5088     <common>

 entry point at        0001:0004ba80

 Static symbols

 0001:0004911b       _$E376                     5f54a11b f   ppgpict.obj
 0001:0004912a       _$E372                     5f54a12a f   ppgpict.obj
 0001:0004914a       _$E375                     5f54a14a f   ppgpict.obj
 0001:0004915c       _$E373                     5f54a15c f   ppgpict.obj
 0001:00047c12       _$E376                     5f548c12 f   ppgfont.obj
 0001:00047c21       _$E372                     5f548c21 f   ppgfont.obj
 0001:00047c41       _$E375                     5f548c41 f   ppgfont.obj
 0001:00047c53       _$E373                     5f548c53 f   ppgfont.obj
 0001:00045171       _$E376                     5f546171 f   ppgcolor.obj
 0001:00045180       _$E372                     5f546180 f   ppgcolor.obj
 0001:000451a0       _$E375                     5f5461a0 f   ppgcolor.obj
 0001:000451b2       _$E373                     5f5461b2 f   ppgcolor.obj
 0001:000428a0       _$E375                     5f5438a0 f   ctlquick.obj
 0001:000428af       _$E372                     5f5438af f   ctlquick.obj
 0001:000428b4       _$E374                     5f5438b4 f   ctlquick.obj
 0001:000428c6       _$E373                     5f5438c6 f   ctlquick.obj
 0001:0003102b       _$E373                     5f53202b f   ctlppg.obj
 0001:00034c0a       _$E375                     5f535c0a f   ctlppg.obj
 0001:0001aee7       ?HasChildStyle@@YAHPAVCWnd@@@Z 5f51bee7 f   occdlg.obj
 0001:0001af09       ?TestStyle@@YAKPAVCWnd@@K@Z 5f51bf09 f   occdlg.obj
 0001:0001af20       ?IsControlParent@@YAHPAVCWnd@@@Z 5f51bf20 f   occdlg.obj
 0001:0001af36       ?TestExStyle@@YAKPAVCWnd@@K@Z 5f51bf36 f   occdlg.obj
 0001:0001aaa1       ?DDX_OCPropertyRO@@YAXPAVCDataExchange@@HJGPAX@Z 5f51baa1 f   occddx.obj
 0001:0000c780       _$E383                     5f50d780 f   occmgr.obj
 0001:0000c78f       _$E380                     5f50d78f f   occmgr.obj
 0001:0000c794       _$E382                     5f50d794 f   occmgr.obj
 0001:0000c7a6       _$E381                     5f50d7a6 f   occmgr.obj
 0001:0000c8e9       ?IsDialogEx@@YAHPBUDLGTEMPLATE@@@Z 5f50d8e9 f   occmgr.obj
 0001:0000cb63       ?DlgTemplateItemCount@@YAABGPBUDLGTEMPLATE@@@Z 5f50db63 f   occmgr.obj
 0001:0000ce03       ?DlgTemplateItemCount@@YAAAGPAUDLGTEMPLATE@@@Z 5f50de03 f   occmgr.obj
 0001:0004ce61       _$E373                     5f54de61 f   viewrich.obj
 0001:0004ce6b       _$E372                     5f54de6b f   viewrich.obj
 0001:00053e9f       _$E376                     5f554e9f f   viewrich.obj
 0001:00053ea9       _$E375                     5f554ea9 f   viewrich.obj
 0001:000535f8       _$E373                     5f5545f8 f   oledoc1.obj
 0001:00053602       _$E372                     5f554602 f   oledoc1.obj
 0001:000534cb       _$E375                     5f5544cb f   oledata.obj
 0001:000534da       _$E372                     5f5544da f   oledata.obj
 0001:000534df       _$E374                     5f5544df f   oledata.obj
 0001:000534f1       _$E373                     5f5544f1 f   oledata.obj
 0001:00055536       ?AfxGetIconInfo@@YAXPBDPADAAI@Z 5f556536 f   olecli1.obj
 0001:00052830       _$E373                     5f553830 f   oleinit.obj
 0001:0005283a       _$E372                     5f55383a f   oleinit.obj
 0001:000526dd       _$E375                     5f5536dd f   dllole.obj
 0001:000526ec       _$E372                     5f5536ec f   dllole.obj
 0001:000526fd       _$E374                     5f5536fd f   dllole.obj
 0001:0005270f       _$E373                     5f55370f f   dllole.obj
 0001:000527a2       _$E380                     5f5537a2 f   dllole.obj
 0001:000527b1       _$E377                     5f5537b1 f   dllole.obj
 0001:000527ce       _$E379                     5f5537ce f   dllole.obj
 0001:000527e0       _$E378                     5f5537e0 f   dllole.obj
 0001:000527ef       _$E385                     5f5537ef f   dllole.obj
 0001:000527fe       _$E382                     5f5537fe f   dllole.obj
 0001:00052803       _$E384                     5f553803 f   dllole.obj
 0001:00052815       _$E383                     5f553815 f   dllole.obj
 0001:00087800       ?_AfxForceVectorDelete@@YAXXZ 5f588800 f   dllole.obj
 0001:0004b860       _$$$00001                  5f54c860 f   msvcrtd:chkstk.obj
 0001:0004b86c       probepages                 5f54c86c f   msvcrtd:chkstk.obj
 0001:0004b880       lastpage                   5f54c880 f   msvcrtd:chkstk.obj
 0001:0004b7c0       ?ArrayUnwindFilter@@YAHPAU_EXCEPTION_POINTERS@@@Z 5f54c7c0 f   msvcrtd:ehvecdtr.obj
 0001:0004cc1b       ?OverlayIAT@@YGXPAU_IMAGE_THUNK_DATA32@@PBU1@@Z 5f54dc1b f   delayimp:delayhlp.obj

 5087 bytes saved through ICF

